EXPORTS
??0Annotation@Poppler@@IAE@AAVAnnotationPrivate@1@@Z
??0Annotation@Poppler@@IAE@AAVAnnotationPrivate@1@ABVQDomNode@@@Z
??0BaseConverter@Poppler@@IAE@AAVBaseConverterPrivate@1@@Z
??0CaretAnnotation@Poppler@@QAE@ABVQDomNode@@@Z
??0CaretAnnotation@Poppler@@QAE@XZ
??0Document@Poppler@@AAE@PAVDocumentData@1@@Z
??0EmbeddedFile@Poppler@@QAE@PAVEmbFile@@@Z
??0FileAttachmentAnnotation@Poppler@@QAE@ABVQDomNode@@@Z
??0FileAttachmentAnnotation@Poppler@@QAE@XZ
??0FontInfo@Poppler@@QAE@ABV01@@Z
??0FontInfo@Poppler@@QAE@ABVFontInfoData@1@@Z
??0FontInfo@Poppler@@QAE@XZ
??0FormField@Poppler@@IAE@AAVFormFieldData@1@@Z
??0FormFieldButton@Poppler@@QAE@PAVDocumentData@1@PAVPage@@PAVFormWidgetButton@@@Z
??0FormFieldChoice@Poppler@@QAE@PAVDocumentData@1@PAVPage@@PAVFormWidgetChoice@@@Z
??0FormFieldText@Poppler@@QAE@PAVDocumentData@1@PAVPage@@PAVFormWidgetText@@@Z
??0GeomAnnotation@Poppler@@QAE@ABVQDomNode@@@Z
??0GeomAnnotation@Poppler@@QAE@XZ
??0HighlightAnnotation@Poppler@@QAE@ABVQDomNode@@@Z
??0HighlightAnnotation@Poppler@@QAE@XZ
??0InkAnnotation@Poppler@@QAE@ABVQDomNode@@@Z
??0InkAnnotation@Poppler@@QAE@XZ
??0LineAnnotation@Poppler@@QAE@ABVQDomNode@@@Z
??0LineAnnotation@Poppler@@QAE@XZ
??0Link@Poppler@@IAE@AAVLinkPrivate@1@@Z
??0Link@Poppler@@QAE@ABVQRectF@@@Z
??0LinkAction@Poppler@@QAE@ABVQRectF@@W4ActionType@01@@Z
??0LinkAnnotation@Poppler@@QAE@ABVQDomNode@@@Z
??0LinkAnnotation@Poppler@@QAE@XZ
??0LinkBrowse@Poppler@@QAE@ABVQRectF@@ABVQString@@@Z
??0LinkDestination@Poppler@@QAE@ABV01@@Z
??0LinkDestination@Poppler@@QAE@ABVLinkDestinationData@1@@Z
??0LinkDestination@Poppler@@QAE@ABVQString@@@Z
??0LinkExecute@Poppler@@QAE@ABVQRectF@@ABVQString@@1@Z
??0LinkGoto@Poppler@@QAE@ABVQRectF@@VQString@@ABVLinkDestination@1@@Z
??0LinkJavaScript@Poppler@@QAE@ABVQRectF@@ABVQString@@@Z
??0LinkSound@Poppler@@QAE@ABVQRectF@@N_N11PAVSoundObject@1@@Z
??0MovieAnnotation@Poppler@@QAE@ABVQDomNode@@@Z
??0MovieAnnotation@Poppler@@QAE@XZ
??0MovieObject@Poppler@@AAE@PAVAnnotMovie@@@Z
??0OptContentModel@Poppler@@AAE@PAVOCGs@@PAVQObject@@@Z
??0PDFConverter@Poppler@@AAE@PAVDocumentData@1@@Z
??0PSConverter@Poppler@@AAE@PAVDocumentData@1@@Z
??0Page@Poppler@@AAE@PAVDocumentData@1@H@Z
??0PageTransition@Poppler@@QAE@ABV01@@Z
??0PageTransition@Poppler@@QAE@ABVPageTransitionParams@1@@Z
??0SoundAnnotation@Poppler@@QAE@ABVQDomNode@@@Z
??0SoundAnnotation@Poppler@@QAE@XZ
??0SoundObject@Poppler@@QAE@PAVSound@@@Z
??0StampAnnotation@Poppler@@QAE@ABVQDomNode@@@Z
??0StampAnnotation@Poppler@@QAE@XZ
??0TextAnnotation@Poppler@@QAE@ABVQDomNode@@@Z
??0TextAnnotation@Poppler@@QAE@XZ
??0TextBox@Poppler@@QAE@ABVQString@@ABVQRectF@@@Z
??1Annotation@Poppler@@UAE@XZ
??1BaseConverter@Poppler@@UAE@XZ
??1CaretAnnotation@Poppler@@UAE@XZ
??1Document@Poppler@@QAE@XZ
??1EmbeddedFile@Poppler@@QAE@XZ
??1FileAttachmentAnnotation@Poppler@@UAE@XZ
??1FontInfo@Poppler@@QAE@XZ
??1FormField@Poppler@@UAE@XZ
??1FormFieldButton@Poppler@@UAE@XZ
??1FormFieldChoice@Poppler@@UAE@XZ
??1FormFieldText@Poppler@@UAE@XZ
??1GeomAnnotation@Poppler@@UAE@XZ
??1HighlightAnnotation@Poppler@@UAE@XZ
??1InkAnnotation@Poppler@@UAE@XZ
??1LineAnnotation@Poppler@@UAE@XZ
??1Link@Poppler@@UAE@XZ
??1LinkAction@Poppler@@UAE@XZ
??1LinkAnnotation@Poppler@@UAE@XZ
??1LinkBrowse@Poppler@@UAE@XZ
??1LinkDestination@Poppler@@QAE@XZ
??1LinkExecute@Poppler@@UAE@XZ
??1LinkGoto@Poppler@@UAE@XZ
??1LinkJavaScript@Poppler@@UAE@XZ
??1LinkSound@Poppler@@UAE@XZ
??1MovieAnnotation@Poppler@@UAE@XZ
??1MovieObject@Poppler@@QAE@XZ
??1OptContentModel@Poppler@@UAE@XZ
??1PDFConverter@Poppler@@UAE@XZ
??1PSConverter@Poppler@@UAE@XZ
??1Page@Poppler@@QAE@XZ
??1PageTransition@Poppler@@QAE@XZ
??1SoundAnnotation@Poppler@@UAE@XZ
??1SoundObject@Poppler@@QAE@XZ
??1StampAnnotation@Poppler@@UAE@XZ
??1TextAnnotation@Poppler@@UAE@XZ
??1TextBox@Poppler@@QAE@XZ
??4AnnotationUtils@Poppler@@QAEAAV01@ABV01@@Z
??4FontInfo@Poppler@@QAEAAV01@ABV01@@Z
??4LinkDestination@Poppler@@QAEAAV01@ABV01@@Z
??4PageTransition@Poppler@@QAEAAV01@ABV01@@Z
??_7Annotation@Poppler@@6B@
??_7BaseConverter@Poppler@@6B@
??_7CaretAnnotation@Poppler@@6B@
??_7FileAttachmentAnnotation@Poppler@@6B@
??_7FormField@Poppler@@6B@
??_7FormFieldButton@Poppler@@6B@
??_7FormFieldChoice@Poppler@@6B@
??_7FormFieldText@Poppler@@6B@
??_7GeomAnnotation@Poppler@@6B@
??_7HighlightAnnotation@Poppler@@6B@
??_7InkAnnotation@Poppler@@6B@
??_7LineAnnotation@Poppler@@6B@
??_7Link@Poppler@@6B@
??_7LinkAction@Poppler@@6B@
??_7LinkAnnotation@Poppler@@6B@
??_7LinkBrowse@Poppler@@6B@
??_7LinkExecute@Poppler@@6B@
??_7LinkGoto@Poppler@@6B@
??_7LinkJavaScript@Poppler@@6B@
??_7LinkSound@Poppler@@6B@
??_7MovieAnnotation@Poppler@@6B@
??_7OptContentModel@Poppler@@6B@
??_7PDFConverter@Poppler@@6B@
??_7PSConverter@Poppler@@6B@
??_7SoundAnnotation@Poppler@@6B@
??_7StampAnnotation@Poppler@@6B@
??_7TextAnnotation@Poppler@@6B@
?action@Page@Poppler@@QBEPAVLink@2@W4PageAction@12@@Z
?actionType@LinkAction@Poppler@@QBE?AW4ActionType@12@XZ
?activationAction@FormField@Poppler@@QBEPAVLink@2@XZ
?alignment@PageTransition@Poppler@@QBE?AW4Alignment@12@XZ
?angle@PageTransition@Poppler@@QBEHXZ
?annotations@Page@Poppler@@QBE?AV?$QList@PAVAnnotation@Poppler@@@@XZ
?author@Annotation@Poppler@@QBE?AVQString@@XZ
?availableRenderBackends@Document@Poppler@@SA?AV?$QSet@W4RenderBackend@Document@Poppler@@@@XZ
?bitsPerSample@SoundObject@Poppler@@QBEHXZ
?bottom@LinkDestination@Poppler@@QBENXZ
?boundary@Annotation@Poppler@@QBE?AVQRectF@@XZ
?boundingBox@TextBox@Poppler@@QBE?AVQRectF@@XZ
?buttonType@FormFieldButton@Poppler@@QBE?AW4ButtonType@12@XZ
?calloutPoint@TextAnnotation@Poppler@@QBE?AVQPointF@@H@Z
?canBeSpellChecked@FormFieldChoice@Poppler@@QBE_NXZ
?canBeSpellChecked@FormFieldText@Poppler@@QBE_NXZ
?caption@FormFieldButton@Poppler@@QBE?AVQString@@XZ
?caretSymbol@CaretAnnotation@Poppler@@QBE?AW4CaretSymbol@12@XZ
?channels@SoundObject@Poppler@@QBEHXZ
?charBoundingBox@TextBox@Poppler@@QBE?AVQRectF@@H@Z
?checksum@EmbeddedFile@Poppler@@QBE?AVQByteArray@@XZ
?choiceType@FormFieldChoice@Poppler@@QBE?AW4ChoiceType@12@XZ
?choices@FormFieldChoice@Poppler@@QBE?AVQStringList@@XZ
?columnCount@OptContentModel@Poppler@@UBEHABVQModelIndex@@@Z
?contents@Annotation@Poppler@@QBE?AVQString@@XZ
?convert@PDFConverter@Poppler@@UAE_NXZ
?convert@PSConverter@Poppler@@UAE_NXZ
?convertDate@Poppler@@YA?AVQDateTime@@PAD@Z
?createAnnotation@AnnotationUtils@Poppler@@SAPAVAnnotation@2@ABVQDomElement@@@Z
?createDate@EmbeddedFile@Poppler@@QBE?AVQDateTime@@XZ
?creationDate@Annotation@Poppler@@QBE?AVQDateTime@@XZ
?currentChoices@FormFieldChoice@Poppler@@QBE?AV?$QList@H@@XZ
?d_func@Annotation@Poppler@@IAEPAVAnnotationPrivate@2@XZ
?d_func@Annotation@Poppler@@IBEPBVAnnotationPrivate@2@XZ
?d_func@BaseConverter@Poppler@@IAEPAVBaseConverterPrivate@2@XZ
?d_func@BaseConverter@Poppler@@IBEPBVBaseConverterPrivate@2@XZ
?d_func@CaretAnnotation@Poppler@@AAEPAVCaretAnnotationPrivate@2@XZ
?d_func@CaretAnnotation@Poppler@@ABEPBVCaretAnnotationPrivate@2@XZ
?d_func@FileAttachmentAnnotation@Poppler@@AAEPAVFileAttachmentAnnotationPrivate@2@XZ
?d_func@FileAttachmentAnnotation@Poppler@@ABEPBVFileAttachmentAnnotationPrivate@2@XZ
?d_func@GeomAnnotation@Poppler@@AAEPAVGeomAnnotationPrivate@2@XZ
?d_func@GeomAnnotation@Poppler@@ABEPBVGeomAnnotationPrivate@2@XZ
?d_func@HighlightAnnotation@Poppler@@AAEPAVHighlightAnnotationPrivate@2@XZ
?d_func@HighlightAnnotation@Poppler@@ABEPBVHighlightAnnotationPrivate@2@XZ
?d_func@InkAnnotation@Poppler@@AAEPAVInkAnnotationPrivate@2@XZ
?d_func@InkAnnotation@Poppler@@ABEPBVInkAnnotationPrivate@2@XZ
?d_func@LineAnnotation@Poppler@@AAEPAVLineAnnotationPrivate@2@XZ
?d_func@LineAnnotation@Poppler@@ABEPBVLineAnnotationPrivate@2@XZ
?d_func@Link@Poppler@@IAEPAVLinkPrivate@2@XZ
?d_func@Link@Poppler@@IBEPBVLinkPrivate@2@XZ
?d_func@LinkAction@Poppler@@AAEPAVLinkActionPrivate@2@XZ
?d_func@LinkAction@Poppler@@ABEPBVLinkActionPrivate@2@XZ
?d_func@LinkAnnotation@Poppler@@AAEPAVLinkAnnotationPrivate@2@XZ
?d_func@LinkAnnotation@Poppler@@ABEPBVLinkAnnotationPrivate@2@XZ
?d_func@LinkBrowse@Poppler@@AAEPAVLinkBrowsePrivate@2@XZ
?d_func@LinkBrowse@Poppler@@ABEPBVLinkBrowsePrivate@2@XZ
?d_func@LinkExecute@Poppler@@AAEPAVLinkExecutePrivate@2@XZ
?d_func@LinkExecute@Poppler@@ABEPBVLinkExecutePrivate@2@XZ
?d_func@LinkGoto@Poppler@@AAEPAVLinkGotoPrivate@2@XZ
?d_func@LinkGoto@Poppler@@ABEPBVLinkGotoPrivate@2@XZ
?d_func@LinkJavaScript@Poppler@@AAEPAVLinkJavaScriptPrivate@2@XZ
?d_func@LinkJavaScript@Poppler@@ABEPBVLinkJavaScriptPrivate@2@XZ
?d_func@LinkSound@Poppler@@AAEPAVLinkSoundPrivate@2@XZ
?d_func@LinkSound@Poppler@@ABEPBVLinkSoundPrivate@2@XZ
?d_func@MovieAnnotation@Poppler@@AAEPAVMovieAnnotationPrivate@2@XZ
?d_func@MovieAnnotation@Poppler@@ABEPBVMovieAnnotationPrivate@2@XZ
?d_func@PDFConverter@Poppler@@AAEPAVPDFConverterPrivate@2@XZ
?d_func@PDFConverter@Poppler@@ABEPBVPDFConverterPrivate@2@XZ
?d_func@PSConverter@Poppler@@AAEPAVPSConverterPrivate@2@XZ
?d_func@PSConverter@Poppler@@ABEPBVPSConverterPrivate@2@XZ
?d_func@SoundAnnotation@Poppler@@AAEPAVSoundAnnotationPrivate@2@XZ
?d_func@SoundAnnotation@Poppler@@ABEPBVSoundAnnotationPrivate@2@XZ
?d_func@StampAnnotation@Poppler@@AAEPAVStampAnnotationPrivate@2@XZ
?d_func@StampAnnotation@Poppler@@ABEPBVStampAnnotationPrivate@2@XZ
?d_func@TextAnnotation@Poppler@@AAEPAVTextAnnotationPrivate@2@XZ
?d_func@TextAnnotation@Poppler@@ABEPBVTextAnnotationPrivate@2@XZ
?data@EmbeddedFile@Poppler@@QAE?AVQByteArray@@XZ
?data@OptContentModel@Poppler@@UBE?AVQVariant@@ABVQModelIndex@@H@Z
?data@SoundObject@Poppler@@QBE?AVQByteArray@@XZ
?date@Document@Poppler@@QBE?AVQDateTime@@ABVQString@@@Z
?defaultCTM@Page@Poppler@@QAEXPANNNH_N@Z
?description@EmbeddedFile@Poppler@@QBE?AVQString@@XZ
?destination@LinkGoto@Poppler@@QBE?AVLinkDestination@2@XZ
?direction@PageTransition@Poppler@@QBE?AW4Direction@12@XZ
?duration@Page@Poppler@@QBENXZ
?duration@PageTransition@Poppler@@QBEHXZ
?embeddedFile@FileAttachmentAnnotation@Poppler@@QBEPAVEmbeddedFile@2@XZ
?embeddedFiles@Document@Poppler@@QBE?AV?$QList@PAVEmbeddedFile@Poppler@@@@XZ
?file@FontInfo@Poppler@@QBE?AVQString@@XZ
?fileIconName@FileAttachmentAnnotation@Poppler@@QBE?AVQString@@XZ
?fileName@LinkExecute@Poppler@@QBE?AVQString@@XZ
?fileName@LinkGoto@Poppler@@QBE?AVQString@@XZ
?findChildElement@AnnotationUtils@Poppler@@SA?AVQDomElement@@ABVQDomNode@@ABVQString@@@Z
?flags@Annotation@Poppler@@QBEHXZ
?flags@OptContentModel@Poppler@@UBE?AV?$QFlags@W4ItemFlag@Qt@@@@ABVQModelIndex@@@Z
?fontData@Document@Poppler@@QBE?AVQByteArray@@ABVFontInfo@2@@Z
?fonts@Document@Poppler@@QBE?AV?$QList@VFontInfo@Poppler@@@@XZ
?formFields@Page@Poppler@@QBE?AV?$QList@PAVFormField@Poppler@@@@XZ
?geomInnerColor@GeomAnnotation@Poppler@@QBE?AVQColor@@XZ
?geomPointWidth@GeomAnnotation@Poppler@@QBEHXZ
?geomType@GeomAnnotation@Poppler@@QBE?AW4GeomType@12@XZ
?hasEmbeddedFiles@Document@Poppler@@QBE_NXZ
?hasOptionalContent@Document@Poppler@@QBE_NXZ
?hasSpaceAfter@TextBox@Poppler@@QBE_NXZ
?headerData@OptContentModel@Poppler@@UBE?AVQVariant@@HW4Orientation@Qt@@H@Z
?highlightQuads@HighlightAnnotation@Poppler@@QBE?AV?$QList@UQuad@HighlightAnnotation@Poppler@@@@XZ
?highlightType@HighlightAnnotation@Poppler@@QBE?AW4HighlightType@12@XZ
?id@FormField@Poppler@@QBEHXZ
?index@OptContentModel@Poppler@@UBE?AVQModelIndex@@HHABV3@@Z
?info@Document@Poppler@@QBE?AVQString@@ABV3@@Z
?infoKeys@Document@Poppler@@QBE?AVQStringList@@XZ
?inkPaths@InkAnnotation@Poppler@@QBE?AV?$QList@V?$QLinkedList@VQPointF@@@@@@XZ
?inplaceAlign@TextAnnotation@Poppler@@QBEHXZ
?inplaceIntent@TextAnnotation@Poppler@@QBE?AW4InplaceIntent@12@XZ
?inplaceText@TextAnnotation@Poppler@@QBE?AVQString@@XZ
?isChangeLeft@LinkDestination@Poppler@@QBE_NXZ
?isChangeTop@LinkDestination@Poppler@@QBE_NXZ
?isChangeZoom@LinkDestination@Poppler@@QBE_NXZ
?isEditable@FormFieldChoice@Poppler@@QBE_NXZ
?isEmbedded@FontInfo@Poppler@@QBE_NXZ
?isEncrypted@Document@Poppler@@QBE_NXZ
?isExternal@LinkGoto@Poppler@@QBE_NXZ
?isLineClosed@LineAnnotation@Poppler@@QBE_NXZ
?isLinearized@Document@Poppler@@QBE_NXZ
?isLocked@Document@Poppler@@QBE_NXZ
?isPassword@FormFieldText@Poppler@@QBE_NXZ
?isReadOnly@FormField@Poppler@@QBE_NXZ
?isRectangular@PageTransition@Poppler@@QBE_NXZ
?isRichText@FormFieldText@Poppler@@QBE_NXZ
?isSubset@FontInfo@Poppler@@QBE_NXZ
?isVisible@FormField@Poppler@@QBE_NXZ
?kind@LinkDestination@Poppler@@QBE?AW4Kind@12@XZ
?label@Page@Poppler@@QBE?AVQString@@XZ
?left@LinkDestination@Poppler@@QBENXZ
?lineEndStyle@LineAnnotation@Poppler@@QBE?AW4TermStyle@12@XZ
?lineInnerColor@LineAnnotation@Poppler@@QBE?AVQColor@@XZ
?lineIntent@LineAnnotation@Poppler@@QBE?AW4LineIntent@12@XZ
?lineLeadingBackPoint@LineAnnotation@Poppler@@QBENXZ
?lineLeadingForwardPoint@LineAnnotation@Poppler@@QBENXZ
?linePoints@LineAnnotation@Poppler@@QBE?AV?$QLinkedList@VQPointF@@@@XZ
?lineShowCaption@LineAnnotation@Poppler@@QBE_NXZ
?lineStartStyle@LineAnnotation@Poppler@@QBE?AW4TermStyle@12@XZ
?linkArea@Link@Poppler@@QBE?AVQRectF@@XZ
?linkDestination@Document@Poppler@@QAEPAVLinkDestination@2@ABVQString@@@Z
?linkDestionation@LinkAnnotation@Poppler@@QBEPAVLink@2@XZ
?linkHighlightMode@LinkAnnotation@Poppler@@QBE?AW4HighlightMode@12@XZ
?linkRegionPoint@LinkAnnotation@Poppler@@QBE?AVQPointF@@H@Z
?linkType@Link@Poppler@@UBE?AW4LinkType@12@XZ
?linkType@LinkAction@Poppler@@UBE?AW4LinkType@Link@2@XZ
?linkType@LinkBrowse@Poppler@@UBE?AW4LinkType@Link@2@XZ
?linkType@LinkExecute@Poppler@@UBE?AW4LinkType@Link@2@XZ
?linkType@LinkGoto@Poppler@@UBE?AW4LinkType@Link@2@XZ
?linkType@LinkJavaScript@Poppler@@UBE?AW4LinkType@Link@2@XZ
?linkType@LinkSound@Poppler@@UBE?AW4LinkType@Link@2@XZ
?links@Page@Poppler@@QBE?AV?$QList@PAVLink@Poppler@@@@XZ
?load@Document@Poppler@@SAPAV12@ABVQString@@ABVQByteArray@@1@Z
?loadFromData@Document@Poppler@@SAPAV12@ABVQByteArray@@00@Z
?maximumLength@FormFieldText@Poppler@@QBEHXZ
?metaObject@OptContentModel@Poppler@@UBEPBUQMetaObject@@XZ
?metadata@Document@Poppler@@QBE?AVQString@@XZ
?mimeType@EmbeddedFile@Poppler@@QBE?AVQString@@XZ
?mix@LinkSound@Poppler@@QBE_NXZ
?modDate@EmbeddedFile@Poppler@@QBE?AVQDateTime@@XZ
?modificationDate@Annotation@Poppler@@QBE?AVQDateTime@@XZ
?movie@MovieAnnotation@Poppler@@QBEPAVMovieObject@2@XZ
?movieTitle@MovieAnnotation@Poppler@@QBE?AVQString@@XZ
?multiSelect@FormFieldChoice@Poppler@@QBE_NXZ
?name@EmbeddedFile@Poppler@@QBE?AVQString@@XZ
?name@FontInfo@Poppler@@QBE?AVQString@@XZ
?name@FormField@Poppler@@QBE?AVQString@@XZ
?nextWord@TextBox@Poppler@@QBEPAV12@XZ
?numPages@Document@Poppler@@QBEHXZ
?okToAddNotes@Document@Poppler@@QBE_NXZ
?okToAssemble@Document@Poppler@@QBE_NXZ
?okToChange@Document@Poppler@@QBE_NXZ
?okToCopy@Document@Poppler@@QBE_NXZ
?okToCreateFormFields@Document@Poppler@@QBE_NXZ
?okToExtractForAccessibility@Document@Poppler@@QBE_NXZ
?okToFillForm@Document@Poppler@@QBE_NXZ
?okToPrint@Document@Poppler@@QBE_NXZ
?okToPrintHighRes@Document@Poppler@@QBE_NXZ
?optionalContentModel@Document@Poppler@@QAEPAVOptContentModel@2@XZ
?orientation@Page@Poppler@@QBE?AW4Orientation@12@XZ
?page@Document@Poppler@@QBEPAVPage@2@ABVQString@@@Z
?page@Document@Poppler@@QBEPAVPage@2@H@Z
?pageLayout@Document@Poppler@@QBE?AW4PageLayout@12@XZ
?pageMode@Document@Poppler@@QBE?AW4PageMode@12@XZ
?pageNumber@LinkDestination@Poppler@@QBEHXZ
?pageSize@Page@Poppler@@QBE?AVQSize@@XZ
?pageSizeF@Page@Poppler@@QBE?AVQSizeF@@XZ
?paperColor@Document@Poppler@@QBE?AVQColor@@XZ
?parameters@LinkExecute@Poppler@@QBE?AVQString@@XZ
?parent@OptContentModel@Poppler@@UBE?AVQModelIndex@@ABV3@@Z
?pdfConverter@Document@Poppler@@QBEPAVPDFConverter@2@XZ
?pdfOptions@PDFConverter@Poppler@@QBE?AV?$QFlags@W4PDFOption@PDFConverter@Poppler@@@@XZ
?pdfVersion@Document@Poppler@@QBENXZ
?playMode@MovieObject@Poppler@@QBE?AW4PlayMode@12@XZ
?psConverter@Document@Poppler@@QBEPAVPSConverter@2@XZ
?psOptions@PSConverter@Poppler@@QBE?AV?$QFlags@W4PSOption@PSConverter@Poppler@@@@XZ
?qt_metacall@OptContentModel@Poppler@@UAEHW4Call@QMetaObject@@HPAPAX@Z
?qt_metacast@OptContentModel@Poppler@@UAEPAXPBD@Z
?rect@FormField@Poppler@@QBE?AVQRectF@@XZ
?renderBackend@Document@Poppler@@QBE?AW4RenderBackend@12@XZ
?renderHints@Document@Poppler@@QBE?AV?$QFlags@W4RenderHint@Document@Poppler@@@@XZ
?renderToImage@Page@Poppler@@QBE?AVQImage@@NNHHHHW4Rotation@12@@Z
?repeat@LinkSound@Poppler@@QBE_NXZ
?revisions@Annotation@Poppler@@QAEAAV?$QLinkedList@URevision@Annotation@Poppler@@@@XZ
?revisions@Annotation@Poppler@@QBEABV?$QLinkedList@URevision@Annotation@Poppler@@@@XZ
?right@LinkDestination@Poppler@@QBENXZ
?rotation@MovieObject@Poppler@@QBEHXZ
?rowCount@OptContentModel@Poppler@@UBEHABVQModelIndex@@@Z
?samplingRate@SoundObject@Poppler@@QBENXZ
?scale@PageTransition@Poppler@@QBENXZ
?scanForFonts@Document@Poppler@@QBE_NHPAV?$QList@VFontInfo@Poppler@@@@@Z
?script@LinkJavaScript@Poppler@@QBE?AVQString@@XZ
?scripts@Document@Poppler@@QBE?AVQStringList@@XZ
?search@Page@Poppler@@QBE_NABVQString@@AAVQRectF@@W4SearchDirection@12@W4SearchMode@12@W4Rotation@12@@Z
?setAuthor@Annotation@Poppler@@QAEXABVQString@@@Z
?setBottomMargin@PSConverter@Poppler@@QAEXH@Z
?setBoundary@Annotation@Poppler@@QAEXABVQRectF@@@Z
?setCalloutPoint@TextAnnotation@Poppler@@QAEXHABVQPointF@@@Z
?setCaretSymbol@CaretAnnotation@Poppler@@QAEXW4CaretSymbol@12@@Z
?setContents@Annotation@Poppler@@QAEXABVQString@@@Z
?setCreationDate@Annotation@Poppler@@QAEXABVQDateTime@@@Z
?setCurrentChoices@FormFieldChoice@Poppler@@QAEXABV?$QList@H@@@Z
?setData@OptContentModel@Poppler@@UAE_NABVQModelIndex@@ABVQVariant@@H@Z
?setEmbeddedFile@FileAttachmentAnnotation@Poppler@@QAEXPAVEmbeddedFile@2@@Z
?setFileIconName@FileAttachmentAnnotation@Poppler@@QAEXABVQString@@@Z
?setFlags@Annotation@Poppler@@QAEXH@Z
?setForceRasterize@PSConverter@Poppler@@QAEX_N@Z
?setGeomInnerColor@GeomAnnotation@Poppler@@QAEXABVQColor@@@Z
?setGeomPointWidth@GeomAnnotation@Poppler@@QAEXH@Z
?setGeomType@GeomAnnotation@Poppler@@QAEXW4GeomType@12@@Z
?setHDPI@PSConverter@Poppler@@QAEXN@Z
?setHighlightQuads@HighlightAnnotation@Poppler@@QAEXABV?$QList@UQuad@HighlightAnnotation@Poppler@@@@@Z
?setHighlightType@HighlightAnnotation@Poppler@@QAEXW4HighlightType@12@@Z
?setInkPaths@InkAnnotation@Poppler@@QAEXABV?$QList@V?$QLinkedList@VQPointF@@@@@@@Z
?setInplaceAlign@TextAnnotation@Poppler@@QAEXH@Z
?setInplaceIntent@TextAnnotation@Poppler@@QAEXW4InplaceIntent@12@@Z
?setInplaceText@TextAnnotation@Poppler@@QAEXABVQString@@@Z
?setLeftMargin@PSConverter@Poppler@@QAEXH@Z
?setLineClosed@LineAnnotation@Poppler@@QAEX_N@Z
?setLineEndStyle@LineAnnotation@Poppler@@QAEXW4TermStyle@12@@Z
?setLineInnerColor@LineAnnotation@Poppler@@QAEXABVQColor@@@Z
?setLineIntent@LineAnnotation@Poppler@@QAEXW4LineIntent@12@@Z
?setLineLeadingBackPoint@LineAnnotation@Poppler@@QAEXN@Z
?setLineLeadingForwardPoint@LineAnnotation@Poppler@@QAEXN@Z
?setLinePoints@LineAnnotation@Poppler@@QAEXABV?$QLinkedList@VQPointF@@@@@Z
?setLineShowCaption@LineAnnotation@Poppler@@QAEX_N@Z
?setLineStartStyle@LineAnnotation@Poppler@@QAEXW4TermStyle@12@@Z
?setLinkDestination@LinkAnnotation@Poppler@@QAEXPAVLink@2@@Z
?setLinkHighlightMode@LinkAnnotation@Poppler@@QAEXW4HighlightMode@12@@Z
?setLinkRegionPoint@LinkAnnotation@Poppler@@QAEXHABVQPointF@@@Z
?setModificationDate@Annotation@Poppler@@QAEXABVQDateTime@@@Z
?setMovie@MovieAnnotation@Poppler@@QAEXPAVMovieObject@2@@Z
?setMovieTitle@MovieAnnotation@Poppler@@QAEXABVQString@@@Z
?setOutputDevice@BaseConverter@Poppler@@QAEXPAVQIODevice@@@Z
?setOutputFileName@BaseConverter@Poppler@@QAEXABVQString@@@Z
?setPDFOptions@PDFConverter@Poppler@@QAEXV?$QFlags@W4PDFOption@PDFConverter@Poppler@@@@@Z
?setPSOptions@PSConverter@Poppler@@QAEXV?$QFlags@W4PSOption@PSConverter@Poppler@@@@@Z
?setPageList@PSConverter@Poppler@@QAEXABV?$QList@H@@@Z
?setPaperColor@Document@Poppler@@QAEXABVQColor@@@Z
?setPaperHeight@PSConverter@Poppler@@QAEXH@Z
?setPaperWidth@PSConverter@Poppler@@QAEXH@Z
?setRenderBackend@Document@Poppler@@QAEXW4RenderBackend@12@@Z
?setRenderHint@Document@Poppler@@QAEXW4RenderHint@12@_N@Z
?setRightMargin@PSConverter@Poppler@@QAEXH@Z
?setRotate@PSConverter@Poppler@@QAEXH@Z
?setSound@SoundAnnotation@Poppler@@QAEXPAVSoundObject@2@@Z
?setSoundIconName@SoundAnnotation@Poppler@@QAEXABVQString@@@Z
?setStampIconName@StampAnnotation@Poppler@@QAEXABVQString@@@Z
?setState@FormFieldButton@Poppler@@QAEX_N@Z
?setStrictMargins@PSConverter@Poppler@@QAEX_N@Z
?setText@FormFieldText@Poppler@@QAEXABVQString@@@Z
?setTextFont@TextAnnotation@Poppler@@QAEXABVQFont@@@Z
?setTextIcon@TextAnnotation@Poppler@@QAEXABVQString@@@Z
?setTextType@TextAnnotation@Poppler@@QAEXW4TextType@12@@Z
?setTitle@PSConverter@Poppler@@QAEXABVQString@@@Z
?setTopMargin@PSConverter@Poppler@@QAEXH@Z
?setUniqueName@Annotation@Poppler@@QAEXABVQString@@@Z
?setVDPI@PSConverter@Poppler@@QAEXN@Z
?showControls@MovieObject@Poppler@@QBE_NXZ
?siblings@FormFieldButton@Poppler@@QBE?AV?$QList@H@@XZ
?size@EmbeddedFile@Poppler@@QBEHXZ
?size@MovieObject@Poppler@@QBE?AVQSize@@XZ
?sound@LinkSound@Poppler@@QBEPAVSoundObject@2@XZ
?sound@SoundAnnotation@Poppler@@QBEPAVSoundObject@2@XZ
?soundEncoding@SoundObject@Poppler@@QBE?AW4SoundEncoding@12@XZ
?soundIconName@SoundAnnotation@Poppler@@QBE?AVQString@@XZ
?soundType@SoundObject@Poppler@@QBE?AW4SoundType@12@XZ
?stampIconName@StampAnnotation@Poppler@@QBE?AVQString@@XZ
?state@FormFieldButton@Poppler@@QBE_NXZ
?staticMetaObject@OptContentModel@Poppler@@2UQMetaObject@@B
?store@Annotation@Poppler@@UBEXAAVQDomNode@@AAVQDomDocument@@@Z
?store@CaretAnnotation@Poppler@@UBEXAAVQDomNode@@AAVQDomDocument@@@Z
?store@FileAttachmentAnnotation@Poppler@@UBEXAAVQDomNode@@AAVQDomDocument@@@Z
?store@GeomAnnotation@Poppler@@UBEXAAVQDomNode@@AAVQDomDocument@@@Z
?store@HighlightAnnotation@Poppler@@UBEXAAVQDomNode@@AAVQDomDocument@@@Z
?store@InkAnnotation@Poppler@@UBEXAAVQDomNode@@AAVQDomDocument@@@Z
?store@LineAnnotation@Poppler@@UBEXAAVQDomNode@@AAVQDomDocument@@@Z
?store@LinkAnnotation@Poppler@@UBEXAAVQDomNode@@AAVQDomDocument@@@Z
?store@MovieAnnotation@Poppler@@UBEXAAVQDomNode@@AAVQDomDocument@@@Z
?store@SoundAnnotation@Poppler@@UBEXAAVQDomNode@@AAVQDomDocument@@@Z
?store@StampAnnotation@Poppler@@UBEXAAVQDomNode@@AAVQDomDocument@@@Z
?store@TextAnnotation@Poppler@@UBEXAAVQDomNode@@AAVQDomDocument@@@Z
?storeAnnotation@AnnotationUtils@Poppler@@SAXPBVAnnotation@2@AAVQDomElement@@AAVQDomDocument@@@Z
?subType@CaretAnnotation@Poppler@@UBE?AW4SubType@Annotation@2@XZ
?subType@FileAttachmentAnnotation@Poppler@@UBE?AW4SubType@Annotation@2@XZ
?subType@GeomAnnotation@Poppler@@UBE?AW4SubType@Annotation@2@XZ
?subType@HighlightAnnotation@Poppler@@UBE?AW4SubType@Annotation@2@XZ
?subType@InkAnnotation@Poppler@@UBE?AW4SubType@Annotation@2@XZ
?subType@LineAnnotation@Poppler@@UBE?AW4SubType@Annotation@2@XZ
?subType@LinkAnnotation@Poppler@@UBE?AW4SubType@Annotation@2@XZ
?subType@MovieAnnotation@Poppler@@UBE?AW4SubType@Annotation@2@XZ
?subType@SoundAnnotation@Poppler@@UBE?AW4SubType@Annotation@2@XZ
?subType@StampAnnotation@Poppler@@UBE?AW4SubType@Annotation@2@XZ
?subType@TextAnnotation@Poppler@@UBE?AW4SubType@Annotation@2@XZ
?synchronous@LinkSound@Poppler@@QBE_NXZ
?text@FormFieldText@Poppler@@QBE?AVQString@@XZ
?text@Page@Poppler@@QBE?AVQString@@ABVQRectF@@@Z
?text@TextBox@Poppler@@QBE?AVQString@@XZ
?textAlignment@FormFieldChoice@Poppler@@QBE?AV?$QFlags@W4AlignmentFlag@Qt@@@@XZ
?textAlignment@FormFieldText@Poppler@@QBE?AV?$QFlags@W4AlignmentFlag@Qt@@@@XZ
?textFont@TextAnnotation@Poppler@@QBE?AVQFont@@XZ
?textIcon@TextAnnotation@Poppler@@QBE?AVQString@@XZ
?textList@Page@Poppler@@QBE?AV?$QList@PAVTextBox@Poppler@@@@W4Rotation@12@@Z
?textType@FormFieldText@Poppler@@QBE?AW4TextType@12@XZ
?textType@TextAnnotation@Poppler@@QBE?AW4TextType@12@XZ
?toString@LinkDestination@Poppler@@QBE?AVQString@@XZ
?toc@Document@Poppler@@QBEPAVQDomDocument@@XZ
?top@LinkDestination@Poppler@@QBENXZ
?tr@OptContentModel@Poppler@@SA?AVQString@@PBD0@Z
?tr@OptContentModel@Poppler@@SA?AVQString@@PBD0H@Z
?trUtf8@OptContentModel@Poppler@@SA?AVQString@@PBD0@Z
?trUtf8@OptContentModel@Poppler@@SA?AVQString@@PBD0H@Z
?transition@Page@Poppler@@QBEPAVPageTransition@2@XZ
?type@FontInfo@Poppler@@QBE?AW4Type@12@XZ
?type@FormFieldButton@Poppler@@UBE?AW4FormType@FormField@2@XZ
?type@FormFieldChoice@Poppler@@UBE?AW4FormType@FormField@2@XZ
?type@FormFieldText@Poppler@@UBE?AW4FormType@FormField@2@XZ
?type@PageTransition@Poppler@@QBE?AW4Type@12@XZ
?typeName@FontInfo@Poppler@@QBE?AVQString@@XZ
?uiName@FormField@Poppler@@QBE?AVQString@@XZ
?uniqueName@Annotation@Poppler@@QBE?AVQString@@XZ
?unlock@Document@Poppler@@QAE_NABVQByteArray@@0@Z
?url@LinkBrowse@Poppler@@QBE?AVQString@@XZ
?url@MovieObject@Poppler@@QBE?AVQString@@XZ
?url@SoundObject@Poppler@@QBE?AVQString@@XZ
?volume@LinkSound@Poppler@@QBENXZ
?zoom@LinkDestination@Poppler@@QBENXZ
