EXPORTS
??0?$QList@VQItemSelectionRange@@@@QAE@ABV0@@Z
??0?$QList@VQItemSelectionRange@@@@QAE@XZ
??0AttributeSelector@QCss@@QAE@ABU01@@Z
??0AttributeSelector@QCss@@QAE@XZ
??0BasicSelector@QCss@@QAE@ABU01@@Z
??0BasicSelector@QCss@@QAE@XZ
??0Declaration@QCss@@QAE@ABU01@@Z
??0Declaration@QCss@@QAE@XZ
??0ImportRule@QCss@@QAE@ABU01@@Z
??0ImportRule@QCss@@QAE@XZ
??0MediaRule@QCss@@QAE@ABU01@@Z
??0MediaRule@QCss@@QAE@XZ
??0PageRule@QCss@@QAE@ABU01@@Z
??0PageRule@QCss@@QAE@XZ
??0Parser@QCss@@QAE@ABV01@@Z
??0Parser@QCss@@QAE@ABVQString@@_N@Z
??0Parser@QCss@@QAE@XZ
??0Pseudo@QCss@@QAE@ABU01@@Z
??0Pseudo@QCss@@QAE@XZ
??0QAbstractButton@@IAE@AAVQAbstractButtonPrivate@@PAVQWidget@@@Z
??0QAbstractButton@@QAE@ABV0@@Z
??0QAbstractButton@@QAE@PAVQWidget@@@Z
??0QAbstractButton@@QAE@PAVQWidget@@PBDV?$QFlags@W4WindowType@Qt@@@@@Z
??0QAbstractGraphicsShapeItem@@IAE@AAVQAbstractGraphicsShapeItemPrivate@@PAVQGraphicsItem@@PAVQGraphicsScene@@@Z
??0QAbstractGraphicsShapeItem@@QAE@ABV0@@Z
??0QAbstractGraphicsShapeItem@@QAE@PAVQGraphicsItem@@PAVQGraphicsScene@@@Z
??0QAbstractItemDelegate@@IAE@AAVQObjectPrivate@@PAVQObject@@@Z
??0QAbstractItemDelegate@@QAE@ABV0@@Z
??0QAbstractItemDelegate@@QAE@PAVQObject@@@Z
??0QAbstractItemView@@IAE@AAVQAbstractItemViewPrivate@@PAVQWidget@@@Z
??0QAbstractItemView@@QAE@ABV0@@Z
??0QAbstractItemView@@QAE@PAVQWidget@@@Z
??0QAbstractItemViewPrivate@@QAE@ABV0@@Z
??0QAbstractItemViewPrivate@@QAE@XZ
??0QAbstractPageSetupDialog@@QAE@AAVQAbstractPageSetupDialogPrivate@@PAVQPrinter@@PAVQWidget@@@Z
??0QAbstractPageSetupDialog@@QAE@ABV0@@Z
??0QAbstractPageSetupDialog@@QAE@PAVQPrinter@@PAVQWidget@@@Z
??0QAbstractPrintDialog@@IAE@AAVQAbstractPrintDialogPrivate@@PAVQPrinter@@PAVQWidget@@@Z
??0QAbstractPrintDialog@@QAE@ABV0@@Z
??0QAbstractPrintDialog@@QAE@PAVQPrinter@@PAVQWidget@@@Z
??0QAbstractProxyModel@@IAE@AAVQAbstractProxyModelPrivate@@PAVQObject@@@Z
??0QAbstractProxyModel@@QAE@ABV0@@Z
??0QAbstractProxyModel@@QAE@PAVQObject@@@Z
??0QAbstractScrollArea@@IAE@AAVQAbstractScrollAreaPrivate@@PAVQWidget@@@Z
??0QAbstractScrollArea@@QAE@ABV0@@Z
??0QAbstractScrollArea@@QAE@PAVQWidget@@@Z
??0QAbstractSlider@@IAE@AAVQAbstractSliderPrivate@@PAVQWidget@@@Z
??0QAbstractSlider@@QAE@ABV0@@Z
??0QAbstractSlider@@QAE@PAVQWidget@@@Z
??0QAbstractSpinBox@@IAE@AAVQAbstractSpinBoxPrivate@@PAVQWidget@@@Z
??0QAbstractSpinBox@@QAE@ABV0@@Z
??0QAbstractSpinBox@@QAE@PAVQWidget@@@Z
??0QAbstractTextDocumentLayout@@IAE@AAVQAbstractTextDocumentLayoutPrivate@@PAVQTextDocument@@@Z
??0QAbstractTextDocumentLayout@@QAE@ABV0@@Z
??0QAbstractTextDocumentLayout@@QAE@PAVQTextDocument@@@Z
??0QAbstractUndoItem@@QAE@ABV0@@Z
??0QAbstractUndoItem@@QAE@XZ
??0QAccessible2Interface@@QAE@ABV0@@Z
??0QAccessible2Interface@@QAE@XZ
??0QAccessibleApplication@@QAE@ABV0@@Z
??0QAccessibleApplication@@QAE@XZ
??0QAccessibleEditableTextInterface@@QAE@ABV0@@Z
??0QAccessibleEditableTextInterface@@QAE@XZ
??0QAccessibleEvent@@QAE@ABV0@@Z
??0QAccessibleEvent@@QAE@W4Type@QEvent@@H@Z
??0QAccessibleFactoryInterface@@QAE@ABU0@@Z
??0QAccessibleFactoryInterface@@QAE@XZ
??0QAccessibleInterface@@QAE@ABV0@@Z
??0QAccessibleInterface@@QAE@XZ
??0QAccessibleInterfaceEx@@QAE@ABV0@@Z
??0QAccessibleInterfaceEx@@QAE@XZ
??0QAccessibleObject@@QAE@ABV0@@Z
??0QAccessibleObject@@QAE@PAVQObject@@@Z
??0QAccessibleObjectEx@@QAE@ABV0@@Z
??0QAccessibleObjectEx@@QAE@PAVQObject@@@Z
??0QAccessiblePlugin@@QAE@ABV0@@Z
??0QAccessiblePlugin@@QAE@PAVQObject@@@Z
??0QAccessibleSimpleEditableTextInterface@@QAE@ABV0@@Z
??0QAccessibleSimpleEditableTextInterface@@QAE@PAVQAccessibleInterface@@@Z
??0QAccessibleTableInterface@@QAE@ABV0@@Z
??0QAccessibleTableInterface@@QAE@XZ
??0QAccessibleTextInterface@@QAE@ABV0@@Z
??0QAccessibleTextInterface@@QAE@XZ
??0QAccessibleValueInterface@@QAE@ABV0@@Z
??0QAccessibleValueInterface@@QAE@XZ
??0QAccessibleWidget@@QAE@ABV0@@Z
??0QAccessibleWidget@@QAE@PAVQWidget@@W4Role@QAccessible@@ABVQString@@@Z
??0QAccessibleWidgetEx@@QAE@ABV0@@Z
??0QAccessibleWidgetEx@@QAE@PAVQWidget@@W4Role@QAccessible@@ABVQString@@@Z
??0QAction@@IAE@AAVQActionPrivate@@PAVQObject@@@Z
??0QAction@@QAE@ABV0@@Z
??0QAction@@QAE@ABVQIcon@@ABVQString@@ABVQKeySequence@@PAVQObject@@PBD@Z
??0QAction@@QAE@ABVQIcon@@ABVQString@@PAVQObject@@@Z
??0QAction@@QAE@ABVQString@@ABVQKeySequence@@PAVQObject@@PBD@Z
??0QAction@@QAE@ABVQString@@PAVQObject@@@Z
??0QAction@@QAE@PAVQObject@@@Z
??0QAction@@QAE@PAVQObject@@PBD@Z
??0QActionEvent@@QAE@ABV0@@Z
??0QActionEvent@@QAE@HPAVQAction@@0@Z
??0QActionGroup@@QAE@ABV0@@Z
??0QActionGroup@@QAE@PAVQObject@@@Z
??0QApplication@@QAE@AAHPAPAD@Z
??0QApplication@@QAE@AAHPAPADH@Z
??0QApplication@@QAE@AAHPAPADW4Type@0@@Z
??0QApplication@@QAE@AAHPAPADW4Type@0@H@Z
??0QApplication@@QAE@AAHPAPAD_N@Z
??0QApplication@@QAE@AAHPAPAD_NH@Z
??0QApplication@@QAE@ABV0@@Z
??0QApplicationPrivate@@QAE@AAHPAPADW4Type@QApplication@@@Z
??0QApplicationPrivate@@QAE@ABV0@@Z
??0QBitmap@@QAE@ABV0@@Z
??0QBitmap@@QAE@ABVQImage@@@Z
??0QBitmap@@QAE@ABVQPixmap@@@Z
??0QBitmap@@QAE@ABVQSize@@@Z
??0QBitmap@@QAE@ABVQSize@@PBE_N@Z
??0QBitmap@@QAE@ABVQSize@@_N@Z
??0QBitmap@@QAE@ABVQString@@PBD@Z
??0QBitmap@@QAE@HH@Z
??0QBitmap@@QAE@HHPBE_N@Z
??0QBitmap@@QAE@HH_N@Z
??0QBitmap@@QAE@XZ
??0QBoxLayout@@QAE@ABV0@@Z
??0QBoxLayout@@QAE@PAVQLayout@@W4Direction@0@HPBD@Z
??0QBoxLayout@@QAE@PAVQWidget@@W4Direction@0@HHPBD@Z
??0QBoxLayout@@QAE@W4Direction@0@HPBD@Z
??0QBoxLayout@@QAE@W4Direction@0@PAVQWidget@@@Z
??0QBrush@@QAE@ABV0@@Z
??0QBrush@@QAE@ABVQColor@@ABVQPixmap@@@Z
??0QBrush@@QAE@ABVQColor@@W4BrushStyle@Qt@@@Z
??0QBrush@@QAE@ABVQGradient@@@Z
??0QBrush@@QAE@ABVQImage@@@Z
??0QBrush@@QAE@ABVQPixmap@@@Z
??0QBrush@@QAE@W4BrushStyle@Qt@@@Z
??0QBrush@@QAE@W4GlobalColor@Qt@@ABVQPixmap@@@Z
??0QBrush@@QAE@W4GlobalColor@Qt@@W4BrushStyle@2@@Z
??0QBrush@@QAE@XZ
??0QButtonGroup@@QAE@ABV0@@Z
??0QButtonGroup@@QAE@PAVQObject@@@Z
??0QCDEStyle@@QAE@ABV0@@Z
??0QCDEStyle@@QAE@_N@Z
??0QCalendarWidget@@QAE@ABV0@@Z
??0QCalendarWidget@@QAE@PAVQWidget@@@Z
??0QCheckBox@@QAE@ABV0@@Z
??0QCheckBox@@QAE@ABVQString@@PAVQWidget@@@Z
??0QCheckBox@@QAE@ABVQString@@PAVQWidget@@PBD@Z
??0QCheckBox@@QAE@PAVQWidget@@@Z
??0QCheckBox@@QAE@PAVQWidget@@PBD@Z
??0QCleanlooksStyle@@QAE@ABV0@@Z
??0QCleanlooksStyle@@QAE@XZ
??0QClipboard@@AAE@PAVQObject@@@Z
??0QClipboard@@QAE@ABV0@@Z
??0QClipboardEvent@@QAE@ABV0@@Z
??0QClipboardEvent@@QAE@PAVQEventPrivate@@@Z
??0QCloseEvent@@QAE@ABV0@@Z
??0QCloseEvent@@QAE@XZ
??0QColor@@QAE@ABV0@@Z
??0QColor@@QAE@ABVQString@@@Z
??0QColor@@QAE@HHHH@Z
??0QColor@@QAE@HHHW4Spec@0@@Z
??0QColor@@QAE@I@Z
??0QColor@@QAE@PBD@Z
??0QColor@@QAE@W4GlobalColor@Qt@@@Z
??0QColor@@QAE@W4Spec@0@@Z
??0QColor@@QAE@XZ
??0QColorDialog@@AAE@PAVQWidget@@_N@Z
??0QColorDialog@@QAE@ABV0@@Z
??0QColorGroup@@QAE@ABV0@@Z
??0QColorGroup@@QAE@ABVQBrush@@00000000@Z
??0QColorGroup@@QAE@ABVQColor@@000000@Z
??0QColorGroup@@QAE@ABVQPalette@@@Z
??0QColorGroup@@QAE@XZ
??0QColormap@@AAE@XZ
??0QColormap@@QAE@ABV0@@Z
??0QColumnView@@IAE@AAVQColumnViewPrivate@@PAVQWidget@@@Z
??0QColumnView@@QAE@ABV0@@Z
??0QColumnView@@QAE@PAVQWidget@@@Z
??0QComboBox@@IAE@AAVQComboBoxPrivate@@PAVQWidget@@@Z
??0QComboBox@@QAE@ABV0@@Z
??0QComboBox@@QAE@PAVQWidget@@@Z
??0QComboBox@@QAE@PAVQWidget@@PBD@Z
??0QComboBox@@QAE@_NPAVQWidget@@PBD@Z
??0QCommandLinkButton@@QAE@ABV0@@Z
??0QCommandLinkButton@@QAE@ABVQString@@0PAVQWidget@@@Z
??0QCommandLinkButton@@QAE@ABVQString@@PAVQWidget@@@Z
??0QCommandLinkButton@@QAE@PAVQWidget@@@Z
??0QCommonStyle@@IAE@AAVQCommonStylePrivate@@@Z
??0QCommonStyle@@QAE@ABV0@@Z
??0QCommonStyle@@QAE@XZ
??0QCompleter@@QAE@ABV0@@Z
??0QCompleter@@QAE@ABVQStringList@@PAVQObject@@@Z
??0QCompleter@@QAE@PAVQAbstractItemModel@@PAVQObject@@@Z
??0QCompleter@@QAE@PAVQObject@@@Z
??0QConicalGradient@@QAE@ABV0@@Z
??0QConicalGradient@@QAE@ABVQPointF@@N@Z
??0QConicalGradient@@QAE@NNN@Z
??0QConicalGradient@@QAE@XZ
??0QContextMenuEvent@@QAE@ABV0@@Z
??0QContextMenuEvent@@QAE@W4Reason@0@ABVQPoint@@1@Z
??0QContextMenuEvent@@QAE@W4Reason@0@ABVQPoint@@1H@Z
??0QContextMenuEvent@@QAE@W4Reason@0@ABVQPoint@@1V?$QFlags@W4KeyboardModifier@Qt@@@@@Z
??0QContextMenuEvent@@QAE@W4Reason@0@ABVQPoint@@@Z
??0QContextMenuEvent@@QAE@W4Reason@0@ABVQPoint@@H@Z
??0QCursor@@QAE@ABV0@@Z
??0QCursor@@QAE@ABVQBitmap@@0HH@Z
??0QCursor@@QAE@ABVQPixmap@@HH@Z
??0QCursor@@QAE@PAUHICON__@@@Z
??0QCursor@@QAE@W4CursorShape@Qt@@@Z
??0QCursor@@QAE@XZ
??0QDashStroker@@QAE@ABV0@@Z
??0QDashStroker@@QAE@PAVQStroker@@@Z
??0QDataWidgetMapper@@QAE@ABV0@@Z
??0QDataWidgetMapper@@QAE@PAVQObject@@@Z
??0QDateEdit@@QAE@ABV0@@Z
??0QDateEdit@@QAE@ABVQDate@@PAVQWidget@@@Z
??0QDateEdit@@QAE@PAVQWidget@@@Z
??0QDateTimeEdit@@IAE@ABVQVariant@@W4Type@1@PAVQWidget@@@Z
??0QDateTimeEdit@@QAE@ABV0@@Z
??0QDateTimeEdit@@QAE@ABVQDate@@PAVQWidget@@@Z
??0QDateTimeEdit@@QAE@ABVQDateTime@@PAVQWidget@@@Z
??0QDateTimeEdit@@QAE@ABVQTime@@PAVQWidget@@@Z
??0QDateTimeEdit@@QAE@PAVQWidget@@@Z
??0QDesktopWidget@@QAE@ABV0@@Z
??0QDesktopWidget@@QAE@XZ
??0QDial@@QAE@ABV0@@Z
??0QDial@@QAE@HHHHPAVQWidget@@PBD@Z
??0QDial@@QAE@PAVQWidget@@@Z
??0QDial@@QAE@PAVQWidget@@PBD@Z
??0QDialog@@IAE@AAVQDialogPrivate@@PAVQWidget@@V?$QFlags@W4WindowType@Qt@@@@@Z
??0QDialog@@QAE@ABV0@@Z
??0QDialog@@QAE@PAVQWidget@@PBD_NV?$QFlags@W4WindowType@Qt@@@@@Z
??0QDialog@@QAE@PAVQWidget@@V?$QFlags@W4WindowType@Qt@@@@@Z
??0QDialogButtonBox@@QAE@ABV0@@Z
??0QDialogButtonBox@@QAE@PAVQWidget@@@Z
??0QDialogButtonBox@@QAE@V?$QFlags@W4StandardButton@QDialogButtonBox@@@@W4Orientation@Qt@@PAVQWidget@@@Z
??0QDialogButtonBox@@QAE@W4Orientation@Qt@@PAVQWidget@@@Z
??0QDirModel@@IAE@AAVQDirModelPrivate@@PAVQObject@@@Z
??0QDirModel@@QAE@ABV0@@Z
??0QDirModel@@QAE@ABVQStringList@@V?$QFlags@W4Filter@QDir@@@@V?$QFlags@W4SortFlag@QDir@@@@PAVQObject@@@Z
??0QDirModel@@QAE@PAVQObject@@@Z
??0QDockWidget@@QAE@ABV0@@Z
??0QDockWidget@@QAE@ABVQString@@PAVQWidget@@V?$QFlags@W4WindowType@Qt@@@@@Z
??0QDockWidget@@QAE@PAVQWidget@@V?$QFlags@W4WindowType@Qt@@@@@Z
??0QDockWidgetLayout@@QAE@ABV0@@Z
??0QDockWidgetLayout@@QAE@PAVQWidget@@@Z
??0QDoubleSpinBox@@QAE@ABV0@@Z
??0QDoubleSpinBox@@QAE@PAVQWidget@@@Z
??0QDoubleValidator@@QAE@ABV0@@Z
??0QDoubleValidator@@QAE@NNHPAVQObject@@@Z
??0QDoubleValidator@@QAE@NNHPAVQObject@@PBD@Z
??0QDoubleValidator@@QAE@PAVQObject@@@Z
??0QDoubleValidator@@QAE@PAVQObject@@PBD@Z
??0QDrag@@QAE@ABV0@@Z
??0QDrag@@QAE@PAVQWidget@@@Z
??0QDragEnterEvent@@QAE@ABV0@@Z
??0QDragEnterEvent@@QAE@ABVQPoint@@V?$QFlags@W4DropAction@Qt@@@@PBVQMimeData@@V?$QFlags@W4MouseButton@Qt@@@@V?$QFlags@W4KeyboardModifier@Qt@@@@@Z
??0QDragLeaveEvent@@QAE@ABV0@@Z
??0QDragLeaveEvent@@QAE@XZ
??0QDragManager@@AAE@XZ
??0QDragManager@@QAE@ABV0@@Z
??0QDragMoveEvent@@QAE@ABV0@@Z
??0QDragMoveEvent@@QAE@ABVQPoint@@V?$QFlags@W4DropAction@Qt@@@@PBVQMimeData@@V?$QFlags@W4MouseButton@Qt@@@@V?$QFlags@W4KeyboardModifier@Qt@@@@W4Type@QEvent@@@Z
??0QDragResponseEvent@@QAE@ABV0@@Z
??0QDragResponseEvent@@QAE@_N@Z
??0QDropEvent@@QAE@ABV0@@Z
??0QDropEvent@@QAE@ABVQPoint@@V?$QFlags@W4DropAction@Qt@@@@PBVQMimeData@@V?$QFlags@W4MouseButton@Qt@@@@V?$QFlags@W4KeyboardModifier@Qt@@@@W4Type@QEvent@@@Z
??0QErrorMessage@@QAE@ABV0@@Z
??0QErrorMessage@@QAE@PAVQWidget@@@Z
??0QFileDialog@@IAE@ABUQFileDialogArgs@@@Z
??0QFileDialog@@QAE@ABV0@@Z
??0QFileDialog@@QAE@PAVQWidget@@ABVQString@@11@Z
??0QFileDialog@@QAE@PAVQWidget@@V?$QFlags@W4WindowType@Qt@@@@@Z
??0QFileIconProvider@@QAE@ABV0@@Z
??0QFileIconProvider@@QAE@XZ
??0QFileOpenEvent@@QAE@ABV0@@Z
??0QFileOpenEvent@@QAE@ABVQString@@@Z
??0QFileSystemModel@@IAE@AAVQFileSystemModelPrivate@@PAVQObject@@@Z
??0QFileSystemModel@@QAE@ABV0@@Z
??0QFileSystemModel@@QAE@PAVQObject@@@Z
??0QFocusEvent@@QAE@ABV0@@Z
??0QFocusEvent@@QAE@W4Type@QEvent@@W4FocusReason@Qt@@@Z
??0QFocusFrame@@QAE@ABV0@@Z
??0QFocusFrame@@QAE@PAVQWidget@@@Z
??0QFont@@AAE@PAVQFontPrivate@@@Z
??0QFont@@QAE@ABV0@@Z
??0QFont@@QAE@ABV0@PAVQPaintDevice@@@Z
??0QFont@@QAE@ABVQString@@HH_N@Z
??0QFont@@QAE@XZ
??0QFontComboBox@@QAE@ABV0@@Z
??0QFontComboBox@@QAE@PAVQWidget@@@Z
??0QFontDatabase@@QAE@XZ
??0QFontDialog@@AAE@PAVQWidget@@_NV?$QFlags@W4WindowType@Qt@@@@@Z
??0QFontDialog@@QAE@ABV0@@Z
??0QFontEngine@@QAE@ABV0@@Z
??0QFontEngine@@QAE@XZ
??0QFontEngineMulti@@QAE@ABV0@@Z
??0QFontEngineMulti@@QAE@H@Z
??0QFontInfo@@QAE@ABV0@@Z
??0QFontInfo@@QAE@ABVQFont@@@Z
??0QFontMetrics@@QAE@ABV0@@Z
??0QFontMetrics@@QAE@ABVQFont@@@Z
??0QFontMetrics@@QAE@ABVQFont@@PAVQPaintDevice@@@Z
??0QFontMetricsF@@QAE@ABV0@@Z
??0QFontMetricsF@@QAE@ABVQFont@@@Z
??0QFontMetricsF@@QAE@ABVQFont@@PAVQPaintDevice@@@Z
??0QFontMetricsF@@QAE@ABVQFontMetrics@@@Z
??0QFontPrivate@@QAE@ABV0@@Z
??0QFontPrivate@@QAE@XZ
??0QFormLayout@@QAE@ABV0@@Z
??0QFormLayout@@QAE@PAVQWidget@@@Z
??0QFrame@@IAE@AAVQFramePrivate@@PAVQWidget@@V?$QFlags@W4WindowType@Qt@@@@@Z
??0QFrame@@QAE@ABV0@@Z
??0QFrame@@QAE@PAVQWidget@@PBDV?$QFlags@W4WindowType@Qt@@@@@Z
??0QFrame@@QAE@PAVQWidget@@V?$QFlags@W4WindowType@Qt@@@@@Z
??0QFramePrivate@@QAE@ABV0@@Z
??0QFramePrivate@@QAE@XZ
??0QGradient@@QAE@ABV0@@Z
??0QGradient@@QAE@XZ
??0QGraphicsEllipseItem@@QAE@ABV0@@Z
??0QGraphicsEllipseItem@@QAE@ABVQRectF@@PAVQGraphicsItem@@PAVQGraphicsScene@@@Z
??0QGraphicsEllipseItem@@QAE@NNNNPAVQGraphicsItem@@PAVQGraphicsScene@@@Z
??0QGraphicsEllipseItem@@QAE@PAVQGraphicsItem@@PAVQGraphicsScene@@@Z
??0QGraphicsGridLayout@@QAE@ABV0@@Z
??0QGraphicsGridLayout@@QAE@PAVQGraphicsLayoutItem@@@Z
??0QGraphicsItem@@IAE@AAVQGraphicsItemPrivate@@PAV0@PAVQGraphicsScene@@@Z
??0QGraphicsItem@@QAE@ABV0@@Z
??0QGraphicsItem@@QAE@PAV0@PAVQGraphicsScene@@@Z
??0QGraphicsItemAnimation@@QAE@ABV0@@Z
??0QGraphicsItemAnimation@@QAE@PAVQObject@@@Z
??0QGraphicsItemGroup@@QAE@ABV0@@Z
??0QGraphicsItemGroup@@QAE@PAVQGraphicsItem@@PAVQGraphicsScene@@@Z
??0QGraphicsLayout@@IAE@AAVQGraphicsLayoutPrivate@@PAVQGraphicsLayoutItem@@@Z
??0QGraphicsLayout@@QAE@ABV0@@Z
??0QGraphicsLayout@@QAE@PAVQGraphicsLayoutItem@@@Z
??0QGraphicsLayoutItem@@IAE@AAVQGraphicsLayoutItemPrivate@@@Z
??0QGraphicsLayoutItem@@QAE@ABV0@@Z
??0QGraphicsLayoutItem@@QAE@PAV0@_N@Z
??0QGraphicsLineItem@@QAE@ABV0@@Z
??0QGraphicsLineItem@@QAE@ABVQLineF@@PAVQGraphicsItem@@PAVQGraphicsScene@@@Z
??0QGraphicsLineItem@@QAE@NNNNPAVQGraphicsItem@@PAVQGraphicsScene@@@Z
??0QGraphicsLineItem@@QAE@PAVQGraphicsItem@@PAVQGraphicsScene@@@Z
??0QGraphicsLinearLayout@@QAE@ABV0@@Z
??0QGraphicsLinearLayout@@QAE@PAVQGraphicsLayoutItem@@@Z
??0QGraphicsLinearLayout@@QAE@W4Orientation@Qt@@PAVQGraphicsLayoutItem@@@Z
??0QGraphicsPathItem@@QAE@ABV0@@Z
??0QGraphicsPathItem@@QAE@ABVQPainterPath@@PAVQGraphicsItem@@PAVQGraphicsScene@@@Z
??0QGraphicsPathItem@@QAE@PAVQGraphicsItem@@PAVQGraphicsScene@@@Z
??0QGraphicsPixmapItem@@QAE@ABV0@@Z
??0QGraphicsPixmapItem@@QAE@ABVQPixmap@@PAVQGraphicsItem@@PAVQGraphicsScene@@@Z
??0QGraphicsPixmapItem@@QAE@PAVQGraphicsItem@@PAVQGraphicsScene@@@Z
??0QGraphicsPolygonItem@@QAE@ABV0@@Z
??0QGraphicsPolygonItem@@QAE@ABVQPolygonF@@PAVQGraphicsItem@@PAVQGraphicsScene@@@Z
??0QGraphicsPolygonItem@@QAE@PAVQGraphicsItem@@PAVQGraphicsScene@@@Z
??0QGraphicsProxyWidget@@QAE@ABV0@@Z
??0QGraphicsProxyWidget@@QAE@PAVQGraphicsItem@@V?$QFlags@W4WindowType@Qt@@@@@Z
??0QGraphicsRectItem@@QAE@ABV0@@Z
??0QGraphicsRectItem@@QAE@ABVQRectF@@PAVQGraphicsItem@@PAVQGraphicsScene@@@Z
??0QGraphicsRectItem@@QAE@NNNNPAVQGraphicsItem@@PAVQGraphicsScene@@@Z
??0QGraphicsRectItem@@QAE@PAVQGraphicsItem@@PAVQGraphicsScene@@@Z
??0QGraphicsScene@@QAE@ABV0@@Z
??0QGraphicsScene@@QAE@ABVQRectF@@PAVQObject@@@Z
??0QGraphicsScene@@QAE@NNNNPAVQObject@@@Z
??0QGraphicsScene@@QAE@PAVQObject@@@Z
??0QGraphicsSceneContextMenuEvent@@QAE@ABV0@@Z
??0QGraphicsSceneContextMenuEvent@@QAE@W4Type@QEvent@@@Z
??0QGraphicsSceneDragDropEvent@@QAE@ABV0@@Z
??0QGraphicsSceneDragDropEvent@@QAE@W4Type@QEvent@@@Z
??0QGraphicsSceneEvent@@IAE@AAVQGraphicsSceneEventPrivate@@W4Type@QEvent@@@Z
??0QGraphicsSceneEvent@@QAE@ABV0@@Z
??0QGraphicsSceneEvent@@QAE@W4Type@QEvent@@@Z
??0QGraphicsSceneHelpEvent@@QAE@ABV0@@Z
??0QGraphicsSceneHelpEvent@@QAE@W4Type@QEvent@@@Z
??0QGraphicsSceneHoverEvent@@QAE@ABV0@@Z
??0QGraphicsSceneHoverEvent@@QAE@W4Type@QEvent@@@Z
??0QGraphicsSceneMouseEvent@@QAE@ABV0@@Z
??0QGraphicsSceneMouseEvent@@QAE@W4Type@QEvent@@@Z
??0QGraphicsSceneMoveEvent@@QAE@ABV0@@Z
??0QGraphicsSceneMoveEvent@@QAE@XZ
??0QGraphicsSceneResizeEvent@@QAE@ABV0@@Z
??0QGraphicsSceneResizeEvent@@QAE@XZ
??0QGraphicsSceneWheelEvent@@QAE@ABV0@@Z
??0QGraphicsSceneWheelEvent@@QAE@W4Type@QEvent@@@Z
??0QGraphicsSimpleTextItem@@QAE@ABV0@@Z
??0QGraphicsSimpleTextItem@@QAE@ABVQString@@PAVQGraphicsItem@@PAVQGraphicsScene@@@Z
??0QGraphicsSimpleTextItem@@QAE@PAVQGraphicsItem@@PAVQGraphicsScene@@@Z
??0QGraphicsTextItem@@QAE@ABV0@@Z
??0QGraphicsTextItem@@QAE@ABVQString@@PAVQGraphicsItem@@PAVQGraphicsScene@@@Z
??0QGraphicsTextItem@@QAE@PAVQGraphicsItem@@PAVQGraphicsScene@@@Z
??0QGraphicsView@@QAE@ABV0@@Z
??0QGraphicsView@@QAE@PAVQGraphicsScene@@PAVQWidget@@@Z
??0QGraphicsView@@QAE@PAVQWidget@@@Z
??0QGraphicsWidget@@IAE@AAVQGraphicsWidgetPrivate@@PAVQGraphicsItem@@PAVQGraphicsScene@@V?$QFlags@W4WindowType@Qt@@@@@Z
??0QGraphicsWidget@@QAE@ABV0@@Z
??0QGraphicsWidget@@QAE@PAVQGraphicsItem@@V?$QFlags@W4WindowType@Qt@@@@@Z
??0QGridLayout@@QAE@ABV0@@Z
??0QGridLayout@@QAE@HHHPBD@Z
??0QGridLayout@@QAE@PAVQLayout@@HHHPBD@Z
??0QGridLayout@@QAE@PAVQWidget@@@Z
??0QGridLayout@@QAE@PAVQWidget@@HHHHPBD@Z
??0QGridLayout@@QAE@XZ
??0QGroupBox@@QAE@ABV0@@Z
??0QGroupBox@@QAE@ABVQString@@PAVQWidget@@@Z
??0QGroupBox@@QAE@ABVQString@@PAVQWidget@@PBD@Z
??0QGroupBox@@QAE@PAVQWidget@@@Z
??0QGroupBox@@QAE@PAVQWidget@@PBD@Z
??0QHBoxLayout@@QAE@ABV0@@Z
??0QHBoxLayout@@QAE@HPBD@Z
??0QHBoxLayout@@QAE@PAVQLayout@@HPBD@Z
??0QHBoxLayout@@QAE@PAVQWidget@@@Z
??0QHBoxLayout@@QAE@PAVQWidget@@HHPBD@Z
??0QHBoxLayout@@QAE@XZ
??0QHeaderView@@IAE@AAVQHeaderViewPrivate@@W4Orientation@Qt@@PAVQWidget@@@Z
??0QHeaderView@@QAE@ABV0@@Z
??0QHeaderView@@QAE@W4Orientation@Qt@@PAVQWidget@@@Z
??0QHelpEvent@@QAE@ABV0@@Z
??0QHelpEvent@@QAE@W4Type@QEvent@@ABVQPoint@@1@Z
??0QHideEvent@@QAE@ABV0@@Z
??0QHideEvent@@QAE@XZ
??0QHoverEvent@@QAE@ABV0@@Z
??0QHoverEvent@@QAE@W4Type@QEvent@@ABVQPoint@@1@Z
??0QIcon@@QAE@ABV0@@Z
??0QIcon@@QAE@ABVQPixmap@@@Z
??0QIcon@@QAE@ABVQString@@@Z
??0QIcon@@QAE@PAVQIconEngine@@@Z
??0QIcon@@QAE@PAVQIconEngineV2@@@Z
??0QIcon@@QAE@XZ
??0QIconDragEvent@@QAE@ABV0@@Z
??0QIconDragEvent@@QAE@XZ
??0QIconEngine@@QAE@ABV0@@Z
??0QIconEngine@@QAE@XZ
??0QIconEngineFactoryInterface@@QAE@ABU0@@Z
??0QIconEngineFactoryInterface@@QAE@XZ
??0QIconEngineFactoryInterfaceV2@@QAE@ABU0@@Z
??0QIconEngineFactoryInterfaceV2@@QAE@XZ
??0QIconEnginePlugin@@QAE@ABV0@@Z
??0QIconEnginePlugin@@QAE@PAVQObject@@@Z
??0QIconEnginePluginV2@@QAE@ABV0@@Z
??0QIconEnginePluginV2@@QAE@PAVQObject@@@Z
??0QIconEngineV2@@QAE@ABV0@@Z
??0QIconEngineV2@@QAE@XZ
??0QImage@@QAE@ABV0@@Z
??0QImage@@QAE@ABVQByteArray@@@Z
??0QImage@@QAE@ABVQSize@@HHW4Endian@0@@Z
??0QImage@@QAE@ABVQSize@@W4Format@0@@Z
??0QImage@@QAE@ABVQString@@PBD@Z
??0QImage@@QAE@HHHHW4Endian@0@@Z
??0QImage@@QAE@HHW4Format@0@@Z
??0QImage@@QAE@PAEHHHPBIHW4Endian@0@@Z
??0QImage@@QAE@PAEHHHW4Format@0@@Z
??0QImage@@QAE@PAEHHW4Format@0@@Z
??0QImage@@QAE@PBD0@Z
??0QImage@@QAE@PBEHHHW4Format@0@@Z
??0QImage@@QAE@PBEHHW4Format@0@@Z
??0QImage@@QAE@QBQBD@Z
??0QImage@@QAE@XZ
??0QImageIOHandler@@IAE@AAVQImageIOHandlerPrivate@@@Z
??0QImageIOHandler@@QAE@ABV0@@Z
??0QImageIOHandler@@QAE@XZ
??0QImageIOHandlerFactoryInterface@@QAE@ABU0@@Z
??0QImageIOHandlerFactoryInterface@@QAE@XZ
??0QImageIOPlugin@@QAE@ABV0@@Z
??0QImageIOPlugin@@QAE@PAVQObject@@@Z
??0QImageReader@@QAE@ABVQString@@ABVQByteArray@@@Z
??0QImageReader@@QAE@PAVQIODevice@@ABVQByteArray@@@Z
??0QImageReader@@QAE@XZ
??0QImageTextKeyLang@@QAE@ABV0@@Z
??0QImageTextKeyLang@@QAE@PBD0@Z
??0QImageTextKeyLang@@QAE@XZ
??0QImageWriter@@QAE@ABVQString@@ABVQByteArray@@@Z
??0QImageWriter@@QAE@PAVQIODevice@@ABVQByteArray@@@Z
??0QImageWriter@@QAE@XZ
??0QInputContext@@QAE@PAVQObject@@@Z
??0QInputContextFactoryInterface@@QAE@ABU0@@Z
??0QInputContextFactoryInterface@@QAE@XZ
??0QInputContextPlugin@@QAE@ABV0@@Z
??0QInputContextPlugin@@QAE@PAVQObject@@@Z
??0QInputDialog@@AAE@ABVQString@@0PAVQWidget@@1V?$QFlags@W4WindowType@Qt@@@@@Z
??0QInputDialog@@AAE@ABVQString@@PAVQWidget@@W4Type@0@V?$QFlags@W4WindowType@Qt@@@@@Z
??0QInputDialog@@QAE@ABV0@@Z
??0QInputEvent@@QAE@ABV0@@Z
??0QInputEvent@@QAE@W4Type@QEvent@@V?$QFlags@W4KeyboardModifier@Qt@@@@@Z
??0QInputMethodEvent@@QAE@ABV0@@Z
??0QInputMethodEvent@@QAE@ABVQString@@ABV?$QList@VAttribute@QInputMethodEvent@@@@@Z
??0QInputMethodEvent@@QAE@XZ
??0QIntValidator@@QAE@ABV0@@Z
??0QIntValidator@@QAE@HHPAVQObject@@@Z
??0QIntValidator@@QAE@HHPAVQObject@@PBD@Z
??0QIntValidator@@QAE@PAVQObject@@@Z
??0QIntValidator@@QAE@PAVQObject@@PBD@Z
??0QItemDelegate@@QAE@ABV0@@Z
??0QItemDelegate@@QAE@PAVQObject@@@Z
??0QItemEditorCreatorBase@@QAE@ABV0@@Z
??0QItemEditorCreatorBase@@QAE@XZ
??0QItemEditorFactory@@QAE@ABV0@@Z
??0QItemEditorFactory@@QAE@XZ
??0QItemSelection@@QAE@ABV0@@Z
??0QItemSelection@@QAE@ABVQModelIndex@@0@Z
??0QItemSelection@@QAE@XZ
??0QItemSelectionModel@@IAE@AAVQItemSelectionModelPrivate@@PAVQAbstractItemModel@@@Z
??0QItemSelectionModel@@QAE@ABV0@@Z
??0QItemSelectionModel@@QAE@PAVQAbstractItemModel@@@Z
??0QItemSelectionModel@@QAE@PAVQAbstractItemModel@@PAVQObject@@@Z
??0QItemSelectionRange@@QAE@ABV0@@Z
??0QItemSelectionRange@@QAE@ABVQModelIndex@@0@Z
??0QItemSelectionRange@@QAE@ABVQModelIndex@@@Z
??0QItemSelectionRange@@QAE@XZ
??0QKeyEvent@@QAE@ABV0@@Z
??0QKeyEvent@@QAE@W4Type@QEvent@@HHHABVQString@@_NG@Z
??0QKeyEvent@@QAE@W4Type@QEvent@@HV?$QFlags@W4KeyboardModifier@Qt@@@@ABVQString@@_NG@Z
??0QKeyEventEx@@QAE@ABV0@@Z
??0QKeyEventEx@@QAE@W4Type@QEvent@@HV?$QFlags@W4KeyboardModifier@Qt@@@@ABVQString@@_NGIII@Z
??0QKeySequence@@QAE@ABV0@@Z
??0QKeySequence@@QAE@ABVQString@@@Z
??0QKeySequence@@QAE@HHHH@Z
??0QKeySequence@@QAE@W4StandardKey@0@@Z
??0QKeySequence@@QAE@XZ
??0QLCDNumber@@QAE@ABV0@@Z
??0QLCDNumber@@QAE@IPAVQWidget@@@Z
??0QLCDNumber@@QAE@IPAVQWidget@@PBD@Z
??0QLCDNumber@@QAE@PAVQWidget@@@Z
??0QLCDNumber@@QAE@PAVQWidget@@PBD@Z
??0QLabel@@QAE@ABV0@@Z
??0QLabel@@QAE@ABVQString@@PAVQWidget@@PBDV?$QFlags@W4WindowType@Qt@@@@@Z
??0QLabel@@QAE@ABVQString@@PAVQWidget@@V?$QFlags@W4WindowType@Qt@@@@@Z
??0QLabel@@QAE@PAVQWidget@@ABVQString@@0PBDV?$QFlags@W4WindowType@Qt@@@@@Z
??0QLabel@@QAE@PAVQWidget@@PBDV?$QFlags@W4WindowType@Qt@@@@@Z
??0QLabel@@QAE@PAVQWidget@@V?$QFlags@W4WindowType@Qt@@@@@Z
??0QLayout@@IAE@AAVQLayoutPrivate@@PAV0@PAVQWidget@@@Z
??0QLayout@@QAE@ABV0@@Z
??0QLayout@@QAE@HPBD@Z
??0QLayout@@QAE@PAV0@HPBD@Z
??0QLayout@@QAE@PAVQWidget@@@Z
??0QLayout@@QAE@PAVQWidget@@HHPBD@Z
??0QLayout@@QAE@XZ
??0QLayoutItem@@QAE@ABV0@@Z
??0QLayoutItem@@QAE@V?$QFlags@W4AlignmentFlag@Qt@@@@@Z
??0QLayoutIterator@@AAE@PAVQLayout@@_N@Z
??0QLayoutIterator@@QAE@ABV0@@Z
??0QLayoutIterator@@QAE@PAVQLayout@@@Z
??0QLayoutPrivate@@QAE@ABV0@@Z
??0QLayoutPrivate@@QAE@XZ
??0QLineEdit@@QAE@ABV0@@Z
??0QLineEdit@@QAE@ABVQString@@0PAVQWidget@@PBD@Z
??0QLineEdit@@QAE@ABVQString@@PAVQWidget@@@Z
??0QLineEdit@@QAE@ABVQString@@PAVQWidget@@PBD@Z
??0QLineEdit@@QAE@PAVQWidget@@@Z
??0QLineEdit@@QAE@PAVQWidget@@PBD@Z
??0QLinearGradient@@QAE@ABV0@@Z
??0QLinearGradient@@QAE@ABVQPointF@@0@Z
??0QLinearGradient@@QAE@NNNN@Z
??0QLinearGradient@@QAE@XZ
??0QListView@@IAE@AAVQListViewPrivate@@PAVQWidget@@@Z
??0QListView@@QAE@ABV0@@Z
??0QListView@@QAE@PAVQWidget@@@Z
??0QListWidget@@QAE@ABV0@@Z
??0QListWidget@@QAE@PAVQWidget@@@Z
??0QListWidgetItem@@QAE@ABV0@@Z
??0QListWidgetItem@@QAE@ABVQIcon@@ABVQString@@PAVQListWidget@@H@Z
??0QListWidgetItem@@QAE@ABVQString@@PAVQListWidget@@H@Z
??0QListWidgetItem@@QAE@PAVQListWidget@@H@Z
??0QMainWindow@@QAE@ABV0@@Z
??0QMainWindow@@QAE@PAVQWidget@@PBDV?$QFlags@W4WindowType@Qt@@@@@Z
??0QMainWindow@@QAE@PAVQWidget@@V?$QFlags@W4WindowType@Qt@@@@@Z
??0QMatrix@@QAE@ABV0@@Z
??0QMatrix@@QAE@NNNNNN@Z
??0QMatrix@@QAE@XZ
??0QMdiArea@@QAE@ABV0@@Z
??0QMdiArea@@QAE@PAVQWidget@@@Z
??0QMdiSubWindow@@QAE@ABV0@@Z
??0QMdiSubWindow@@QAE@PAVQWidget@@V?$QFlags@W4WindowType@Qt@@@@@Z
??0QMenu@@IAE@AAVQMenuPrivate@@PAVQWidget@@@Z
??0QMenu@@QAE@ABV0@@Z
??0QMenu@@QAE@ABVQString@@PAVQWidget@@@Z
??0QMenu@@QAE@PAVQWidget@@@Z
??0QMenuBar@@QAE@ABV0@@Z
??0QMenuBar@@QAE@PAVQWidget@@@Z
??0QMenuBar@@QAE@PAVQWidget@@PBD@Z
??0QMenuItem@@QAE@ABV0@@Z
??0QMenuItem@@QAE@XZ
??0QMenubarUpdatedEvent@@QAE@ABV0@@Z
??0QMenubarUpdatedEvent@@QAE@QAVQMenuBar@@@Z
??0QMessageBox@@QAE@ABV0@@Z
??0QMessageBox@@QAE@ABVQString@@0W4Icon@0@HHHPAVQWidget@@PBD_NV?$QFlags@W4WindowType@Qt@@@@@Z
??0QMessageBox@@QAE@ABVQString@@0W4Icon@0@HHHPAVQWidget@@V?$QFlags@W4WindowType@Qt@@@@@Z
??0QMessageBox@@QAE@PAVQWidget@@@Z
??0QMessageBox@@QAE@PAVQWidget@@PBD@Z
??0QMessageBox@@QAE@W4Icon@0@ABVQString@@1V?$QFlags@W4StandardButton@QMessageBox@@@@PAVQWidget@@V?$QFlags@W4WindowType@Qt@@@@@Z
??0QMimeSource@@QAE@ABV0@@Z
??0QMimeSource@@QAE@XZ
??0QMotifStyle@@IAE@AAVQMotifStylePrivate@@_N@Z
??0QMotifStyle@@QAE@ABV0@@Z
??0QMotifStyle@@QAE@_N@Z
??0QMouseEvent@@QAE@ABV0@@Z
??0QMouseEvent@@QAE@W4Type@QEvent@@ABVQPoint@@1HH@Z
??0QMouseEvent@@QAE@W4Type@QEvent@@ABVQPoint@@1W4MouseButton@Qt@@V?$QFlags@W4MouseButton@Qt@@@@V?$QFlags@W4KeyboardModifier@Qt@@@@@Z
??0QMouseEvent@@QAE@W4Type@QEvent@@ABVQPoint@@HH@Z
??0QMouseEvent@@QAE@W4Type@QEvent@@ABVQPoint@@W4MouseButton@Qt@@V?$QFlags@W4MouseButton@Qt@@@@V?$QFlags@W4KeyboardModifier@Qt@@@@@Z
??0QMouseEventEx@@QAE@ABV0@@Z
??0QMouseEventEx@@QAE@W4Type@QEvent@@ABVQPointF@@ABVQPoint@@W4MouseButton@Qt@@V?$QFlags@W4MouseButton@Qt@@@@V?$QFlags@W4KeyboardModifier@Qt@@@@@Z
??0QMoveEvent@@QAE@ABV0@@Z
??0QMoveEvent@@QAE@ABVQPoint@@0@Z
??0QMovie@@QAE@ABV0@@Z
??0QMovie@@QAE@ABVQString@@ABVQByteArray@@PAVQObject@@@Z
??0QMovie@@QAE@PAVQIODevice@@ABVQByteArray@@PAVQObject@@@Z
??0QMovie@@QAE@PAVQObject@@@Z
??0QPageSetupDialog@@QAE@ABV0@@Z
??0QPageSetupDialog@@QAE@PAVQPrinter@@PAVQWidget@@@Z
??0QPaintDevice@@IAE@XZ
??0QPaintDevice@@QAE@ABV0@@Z
??0QPaintEngine@@IAE@AAVQPaintEnginePrivate@@V?$QFlags@W4PaintEngineFeature@QPaintEngine@@@@@Z
??0QPaintEngine@@QAE@ABV0@@Z
??0QPaintEngine@@QAE@V?$QFlags@W4PaintEngineFeature@QPaintEngine@@@@@Z
??0QPaintEngineState@@QAE@ABV0@@Z
??0QPaintEngineState@@QAE@XZ
??0QPaintEvent@@QAE@ABV0@@Z
??0QPaintEvent@@QAE@ABVQRect@@@Z
??0QPaintEvent@@QAE@ABVQRegion@@@Z
??0QPaintEvent@@QAE@ABVQRegion@@ABVQRect@@@Z
??0QPainter@@QAE@PAVQPaintDevice@@@Z
??0QPainter@@QAE@XZ
??0QPainterPath@@QAE@ABV0@@Z
??0QPainterPath@@QAE@ABVQPointF@@@Z
??0QPainterPath@@QAE@XZ
??0QPainterPathStroker@@QAE@XZ
??0QPalette@@QAE@ABV0@@Z
??0QPalette@@QAE@ABVQBrush@@00000000@Z
??0QPalette@@QAE@ABVQColor@@000000@Z
??0QPalette@@QAE@ABVQColor@@0@Z
??0QPalette@@QAE@ABVQColor@@@Z
??0QPalette@@QAE@ABVQColorGroup@@00@Z
??0QPalette@@QAE@W4GlobalColor@Qt@@@Z
??0QPalette@@QAE@XZ
??0QPen@@QAE@ABV0@@Z
??0QPen@@QAE@ABVQBrush@@NW4PenStyle@Qt@@W4PenCapStyle@3@W4PenJoinStyle@3@@Z
??0QPen@@QAE@ABVQColor@@@Z
??0QPen@@QAE@W4PenStyle@Qt@@@Z
??0QPen@@QAE@XZ
??0QPicture@@IAE@AAVQPicturePrivate@@@Z
??0QPicture@@QAE@ABV0@@Z
??0QPicture@@QAE@H@Z
??0QPictureFormatInterface@@QAE@ABU0@@Z
??0QPictureFormatInterface@@QAE@XZ
??0QPictureFormatPlugin@@QAE@ABV0@@Z
??0QPictureFormatPlugin@@QAE@PAVQObject@@@Z
??0QPictureIO@@QAE@ABVQString@@PBD@Z
??0QPictureIO@@QAE@PAVQIODevice@@PBD@Z
??0QPictureIO@@QAE@XZ
??0QPicturePrivate@@QAE@ABV0@@Z
??0QPicturePrivate@@QAE@XZ
??0QPixmap@@AAE@ABVQSize@@H@Z
??0QPixmap@@AAE@ABVQSize@@W4Type@0@@Z
??0QPixmap@@QAE@ABV0@@Z
??0QPixmap@@QAE@ABVQImage@@@Z
??0QPixmap@@QAE@ABVQSize@@@Z
??0QPixmap@@QAE@ABVQString@@PBDV?$QFlags@W4ImageConversionFlag@Qt@@@@@Z
??0QPixmap@@QAE@ABVQString@@PBDW4ColorMode@0@@Z
??0QPixmap@@QAE@HH@Z
??0QPixmap@@QAE@PAVQPixmapData@@@Z
??0QPixmap@@QAE@QBQBD@Z
??0QPixmap@@QAE@XZ
??0QPixmapData@@QAE@ABV0@@Z
??0QPixmapData@@QAE@W4PixelType@0@H@Z
??0QPixmapDataFactory@@QAE@ABV0@@Z
??0QPixmapDataFactory@@QAE@XZ
??0QPlainTextDocumentLayout@@QAE@ABV0@@Z
??0QPlainTextDocumentLayout@@QAE@PAVQTextDocument@@@Z
??0QPlainTextEdit@@IAE@AAVQPlainTextEditPrivate@@PAVQWidget@@@Z
??0QPlainTextEdit@@QAE@ABV0@@Z
??0QPlainTextEdit@@QAE@ABVQString@@PAVQWidget@@@Z
??0QPlainTextEdit@@QAE@PAVQWidget@@@Z
??0QPlastiqueStyle@@QAE@ABV0@@Z
??0QPlastiqueStyle@@QAE@XZ
??0QPolygon@@QAE@ABV0@@Z
??0QPolygon@@QAE@ABV?$QVector@VQPoint@@@@@Z
??0QPolygon@@QAE@ABVQRect@@_N@Z
??0QPolygon@@QAE@H@Z
??0QPolygon@@QAE@HPBH@Z
??0QPolygon@@QAE@XZ
??0QPolygonF@@QAE@ABV0@@Z
??0QPolygonF@@QAE@ABV?$QVector@VQPointF@@@@@Z
??0QPolygonF@@QAE@ABVQPolygon@@@Z
??0QPolygonF@@QAE@ABVQRectF@@@Z
??0QPolygonF@@QAE@H@Z
??0QPolygonF@@QAE@XZ
??0QPrintDialog@@QAE@ABV0@@Z
??0QPrintDialog@@QAE@PAVQPrinter@@PAVQWidget@@@Z
??0QPrintEngine@@QAE@ABV0@@Z
??0QPrintEngine@@QAE@XZ
??0QPrintPreviewDialog@@QAE@ABV0@@Z
??0QPrintPreviewDialog@@QAE@PAVQPrinter@@PAVQWidget@@V?$QFlags@W4WindowType@Qt@@@@@Z
??0QPrintPreviewDialog@@QAE@PAVQWidget@@V?$QFlags@W4WindowType@Qt@@@@@Z
??0QPrintPreviewWidget@@QAE@ABV0@@Z
??0QPrintPreviewWidget@@QAE@PAVQPrinter@@PAVQWidget@@V?$QFlags@W4WindowType@Qt@@@@@Z
??0QPrintPreviewWidget@@QAE@PAVQWidget@@V?$QFlags@W4WindowType@Qt@@@@@Z
??0QPrinter@@QAE@ABV0@@Z
??0QPrinter@@QAE@ABVQPrinterInfo@@W4PrinterMode@0@@Z
??0QPrinter@@QAE@W4PrinterMode@0@@Z
??0QPrinterInfo@@AAE@ABVQString@@@Z
??0QPrinterInfo@@QAE@ABV0@@Z
??0QPrinterInfo@@QAE@ABVQPrinter@@@Z
??0QPrinterInfo@@QAE@XZ
??0QProgressBar@@QAE@ABV0@@Z
??0QProgressBar@@QAE@PAVQWidget@@@Z
??0QProgressDialog@@QAE@ABV0@@Z
??0QProgressDialog@@QAE@ABVQString@@0HHPAVQWidget@@V?$QFlags@W4WindowType@Qt@@@@@Z
??0QProgressDialog@@QAE@PAVQWidget@@V?$QFlags@W4WindowType@Qt@@@@@Z
??0QProxyModel@@IAE@AAVQProxyModelPrivate@@PAVQObject@@@Z
??0QProxyModel@@QAE@ABV0@@Z
??0QProxyModel@@QAE@PAVQObject@@@Z
??0QPushButton@@IAE@AAVQPushButtonPrivate@@PAVQWidget@@@Z
??0QPushButton@@QAE@ABV0@@Z
??0QPushButton@@QAE@ABVQIcon@@ABVQString@@PAVQWidget@@@Z
??0QPushButton@@QAE@ABVQIcon@@ABVQString@@PAVQWidget@@PBD@Z
??0QPushButton@@QAE@ABVQString@@PAVQWidget@@@Z
??0QPushButton@@QAE@ABVQString@@PAVQWidget@@PBD@Z
??0QPushButton@@QAE@PAVQWidget@@@Z
??0QPushButton@@QAE@PAVQWidget@@PBD@Z
??0QRadialGradient@@QAE@ABV0@@Z
??0QRadialGradient@@QAE@ABVQPointF@@N0@Z
??0QRadialGradient@@QAE@ABVQPointF@@N@Z
??0QRadialGradient@@QAE@NNN@Z
??0QRadialGradient@@QAE@NNNNN@Z
??0QRadialGradient@@QAE@XZ
??0QRadioButton@@QAE@ABV0@@Z
??0QRadioButton@@QAE@ABVQString@@PAVQWidget@@@Z
??0QRadioButton@@QAE@ABVQString@@PAVQWidget@@PBD@Z
??0QRadioButton@@QAE@PAVQWidget@@@Z
??0QRadioButton@@QAE@PAVQWidget@@PBD@Z
??0QRegExpValidator@@QAE@ABV0@@Z
??0QRegExpValidator@@QAE@ABVQRegExp@@PAVQObject@@@Z
??0QRegExpValidator@@QAE@ABVQRegExp@@PAVQObject@@PBD@Z
??0QRegExpValidator@@QAE@PAVQObject@@@Z
??0QRegExpValidator@@QAE@PAVQObject@@PBD@Z
??0QRegion@@QAE@ABV0@@Z
??0QRegion@@QAE@ABVQBitmap@@@Z
??0QRegion@@QAE@ABVQPolygon@@W4FillRule@Qt@@@Z
??0QRegion@@QAE@ABVQPolygon@@_N@Z
??0QRegion@@QAE@ABVQRect@@W4RegionType@0@@Z
??0QRegion@@QAE@HHHHW4RegionType@0@@Z
??0QRegion@@QAE@XZ
??0QResizeEvent@@QAE@ABV0@@Z
??0QResizeEvent@@QAE@ABVQSize@@0@Z
??0QRubberBand@@QAE@ABV0@@Z
??0QRubberBand@@QAE@W4Shape@0@PAVQWidget@@@Z
??0QScrollArea@@IAE@AAVQScrollAreaPrivate@@PAVQWidget@@@Z
??0QScrollArea@@QAE@ABV0@@Z
??0QScrollArea@@QAE@PAVQWidget@@@Z
??0QScrollBar@@QAE@ABV0@@Z
??0QScrollBar@@QAE@HHHHHW4Orientation@Qt@@PAVQWidget@@PBD@Z
??0QScrollBar@@QAE@PAVQWidget@@@Z
??0QScrollBar@@QAE@PAVQWidget@@PBD@Z
??0QScrollBar@@QAE@W4Orientation@Qt@@PAVQWidget@@@Z
??0QScrollBar@@QAE@W4Orientation@Qt@@PAVQWidget@@PBD@Z
??0QSessionManager@@AAE@PAVQApplication@@AAVQString@@1@Z
??0QSessionManager@@QAE@ABV0@@Z
??0QShortcut@@QAE@ABV0@@Z
??0QShortcut@@QAE@ABVQKeySequence@@PAVQWidget@@PBD2W4ShortcutContext@Qt@@@Z
??0QShortcut@@QAE@PAVQWidget@@@Z
??0QShortcutEvent@@QAE@ABV0@@Z
??0QShortcutEvent@@QAE@ABVQKeySequence@@H_N@Z
??0QShowEvent@@QAE@ABV0@@Z
??0QShowEvent@@QAE@XZ
??0QSizeGrip@@QAE@ABV0@@Z
??0QSizeGrip@@QAE@PAVQWidget@@@Z
??0QSizeGrip@@QAE@PAVQWidget@@PBD@Z
??0QSizePolicy@@AAE@H@Z
??0QSizePolicy@@QAE@W4Policy@0@0@Z
??0QSizePolicy@@QAE@W4Policy@0@0EE_N@Z
??0QSizePolicy@@QAE@W4Policy@0@0W4ControlType@0@@Z
??0QSizePolicy@@QAE@W4Policy@0@0_N@Z
??0QSizePolicy@@QAE@XZ
??0QSlider@@QAE@ABV0@@Z
??0QSlider@@QAE@HHHHW4Orientation@Qt@@PAVQWidget@@PBD@Z
??0QSlider@@QAE@PAVQWidget@@@Z
??0QSlider@@QAE@PAVQWidget@@PBD@Z
??0QSlider@@QAE@W4Orientation@Qt@@PAVQWidget@@@Z
??0QSlider@@QAE@W4Orientation@Qt@@PAVQWidget@@PBD@Z
??0QSortFilterProxyModel@@QAE@ABV0@@Z
??0QSortFilterProxyModel@@QAE@PAVQObject@@@Z
??0QSound@@QAE@ABV0@@Z
??0QSound@@QAE@ABVQString@@PAVQObject@@@Z
??0QSound@@QAE@ABVQString@@PAVQObject@@PBD@Z
??0QSpacerItem@@QAE@ABV0@@Z
??0QSpacerItem@@QAE@HHW4Policy@QSizePolicy@@0@Z
??0QSpinBox@@QAE@ABV0@@Z
??0QSpinBox@@QAE@HHHPAVQWidget@@PBD@Z
??0QSpinBox@@QAE@PAVQWidget@@@Z
??0QSpinBox@@QAE@PAVQWidget@@PBD@Z
??0QSplashScreen@@QAE@ABV0@@Z
??0QSplashScreen@@QAE@ABVQPixmap@@V?$QFlags@W4WindowType@Qt@@@@@Z
??0QSplashScreen@@QAE@PAVQWidget@@ABVQPixmap@@V?$QFlags@W4WindowType@Qt@@@@@Z
??0QSplitter@@QAE@ABV0@@Z
??0QSplitter@@QAE@PAVQWidget@@@Z
??0QSplitter@@QAE@PAVQWidget@@PBD@Z
??0QSplitter@@QAE@W4Orientation@Qt@@PAVQWidget@@@Z
??0QSplitter@@QAE@W4Orientation@Qt@@PAVQWidget@@PBD@Z
??0QSplitterHandle@@QAE@ABV0@@Z
??0QSplitterHandle@@QAE@W4Orientation@Qt@@PAVQSplitter@@@Z
??0QStackedLayout@@QAE@ABV0@@Z
??0QStackedLayout@@QAE@PAVQLayout@@@Z
??0QStackedLayout@@QAE@PAVQWidget@@@Z
??0QStackedLayout@@QAE@XZ
??0QStackedWidget@@QAE@ABV0@@Z
??0QStackedWidget@@QAE@PAVQWidget@@@Z
??0QStandardItem@@IAE@AAVQStandardItemPrivate@@@Z
??0QStandardItem@@IAE@ABV0@@Z
??0QStandardItem@@QAE@ABVQIcon@@ABVQString@@@Z
??0QStandardItem@@QAE@ABVQString@@@Z
??0QStandardItem@@QAE@HH@Z
??0QStandardItem@@QAE@XZ
??0QStandardItemModel@@IAE@AAVQStandardItemModelPrivate@@PAVQObject@@@Z
??0QStandardItemModel@@QAE@ABV0@@Z
??0QStandardItemModel@@QAE@HHPAVQObject@@@Z
??0QStandardItemModel@@QAE@PAVQObject@@@Z
??0QStatusBar@@QAE@ABV0@@Z
??0QStatusBar@@QAE@PAVQWidget@@@Z
??0QStatusBar@@QAE@PAVQWidget@@PBD@Z
??0QStatusTipEvent@@QAE@ABV0@@Z
??0QStatusTipEvent@@QAE@ABVQString@@@Z
??0QStringListModel@@QAE@ABV0@@Z
??0QStringListModel@@QAE@ABVQStringList@@PAVQObject@@@Z
??0QStringListModel@@QAE@PAVQObject@@@Z
??0QStroker@@QAE@ABV0@@Z
??0QStroker@@QAE@XZ
??0QStrokerOps@@QAE@ABV0@@Z
??0QStrokerOps@@QAE@XZ
??0QStyle@@IAE@AAVQStylePrivate@@@Z
??0QStyle@@QAE@ABV0@@Z
??0QStyle@@QAE@XZ
??0QStyleFactoryInterface@@QAE@ABU0@@Z
??0QStyleFactoryInterface@@QAE@XZ
??0QStyleHintReturn@@QAE@HH@Z
??0QStyleHintReturnMask@@QAE@ABV0@@Z
??0QStyleHintReturnMask@@QAE@XZ
??0QStyleHintReturnVariant@@QAE@ABV0@@Z
??0QStyleHintReturnVariant@@QAE@XZ
??0QStyleOption@@QAE@ABV0@@Z
??0QStyleOption@@QAE@HH@Z
??0QStyleOptionButton@@IAE@H@Z
??0QStyleOptionButton@@QAE@ABV0@@Z
??0QStyleOptionButton@@QAE@XZ
??0QStyleOptionComboBox@@IAE@H@Z
??0QStyleOptionComboBox@@QAE@ABV0@@Z
??0QStyleOptionComboBox@@QAE@XZ
??0QStyleOptionComplex@@QAE@ABV0@@Z
??0QStyleOptionComplex@@QAE@HH@Z
??0QStyleOptionDockWidget@@IAE@H@Z
??0QStyleOptionDockWidget@@QAE@ABV0@@Z
??0QStyleOptionDockWidget@@QAE@XZ
??0QStyleOptionDockWidgetV2@@IAE@H@Z
??0QStyleOptionDockWidgetV2@@QAE@ABV0@@Z
??0QStyleOptionDockWidgetV2@@QAE@ABVQStyleOptionDockWidget@@@Z
??0QStyleOptionDockWidgetV2@@QAE@XZ
??0QStyleOptionFocusRect@@IAE@H@Z
??0QStyleOptionFocusRect@@QAE@ABV0@@Z
??0QStyleOptionFocusRect@@QAE@XZ
??0QStyleOptionFrame@@IAE@H@Z
??0QStyleOptionFrame@@QAE@ABV0@@Z
??0QStyleOptionFrame@@QAE@XZ
??0QStyleOptionFrameV2@@IAE@H@Z
??0QStyleOptionFrameV2@@QAE@ABV0@@Z
??0QStyleOptionFrameV2@@QAE@ABVQStyleOptionFrame@@@Z
??0QStyleOptionFrameV2@@QAE@XZ
??0QStyleOptionGraphicsItem@@IAE@H@Z
??0QStyleOptionGraphicsItem@@QAE@ABV0@@Z
??0QStyleOptionGraphicsItem@@QAE@XZ
??0QStyleOptionGroupBox@@IAE@H@Z
??0QStyleOptionGroupBox@@QAE@ABV0@@Z
??0QStyleOptionGroupBox@@QAE@XZ
??0QStyleOptionHeader@@IAE@H@Z
??0QStyleOptionHeader@@QAE@ABV0@@Z
??0QStyleOptionHeader@@QAE@XZ
??0QStyleOptionMenuItem@@IAE@H@Z
??0QStyleOptionMenuItem@@QAE@ABV0@@Z
??0QStyleOptionMenuItem@@QAE@XZ
??0QStyleOptionProgressBar@@IAE@H@Z
??0QStyleOptionProgressBar@@QAE@ABV0@@Z
??0QStyleOptionProgressBar@@QAE@XZ
??0QStyleOptionProgressBarV2@@IAE@H@Z
??0QStyleOptionProgressBarV2@@QAE@ABV0@@Z
??0QStyleOptionProgressBarV2@@QAE@ABVQStyleOptionProgressBar@@@Z
??0QStyleOptionProgressBarV2@@QAE@XZ
??0QStyleOptionQ3DockWindow@@IAE@H@Z
??0QStyleOptionQ3DockWindow@@QAE@ABV0@@Z
??0QStyleOptionQ3DockWindow@@QAE@XZ
??0QStyleOptionQ3ListView@@IAE@H@Z
??0QStyleOptionQ3ListView@@QAE@ABV0@@Z
??0QStyleOptionQ3ListView@@QAE@XZ
??0QStyleOptionQ3ListViewItem@@IAE@H@Z
??0QStyleOptionQ3ListViewItem@@QAE@ABV0@@Z
??0QStyleOptionQ3ListViewItem@@QAE@XZ
??0QStyleOptionRubberBand@@IAE@H@Z
??0QStyleOptionRubberBand@@QAE@ABV0@@Z
??0QStyleOptionRubberBand@@QAE@XZ
??0QStyleOptionSizeGrip@@IAE@H@Z
??0QStyleOptionSizeGrip@@QAE@ABV0@@Z
??0QStyleOptionSizeGrip@@QAE@XZ
??0QStyleOptionSlider@@IAE@H@Z
??0QStyleOptionSlider@@QAE@ABV0@@Z
??0QStyleOptionSlider@@QAE@XZ
??0QStyleOptionSpinBox@@IAE@H@Z
??0QStyleOptionSpinBox@@QAE@ABV0@@Z
??0QStyleOptionSpinBox@@QAE@XZ
??0QStyleOptionTab@@IAE@H@Z
??0QStyleOptionTab@@QAE@ABV0@@Z
??0QStyleOptionTab@@QAE@XZ
??0QStyleOptionTabBarBase@@IAE@H@Z
??0QStyleOptionTabBarBase@@QAE@ABV0@@Z
??0QStyleOptionTabBarBase@@QAE@XZ
??0QStyleOptionTabV2@@IAE@H@Z
??0QStyleOptionTabV2@@QAE@ABV0@@Z
??0QStyleOptionTabV2@@QAE@ABVQStyleOptionTab@@@Z
??0QStyleOptionTabV2@@QAE@XZ
??0QStyleOptionTabWidgetFrame@@IAE@H@Z
??0QStyleOptionTabWidgetFrame@@QAE@ABV0@@Z
??0QStyleOptionTabWidgetFrame@@QAE@XZ
??0QStyleOptionTitleBar@@IAE@H@Z
??0QStyleOptionTitleBar@@QAE@ABV0@@Z
??0QStyleOptionTitleBar@@QAE@XZ
??0QStyleOptionToolBar@@IAE@H@Z
??0QStyleOptionToolBar@@QAE@ABV0@@Z
??0QStyleOptionToolBar@@QAE@XZ
??0QStyleOptionToolBox@@IAE@H@Z
??0QStyleOptionToolBox@@QAE@ABV0@@Z
??0QStyleOptionToolBox@@QAE@XZ
??0QStyleOptionToolBoxV2@@IAE@H@Z
??0QStyleOptionToolBoxV2@@QAE@ABV0@@Z
??0QStyleOptionToolBoxV2@@QAE@ABVQStyleOptionToolBox@@@Z
??0QStyleOptionToolBoxV2@@QAE@XZ
??0QStyleOptionToolButton@@IAE@H@Z
??0QStyleOptionToolButton@@QAE@ABV0@@Z
??0QStyleOptionToolButton@@QAE@XZ
??0QStyleOptionViewItem@@IAE@H@Z
??0QStyleOptionViewItem@@QAE@ABV0@@Z
??0QStyleOptionViewItem@@QAE@XZ
??0QStyleOptionViewItemV2@@IAE@H@Z
??0QStyleOptionViewItemV2@@QAE@ABV0@@Z
??0QStyleOptionViewItemV2@@QAE@ABVQStyleOptionViewItem@@@Z
??0QStyleOptionViewItemV2@@QAE@XZ
??0QStyleOptionViewItemV3@@IAE@H@Z
??0QStyleOptionViewItemV3@@QAE@ABV0@@Z
??0QStyleOptionViewItemV3@@QAE@ABVQStyleOptionViewItem@@@Z
??0QStyleOptionViewItemV3@@QAE@XZ
??0QStyleOptionViewItemV4@@IAE@H@Z
??0QStyleOptionViewItemV4@@QAE@ABV0@@Z
??0QStyleOptionViewItemV4@@QAE@ABVQStyleOptionViewItem@@@Z
??0QStyleOptionViewItemV4@@QAE@XZ
??0QStylePlugin@@QAE@ABV0@@Z
??0QStylePlugin@@QAE@PAVQObject@@@Z
??0QStyledItemDelegate@@QAE@ABV0@@Z
??0QStyledItemDelegate@@QAE@PAVQObject@@@Z
??0QSyntaxHighlighter@@QAE@ABV0@@Z
??0QSyntaxHighlighter@@QAE@PAVQObject@@@Z
??0QSyntaxHighlighter@@QAE@PAVQTextDocument@@@Z
??0QSyntaxHighlighter@@QAE@PAVQTextEdit@@@Z
??0QSystemTrayIcon@@QAE@ABV0@@Z
??0QSystemTrayIcon@@QAE@ABVQIcon@@PAVQObject@@@Z
??0QSystemTrayIcon@@QAE@PAVQObject@@@Z
??0QTabBar@@QAE@ABV0@@Z
??0QTabBar@@QAE@PAVQWidget@@@Z
??0QTabWidget@@QAE@ABV0@@Z
??0QTabWidget@@QAE@PAVQWidget@@@Z
??0QTabWidget@@QAE@PAVQWidget@@PBDV?$QFlags@W4WindowType@Qt@@@@@Z
??0QTableView@@IAE@AAVQTableViewPrivate@@PAVQWidget@@@Z
??0QTableView@@QAE@ABV0@@Z
??0QTableView@@QAE@PAVQWidget@@@Z
??0QTableWidget@@QAE@ABV0@@Z
??0QTableWidget@@QAE@HHPAVQWidget@@@Z
??0QTableWidget@@QAE@PAVQWidget@@@Z
??0QTableWidgetItem@@QAE@ABV0@@Z
??0QTableWidgetItem@@QAE@ABVQIcon@@ABVQString@@H@Z
??0QTableWidgetItem@@QAE@ABVQString@@H@Z
??0QTableWidgetItem@@QAE@H@Z
??0QTableWidgetSelectionRange@@QAE@ABV0@@Z
??0QTableWidgetSelectionRange@@QAE@HHHH@Z
??0QTableWidgetSelectionRange@@QAE@XZ
??0QTabletEvent@@QAE@ABV0@@Z
??0QTabletEvent@@QAE@W4Type@QEvent@@ABVQPoint@@1ABVQPointF@@HHNHHNNHV?$QFlags@W4KeyboardModifier@Qt@@@@_J@Z
??0QTessellator@@QAE@ABV0@@Z
??0QTessellator@@QAE@XZ
??0QTextBlock@@QAE@ABV0@@Z
??0QTextBlock@@QAE@PAVQTextDocumentPrivate@@H@Z
??0QTextBlock@@QAE@XZ
??0QTextBlockFormat@@IAE@ABVQTextFormat@@@Z
??0QTextBlockFormat@@QAE@ABV0@@Z
??0QTextBlockFormat@@QAE@XZ
??0QTextBlockGroup@@IAE@AAVQTextBlockGroupPrivate@@PAVQTextDocument@@@Z
??0QTextBlockGroup@@IAE@PAVQTextDocument@@@Z
??0QTextBlockGroup@@QAE@ABV0@@Z
??0QTextBlockUserData@@QAE@ABV0@@Z
??0QTextBlockUserData@@QAE@XZ
??0QTextBrowser@@QAE@ABV0@@Z
??0QTextBrowser@@QAE@PAVQWidget@@@Z
??0QTextBrowser@@QAE@PAVQWidget@@PBD@Z
??0QTextCharFormat@@IAE@ABVQTextFormat@@@Z
??0QTextCharFormat@@QAE@ABV0@@Z
??0QTextCharFormat@@QAE@XZ
??0QTextControl@@QAE@ABV0@@Z
??0QTextControl@@QAE@ABVQString@@PAVQObject@@@Z
??0QTextControl@@QAE@PAVQObject@@@Z
??0QTextControl@@QAE@PAVQTextDocument@@PAVQObject@@@Z
??0QTextCursor@@QAE@ABV0@@Z
??0QTextCursor@@QAE@ABVQTextBlock@@@Z
??0QTextCursor@@QAE@PAVQTextCursorPrivate@@@Z
??0QTextCursor@@QAE@PAVQTextDocument@@@Z
??0QTextCursor@@QAE@PAVQTextDocumentPrivate@@H@Z
??0QTextCursor@@QAE@PAVQTextFrame@@@Z
??0QTextCursor@@QAE@XZ
??0QTextDocument@@IAE@AAVQTextDocumentPrivate@@PAVQObject@@@Z
??0QTextDocument@@QAE@ABV0@@Z
??0QTextDocument@@QAE@ABVQString@@PAVQObject@@@Z
??0QTextDocument@@QAE@PAVQObject@@@Z
??0QTextDocumentFragment@@QAE@ABV0@@Z
??0QTextDocumentFragment@@QAE@ABVQTextCursor@@@Z
??0QTextDocumentFragment@@QAE@PBVQTextDocument@@@Z
??0QTextDocumentFragment@@QAE@XZ
??0QTextEdit@@IAE@AAVQTextEditPrivate@@PAVQWidget@@@Z
??0QTextEdit@@QAE@ABV0@@Z
??0QTextEdit@@QAE@ABVQString@@PAVQWidget@@@Z
??0QTextEdit@@QAE@PAVQWidget@@@Z
??0QTextEdit@@QAE@PAVQWidget@@PBD@Z
??0QTextEngine@@QAE@ABV0@@Z
??0QTextEngine@@QAE@ABVQString@@ABVQFont@@@Z
??0QTextEngine@@QAE@XZ
??0QTextFormat@@QAE@ABV0@@Z
??0QTextFormat@@QAE@H@Z
??0QTextFormat@@QAE@XZ
??0QTextFormatCollection@@QAE@ABV0@@Z
??0QTextFormatCollection@@QAE@XZ
??0QTextFragment@@QAE@ABV0@@Z
??0QTextFragment@@QAE@PBVQTextDocumentPrivate@@HH@Z
??0QTextFragment@@QAE@XZ
??0QTextFrame@@IAE@AAVQTextFramePrivate@@PAVQTextDocument@@@Z
??0QTextFrame@@QAE@ABV0@@Z
??0QTextFrame@@QAE@PAVQTextDocument@@@Z
??0QTextFrameFormat@@IAE@ABVQTextFormat@@@Z
??0QTextFrameFormat@@QAE@ABV0@@Z
??0QTextFrameFormat@@QAE@XZ
??0QTextFrameLayoutData@@QAE@ABV0@@Z
??0QTextFrameLayoutData@@QAE@XZ
??0QTextImageFormat@@IAE@ABVQTextFormat@@@Z
??0QTextImageFormat@@QAE@ABV0@@Z
??0QTextImageFormat@@QAE@XZ
??0QTextImageHandler@@QAE@ABV0@@Z
??0QTextImageHandler@@QAE@PAVQObject@@@Z
??0QTextInlineObject@@QAE@HPAVQTextEngine@@@Z
??0QTextInlineObject@@QAE@XZ
??0QTextLayout@@AAE@PAVQTextEngine@@@Z
??0QTextLayout@@QAE@ABVQString@@@Z
??0QTextLayout@@QAE@ABVQString@@ABVQFont@@PAVQPaintDevice@@@Z
??0QTextLayout@@QAE@ABVQTextBlock@@@Z
??0QTextLayout@@QAE@XZ
??0QTextLength@@QAE@W4Type@0@N@Z
??0QTextLength@@QAE@XZ
??0QTextLine@@AAE@HPAVQTextEngine@@@Z
??0QTextLine@@QAE@XZ
??0QTextList@@QAE@ABV0@@Z
??0QTextList@@QAE@PAVQTextDocument@@@Z
??0QTextListFormat@@IAE@ABVQTextFormat@@@Z
??0QTextListFormat@@QAE@ABV0@@Z
??0QTextListFormat@@QAE@XZ
??0QTextObject@@IAE@AAVQTextObjectPrivate@@PAVQTextDocument@@@Z
??0QTextObject@@IAE@PAVQTextDocument@@@Z
??0QTextObject@@QAE@ABV0@@Z
??0QTextObjectInterface@@QAE@ABV0@@Z
??0QTextObjectInterface@@QAE@XZ
??0QTextOption@@QAE@ABV0@@Z
??0QTextOption@@QAE@V?$QFlags@W4AlignmentFlag@Qt@@@@@Z
??0QTextOption@@QAE@XZ
??0QTextTable@@QAE@ABV0@@Z
??0QTextTable@@QAE@PAVQTextDocument@@@Z
??0QTextTableCell@@AAE@PBVQTextTable@@H@Z
??0QTextTableCell@@QAE@ABV0@@Z
??0QTextTableCell@@QAE@XZ
??0QTextTableCellFormat@@IAE@ABVQTextFormat@@@Z
??0QTextTableCellFormat@@QAE@ABV0@@Z
??0QTextTableCellFormat@@QAE@XZ
??0QTextTableFormat@@IAE@ABVQTextFormat@@@Z
??0QTextTableFormat@@QAE@ABV0@@Z
??0QTextTableFormat@@QAE@XZ
??0QTimeEdit@@QAE@ABV0@@Z
??0QTimeEdit@@QAE@ABVQTime@@PAVQWidget@@@Z
??0QTimeEdit@@QAE@PAVQWidget@@@Z
??0QToolBar@@QAE@ABV0@@Z
??0QToolBar@@QAE@ABVQString@@PAVQWidget@@@Z
??0QToolBar@@QAE@PAVQWidget@@@Z
??0QToolBar@@QAE@PAVQWidget@@PBD@Z
??0QToolBarChangeEvent@@QAE@ABV0@@Z
??0QToolBarChangeEvent@@QAE@_N@Z
??0QToolBarItem@@QAE@ABV0@@Z
??0QToolBarItem@@QAE@PAVQWidget@@@Z
??0QToolBarLayout@@QAE@ABV0@@Z
??0QToolBarLayout@@QAE@PAVQWidget@@@Z
??0QToolBox@@QAE@ABV0@@Z
??0QToolBox@@QAE@PAVQWidget@@PBDV?$QFlags@W4WindowType@Qt@@@@@Z
??0QToolBox@@QAE@PAVQWidget@@V?$QFlags@W4WindowType@Qt@@@@@Z
??0QToolButton@@IAE@AAVQToolButtonPrivate@@PAVQWidget@@@Z
??0QToolButton@@QAE@ABV0@@Z
??0QToolButton@@QAE@ABVQIcon@@ABVQString@@1PAVQObject@@PBDPAVQWidget@@3@Z
??0QToolButton@@QAE@PAVQWidget@@@Z
??0QToolButton@@QAE@PAVQWidget@@PBD@Z
??0QToolButton@@QAE@W4ArrowType@Qt@@PAVQWidget@@PBD@Z
??0QTransform@@QAE@ABV0@@Z
??0QTransform@@QAE@ABVQMatrix@@@Z
??0QTransform@@QAE@NNNNNN@Z
??0QTransform@@QAE@NNNNNNNNN@Z
??0QTransform@@QAE@XZ
??0QTreeView@@IAE@AAVQTreeViewPrivate@@PAVQWidget@@@Z
??0QTreeView@@QAE@ABV0@@Z
??0QTreeView@@QAE@PAVQWidget@@@Z
??0QTreeWidget@@QAE@ABV0@@Z
??0QTreeWidget@@QAE@PAVQWidget@@@Z
??0QTreeWidgetItem@@QAE@ABV0@@Z
??0QTreeWidgetItem@@QAE@ABVQStringList@@H@Z
??0QTreeWidgetItem@@QAE@H@Z
??0QTreeWidgetItem@@QAE@PAV0@0H@Z
??0QTreeWidgetItem@@QAE@PAV0@ABVQStringList@@H@Z
??0QTreeWidgetItem@@QAE@PAV0@H@Z
??0QTreeWidgetItem@@QAE@PAVQTreeWidget@@ABVQStringList@@H@Z
??0QTreeWidgetItem@@QAE@PAVQTreeWidget@@H@Z
??0QTreeWidgetItem@@QAE@PAVQTreeWidget@@PAV0@H@Z
??0QTreeWidgetItemIterator@@QAE@ABV0@@Z
??0QTreeWidgetItemIterator@@QAE@PAVQTreeWidget@@V?$QFlags@W4IteratorFlag@QTreeWidgetItemIterator@@@@@Z
??0QTreeWidgetItemIterator@@QAE@PAVQTreeWidgetItem@@V?$QFlags@W4IteratorFlag@QTreeWidgetItemIterator@@@@@Z
??0QUndoCommand@@QAE@ABV0@@Z
??0QUndoCommand@@QAE@ABVQString@@PAV0@@Z
??0QUndoCommand@@QAE@PAV0@@Z
??0QUndoGroup@@QAE@ABV0@@Z
??0QUndoGroup@@QAE@PAVQObject@@@Z
??0QUndoStack@@QAE@ABV0@@Z
??0QUndoStack@@QAE@PAVQObject@@@Z
??0QUndoView@@QAE@ABV0@@Z
??0QUndoView@@QAE@PAVQUndoGroup@@PAVQWidget@@@Z
??0QUndoView@@QAE@PAVQUndoStack@@PAVQWidget@@@Z
??0QUndoView@@QAE@PAVQWidget@@@Z
??0QVBoxLayout@@QAE@ABV0@@Z
??0QVBoxLayout@@QAE@HPBD@Z
??0QVBoxLayout@@QAE@PAVQLayout@@HPBD@Z
??0QVBoxLayout@@QAE@PAVQWidget@@@Z
??0QVBoxLayout@@QAE@PAVQWidget@@HHPBD@Z
??0QVBoxLayout@@QAE@XZ
??0QValidator@@IAE@AAVQObjectPrivate@@PAVQObject@@@Z
??0QValidator@@IAE@AAVQValidatorPrivate@@PAVQObject@@@Z
??0QValidator@@QAE@ABV0@@Z
??0QValidator@@QAE@PAVQObject@@@Z
??0QValidator@@QAE@PAVQObject@@PBD@Z
??0QWhatsThis@@AAE@XZ
??0QWhatsThisClickedEvent@@QAE@ABV0@@Z
??0QWhatsThisClickedEvent@@QAE@ABVQString@@@Z
??0QWheelEvent@@QAE@ABV0@@Z
??0QWheelEvent@@QAE@ABVQPoint@@0HHW4Orientation@Qt@@@Z
??0QWheelEvent@@QAE@ABVQPoint@@0HV?$QFlags@W4MouseButton@Qt@@@@V?$QFlags@W4KeyboardModifier@Qt@@@@W4Orientation@Qt@@@Z
??0QWheelEvent@@QAE@ABVQPoint@@HHW4Orientation@Qt@@@Z
??0QWheelEvent@@QAE@ABVQPoint@@HV?$QFlags@W4MouseButton@Qt@@@@V?$QFlags@W4KeyboardModifier@Qt@@@@W4Orientation@Qt@@@Z
??0QWidget@@IAE@AAVQWidgetPrivate@@PAV0@V?$QFlags@W4WindowType@Qt@@@@@Z
??0QWidget@@QAE@ABV0@@Z
??0QWidget@@QAE@PAV0@PBDV?$QFlags@W4WindowType@Qt@@@@@Z
??0QWidget@@QAE@PAV0@V?$QFlags@W4WindowType@Qt@@@@@Z
??0QWidgetAction@@QAE@ABV0@@Z
??0QWidgetAction@@QAE@PAVQObject@@@Z
??0QWidgetItem@@QAE@ABV0@@Z
??0QWidgetItem@@QAE@PAVQWidget@@@Z
??0QWidgetItemV2@@QAE@ABV0@@Z
??0QWidgetItemV2@@QAE@PAVQWidget@@@Z
??0QWidgetPrivate@@QAE@ABV0@@Z
??0QWidgetPrivate@@QAE@H@Z
??0QWidgetResizeHandler@@QAE@ABV0@@Z
??0QWidgetResizeHandler@@QAE@PAVQWidget@@0@Z
??0QWindowStateChangeEvent@@QAE@ABV0@@Z
??0QWindowStateChangeEvent@@QAE@V?$QFlags@W4WindowState@Qt@@@@@Z
??0QWindowStateChangeEvent@@QAE@V?$QFlags@W4WindowState@Qt@@@@_N@Z
??0QWindowSurface@@QAE@ABV0@@Z
??0QWindowSurface@@QAE@PAVQWidget@@@Z
??0QWindowsMime@@QAE@ABV0@@Z
??0QWindowsMime@@QAE@XZ
??0QWindowsStyle@@IAE@AAVQWindowsStylePrivate@@@Z
??0QWindowsStyle@@QAE@ABV0@@Z
??0QWindowsStyle@@QAE@XZ
??0QWindowsVistaStyle@@QAE@ABV0@@Z
??0QWindowsVistaStyle@@QAE@XZ
??0QWindowsXPStyle@@QAE@AAVQWindowsXPStylePrivate@@@Z
??0QWindowsXPStyle@@QAE@ABV0@@Z
??0QWindowsXPStyle@@QAE@XZ
??0QWizard@@QAE@ABV0@@Z
??0QWizard@@QAE@PAVQWidget@@V?$QFlags@W4WindowType@Qt@@@@@Z
??0QWizardPage@@QAE@ABV0@@Z
??0QWizardPage@@QAE@PAVQWidget@@@Z
??0QWorkspace@@QAE@ABV0@@Z
??0QWorkspace@@QAE@PAVQWidget@@@Z
??0QWorkspace@@QAE@PAVQWidget@@PBD@Z
??0Selector@QCss@@QAE@ABU01@@Z
??0Selector@QCss@@QAE@XZ
??0StyleRule@QCss@@QAE@ABU01@@Z
??0StyleRule@QCss@@QAE@XZ
??0StyleSelector@QCss@@QAE@ABV01@@Z
??0StyleSelector@QCss@@QAE@XZ
??0StyleSheet@QCss@@QAE@ABU01@@Z
??0StyleSheet@QCss@@QAE@XZ
??0Symbol@QCss@@QAE@ABU01@@Z
??0Symbol@QCss@@QAE@XZ
??0Tab@QTextOption@@QAE@XZ
??0Value@QCss@@QAE@ABU01@@Z
??0Value@QCss@@QAE@XZ
??0ValueExtractor@QCss@@QAE@ABU01@@Z
??0ValueExtractor@QCss@@QAE@ABV?$QVector@UDeclaration@QCss@@@@ABVQPalette@@@Z
??0iterator@QTextBlock@@AAE@PBVQTextDocumentPrivate@@HHH@Z
??0iterator@QTextBlock@@QAE@ABV01@@Z
??0iterator@QTextBlock@@QAE@XZ
??0iterator@QTextFrame@@AAE@PAV1@HHH@Z
??0iterator@QTextFrame@@QAE@ABV01@@Z
??0iterator@QTextFrame@@QAE@XZ
??1?$QList@VQItemSelectionRange@@@@QAE@XZ
??1AttributeSelector@QCss@@QAE@XZ
??1BasicSelector@QCss@@QAE@XZ
??1Declaration@QCss@@QAE@XZ
??1ImportRule@QCss@@QAE@XZ
??1MediaRule@QCss@@QAE@XZ
??1PageRule@QCss@@QAE@XZ
??1Parser@QCss@@QAE@XZ
??1Pseudo@QCss@@QAE@XZ
??1QAbstractButton@@UAE@XZ
??1QAbstractGraphicsShapeItem@@UAE@XZ
??1QAbstractItemDelegate@@UAE@XZ
??1QAbstractItemView@@UAE@XZ
??1QAbstractItemViewPrivate@@UAE@XZ
??1QAbstractPageSetupDialog@@UAE@XZ
??1QAbstractPrintDialog@@UAE@XZ
??1QAbstractProxyModel@@UAE@XZ
??1QAbstractScrollArea@@UAE@XZ
??1QAbstractSlider@@UAE@XZ
??1QAbstractSpinBox@@UAE@XZ
??1QAbstractTextDocumentLayout@@UAE@XZ
??1QAbstractUndoItem@@UAE@XZ
??1QAccessible2Interface@@UAE@XZ
??1QAccessibleApplication@@UAE@XZ
??1QAccessibleEditableTextInterface@@UAE@XZ
??1QAccessibleEvent@@UAE@XZ
??1QAccessibleFactoryInterface@@UAE@XZ
??1QAccessibleInterface@@UAE@XZ
??1QAccessibleInterfaceEx@@UAE@XZ
??1QAccessibleObject@@MAE@XZ
??1QAccessibleObjectEx@@MAE@XZ
??1QAccessiblePlugin@@UAE@XZ
??1QAccessibleSimpleEditableTextInterface@@UAE@XZ
??1QAccessibleTableInterface@@UAE@XZ
??1QAccessibleTextInterface@@UAE@XZ
??1QAccessibleValueInterface@@UAE@XZ
??1QAccessibleWidget@@MAE@XZ
??1QAccessibleWidgetEx@@MAE@XZ
??1QAction@@UAE@XZ
??1QActionEvent@@UAE@XZ
??1QActionGroup@@UAE@XZ
??1QApplication@@UAE@XZ
??1QApplicationPrivate@@UAE@XZ
??1QBitmap@@UAE@XZ
??1QBoxLayout@@UAE@XZ
??1QBrush@@QAE@XZ
??1QButtonGroup@@UAE@XZ
??1QCDEStyle@@UAE@XZ
??1QCalendarWidget@@UAE@XZ
??1QCheckBox@@UAE@XZ
??1QCleanlooksStyle@@UAE@XZ
??1QClipboard@@EAE@XZ
??1QClipboardEvent@@UAE@XZ
??1QCloseEvent@@UAE@XZ
??1QColorDialog@@EAE@XZ
??1QColorGroup@@QAE@XZ
??1QColormap@@QAE@XZ
??1QColumnView@@UAE@XZ
??1QComboBox@@UAE@XZ
??1QCommandLinkButton@@UAE@XZ
??1QCommonStyle@@UAE@XZ
??1QCompleter@@UAE@XZ
??1QConicalGradient@@QAE@XZ
??1QContextMenuEvent@@UAE@XZ
??1QCursor@@QAE@XZ
??1QDashStroker@@UAE@XZ
??1QDataWidgetMapper@@UAE@XZ
??1QDateEdit@@UAE@XZ
??1QDateTimeEdit@@UAE@XZ
??1QDesktopWidget@@UAE@XZ
??1QDial@@UAE@XZ
??1QDialog@@UAE@XZ
??1QDialogButtonBox@@UAE@XZ
??1QDirModel@@UAE@XZ
??1QDockWidget@@UAE@XZ
??1QDockWidgetLayout@@UAE@XZ
??1QDoubleSpinBox@@UAE@XZ
??1QDoubleValidator@@UAE@XZ
??1QDrag@@UAE@XZ
??1QDragEnterEvent@@UAE@XZ
??1QDragLeaveEvent@@UAE@XZ
??1QDragManager@@EAE@XZ
??1QDragMoveEvent@@UAE@XZ
??1QDragResponseEvent@@UAE@XZ
??1QDropEvent@@UAE@XZ
??1QErrorMessage@@UAE@XZ
??1QFileDialog@@UAE@XZ
??1QFileIconProvider@@UAE@XZ
??1QFileOpenEvent@@UAE@XZ
??1QFileSystemModel@@UAE@XZ
??1QFocusEvent@@UAE@XZ
??1QFocusFrame@@UAE@XZ
??1QFont@@QAE@XZ
??1QFontComboBox@@UAE@XZ
??1QFontDialog@@EAE@XZ
??1QFontEngine@@UAE@XZ
??1QFontEngineMulti@@UAE@XZ
??1QFontInfo@@QAE@XZ
??1QFontMetrics@@QAE@XZ
??1QFontMetricsF@@QAE@XZ
??1QFontPrivate@@QAE@XZ
??1QFormLayout@@UAE@XZ
??1QFrame@@UAE@XZ
??1QFramePrivate@@UAE@XZ
??1QGradient@@QAE@XZ
??1QGraphicsEllipseItem@@UAE@XZ
??1QGraphicsGridLayout@@UAE@XZ
??1QGraphicsItem@@UAE@XZ
??1QGraphicsItemAnimation@@UAE@XZ
??1QGraphicsItemGroup@@UAE@XZ
??1QGraphicsLayout@@UAE@XZ
??1QGraphicsLayoutItem@@UAE@XZ
??1QGraphicsLineItem@@UAE@XZ
??1QGraphicsLinearLayout@@UAE@XZ
??1QGraphicsPathItem@@UAE@XZ
??1QGraphicsPixmapItem@@UAE@XZ
??1QGraphicsPolygonItem@@UAE@XZ
??1QGraphicsProxyWidget@@UAE@XZ
??1QGraphicsRectItem@@UAE@XZ
??1QGraphicsScene@@UAE@XZ
??1QGraphicsSceneContextMenuEvent@@UAE@XZ
??1QGraphicsSceneDragDropEvent@@UAE@XZ
??1QGraphicsSceneEvent@@UAE@XZ
??1QGraphicsSceneHelpEvent@@UAE@XZ
??1QGraphicsSceneHoverEvent@@UAE@XZ
??1QGraphicsSceneMouseEvent@@UAE@XZ
??1QGraphicsSceneMoveEvent@@UAE@XZ
??1QGraphicsSceneResizeEvent@@UAE@XZ
??1QGraphicsSceneWheelEvent@@UAE@XZ
??1QGraphicsSimpleTextItem@@UAE@XZ
??1QGraphicsTextItem@@UAE@XZ
??1QGraphicsView@@UAE@XZ
??1QGraphicsWidget@@UAE@XZ
??1QGridLayout@@UAE@XZ
??1QGroupBox@@UAE@XZ
??1QHBoxLayout@@UAE@XZ
??1QHeaderView@@UAE@XZ
??1QHelpEvent@@UAE@XZ
??1QHideEvent@@UAE@XZ
??1QHoverEvent@@UAE@XZ
??1QIcon@@QAE@XZ
??1QIconDragEvent@@UAE@XZ
??1QIconEngine@@UAE@XZ
??1QIconEngineFactoryInterface@@UAE@XZ
??1QIconEngineFactoryInterfaceV2@@UAE@XZ
??1QIconEnginePlugin@@UAE@XZ
??1QIconEnginePluginV2@@UAE@XZ
??1QIconEngineV2@@UAE@XZ
??1QImage@@UAE@XZ
??1QImageIOHandler@@UAE@XZ
??1QImageIOHandlerFactoryInterface@@UAE@XZ
??1QImageIOPlugin@@UAE@XZ
??1QImageReader@@QAE@XZ
??1QImageTextKeyLang@@QAE@XZ
??1QImageWriter@@QAE@XZ
??1QInputContext@@UAE@XZ
??1QInputContextFactoryInterface@@UAE@XZ
??1QInputContextPlugin@@UAE@XZ
??1QInputDialog@@EAE@XZ
??1QInputEvent@@UAE@XZ
??1QInputMethodEvent@@UAE@XZ
??1QIntValidator@@UAE@XZ
??1QItemDelegate@@UAE@XZ
??1QItemEditorCreatorBase@@UAE@XZ
??1QItemEditorFactory@@UAE@XZ
??1QItemSelection@@QAE@XZ
??1QItemSelectionModel@@UAE@XZ
??1QItemSelectionRange@@QAE@XZ
??1QKeyEvent@@UAE@XZ
??1QKeyEventEx@@UAE@XZ
??1QKeySequence@@QAE@XZ
??1QLCDNumber@@UAE@XZ
??1QLabel@@UAE@XZ
??1QLayout@@UAE@XZ
??1QLayoutItem@@UAE@XZ
??1QLayoutPrivate@@UAE@XZ
??1QLineEdit@@UAE@XZ
??1QLinearGradient@@QAE@XZ
??1QListView@@UAE@XZ
??1QListWidget@@UAE@XZ
??1QListWidgetItem@@UAE@XZ
??1QMainWindow@@UAE@XZ
??1QMdiArea@@UAE@XZ
??1QMdiSubWindow@@UAE@XZ
??1QMenu@@UAE@XZ
??1QMenuBar@@UAE@XZ
??1QMenuItem@@UAE@XZ
??1QMenubarUpdatedEvent@@UAE@XZ
??1QMessageBox@@UAE@XZ
??1QMimeSource@@UAE@XZ
??1QMotifStyle@@UAE@XZ
??1QMouseEvent@@UAE@XZ
??1QMouseEventEx@@UAE@XZ
??1QMoveEvent@@UAE@XZ
??1QMovie@@UAE@XZ
??1QPageSetupDialog@@UAE@XZ
??1QPaintDevice@@UAE@XZ
??1QPaintEngine@@UAE@XZ
??1QPaintEvent@@UAE@XZ
??1QPainter@@QAE@XZ
??1QPainterPath@@QAE@XZ
??1QPainterPathStroker@@QAE@XZ
??1QPalette@@QAE@XZ
??1QPen@@QAE@XZ
??1QPicture@@UAE@XZ
??1QPictureFormatInterface@@UAE@XZ
??1QPictureFormatPlugin@@UAE@XZ
??1QPictureIO@@QAE@XZ
??1QPicturePrivate@@QAE@XZ
??1QPixmap@@UAE@XZ
??1QPixmapData@@UAE@XZ
??1QPixmapDataFactory@@UAE@XZ
??1QPlainTextDocumentLayout@@UAE@XZ
??1QPlainTextEdit@@UAE@XZ
??1QPlastiqueStyle@@UAE@XZ
??1QPolygon@@QAE@XZ
??1QPolygonF@@QAE@XZ
??1QPrintDialog@@UAE@XZ
??1QPrintEngine@@UAE@XZ
??1QPrintPreviewDialog@@UAE@XZ
??1QPrintPreviewWidget@@UAE@XZ
??1QPrinter@@UAE@XZ
??1QPrinterInfo@@QAE@XZ
??1QProgressBar@@UAE@XZ
??1QProgressDialog@@UAE@XZ
??1QProxyModel@@UAE@XZ
??1QPushButton@@UAE@XZ
??1QRadialGradient@@QAE@XZ
??1QRadioButton@@UAE@XZ
??1QRegExpValidator@@UAE@XZ
??1QRegion@@QAE@XZ
??1QResizeEvent@@UAE@XZ
??1QRubberBand@@UAE@XZ
??1QScrollArea@@UAE@XZ
??1QScrollBar@@UAE@XZ
??1QSessionManager@@EAE@XZ
??1QShortcut@@UAE@XZ
??1QShortcutEvent@@UAE@XZ
??1QShowEvent@@UAE@XZ
??1QSizeGrip@@UAE@XZ
??1QSlider@@UAE@XZ
??1QSortFilterProxyModel@@UAE@XZ
??1QSound@@UAE@XZ
??1QSpacerItem@@UAE@XZ
??1QSpinBox@@UAE@XZ
??1QSplashScreen@@UAE@XZ
??1QSplitter@@UAE@XZ
??1QSplitterHandle@@UAE@XZ
??1QStackedLayout@@UAE@XZ
??1QStackedWidget@@UAE@XZ
??1QStandardItem@@UAE@XZ
??1QStandardItemModel@@UAE@XZ
??1QStatusBar@@UAE@XZ
??1QStatusTipEvent@@UAE@XZ
??1QStringListModel@@UAE@XZ
??1QStroker@@UAE@XZ
??1QStrokerOps@@UAE@XZ
??1QStyle@@UAE@XZ
??1QStyleFactoryInterface@@UAE@XZ
??1QStyleHintReturn@@QAE@XZ
??1QStyleHintReturnMask@@QAE@XZ
??1QStyleHintReturnVariant@@QAE@XZ
??1QStyleOption@@QAE@XZ
??1QStyleOptionButton@@QAE@XZ
??1QStyleOptionComboBox@@QAE@XZ
??1QStyleOptionComplex@@QAE@XZ
??1QStyleOptionDockWidget@@QAE@XZ
??1QStyleOptionDockWidgetV2@@QAE@XZ
??1QStyleOptionFocusRect@@QAE@XZ
??1QStyleOptionFrame@@QAE@XZ
??1QStyleOptionFrameV2@@QAE@XZ
??1QStyleOptionGraphicsItem@@QAE@XZ
??1QStyleOptionGroupBox@@QAE@XZ
??1QStyleOptionHeader@@QAE@XZ
??1QStyleOptionMenuItem@@QAE@XZ
??1QStyleOptionProgressBar@@QAE@XZ
??1QStyleOptionProgressBarV2@@QAE@XZ
??1QStyleOptionQ3DockWindow@@QAE@XZ
??1QStyleOptionQ3ListView@@QAE@XZ
??1QStyleOptionQ3ListViewItem@@QAE@XZ
??1QStyleOptionRubberBand@@QAE@XZ
??1QStyleOptionSizeGrip@@QAE@XZ
??1QStyleOptionSlider@@QAE@XZ
??1QStyleOptionSpinBox@@QAE@XZ
??1QStyleOptionTab@@QAE@XZ
??1QStyleOptionTabBarBase@@QAE@XZ
??1QStyleOptionTabV2@@QAE@XZ
??1QStyleOptionTabWidgetFrame@@QAE@XZ
??1QStyleOptionTitleBar@@QAE@XZ
??1QStyleOptionToolBar@@QAE@XZ
??1QStyleOptionToolBox@@QAE@XZ
??1QStyleOptionToolBoxV2@@QAE@XZ
??1QStyleOptionToolButton@@QAE@XZ
??1QStyleOptionViewItem@@QAE@XZ
??1QStyleOptionViewItemV2@@QAE@XZ
??1QStyleOptionViewItemV3@@QAE@XZ
??1QStyleOptionViewItemV4@@QAE@XZ
??1QStylePlugin@@UAE@XZ
??1QStyledItemDelegate@@UAE@XZ
??1QSyntaxHighlighter@@UAE@XZ
??1QSystemTrayIcon@@UAE@XZ
??1QTabBar@@UAE@XZ
??1QTabWidget@@UAE@XZ
??1QTableView@@UAE@XZ
??1QTableWidget@@UAE@XZ
??1QTableWidgetItem@@UAE@XZ
??1QTableWidgetSelectionRange@@QAE@XZ
??1QTabletEvent@@UAE@XZ
??1QTessellator@@UAE@XZ
??1QTextBlockFormat@@QAE@XZ
??1QTextBlockGroup@@MAE@XZ
??1QTextBlockUserData@@UAE@XZ
??1QTextBrowser@@UAE@XZ
??1QTextCharFormat@@QAE@XZ
??1QTextControl@@UAE@XZ
??1QTextCursor@@QAE@XZ
??1QTextDocument@@UAE@XZ
??1QTextDocumentFragment@@QAE@XZ
??1QTextEdit@@UAE@XZ
??1QTextEngine@@QAE@XZ
??1QTextFormat@@QAE@XZ
??1QTextFormatCollection@@QAE@XZ
??1QTextFrame@@UAE@XZ
??1QTextFrameFormat@@QAE@XZ
??1QTextFrameLayoutData@@UAE@XZ
??1QTextImageFormat@@QAE@XZ
??1QTextImageHandler@@UAE@XZ
??1QTextLayout@@QAE@XZ
??1QTextList@@UAE@XZ
??1QTextListFormat@@QAE@XZ
??1QTextObject@@MAE@XZ
??1QTextObjectInterface@@UAE@XZ
??1QTextOption@@QAE@XZ
??1QTextTable@@UAE@XZ
??1QTextTableCell@@QAE@XZ
??1QTextTableCellFormat@@QAE@XZ
??1QTextTableFormat@@QAE@XZ
??1QTimeEdit@@UAE@XZ
??1QToolBar@@UAE@XZ
??1QToolBarChangeEvent@@UAE@XZ
??1QToolBarItem@@UAE@XZ
??1QToolBarLayout@@UAE@XZ
??1QToolBox@@UAE@XZ
??1QToolButton@@UAE@XZ
??1QTreeView@@UAE@XZ
??1QTreeWidget@@UAE@XZ
??1QTreeWidgetItem@@UAE@XZ
??1QTreeWidgetItemIterator@@QAE@XZ
??1QUndoCommand@@UAE@XZ
??1QUndoGroup@@UAE@XZ
??1QUndoStack@@UAE@XZ
??1QUndoView@@UAE@XZ
??1QVBoxLayout@@UAE@XZ
??1QValidator@@UAE@XZ
??1QWhatsThisClickedEvent@@UAE@XZ
??1QWheelEvent@@UAE@XZ
??1QWidget@@UAE@XZ
??1QWidgetAction@@UAE@XZ
??1QWidgetItem@@UAE@XZ
??1QWidgetItemV2@@UAE@XZ
??1QWidgetPrivate@@UAE@XZ
??1QWidgetResizeHandler@@UAE@XZ
??1QWindowStateChangeEvent@@UAE@XZ
??1QWindowSurface@@UAE@XZ
??1QWindowsMime@@UAE@XZ
??1QWindowsStyle@@UAE@XZ
??1QWindowsVistaStyle@@UAE@XZ
??1QWindowsXPStyle@@UAE@XZ
??1QWizard@@UAE@XZ
??1QWizardPage@@UAE@XZ
??1QWorkspace@@UAE@XZ
??1Selector@QCss@@QAE@XZ
??1StyleRule@QCss@@QAE@XZ
??1StyleSelector@QCss@@UAE@XZ
??1StyleSheet@QCss@@QAE@XZ
??1Symbol@QCss@@QAE@XZ
??1Value@QCss@@QAE@XZ
??1ValueExtractor@QCss@@QAE@XZ
??4?$QList@VQItemSelectionRange@@@@QAEAAV0@ABV0@@Z
??4AttributeSelector@QCss@@QAEAAU01@ABU01@@Z
??4BasicSelector@QCss@@QAEAAU01@ABU01@@Z
??4Declaration@QCss@@QAEAAU01@ABU01@@Z
??4ImportRule@QCss@@QAEAAU01@ABU01@@Z
??4MediaRule@QCss@@QAEAAU01@ABU01@@Z
??4PageRule@QCss@@QAEAAU01@ABU01@@Z
??4Parser@QCss@@QAEAAV01@ABV01@@Z
??4Pseudo@QCss@@QAEAAU01@ABU01@@Z
??4QAbstractButton@@QAEAAV0@ABV0@@Z
??4QAbstractGraphicsShapeItem@@QAEAAV0@ABV0@@Z
??4QAbstractItemDelegate@@QAEAAV0@ABV0@@Z
??4QAbstractItemView@@QAEAAV0@ABV0@@Z
??4QAbstractItemViewPrivate@@QAEAAV0@ABV0@@Z
??4QAbstractPageSetupDialog@@QAEAAV0@ABV0@@Z
??4QAbstractPrintDialog@@QAEAAV0@ABV0@@Z
??4QAbstractProxyModel@@QAEAAV0@ABV0@@Z
??4QAbstractScrollArea@@QAEAAV0@ABV0@@Z
??4QAbstractSlider@@QAEAAV0@ABV0@@Z
??4QAbstractSpinBox@@QAEAAV0@ABV0@@Z
??4QAbstractTextDocumentLayout@@QAEAAV0@ABV0@@Z
??4QAbstractUndoItem@@QAEAAV0@ABV0@@Z
??4QAccessible2Interface@@QAEAAV0@ABV0@@Z
??4QAccessible@@QAEAAV0@ABV0@@Z
??4QAccessibleApplication@@QAEAAV0@ABV0@@Z
??4QAccessibleEditableTextInterface@@QAEAAV0@ABV0@@Z
??4QAccessibleEvent@@QAEAAV0@ABV0@@Z
??4QAccessibleFactoryInterface@@QAEAAU0@ABU0@@Z
??4QAccessibleInterface@@QAEAAV0@ABV0@@Z
??4QAccessibleInterfaceEx@@QAEAAV0@ABV0@@Z
??4QAccessibleObject@@QAEAAV0@ABV0@@Z
??4QAccessibleObjectEx@@QAEAAV0@ABV0@@Z
??4QAccessiblePlugin@@QAEAAV0@ABV0@@Z
??4QAccessibleSimpleEditableTextInterface@@QAEAAV0@ABV0@@Z
??4QAccessibleTableInterface@@QAEAAV0@ABV0@@Z
??4QAccessibleTextInterface@@QAEAAV0@ABV0@@Z
??4QAccessibleValueInterface@@QAEAAV0@ABV0@@Z
??4QAccessibleWidget@@QAEAAV0@ABV0@@Z
??4QAccessibleWidgetEx@@QAEAAV0@ABV0@@Z
??4QAction@@QAEAAV0@ABV0@@Z
??4QActionEvent@@QAEAAV0@ABV0@@Z
??4QActionGroup@@QAEAAV0@ABV0@@Z
??4QApplication@@QAEAAV0@ABV0@@Z
??4QBezier@@QAEAAV0@ABV0@@Z
??4QBitmap@@QAEAAV0@ABV0@@Z
??4QBitmap@@QAEAAV0@ABVQImage@@@Z
??4QBitmap@@QAEAAV0@ABVQPixmap@@@Z
??4QBoxLayout@@QAEAAV0@ABV0@@Z
??4QBrush@@QAEAAV0@ABV0@@Z
??4QButtonGroup@@QAEAAV0@ABV0@@Z
??4QCDEStyle@@QAEAAV0@ABV0@@Z
??4QCalendarWidget@@QAEAAV0@ABV0@@Z
??4QCheckBox@@QAEAAV0@ABV0@@Z
??4QCleanlooksStyle@@QAEAAV0@ABV0@@Z
??4QClipboard@@QAEAAV0@ABV0@@Z
??4QClipboardEvent@@QAEAAV0@ABV0@@Z
??4QCloseEvent@@QAEAAV0@ABV0@@Z
??4QColor@@QAEAAV0@ABV0@@Z
??4QColor@@QAEAAV0@W4GlobalColor@Qt@@@Z
??4QColorDialog@@QAEAAV0@ABV0@@Z
??4QColorGroup@@QAEAAV0@ABV0@@Z
??4QColormap@@QAEAAV0@ABV0@@Z
??4QColumnView@@QAEAAV0@ABV0@@Z
??4QComboBox@@QAEAAV0@ABV0@@Z
??4QCommandLinkButton@@QAEAAV0@ABV0@@Z
??4QCommonStyle@@QAEAAV0@ABV0@@Z
??4QCompleter@@QAEAAV0@ABV0@@Z
??4QConicalGradient@@QAEAAV0@ABV0@@Z
??4QContextMenuEvent@@QAEAAV0@ABV0@@Z
??4QCursor@@QAEAAV0@ABV0@@Z
??4QDashStroker@@QAEAAV0@ABV0@@Z
??4QDataWidgetMapper@@QAEAAV0@ABV0@@Z
??4QDateEdit@@QAEAAV0@ABV0@@Z
??4QDateTimeEdit@@QAEAAV0@ABV0@@Z
??4QDesktopServices@@QAEAAV0@ABV0@@Z
??4QDesktopWidget@@QAEAAV0@ABV0@@Z
??4QDial@@QAEAAV0@ABV0@@Z
??4QDialog@@QAEAAV0@ABV0@@Z
??4QDialogButtonBox@@QAEAAV0@ABV0@@Z
??4QDirModel@@QAEAAV0@ABV0@@Z
??4QDockWidget@@QAEAAV0@ABV0@@Z
??4QDockWidgetLayout@@QAEAAV0@ABV0@@Z
??4QDoubleSpinBox@@QAEAAV0@ABV0@@Z
??4QDoubleValidator@@QAEAAV0@ABV0@@Z
??4QDrag@@QAEAAV0@ABV0@@Z
??4QDragEnterEvent@@QAEAAV0@ABV0@@Z
??4QDragLeaveEvent@@QAEAAV0@ABV0@@Z
??4QDragManager@@QAEAAV0@ABV0@@Z
??4QDragMoveEvent@@QAEAAV0@ABV0@@Z
??4QDragResponseEvent@@QAEAAV0@ABV0@@Z
??4QDropEvent@@QAEAAV0@ABV0@@Z
??4QErrorMessage@@QAEAAV0@ABV0@@Z
??4QFileDialog@@QAEAAV0@ABV0@@Z
??4QFileIconProvider@@QAEAAV0@ABV0@@Z
??4QFileOpenEvent@@QAEAAV0@ABV0@@Z
??4QFileSystemModel@@QAEAAV0@ABV0@@Z
??4QFocusEvent@@QAEAAV0@ABV0@@Z
??4QFocusFrame@@QAEAAV0@ABV0@@Z
??4QFont@@QAEAAV0@ABV0@@Z
??4QFontComboBox@@QAEAAV0@ABV0@@Z
??4QFontDatabase@@QAEAAV0@ABV0@@Z
??4QFontDialog@@QAEAAV0@ABV0@@Z
??4QFontEngine@@QAEAAV0@ABV0@@Z
??4QFontEngineMulti@@QAEAAV0@ABV0@@Z
??4QFontInfo@@QAEAAV0@ABV0@@Z
??4QFontMetrics@@QAEAAV0@ABV0@@Z
??4QFontMetricsF@@QAEAAV0@ABV0@@Z
??4QFontMetricsF@@QAEAAV0@ABVQFontMetrics@@@Z
??4QFontPrivate@@AAEAAV0@ABV0@@Z
??4QFormLayout@@QAEAAV0@ABV0@@Z
??4QFrame@@QAEAAV0@ABV0@@Z
??4QFramePrivate@@QAEAAV0@ABV0@@Z
??4QGradient@@QAEAAV0@ABV0@@Z
??4QGraphicsEllipseItem@@QAEAAV0@ABV0@@Z
??4QGraphicsGridLayout@@QAEAAV0@ABV0@@Z
??4QGraphicsItem@@QAEAAV0@ABV0@@Z
??4QGraphicsItemAnimation@@QAEAAV0@ABV0@@Z
??4QGraphicsItemGroup@@QAEAAV0@ABV0@@Z
??4QGraphicsLayout@@QAEAAV0@ABV0@@Z
??4QGraphicsLayoutItem@@QAEAAV0@ABV0@@Z
??4QGraphicsLineItem@@QAEAAV0@ABV0@@Z
??4QGraphicsLinearLayout@@QAEAAV0@ABV0@@Z
??4QGraphicsPathItem@@QAEAAV0@ABV0@@Z
??4QGraphicsPixmapItem@@QAEAAV0@ABV0@@Z
??4QGraphicsPolygonItem@@QAEAAV0@ABV0@@Z
??4QGraphicsProxyWidget@@QAEAAV0@ABV0@@Z
??4QGraphicsRectItem@@QAEAAV0@ABV0@@Z
??4QGraphicsScene@@QAEAAV0@ABV0@@Z
??4QGraphicsSceneContextMenuEvent@@QAEAAV0@ABV0@@Z
??4QGraphicsSceneDragDropEvent@@QAEAAV0@ABV0@@Z
??4QGraphicsSceneEvent@@QAEAAV0@ABV0@@Z
??4QGraphicsSceneHelpEvent@@QAEAAV0@ABV0@@Z
??4QGraphicsSceneHoverEvent@@QAEAAV0@ABV0@@Z
??4QGraphicsSceneMouseEvent@@QAEAAV0@ABV0@@Z
??4QGraphicsSceneMoveEvent@@QAEAAV0@ABV0@@Z
??4QGraphicsSceneResizeEvent@@QAEAAV0@ABV0@@Z
??4QGraphicsSceneWheelEvent@@QAEAAV0@ABV0@@Z
??4QGraphicsSimpleTextItem@@QAEAAV0@ABV0@@Z
??4QGraphicsTextItem@@QAEAAV0@ABV0@@Z
??4QGraphicsView@@QAEAAV0@ABV0@@Z
??4QGraphicsWidget@@QAEAAV0@ABV0@@Z
??4QGridLayout@@QAEAAV0@ABV0@@Z
??4QGroupBox@@QAEAAV0@ABV0@@Z
??4QHBoxLayout@@QAEAAV0@ABV0@@Z
??4QHeaderView@@QAEAAV0@ABV0@@Z
??4QHelpEvent@@QAEAAV0@ABV0@@Z
??4QHideEvent@@QAEAAV0@ABV0@@Z
??4QHoverEvent@@QAEAAV0@ABV0@@Z
??4QIcon@@QAEAAV0@ABV0@@Z
??4QIconDragEvent@@QAEAAV0@ABV0@@Z
??4QIconEngine@@QAEAAV0@ABV0@@Z
??4QIconEngineFactoryInterface@@QAEAAU0@ABU0@@Z
??4QIconEngineFactoryInterfaceV2@@QAEAAU0@ABU0@@Z
??4QIconEnginePlugin@@QAEAAV0@ABV0@@Z
??4QIconEnginePluginV2@@QAEAAV0@ABV0@@Z
??4QIconEngineV2@@QAEAAV0@ABV0@@Z
??4QImage@@QAEAAV0@ABV0@@Z
??4QImageIOHandler@@QAEAAV0@ABV0@@Z
??4QImageIOHandlerFactoryInterface@@QAEAAU0@ABU0@@Z
??4QImageIOPlugin@@QAEAAV0@ABV0@@Z
??4QImageReader@@QAEAAV0@ABV0@@Z
??4QImageTextKeyLang@@QAEAAV0@ABV0@@Z
??4QImageWriter@@QAEAAV0@ABV0@@Z
??4QInputContextFactory@@QAEAAV0@ABV0@@Z
??4QInputContextFactoryInterface@@QAEAAU0@ABU0@@Z
??4QInputContextPlugin@@QAEAAV0@ABV0@@Z
??4QInputDialog@@QAEAAV0@ABV0@@Z
??4QInputEvent@@QAEAAV0@ABV0@@Z
??4QInputMethodEvent@@QAEAAV0@ABV0@@Z
??4QIntValidator@@QAEAAV0@ABV0@@Z
??4QItemDelegate@@QAEAAV0@ABV0@@Z
??4QItemEditorCreatorBase@@QAEAAV0@ABV0@@Z
??4QItemEditorFactory@@QAEAAV0@ABV0@@Z
??4QItemSelection@@QAEAAV0@ABV0@@Z
??4QItemSelectionModel@@QAEAAV0@ABV0@@Z
??4QItemSelectionRange@@QAEAAV0@ABV0@@Z
??4QKeyEvent@@QAEAAV0@ABV0@@Z
??4QKeyEventEx@@QAEAAV0@ABV0@@Z
??4QKeySequence@@QAEAAV0@ABV0@@Z
??4QLCDNumber@@QAEAAV0@ABV0@@Z
??4QLabel@@QAEAAV0@ABV0@@Z
??4QLayout@@QAEAAV0@ABV0@@Z
??4QLayoutItem@@QAEAAV0@ABV0@@Z
??4QLayoutIterator@@QAEAAV0@ABV0@@Z
??4QLayoutPrivate@@QAEAAV0@ABV0@@Z
??4QLineEdit@@QAEAAV0@ABV0@@Z
??4QLinearGradient@@QAEAAV0@ABV0@@Z
??4QListView@@QAEAAV0@ABV0@@Z
??4QListWidget@@QAEAAV0@ABV0@@Z
??4QListWidgetItem@@QAEAAV0@ABV0@@Z
??4QMainWindow@@QAEAAV0@ABV0@@Z
??4QMatrix@@QAEAAV0@ABV0@@Z
??4QMdiArea@@QAEAAV0@ABV0@@Z
??4QMdiSubWindow@@QAEAAV0@ABV0@@Z
??4QMenu@@QAEAAV0@ABV0@@Z
??4QMenuBar@@QAEAAV0@ABV0@@Z
??4QMenuItem@@QAEAAV0@ABV0@@Z
??4QMenubarUpdatedEvent@@QAEAAV0@ABV0@@Z
??4QMessageBox@@QAEAAV0@ABV0@@Z
??4QMimeSource@@QAEAAV0@ABV0@@Z
??4QMotifStyle@@QAEAAV0@ABV0@@Z
??4QMouseEvent@@QAEAAV0@ABV0@@Z
??4QMouseEventEx@@QAEAAV0@ABV0@@Z
??4QMoveEvent@@QAEAAV0@ABV0@@Z
??4QMovie@@QAEAAV0@ABV0@@Z
??4QPageSetupDialog@@QAEAAV0@ABV0@@Z
??4QPaintDevice@@QAEAAV0@ABV0@@Z
??4QPaintEngine@@QAEAAV0@ABV0@@Z
??4QPaintEngineState@@QAEAAV0@ABV0@@Z
??4QPaintEvent@@QAEAAV0@ABV0@@Z
??4QPainter@@QAEAAV0@ABV0@@Z
??4QPainterPath@@QAEAAV0@ABV0@@Z
??4QPainterPathStroker@@QAEAAV0@ABV0@@Z
??4QPalette@@QAEAAV0@ABV0@@Z
??4QPen@@QAEAAV0@ABV0@@Z
??4QPicture@@QAEAAV0@ABV0@@Z
??4QPictureFormatInterface@@QAEAAU0@ABU0@@Z
??4QPictureFormatPlugin@@QAEAAV0@ABV0@@Z
??4QPictureIO@@QAEAAV0@ABV0@@Z
??4QPicturePrivate@@QAEAAV0@ABV0@@Z
??4QPixmap@@QAEAAV0@ABV0@@Z
??4QPixmap@@QAEAAV0@ABVQImage@@@Z
??4QPixmapCache@@QAEAAV0@ABV0@@Z
??4QPixmapData@@QAEAAV0@ABV0@@Z
??4QPixmapDataFactory@@QAEAAV0@ABV0@@Z
??4QPlainTextDocumentLayout@@QAEAAV0@ABV0@@Z
??4QPlainTextEdit@@QAEAAV0@ABV0@@Z
??4QPlastiqueStyle@@QAEAAV0@ABV0@@Z
??4QPolygon@@QAEAAV0@ABV0@@Z
??4QPolygonF@@QAEAAV0@ABV0@@Z
??4QPrintDialog@@QAEAAV0@ABV0@@Z
??4QPrintEngine@@QAEAAV0@ABV0@@Z
??4QPrintPreviewDialog@@QAEAAV0@ABV0@@Z
??4QPrintPreviewWidget@@QAEAAV0@ABV0@@Z
??4QPrinter@@QAEAAV0@ABV0@@Z
??4QPrinterInfo@@QAEAAV0@ABV0@@Z
??4QProgressBar@@QAEAAV0@ABV0@@Z
??4QProgressDialog@@QAEAAV0@ABV0@@Z
??4QProxyModel@@QAEAAV0@ABV0@@Z
??4QPushButton@@QAEAAV0@ABV0@@Z
??4QRadialGradient@@QAEAAV0@ABV0@@Z
??4QRadioButton@@QAEAAV0@ABV0@@Z
??4QRegExpValidator@@QAEAAV0@ABV0@@Z
??4QRegion@@QAEAAV0@ABV0@@Z
??4QResizeEvent@@QAEAAV0@ABV0@@Z
??4QRubberBand@@QAEAAV0@ABV0@@Z
??4QScrollArea@@QAEAAV0@ABV0@@Z
??4QScrollBar@@QAEAAV0@ABV0@@Z
??4QSessionManager@@QAEAAV0@ABV0@@Z
??4QShortcut@@QAEAAV0@ABV0@@Z
??4QShortcutEvent@@QAEAAV0@ABV0@@Z
??4QShowEvent@@QAEAAV0@ABV0@@Z
??4QSizeGrip@@QAEAAV0@ABV0@@Z
??4QSizePolicy@@QAEAAV0@ABV0@@Z
??4QSlider@@QAEAAV0@ABV0@@Z
??4QSortFilterProxyModel@@QAEAAV0@ABV0@@Z
??4QSound@@QAEAAV0@ABV0@@Z
??4QSpacerItem@@QAEAAV0@ABV0@@Z
??4QSpinBox@@QAEAAV0@ABV0@@Z
??4QSplashScreen@@QAEAAV0@ABV0@@Z
??4QSplitter@@QAEAAV0@ABV0@@Z
??4QSplitterHandle@@QAEAAV0@ABV0@@Z
??4QStackedLayout@@QAEAAV0@ABV0@@Z
??4QStackedWidget@@QAEAAV0@ABV0@@Z
??4QStandardItem@@IAEAAV0@ABV0@@Z
??4QStandardItemModel@@QAEAAV0@ABV0@@Z
??4QStatusBar@@QAEAAV0@ABV0@@Z
??4QStatusTipEvent@@QAEAAV0@ABV0@@Z
??4QStringListModel@@QAEAAV0@ABV0@@Z
??4QStroker@@QAEAAV0@ABV0@@Z
??4QStrokerOps@@QAEAAV0@ABV0@@Z
??4QStyle@@QAEAAV0@ABV0@@Z
??4QStyleFactory@@QAEAAV0@ABV0@@Z
??4QStyleFactoryInterface@@QAEAAU0@ABU0@@Z
??4QStyleHintReturn@@QAEAAV0@ABV0@@Z
??4QStyleHintReturnMask@@QAEAAV0@ABV0@@Z
??4QStyleHintReturnVariant@@QAEAAV0@ABV0@@Z
??4QStyleOption@@QAEAAV0@ABV0@@Z
??4QStyleOptionButton@@QAEAAV0@ABV0@@Z
??4QStyleOptionComboBox@@QAEAAV0@ABV0@@Z
??4QStyleOptionComplex@@QAEAAV0@ABV0@@Z
??4QStyleOptionDockWidget@@QAEAAV0@ABV0@@Z
??4QStyleOptionDockWidgetV2@@QAEAAV0@ABV0@@Z
??4QStyleOptionDockWidgetV2@@QAEAAV0@ABVQStyleOptionDockWidget@@@Z
??4QStyleOptionFocusRect@@QAEAAV0@ABV0@@Z
??4QStyleOptionFrame@@QAEAAV0@ABV0@@Z
??4QStyleOptionFrameV2@@QAEAAV0@ABV0@@Z
??4QStyleOptionFrameV2@@QAEAAV0@ABVQStyleOptionFrame@@@Z
??4QStyleOptionGraphicsItem@@QAEAAV0@ABV0@@Z
??4QStyleOptionGroupBox@@QAEAAV0@ABV0@@Z
??4QStyleOptionHeader@@QAEAAV0@ABV0@@Z
??4QStyleOptionMenuItem@@QAEAAV0@ABV0@@Z
??4QStyleOptionProgressBar@@QAEAAV0@ABV0@@Z
??4QStyleOptionProgressBarV2@@QAEAAV0@ABV0@@Z
??4QStyleOptionProgressBarV2@@QAEAAV0@ABVQStyleOptionProgressBar@@@Z
??4QStyleOptionQ3DockWindow@@QAEAAV0@ABV0@@Z
??4QStyleOptionQ3ListView@@QAEAAV0@ABV0@@Z
??4QStyleOptionQ3ListViewItem@@QAEAAV0@ABV0@@Z
??4QStyleOptionRubberBand@@QAEAAV0@ABV0@@Z
??4QStyleOptionSizeGrip@@QAEAAV0@ABV0@@Z
??4QStyleOptionSlider@@QAEAAV0@ABV0@@Z
??4QStyleOptionSpinBox@@QAEAAV0@ABV0@@Z
??4QStyleOptionTab@@QAEAAV0@ABV0@@Z
??4QStyleOptionTabBarBase@@QAEAAV0@ABV0@@Z
??4QStyleOptionTabV2@@QAEAAV0@ABV0@@Z
??4QStyleOptionTabV2@@QAEAAV0@ABVQStyleOptionTab@@@Z
??4QStyleOptionTabWidgetFrame@@QAEAAV0@ABV0@@Z
??4QStyleOptionTitleBar@@QAEAAV0@ABV0@@Z
??4QStyleOptionToolBar@@QAEAAV0@ABV0@@Z
??4QStyleOptionToolBox@@QAEAAV0@ABV0@@Z
??4QStyleOptionToolBoxV2@@QAEAAV0@ABV0@@Z
??4QStyleOptionToolBoxV2@@QAEAAV0@ABVQStyleOptionToolBox@@@Z
??4QStyleOptionToolButton@@QAEAAV0@ABV0@@Z
??4QStyleOptionViewItem@@QAEAAV0@ABV0@@Z
??4QStyleOptionViewItemV2@@QAEAAV0@ABV0@@Z
??4QStyleOptionViewItemV2@@QAEAAV0@ABVQStyleOptionViewItem@@@Z
??4QStyleOptionViewItemV3@@QAEAAV0@ABV0@@Z
??4QStyleOptionViewItemV3@@QAEAAV0@ABVQStyleOptionViewItem@@@Z
??4QStyleOptionViewItemV4@@QAEAAV0@ABV0@@Z
??4QStyleOptionViewItemV4@@QAEAAV0@ABVQStyleOptionViewItem@@@Z
??4QStylePlugin@@QAEAAV0@ABV0@@Z
??4QStyledItemDelegate@@QAEAAV0@ABV0@@Z
??4QSyntaxHighlighter@@QAEAAV0@ABV0@@Z
??4QSystemTrayIcon@@QAEAAV0@ABV0@@Z
??4QTabBar@@QAEAAV0@ABV0@@Z
??4QTabWidget@@QAEAAV0@ABV0@@Z
??4QTableView@@QAEAAV0@ABV0@@Z
??4QTableWidget@@QAEAAV0@ABV0@@Z
??4QTableWidgetItem@@QAEAAV0@ABV0@@Z
??4QTableWidgetSelectionRange@@QAEAAV0@ABV0@@Z
??4QTabletEvent@@QAEAAV0@ABV0@@Z
??4QTessellator@@QAEAAV0@ABV0@@Z
??4QTextBlock@@QAEAAV0@ABV0@@Z
??4QTextBlockFormat@@QAEAAV0@ABV0@@Z
??4QTextBlockGroup@@QAEAAV0@ABV0@@Z
??4QTextBlockUserData@@QAEAAV0@ABV0@@Z
??4QTextBrowser@@QAEAAV0@ABV0@@Z
??4QTextCharFormat@@QAEAAV0@ABV0@@Z
??4QTextControl@@QAEAAV0@ABV0@@Z
??4QTextCursor@@QAEAAV0@ABV0@@Z
??4QTextDocument@@QAEAAV0@ABV0@@Z
??4QTextDocumentFragment@@QAEAAV0@ABV0@@Z
??4QTextEdit@@QAEAAV0@ABV0@@Z
??4QTextEngine@@QAEAAV0@ABV0@@Z
??4QTextFormat@@QAEAAV0@ABV0@@Z
??4QTextFormatCollection@@QAEAAV0@ABV0@@Z
??4QTextFragment@@QAEAAV0@ABV0@@Z
??4QTextFrame@@QAEAAV0@ABV0@@Z
??4QTextFrameFormat@@QAEAAV0@ABV0@@Z
??4QTextFrameLayoutData@@QAEAAV0@ABV0@@Z
??4QTextImageFormat@@QAEAAV0@ABV0@@Z
??4QTextImageHandler@@QAEAAV0@ABV0@@Z
??4QTextInlineObject@@QAEAAV0@ABV0@@Z
??4QTextItem@@QAEAAV0@ABV0@@Z
??4QTextLayout@@QAEAAV0@ABV0@@Z
??4QTextLength@@QAEAAV0@ABV0@@Z
??4QTextLine@@QAEAAV0@ABV0@@Z
??4QTextList@@QAEAAV0@ABV0@@Z
??4QTextListFormat@@QAEAAV0@ABV0@@Z
??4QTextObject@@QAEAAV0@ABV0@@Z
??4QTextObjectInterface@@QAEAAV0@ABV0@@Z
??4QTextOption@@QAEAAV0@ABV0@@Z
??4QTextTable@@QAEAAV0@ABV0@@Z
??4QTextTableCell@@QAEAAV0@ABV0@@Z
??4QTextTableCellFormat@@QAEAAV0@ABV0@@Z
??4QTextTableFormat@@QAEAAV0@ABV0@@Z
??4QTimeEdit@@QAEAAV0@ABV0@@Z
??4QToolBar@@QAEAAV0@ABV0@@Z
??4QToolBarChangeEvent@@QAEAAV0@ABV0@@Z
??4QToolBarItem@@QAEAAV0@ABV0@@Z
??4QToolBarLayout@@QAEAAV0@ABV0@@Z
??4QToolBox@@QAEAAV0@ABV0@@Z
??4QToolButton@@QAEAAV0@ABV0@@Z
??4QToolTip@@QAEAAV0@ABV0@@Z
??4QTransform@@QAEAAV0@ABV0@@Z
??4QTreeView@@QAEAAV0@ABV0@@Z
??4QTreeWidget@@QAEAAV0@ABV0@@Z
??4QTreeWidgetItem@@QAEAAV0@ABV0@@Z
??4QTreeWidgetItemIterator@@QAEAAV0@ABV0@@Z
??4QUndoCommand@@QAEAAV0@ABV0@@Z
??4QUndoGroup@@QAEAAV0@ABV0@@Z
??4QUndoStack@@QAEAAV0@ABV0@@Z
??4QUndoView@@QAEAAV0@ABV0@@Z
??4QVBoxLayout@@QAEAAV0@ABV0@@Z
??4QValidator@@QAEAAV0@ABV0@@Z
??4QWhatsThis@@QAEAAV0@ABV0@@Z
??4QWhatsThisClickedEvent@@QAEAAV0@ABV0@@Z
??4QWheelEvent@@QAEAAV0@ABV0@@Z
??4QWidget@@QAEAAV0@ABV0@@Z
??4QWidgetAction@@QAEAAV0@ABV0@@Z
??4QWidgetItem@@QAEAAV0@ABV0@@Z
??4QWidgetItemV2@@QAEAAV0@ABV0@@Z
??4QWidgetPrivate@@QAEAAV0@ABV0@@Z
??4QWidgetResizeHandler@@QAEAAV0@ABV0@@Z
??4QWindowStateChangeEvent@@QAEAAV0@ABV0@@Z
??4QWindowSurface@@QAEAAV0@ABV0@@Z
??4QWindowsMime@@QAEAAV0@ABV0@@Z
??4QWindowsStyle@@QAEAAV0@ABV0@@Z
??4QWindowsVistaStyle@@QAEAAV0@ABV0@@Z
??4QWindowsXPStyle@@QAEAAV0@ABV0@@Z
??4QWizard@@QAEAAV0@ABV0@@Z
??4QWizardPage@@QAEAAV0@ABV0@@Z
??4QWorkspace@@QAEAAV0@ABV0@@Z
??4Selector@QCss@@QAEAAU01@ABU01@@Z
??4StyleRule@QCss@@QAEAAU01@ABU01@@Z
??4StyleSelector@QCss@@QAEAAV01@ABV01@@Z
??4StyleSheet@QCss@@QAEAAU01@ABU01@@Z
??4Symbol@QCss@@QAEAAU01@ABU01@@Z
??4Tab@QTextOption@@QAEAAU01@ABU01@@Z
??4Value@QCss@@QAEAAU01@ABU01@@Z
??4ValueExtractor@QCss@@QAEAAU01@ABU01@@Z
??4iterator@QTextBlock@@QAEAAV01@ABV01@@Z
??4iterator@QTextFrame@@QAEAAV01@ABV01@@Z
??5@YAAAVQDataStream@@AAV0@AAVQBrush@@@Z
??5@YAAAVQDataStream@@AAV0@AAVQColor@@@Z
??5@YAAAVQDataStream@@AAV0@AAVQColorGroup@@@Z
??5@YAAAVQDataStream@@AAV0@AAVQCursor@@@Z
??5@YAAAVQDataStream@@AAV0@AAVQFont@@@Z
??5@YAAAVQDataStream@@AAV0@AAVQIcon@@@Z
??5@YAAAVQDataStream@@AAV0@AAVQImage@@@Z
??5@YAAAVQDataStream@@AAV0@AAVQKeySequence@@@Z
??5@YAAAVQDataStream@@AAV0@AAVQListWidgetItem@@@Z
??5@YAAAVQDataStream@@AAV0@AAVQMatrix@@@Z
??5@YAAAVQDataStream@@AAV0@AAVQPainterPath@@@Z
??5@YAAAVQDataStream@@AAV0@AAVQPalette@@@Z
??5@YAAAVQDataStream@@AAV0@AAVQPen@@@Z
??5@YAAAVQDataStream@@AAV0@AAVQPicture@@@Z
??5@YAAAVQDataStream@@AAV0@AAVQPixmap@@@Z
??5@YAAAVQDataStream@@AAV0@AAVQPolygon@@@Z
??5@YAAAVQDataStream@@AAV0@AAVQPolygonF@@@Z
??5@YAAAVQDataStream@@AAV0@AAVQRegion@@@Z
??5@YAAAVQDataStream@@AAV0@AAVQSizePolicy@@@Z
??5@YAAAVQDataStream@@AAV0@AAVQStandardItem@@@Z
??5@YAAAVQDataStream@@AAV0@AAVQTableWidgetItem@@@Z
??5@YAAAVQDataStream@@AAV0@AAVQTextFormat@@@Z
??5@YAAAVQDataStream@@AAV0@AAVQTextLength@@@Z
??5@YAAAVQDataStream@@AAV0@AAVQTransform@@@Z
??5@YAAAVQDataStream@@AAV0@AAVQTreeWidgetItem@@@Z
??5@YAAAVQTextStream@@AAV0@AAVQSplitter@@@Z
??6?$QList@VQItemSelectionRange@@@@QAEAAV0@ABV0@@Z
??6?$QList@VQItemSelectionRange@@@@QAEAAV0@ABVQItemSelectionRange@@@Z
??6@YA?AVQDebug@@V0@ABVQBrush@@@Z
??6@YA?AVQDebug@@V0@ABVQColor@@@Z
??6@YA?AVQDebug@@V0@ABVQFont@@@Z
??6@YA?AVQDebug@@V0@ABVQItemSelectionRange@@@Z
??6@YA?AVQDebug@@V0@ABVQKeySequence@@@Z
??6@YA?AVQDebug@@V0@ABVQMatrix@@@Z
??6@YA?AVQDebug@@V0@ABVQPainterPath@@@Z
??6@YA?AVQDebug@@V0@ABVQPen@@@Z
??6@YA?AVQDebug@@V0@ABVQPolygon@@@Z
??6@YA?AVQDebug@@V0@ABVQPolygonF@@@Z
??6@YA?AVQDebug@@V0@ABVQRegion@@@Z
??6@YA?AVQDebug@@V0@ABVQTransform@@@Z
??6@YA?AVQDebug@@V0@PAVQGraphicsItem@@@Z
??6@YA?AVQDebug@@V0@PBVQEvent@@@Z
??6@YA?AVQDebug@@V0@W4GraphicsItemChange@QGraphicsItem@@@Z
??6@YAAAVQDataStream@@AAV0@ABVQBrush@@@Z
??6@YAAAVQDataStream@@AAV0@ABVQColor@@@Z
??6@YAAAVQDataStream@@AAV0@ABVQColorGroup@@@Z
??6@YAAAVQDataStream@@AAV0@ABVQCursor@@@Z
??6@YAAAVQDataStream@@AAV0@ABVQFont@@@Z
??6@YAAAVQDataStream@@AAV0@ABVQIcon@@@Z
??6@YAAAVQDataStream@@AAV0@ABVQImage@@@Z
??6@YAAAVQDataStream@@AAV0@ABVQKeySequence@@@Z
??6@YAAAVQDataStream@@AAV0@ABVQListWidgetItem@@@Z
??6@YAAAVQDataStream@@AAV0@ABVQMatrix@@@Z
??6@YAAAVQDataStream@@AAV0@ABVQPainterPath@@@Z
??6@YAAAVQDataStream@@AAV0@ABVQPalette@@@Z
??6@YAAAVQDataStream@@AAV0@ABVQPen@@@Z
??6@YAAAVQDataStream@@AAV0@ABVQPicture@@@Z
??6@YAAAVQDataStream@@AAV0@ABVQPixmap@@@Z
??6@YAAAVQDataStream@@AAV0@ABVQPolygon@@@Z
??6@YAAAVQDataStream@@AAV0@ABVQPolygonF@@@Z
??6@YAAAVQDataStream@@AAV0@ABVQRegion@@@Z
??6@YAAAVQDataStream@@AAV0@ABVQSizePolicy@@@Z
??6@YAAAVQDataStream@@AAV0@ABVQStandardItem@@@Z
??6@YAAAVQDataStream@@AAV0@ABVQTableWidgetItem@@@Z
??6@YAAAVQDataStream@@AAV0@ABVQTextFormat@@@Z
??6@YAAAVQDataStream@@AAV0@ABVQTextLength@@@Z
??6@YAAAVQDataStream@@AAV0@ABVQTransform@@@Z
??6@YAAAVQDataStream@@AAV0@ABVQTreeWidgetItem@@@Z
??6@YAAAVQTextStream@@AAV0@ABVQSplitter@@@Z
??7QPixmap@@QBE_NXZ
??8?$QList@VQItemSelectionRange@@@@QBE_NABV0@@Z
??8QBrush@@QBE_NABV0@@Z
??8QColor@@QBE_NABV0@@Z
??8QColorGroup@@QBE_NABV0@@Z
??8QFont@@QBE_NABV0@@Z
??8QFontMetrics@@QAE_NABV0@@Z
??8QFontMetrics@@QBE_NABV0@@Z
??8QFontMetricsF@@QAE_NABV0@@Z
??8QFontMetricsF@@QBE_NABV0@@Z
??8QGradient@@QAE_NABV0@@Z
??8QGradient@@QBE_NABV0@@Z
??8QImage@@QBE_NABV0@@Z
??8QImageTextKeyLang@@QBE_NABV0@@Z
??8QItemSelectionRange@@QBE_NABV0@@Z
??8QKeySequence@@QBE_NABV0@@Z
??8QMatrix@@QBE_NABV0@@Z
??8QPainterPath@@QBE_NABV0@@Z
??8QPalette@@QBE_NABV0@@Z
??8QPen@@QBE_NABV0@@Z
??8QRegion@@QBE_NABV0@@Z
??8QSizePolicy@@QBE_NABV0@@Z
??8QTextBlock@@QBE_NABV0@@Z
??8QTextCursor@@QBE_NABV0@@Z
??8QTextFormat@@QBE_NABV0@@Z
??8QTextFragment@@QBE_NABV0@@Z
??8QTextLength@@QBE_NABV0@@Z
??8QTextTableCell@@QBE_NABV0@@Z
??8QTransform@@QBE_NABV0@@Z
??8Tab@QTextOption@@QBE_NABU01@@Z
??8iterator@QTextBlock@@QBE_NABV01@@Z
??8iterator@QTextFrame@@QBE_NABV01@@Z
??9?$QList@VQItemSelectionRange@@@@QBE_NABV0@@Z
??9QBrush@@QBE_NABV0@@Z
??9QColor@@QBE_NABV0@@Z
??9QColorGroup@@QBE_NABV0@@Z
??9QFont@@QBE_NABV0@@Z
??9QFontMetrics@@QAE_NABV0@@Z
??9QFontMetrics@@QBE_NABV0@@Z
??9QFontMetricsF@@QAE_NABV0@@Z
??9QFontMetricsF@@QBE_NABV0@@Z
??9QGradient@@QBE_NABV0@@Z
??9QImage@@QBE_NABV0@@Z
??9QImageTextKeyLang@@QBE_NABV0@@Z
??9QItemSelectionRange@@QBE_NABV0@@Z
??9QKeySequence@@QBE_NABV0@@Z
??9QMatrix@@QBE_NABV0@@Z
??9QPainterPath@@QBE_NABV0@@Z
??9QPalette@@QBE_NABV0@@Z
??9QPen@@QBE_NABV0@@Z
??9QRegion@@QBE_NABV0@@Z
??9QSizePolicy@@QBE_NABV0@@Z
??9QTextBlock@@QBE_NABV0@@Z
??9QTextCursor@@QBE_NABV0@@Z
??9QTextFormat@@QBE_NABV0@@Z
??9QTextFragment@@QBE_NABV0@@Z
??9QTextLength@@QBE_NABV0@@Z
??9QTextTableCell@@QBE_NABV0@@Z
??9QTransform@@QBE_NABV0@@Z
??9Tab@QTextOption@@QBE_NABU01@@Z
??9iterator@QTextBlock@@QBE_NABV01@@Z
??9iterator@QTextFrame@@QBE_NABV01@@Z
??A?$QList@VQItemSelectionRange@@@@QAEAAVQItemSelectionRange@@H@Z
??A?$QList@VQItemSelectionRange@@@@QBEABVQItemSelectionRange@@H@Z
??AQKeySequence@@QBEHI@Z
??BQBitmap@@QBE?AVQVariant@@XZ
??BQBrush@@QBE?AVQVariant@@XZ
??BQBrush@@QBEABVQColor@@XZ
??BQColor@@QBE?AVQVariant@@XZ
??BQColorGroup@@QBE?AVQVariant@@XZ
??BQCursor@@QBE?AVQVariant@@XZ
??BQFont@@QBE?AVQVariant@@XZ
??BQIcon@@QBE?AVQVariant@@XZ
??BQImage@@QBE?AVQVariant@@XZ
??BQKeySequence@@QBE?AVQString@@XZ
??BQKeySequence@@QBE?AVQVariant@@XZ
??BQKeySequence@@QBEHXZ
??BQMatrix@@QBE?AVQVariant@@XZ
??BQPalette@@QBE?AVQVariant@@XZ
??BQPen@@QBE?AVQVariant@@XZ
??BQPixmap@@QBE?AVQImage@@XZ
??BQPixmap@@QBE?AVQVariant@@XZ
??BQPolygon@@QBE?AVQVariant@@XZ
??BQRegion@@QBE?AVQVariant@@XZ
??BQSizePolicy@@QBE?AVQVariant@@XZ
??BQTextFormat@@QBE?AVQVariant@@XZ
??BQTextLength@@QBE?AVQVariant@@XZ
??BQTransform@@QBE?AVQVariant@@XZ
??D@YA?AVQLine@@ABV0@ABVQMatrix@@@Z
??D@YA?AVQLine@@ABV0@ABVQTransform@@@Z
??D@YA?AVQLineF@@ABV0@ABVQMatrix@@@Z
??D@YA?AVQLineF@@ABV0@ABVQTransform@@@Z
??D@YA?AVQPainterPath@@ABV0@ABVQMatrix@@@Z
??D@YA?AVQPainterPath@@ABV0@ABVQTransform@@@Z
??D@YA?AVQPoint@@ABV0@ABVQMatrix@@@Z
??D@YA?AVQPoint@@ABV0@ABVQTransform@@@Z
??D@YA?AVQPointF@@ABV0@ABVQMatrix@@@Z
??D@YA?AVQPointF@@ABV0@ABVQTransform@@@Z
??D@YA?AVQPolygon@@ABV0@ABVQMatrix@@@Z
??D@YA?AVQPolygon@@ABV0@ABVQTransform@@@Z
??D@YA?AVQPolygonF@@ABV0@ABVQMatrix@@@Z
??D@YA?AVQPolygonF@@ABV0@ABVQTransform@@@Z
??D@YA?AVQRegion@@ABV0@ABVQMatrix@@@Z
??D@YA?AVQRegion@@ABV0@ABVQTransform@@@Z
??D@YA?AVQTransform@@ABV0@N@Z
??DQMatrix@@QBE?AV0@ABV0@@Z
??DQTransform@@QBE?AV0@ABV0@@Z
??DQTreeWidgetItemIterator@@QBEPAVQTreeWidgetItem@@XZ
??EQLayoutIterator@@QAEPAVQLayoutItem@@XZ
??EQTreeWidgetItemIterator@@QAE?BV0@H@Z
??EQTreeWidgetItemIterator@@QAEAAV0@XZ
??Eiterator@QTextBlock@@QAE?AV01@H@Z
??Eiterator@QTextBlock@@QAEAAV01@XZ
??Eiterator@QTextFrame@@QAE?AV01@H@Z
??Eiterator@QTextFrame@@QAEAAV01@XZ
??FQTreeWidgetItemIterator@@QAE?BV0@H@Z
??FQTreeWidgetItemIterator@@QAEAAV0@XZ
??Fiterator@QTextBlock@@QAE?AV01@H@Z
??Fiterator@QTextBlock@@QAEAAV01@XZ
??Fiterator@QTextFrame@@QAE?AV01@H@Z
??Fiterator@QTextFrame@@QAEAAV01@XZ
??G@YA?AVQTransform@@ABV0@N@Z
??GQRegion@@QBE?BV0@ABV0@@Z
??H?$QList@VQItemSelectionRange@@@@QBE?AV0@ABV0@@Z
??H@YA?AVQTransform@@ABV0@N@Z
??HQRegion@@QBE?BV0@ABV0@@Z
??HQRegion@@QBE?BV0@ABVQRect@@@Z
??IQRegion@@QBE?BV0@ABV0@@Z
??IQRegion@@QBE?BV0@ABVQRect@@@Z
??K@YA?AVQTransform@@ABV0@N@Z
??MQFont@@QBE_NABV0@@Z
??MQImageTextKeyLang@@QBE_NABV0@@Z
??MQKeySequence@@QBE_NABV0@@Z
??MQListWidgetItem@@UBE_NABV0@@Z
??MQStandardItem@@UBE_NABV0@@Z
??MQTableWidgetItem@@UBE_NABV0@@Z
??MQTextBlock@@QBE_NABV0@@Z
??MQTextCursor@@QBE_NABV0@@Z
??MQTextFragment@@QBE_NABV0@@Z
??MQTreeWidgetItem@@UBE_NABV0@@Z
??NQKeySequence@@QBE_NABV0@@Z
??NQTextCursor@@QBE_NABV0@@Z
??OQKeySequence@@QBE_NABV0@@Z
??OQTextCursor@@QBE_NABV0@@Z
??PQKeySequence@@QBE_NABV0@@Z
??PQTextCursor@@QBE_NABV0@@Z
??TQRegion@@QBE?BV0@ABV0@@Z
??UQRegion@@QBE?BV0@ABV0@@Z
??XQMatrix@@QAEAAV0@ABV0@@Z
??XQTransform@@QAEAAV0@ABV0@@Z
??XQTransform@@QAEAAV0@N@Z
??Y?$QList@VQItemSelectionRange@@@@QAEAAV0@ABV0@@Z
??Y?$QList@VQItemSelectionRange@@@@QAEAAV0@ABVQItemSelectionRange@@@Z
??YQRegion@@QAEAAV0@ABV0@@Z
??YQRegion@@QAEAAV0@ABVQRect@@@Z
??YQTransform@@QAEAAV0@N@Z
??YQTreeWidgetItemIterator@@QAEAAV0@H@Z
??ZQRegion@@QAEAAV0@ABV0@@Z
??ZQTransform@@QAEAAV0@N@Z
??ZQTreeWidgetItemIterator@@QAEAAV0@H@Z
??_0QTransform@@QAEAAV0@N@Z
??_4QRegion@@QAEAAV0@ABV0@@Z
??_4QRegion@@QAEAAV0@ABVQRect@@@Z
??_5QRegion@@QAEAAV0@ABV0@@Z
??_6QRegion@@QAEAAV0@ABV0@@Z
??_7QAbstractButton@@6BQObject@@@
??_7QAbstractButton@@6BQPaintDevice@@@
??_7QAbstractGraphicsShapeItem@@6B@
??_7QAbstractItemDelegate@@6B@
??_7QAbstractItemView@@6BQObject@@@
??_7QAbstractItemView@@6BQPaintDevice@@@
??_7QAbstractItemViewPrivate@@6B@
??_7QAbstractPageSetupDialog@@6BQObject@@@
??_7QAbstractPageSetupDialog@@6BQPaintDevice@@@
??_7QAbstractPrintDialog@@6BQObject@@@
??_7QAbstractPrintDialog@@6BQPaintDevice@@@
??_7QAbstractProxyModel@@6B@
??_7QAbstractScrollArea@@6BQObject@@@
??_7QAbstractScrollArea@@6BQPaintDevice@@@
??_7QAbstractSlider@@6BQObject@@@
??_7QAbstractSlider@@6BQPaintDevice@@@
??_7QAbstractSpinBox@@6BQObject@@@
??_7QAbstractSpinBox@@6BQPaintDevice@@@
??_7QAbstractTextDocumentLayout@@6B@
??_7QAbstractUndoItem@@6B@
??_7QAccessible2Interface@@6B@
??_7QAccessibleApplication@@6B@
??_7QAccessibleEditableTextInterface@@6B@
??_7QAccessibleEvent@@6B@
??_7QAccessibleFactoryInterface@@6B@
??_7QAccessibleInterface@@6B@
??_7QAccessibleInterfaceEx@@6B@
??_7QAccessibleObject@@6B@
??_7QAccessibleObjectEx@@6B@
??_7QAccessiblePlugin@@6BQAccessibleFactoryInterface@@@
??_7QAccessiblePlugin@@6BQObject@@@
??_7QAccessibleSimpleEditableTextInterface@@6B@
??_7QAccessibleTableInterface@@6B@
??_7QAccessibleTextInterface@@6B@
??_7QAccessibleValueInterface@@6B@
??_7QAccessibleWidget@@6B@
??_7QAccessibleWidgetEx@@6B@
??_7QAction@@6B@
??_7QActionEvent@@6B@
??_7QActionGroup@@6B@
??_7QApplication@@6B@
??_7QApplicationPrivate@@6B@
??_7QBitmap@@6B@
??_7QBoxLayout@@6BQLayoutItem@@@
??_7QBoxLayout@@6BQObject@@@
??_7QButtonGroup@@6B@
??_7QCDEStyle@@6B@
??_7QCalendarWidget@@6BQObject@@@
??_7QCalendarWidget@@6BQPaintDevice@@@
??_7QCheckBox@@6BQObject@@@
??_7QCheckBox@@6BQPaintDevice@@@
??_7QCleanlooksStyle@@6B@
??_7QClipboard@@6B@
??_7QClipboardEvent@@6B@
??_7QCloseEvent@@6B@
??_7QColorDialog@@6BQObject@@@
??_7QColorDialog@@6BQPaintDevice@@@
??_7QColumnView@@6BQObject@@@
??_7QColumnView@@6BQPaintDevice@@@
??_7QComboBox@@6BQObject@@@
??_7QComboBox@@6BQPaintDevice@@@
??_7QCommandLinkButton@@6BQObject@@@
??_7QCommandLinkButton@@6BQPaintDevice@@@
??_7QCommonStyle@@6B@
??_7QCompleter@@6B@
??_7QContextMenuEvent@@6B@
??_7QDashStroker@@6B@
??_7QDataWidgetMapper@@6B@
??_7QDateEdit@@6BQObject@@@
??_7QDateEdit@@6BQPaintDevice@@@
??_7QDateTimeEdit@@6BQObject@@@
??_7QDateTimeEdit@@6BQPaintDevice@@@
??_7QDesktopWidget@@6BQObject@@@
??_7QDesktopWidget@@6BQPaintDevice@@@
??_7QDial@@6BQObject@@@
??_7QDial@@6BQPaintDevice@@@
??_7QDialog@@6BQObject@@@
??_7QDialog@@6BQPaintDevice@@@
??_7QDialogButtonBox@@6BQObject@@@
??_7QDialogButtonBox@@6BQPaintDevice@@@
??_7QDirModel@@6B@
??_7QDockWidget@@6BQObject@@@
??_7QDockWidget@@6BQPaintDevice@@@
??_7QDockWidgetLayout@@6BQLayoutItem@@@
??_7QDockWidgetLayout@@6BQObject@@@
??_7QDoubleSpinBox@@6BQObject@@@
??_7QDoubleSpinBox@@6BQPaintDevice@@@
??_7QDoubleValidator@@6B@
??_7QDrag@@6B@
??_7QDragEnterEvent@@6BQEvent@@@
??_7QDragEnterEvent@@6BQMimeSource@@@
??_7QDragLeaveEvent@@6B@
??_7QDragManager@@6B@
??_7QDragMoveEvent@@6BQEvent@@@
??_7QDragMoveEvent@@6BQMimeSource@@@
??_7QDragResponseEvent@@6B@
??_7QDropEvent@@6BQEvent@@@
??_7QDropEvent@@6BQMimeSource@@@
??_7QErrorMessage@@6BQObject@@@
??_7QErrorMessage@@6BQPaintDevice@@@
??_7QFileDialog@@6BQObject@@@
??_7QFileDialog@@6BQPaintDevice@@@
??_7QFileIconProvider@@6B@
??_7QFileOpenEvent@@6B@
??_7QFileSystemModel@@6B@
??_7QFocusEvent@@6B@
??_7QFocusFrame@@6BQObject@@@
??_7QFocusFrame@@6BQPaintDevice@@@
??_7QFontComboBox@@6BQObject@@@
??_7QFontComboBox@@6BQPaintDevice@@@
??_7QFontDialog@@6BQObject@@@
??_7QFontDialog@@6BQPaintDevice@@@
??_7QFontEngine@@6B@
??_7QFontEngineMulti@@6B@
??_7QFormLayout@@6BQLayoutItem@@@
??_7QFormLayout@@6BQObject@@@
??_7QFrame@@6BQObject@@@
??_7QFrame@@6BQPaintDevice@@@
??_7QFramePrivate@@6B@
??_7QGraphicsEllipseItem@@6B@
??_7QGraphicsGridLayout@@6B@
??_7QGraphicsItem@@6B@
??_7QGraphicsItemAnimation@@6B@
??_7QGraphicsItemGroup@@6B@
??_7QGraphicsLayout@@6B@
??_7QGraphicsLayoutItem@@6B@
??_7QGraphicsLineItem@@6B@
??_7QGraphicsLinearLayout@@6B@
??_7QGraphicsPathItem@@6B@
??_7QGraphicsPixmapItem@@6B@
??_7QGraphicsPolygonItem@@6B@
??_7QGraphicsProxyWidget@@6BQGraphicsItem@@@
??_7QGraphicsProxyWidget@@6BQGraphicsLayoutItem@@@
??_7QGraphicsProxyWidget@@6BQObject@@@
??_7QGraphicsRectItem@@6B@
??_7QGraphicsScene@@6B@
??_7QGraphicsSceneContextMenuEvent@@6B@
??_7QGraphicsSceneDragDropEvent@@6B@
??_7QGraphicsSceneEvent@@6B@
??_7QGraphicsSceneHelpEvent@@6B@
??_7QGraphicsSceneHoverEvent@@6B@
??_7QGraphicsSceneMouseEvent@@6B@
??_7QGraphicsSceneMoveEvent@@6B@
??_7QGraphicsSceneResizeEvent@@6B@
??_7QGraphicsSceneWheelEvent@@6B@
??_7QGraphicsSimpleTextItem@@6B@
??_7QGraphicsTextItem@@6BQGraphicsItem@@@
??_7QGraphicsTextItem@@6BQObject@@@
??_7QGraphicsView@@6BQObject@@@
??_7QGraphicsView@@6BQPaintDevice@@@
??_7QGraphicsWidget@@6BQGraphicsItem@@@
??_7QGraphicsWidget@@6BQGraphicsLayoutItem@@@
??_7QGraphicsWidget@@6BQObject@@@
??_7QGridLayout@@6BQLayoutItem@@@
??_7QGridLayout@@6BQObject@@@
??_7QGroupBox@@6BQObject@@@
??_7QGroupBox@@6BQPaintDevice@@@
??_7QHBoxLayout@@6BQLayoutItem@@@
??_7QHBoxLayout@@6BQObject@@@
??_7QHeaderView@@6BQObject@@@
??_7QHeaderView@@6BQPaintDevice@@@
??_7QHelpEvent@@6B@
??_7QHideEvent@@6B@
??_7QHoverEvent@@6B@
??_7QIconDragEvent@@6B@
??_7QIconEngine@@6B@
??_7QIconEngineFactoryInterface@@6B@
??_7QIconEngineFactoryInterfaceV2@@6B@
??_7QIconEnginePlugin@@6BQIconEngineFactoryInterface@@@
??_7QIconEnginePlugin@@6BQObject@@@
??_7QIconEnginePluginV2@@6BQIconEngineFactoryInterfaceV2@@@
??_7QIconEnginePluginV2@@6BQObject@@@
??_7QIconEngineV2@@6B@
??_7QImage@@6B@
??_7QImageIOHandler@@6B@
??_7QImageIOHandlerFactoryInterface@@6B@
??_7QImageIOPlugin@@6BQImageIOHandlerFactoryInterface@@@
??_7QImageIOPlugin@@6BQObject@@@
??_7QInputContext@@6B@
??_7QInputContextFactoryInterface@@6B@
??_7QInputContextPlugin@@6BQInputContextFactoryInterface@@@
??_7QInputContextPlugin@@6BQObject@@@
??_7QInputDialog@@6BQObject@@@
??_7QInputDialog@@6BQPaintDevice@@@
??_7QInputEvent@@6B@
??_7QInputMethodEvent@@6B@
??_7QIntValidator@@6B@
??_7QItemDelegate@@6B@
??_7QItemEditorCreatorBase@@6B@
??_7QItemEditorFactory@@6B@
??_7QItemSelectionModel@@6B@
??_7QKeyEvent@@6B@
??_7QKeyEventEx@@6B@
??_7QLCDNumber@@6BQObject@@@
??_7QLCDNumber@@6BQPaintDevice@@@
??_7QLabel@@6BQObject@@@
??_7QLabel@@6BQPaintDevice@@@
??_7QLayout@@6BQLayoutItem@@@
??_7QLayout@@6BQObject@@@
??_7QLayoutItem@@6B@
??_7QLayoutPrivate@@6B@
??_7QLineEdit@@6BQObject@@@
??_7QLineEdit@@6BQPaintDevice@@@
??_7QListView@@6BQObject@@@
??_7QListView@@6BQPaintDevice@@@
??_7QListWidget@@6BQObject@@@
??_7QListWidget@@6BQPaintDevice@@@
??_7QListWidgetItem@@6B@
??_7QMainWindow@@6BQObject@@@
??_7QMainWindow@@6BQPaintDevice@@@
??_7QMdiArea@@6BQObject@@@
??_7QMdiArea@@6BQPaintDevice@@@
??_7QMdiSubWindow@@6BQObject@@@
??_7QMdiSubWindow@@6BQPaintDevice@@@
??_7QMenu@@6BQObject@@@
??_7QMenu@@6BQPaintDevice@@@
??_7QMenuBar@@6BQObject@@@
??_7QMenuBar@@6BQPaintDevice@@@
??_7QMenuItem@@6B@
??_7QMenubarUpdatedEvent@@6B@
??_7QMessageBox@@6BQObject@@@
??_7QMessageBox@@6BQPaintDevice@@@
??_7QMimeSource@@6B@
??_7QMotifStyle@@6B@
??_7QMouseEvent@@6B@
??_7QMouseEventEx@@6B@
??_7QMoveEvent@@6B@
??_7QMovie@@6B@
??_7QPageSetupDialog@@6BQObject@@@
??_7QPageSetupDialog@@6BQPaintDevice@@@
??_7QPaintDevice@@6B@
??_7QPaintEngine@@6B@
??_7QPaintEvent@@6B@
??_7QPicture@@6B@
??_7QPictureFormatInterface@@6B@
??_7QPictureFormatPlugin@@6BQObject@@@
??_7QPictureFormatPlugin@@6BQPictureFormatInterface@@@
??_7QPixmap@@6B@
??_7QPixmapData@@6B@
??_7QPixmapDataFactory@@6B@
??_7QPlainTextDocumentLayout@@6B@
??_7QPlainTextEdit@@6BQObject@@@
??_7QPlainTextEdit@@6BQPaintDevice@@@
??_7QPlastiqueStyle@@6B@
??_7QPrintDialog@@6BQObject@@@
??_7QPrintDialog@@6BQPaintDevice@@@
??_7QPrintEngine@@6B@
??_7QPrintPreviewDialog@@6BQObject@@@
??_7QPrintPreviewDialog@@6BQPaintDevice@@@
??_7QPrintPreviewWidget@@6BQObject@@@
??_7QPrintPreviewWidget@@6BQPaintDevice@@@
??_7QPrinter@@6B@
??_7QProgressBar@@6BQObject@@@
??_7QProgressBar@@6BQPaintDevice@@@
??_7QProgressDialog@@6BQObject@@@
??_7QProgressDialog@@6BQPaintDevice@@@
??_7QProxyModel@@6B@
??_7QPushButton@@6BQObject@@@
??_7QPushButton@@6BQPaintDevice@@@
??_7QRadioButton@@6BQObject@@@
??_7QRadioButton@@6BQPaintDevice@@@
??_7QRegExpValidator@@6B@
??_7QResizeEvent@@6B@
??_7QRubberBand@@6BQObject@@@
??_7QRubberBand@@6BQPaintDevice@@@
??_7QScrollArea@@6BQObject@@@
??_7QScrollArea@@6BQPaintDevice@@@
??_7QScrollBar@@6BQObject@@@
??_7QScrollBar@@6BQPaintDevice@@@
??_7QSessionManager@@6B@
??_7QShortcut@@6B@
??_7QShortcutEvent@@6B@
??_7QShowEvent@@6B@
??_7QSizeGrip@@6BQObject@@@
??_7QSizeGrip@@6BQPaintDevice@@@
??_7QSlider@@6BQObject@@@
??_7QSlider@@6BQPaintDevice@@@
??_7QSortFilterProxyModel@@6B@
??_7QSound@@6B@
??_7QSpacerItem@@6B@
??_7QSpinBox@@6BQObject@@@
??_7QSpinBox@@6BQPaintDevice@@@
??_7QSplashScreen@@6BQObject@@@
??_7QSplashScreen@@6BQPaintDevice@@@
??_7QSplitter@@6BQObject@@@
??_7QSplitter@@6BQPaintDevice@@@
??_7QSplitterHandle@@6BQObject@@@
??_7QSplitterHandle@@6BQPaintDevice@@@
??_7QStackedLayout@@6BQLayoutItem@@@
??_7QStackedLayout@@6BQObject@@@
??_7QStackedWidget@@6BQObject@@@
??_7QStackedWidget@@6BQPaintDevice@@@
??_7QStandardItem@@6B@
??_7QStandardItemModel@@6B@
??_7QStatusBar@@6BQObject@@@
??_7QStatusBar@@6BQPaintDevice@@@
??_7QStatusTipEvent@@6B@
??_7QStringListModel@@6B@
??_7QStroker@@6B@
??_7QStrokerOps@@6B@
??_7QStyle@@6B@
??_7QStyleFactoryInterface@@6B@
??_7QStylePlugin@@6BQObject@@@
??_7QStylePlugin@@6BQStyleFactoryInterface@@@
??_7QStyledItemDelegate@@6B@
??_7QSyntaxHighlighter@@6B@
??_7QSystemTrayIcon@@6B@
??_7QTabBar@@6BQObject@@@
??_7QTabBar@@6BQPaintDevice@@@
??_7QTabWidget@@6BQObject@@@
??_7QTabWidget@@6BQPaintDevice@@@
??_7QTableView@@6BQObject@@@
??_7QTableView@@6BQPaintDevice@@@
??_7QTableWidget@@6BQObject@@@
??_7QTableWidget@@6BQPaintDevice@@@
??_7QTableWidgetItem@@6B@
??_7QTabletEvent@@6B@
??_7QTessellator@@6B@
??_7QTextBlockGroup@@6B@
??_7QTextBlockUserData@@6B@
??_7QTextBrowser@@6BQObject@@@
??_7QTextBrowser@@6BQPaintDevice@@@
??_7QTextControl@@6B@
??_7QTextDocument@@6B@
??_7QTextEdit@@6BQObject@@@
??_7QTextEdit@@6BQPaintDevice@@@
??_7QTextFrame@@6B@
??_7QTextFrameLayoutData@@6B@
??_7QTextImageHandler@@6BQObject@@@
??_7QTextImageHandler@@6BQTextObjectInterface@@@
??_7QTextList@@6B@
??_7QTextObject@@6B@
??_7QTextObjectInterface@@6B@
??_7QTextTable@@6B@
??_7QTimeEdit@@6BQObject@@@
??_7QTimeEdit@@6BQPaintDevice@@@
??_7QToolBar@@6BQObject@@@
??_7QToolBar@@6BQPaintDevice@@@
??_7QToolBarChangeEvent@@6B@
??_7QToolBarItem@@6B@
??_7QToolBarLayout@@6BQLayoutItem@@@
??_7QToolBarLayout@@6BQObject@@@
??_7QToolBox@@6BQObject@@@
??_7QToolBox@@6BQPaintDevice@@@
??_7QToolButton@@6BQObject@@@
??_7QToolButton@@6BQPaintDevice@@@
??_7QTreeView@@6BQObject@@@
??_7QTreeView@@6BQPaintDevice@@@
??_7QTreeWidget@@6BQObject@@@
??_7QTreeWidget@@6BQPaintDevice@@@
??_7QTreeWidgetItem@@6B@
??_7QUndoCommand@@6B@
??_7QUndoGroup@@6B@
??_7QUndoStack@@6B@
??_7QUndoView@@6BQObject@@@
??_7QUndoView@@6BQPaintDevice@@@
??_7QVBoxLayout@@6BQLayoutItem@@@
??_7QVBoxLayout@@6BQObject@@@
??_7QValidator@@6B@
??_7QWhatsThisClickedEvent@@6B@
??_7QWheelEvent@@6B@
??_7QWidget@@6BQObject@@@
??_7QWidget@@6BQPaintDevice@@@
??_7QWidgetAction@@6B@
??_7QWidgetItem@@6B@
??_7QWidgetItemV2@@6B@
??_7QWidgetPrivate@@6B@
??_7QWidgetResizeHandler@@6B@
??_7QWindowStateChangeEvent@@6B@
??_7QWindowSurface@@6B@
??_7QWindowsMime@@6B@
??_7QWindowsStyle@@6B@
??_7QWindowsVistaStyle@@6B@
??_7QWindowsXPStyle@@6B@
??_7QWizard@@6BQObject@@@
??_7QWizard@@6BQPaintDevice@@@
??_7QWizardPage@@6BQObject@@@
??_7QWizardPage@@6BQPaintDevice@@@
??_7QWorkspace@@6BQObject@@@
??_7QWorkspace@@6BQPaintDevice@@@
??_7StyleSelector@QCss@@6B@
??_FQAbstractButton@@QAEXXZ
??_FQAbstractGraphicsShapeItem@@QAEXXZ
??_FQAbstractItemDelegate@@QAEXXZ
??_FQAbstractItemView@@QAEXXZ
??_FQAbstractProxyModel@@QAEXXZ
??_FQAbstractScrollArea@@QAEXXZ
??_FQAbstractSlider@@QAEXXZ
??_FQAbstractSpinBox@@QAEXXZ
??_FQAccessiblePlugin@@QAEXXZ
??_FQButtonGroup@@QAEXXZ
??_FQCDEStyle@@QAEXXZ
??_FQCalendarWidget@@QAEXXZ
??_FQCheckBox@@QAEXXZ
??_FQColorDialog@@QAEXXZ
??_FQColumnView@@QAEXXZ
??_FQComboBox@@QAEXXZ
??_FQCommandLinkButton@@QAEXXZ
??_FQCompleter@@QAEXXZ
??_FQDataWidgetMapper@@QAEXXZ
??_FQDateEdit@@QAEXXZ
??_FQDateTimeEdit@@QAEXXZ
??_FQDial@@QAEXXZ
??_FQDialog@@QAEXXZ
??_FQDialogButtonBox@@QAEXXZ
??_FQDirModel@@QAEXXZ
??_FQDockWidget@@QAEXXZ
??_FQDockWidgetLayout@@QAEXXZ
??_FQDoubleSpinBox@@QAEXXZ
??_FQErrorMessage@@QAEXXZ
??_FQFileDialog@@QAEXXZ
??_FQFileSystemModel@@QAEXXZ
??_FQFocusFrame@@QAEXXZ
??_FQFontComboBox@@QAEXXZ
??_FQFontDialog@@QAEXXZ
??_FQFormLayout@@QAEXXZ
??_FQFrame@@QAEXXZ
??_FQGraphicsEllipseItem@@QAEXXZ
??_FQGraphicsGridLayout@@QAEXXZ
??_FQGraphicsItem@@QAEXXZ
??_FQGraphicsItemAnimation@@QAEXXZ
??_FQGraphicsItemGroup@@QAEXXZ
??_FQGraphicsLayout@@QAEXXZ
??_FQGraphicsLayoutItem@@QAEXXZ
??_FQGraphicsLineItem@@QAEXXZ
??_FQGraphicsLinearLayout@@QAEXXZ
??_FQGraphicsPathItem@@QAEXXZ
??_FQGraphicsPixmapItem@@QAEXXZ
??_FQGraphicsPolygonItem@@QAEXXZ
??_FQGraphicsProxyWidget@@QAEXXZ
??_FQGraphicsRectItem@@QAEXXZ
??_FQGraphicsScene@@QAEXXZ
??_FQGraphicsSceneContextMenuEvent@@QAEXXZ
??_FQGraphicsSceneDragDropEvent@@QAEXXZ
??_FQGraphicsSceneHelpEvent@@QAEXXZ
??_FQGraphicsSceneHoverEvent@@QAEXXZ
??_FQGraphicsSceneMouseEvent@@QAEXXZ
??_FQGraphicsSceneWheelEvent@@QAEXXZ
??_FQGraphicsSimpleTextItem@@QAEXXZ
??_FQGraphicsTextItem@@QAEXXZ
??_FQGraphicsView@@QAEXXZ
??_FQGraphicsWidget@@QAEXXZ
??_FQGroupBox@@QAEXXZ
??_FQIconEnginePlugin@@QAEXXZ
??_FQIconEnginePluginV2@@QAEXXZ
??_FQImageIOPlugin@@QAEXXZ
??_FQInputContext@@QAEXXZ
??_FQInputContextPlugin@@QAEXXZ
??_FQItemDelegate@@QAEXXZ
??_FQLCDNumber@@QAEXXZ
??_FQLabel@@QAEXXZ
??_FQLayoutItem@@QAEXXZ
??_FQLineEdit@@QAEXXZ
??_FQListView@@QAEXXZ
??_FQListWidget@@QAEXXZ
??_FQListWidgetItem@@QAEXXZ
??_FQMainWindow@@QAEXXZ
??_FQMdiArea@@QAEXXZ
??_FQMdiSubWindow@@QAEXXZ
??_FQMenu@@QAEXXZ
??_FQMenuBar@@QAEXXZ
??_FQMessageBox@@QAEXXZ
??_FQMotifStyle@@QAEXXZ
??_FQMovie@@QAEXXZ
??_FQPaintEngine@@QAEXXZ
??_FQPicture@@QAEXXZ
??_FQPictureFormatPlugin@@QAEXXZ
??_FQPlainTextEdit@@QAEXXZ
??_FQPrintPreviewDialog@@QAEXXZ
??_FQPrintPreviewWidget@@QAEXXZ
??_FQPrinter@@QAEXXZ
??_FQProgressBar@@QAEXXZ
??_FQProgressDialog@@QAEXXZ
??_FQProxyModel@@QAEXXZ
??_FQPushButton@@QAEXXZ
??_FQRadioButton@@QAEXXZ
??_FQScrollArea@@QAEXXZ
??_FQScrollBar@@QAEXXZ
??_FQSlider@@QAEXXZ
??_FQSortFilterProxyModel@@QAEXXZ
??_FQSpinBox@@QAEXXZ
??_FQSplashScreen@@QAEXXZ
??_FQSplitter@@QAEXXZ
??_FQStackedWidget@@QAEXXZ
??_FQStandardItemModel@@QAEXXZ
??_FQStatusBar@@QAEXXZ
??_FQStringListModel@@QAEXXZ
??_FQStyleHintReturn@@QAEXXZ
??_FQStyleOption@@QAEXXZ
??_FQStyleOptionComplex@@QAEXXZ
??_FQStylePlugin@@QAEXXZ
??_FQStyledItemDelegate@@QAEXXZ
??_FQSystemTrayIcon@@QAEXXZ
??_FQTabBar@@QAEXXZ
??_FQTabWidget@@QAEXXZ
??_FQTableView@@QAEXXZ
??_FQTableWidget@@QAEXXZ
??_FQTableWidgetItem@@QAEXXZ
??_FQTextBrowser@@QAEXXZ
??_FQTextControl@@QAEXXZ
??_FQTextDocument@@QAEXXZ
??_FQTextEdit@@QAEXXZ
??_FQTextImageHandler@@QAEXXZ
??_FQTimeEdit@@QAEXXZ
??_FQToolBar@@QAEXXZ
??_FQToolBarLayout@@QAEXXZ
??_FQToolBox@@QAEXXZ
??_FQToolButton@@QAEXXZ
??_FQTreeView@@QAEXXZ
??_FQTreeWidget@@QAEXXZ
??_FQTreeWidgetItem@@QAEXXZ
??_FQUndoCommand@@QAEXXZ
??_FQUndoGroup@@QAEXXZ
??_FQUndoStack@@QAEXXZ
??_FQUndoView@@QAEXXZ
??_FQWidget@@QAEXXZ
??_FQWidgetPrivate@@QAEXXZ
??_FQWizard@@QAEXXZ
??_FQWizardPage@@QAEXXZ
??_FQWorkspace@@QAEXXZ
?_q_columnsAboutToBeRemoved@QAbstractItemViewPrivate@@QAEXABVQModelIndex@@HH@Z
?_q_columnsRemoved@QAbstractItemViewPrivate@@QAEXABVQModelIndex@@HH@Z
?_q_fetchMore@QAbstractItemViewPrivate@@QAEXXZ
?_q_layoutChanged@QAbstractItemViewPrivate@@QAEXXZ
?_q_modelDestroyed@QAbstractItemViewPrivate@@QAEXXZ
?_q_rowsRemoved@QAbstractItemViewPrivate@@QAEXABVQModelIndex@@HH@Z
?_q_showIfNotHidden@QWidgetPrivate@@QAEXXZ
?abort@QPrinter@@QAE_NXZ
?aborted@QPrinter@@QAE_NXZ
?about@QMessageBox@@SAXPAVQWidget@@ABVQString@@1@Z
?aboutQt@QApplication@@SAXXZ
?aboutQt@QMessageBox@@SAXPAVQWidget@@ABVQString@@@Z
?aboutToActivate@QMdiSubWindow@@IAEXXZ
?aboutToHide@QMenu@@IAEXXZ
?aboutToShow@QMenu@@IAEXXZ
?accel@QAbstractButton@@QBE?AVQKeySequence@@XZ
?accel@QAction@@QBE?AVQKeySequence@@XZ
?accel@QMenu@@QBE?AVQKeySequence@@H@Z
?accel@QMenuBar@@QBE?AVQKeySequence@@H@Z
?accept@QDialog@@UAEXXZ
?accept@QDragMoveEvent@@QAEXABVQRect@@@Z
?accept@QDragMoveEvent@@QAEXXZ
?accept@QDragMoveEvent@@QAEX_N@Z
?accept@QDropEvent@@QAEXXZ
?accept@QDropEvent@@QAEX_N@Z
?accept@QFileDialog@@MAEXXZ
?acceptAction@QDropEvent@@QAEX_N@Z
?acceptDrops@QGraphicsItem@@QBE_NXZ
?acceptDrops@QWidget@@QBE_NXZ
?acceptHoverEvents@QGraphicsItem@@QBE_NXZ
?acceptMode@QFileDialog@@QBE?AW4AcceptMode@1@XZ
?acceptProposedAction@QDropEvent@@QAEXXZ
?acceptProposedAction@QGraphicsSceneDragDropEvent@@QAEXXZ
?acceptRichText@QTextControl@@QBE_NXZ
?acceptRichText@QTextEdit@@QBE_NXZ
?accepted@QDialog@@IAEXXZ
?accepted@QDialogButtonBox@@IAEXXZ
?acceptedMouseButtons@QGraphicsItem@@QBE?AV?$QFlags@W4MouseButton@Qt@@@@XZ
?acceptsHoverEvents@QGraphicsItem@@QBE_NXZ
?accessibleDescription@QStandardItem@@QBE?AVQString@@XZ
?accessibleDescription@QWidget@@QBE?AVQString@@XZ
?accessibleName@QWidget@@QBE?AVQString@@XZ
?accessibleText@QStandardItem@@QBE?AVQString@@XZ
?action@QActionEvent@@QBEPAVQAction@@XZ
?action@QDropEvent@@QBE?AW4Action@1@XZ
?actionAt@QMenu@@QBEPAVQAction@@ABVQPoint@@@Z
?actionAt@QMenuBar@@QBEPAVQAction@@ABVQPoint@@@Z
?actionAt@QToolBar@@QBEPAVQAction@@ABVQPoint@@@Z
?actionAt@QToolBar@@QBEPAVQAction@@HH@Z
?actionChanged@QDrag@@IAEXW4DropAction@Qt@@@Z
?actionEvent@QMenu@@MAEXPAVQActionEvent@@@Z
?actionEvent@QMenuBar@@MAEXPAVQActionEvent@@@Z
?actionEvent@QToolBar@@MAEXPAVQActionEvent@@@Z
?actionEvent@QToolButton@@MAEXPAVQActionEvent@@@Z
?actionEvent@QWidget@@MAEXPAVQActionEvent@@@Z
?actionGeometry@QMenu@@QBE?AVQRect@@PAVQAction@@@Z
?actionGeometry@QMenuBar@@QBE?AVQRect@@PAVQAction@@@Z
?actionGeometry@QToolBar@@QBE?AVQRect@@PAVQAction@@@Z
?actionGroup@QAction@@QBEPAVQActionGroup@@XZ
?actionText@QAccessibleApplication@@UBE?AVQString@@HW4Text@QAccessible@@H@Z
?actionText@QAccessibleObject@@UBE?AVQString@@HW4Text@QAccessible@@H@Z
?actionText@QAccessibleObjectEx@@UBE?AVQString@@HW4Text@QAccessible@@H@Z
?actionText@QAccessibleWidget@@UBE?AVQString@@HW4Text@QAccessible@@H@Z
?actionText@QAccessibleWidgetEx@@UBE?AVQString@@HW4Text@QAccessible@@H@Z
?actionTriggered@QAbstractSlider@@IAEXH@Z
?actionTriggered@QToolBar@@IAEXPAVQAction@@@Z
?actions@QActionGroup@@QBE?AV?$QList@PAVQAction@@@@XZ
?actions@QInputContext@@UAE?AV?$QList@PAVQAction@@@@XZ
?actions@QWidget@@QBE?AV?$QList@PAVQAction@@@@XZ
?activate@QAction@@QAEXW4ActionEvent@1@@Z
?activate@QGraphicsLayout@@QAEXXZ
?activate@QLayout@@QAE_NXZ
?activate@QWidgetResizeHandler@@IAEXXZ
?activateChildLayoutsRecursively@QWidgetPrivate@@QAEXXZ
?activateItemAt@QMenu@@QAEXH@Z
?activateItemAt@QMenuBar@@QAEXH@Z
?activateNextSubWindow@QMdiArea@@QAEXXZ
?activateNextWindow@QWorkspace@@QAEXXZ
?activatePreviousSubWindow@QMdiArea@@QAEXXZ
?activatePreviousWindow@QWorkspace@@QAEXXZ
?activateRecursiveHelper@QLayout@@CAXPAVQLayoutItem@@@Z
?activateWindow@QWidget@@QAEXXZ
?activated@QAbstractItemView@@IAEXABVQModelIndex@@@Z
?activated@QAction@@IAEXH@Z
?activated@QCalendarWidget@@IAEXABVQDate@@@Z
?activated@QComboBox@@IAEXABVQString@@@Z
?activated@QComboBox@@IAEXH@Z
?activated@QCompleter@@IAEXABVQModelIndex@@@Z
?activated@QCompleter@@IAEXABVQString@@@Z
?activated@QMenu@@IAEXH@Z
?activated@QMenuBar@@IAEXH@Z
?activated@QShortcut@@IAEXXZ
?activated@QSystemTrayIcon@@IAEXW4ActivationReason@1@@Z
?activatedAmbiguously@QShortcut@@IAEXXZ
?activationOrder@QMdiArea@@QBE?AW4WindowOrder@1@XZ
?active@QPalette@@QBE?AVQColorGroup@@XZ
?activeAction@QMenu@@QBEPAVQAction@@XZ
?activeAction@QMenuBar@@QBEPAVQAction@@XZ
?activeModalWidget@QApplication@@SAPAVQWidget@@XZ
?activePopupWidget@QApplication@@SAPAVQWidget@@XZ
?activeStack@QUndoGroup@@QBEPAVQUndoStack@@XZ
?activeStackChanged@QUndoGroup@@IAEXPAVQUndoStack@@@Z
?activeSubWindow@QMdiArea@@QBEPAVQMdiSubWindow@@XZ
?activeWindow@QApplication@@SAPAVQWidget@@XZ
?activeWindow@QGraphicsScene@@QBEPAVQGraphicsWidget@@XZ
?activeWindow@QWorkspace@@QBEPAVQWidget@@XZ
?active_window@QApplicationPrivate@@2PAVQWidget@@A
?actualSize@QIcon@@QBE?AVQSize@@ABV2@W4Mode@1@W4State@1@@Z
?actualSize@QIconEngine@@UAE?AVQSize@@ABV2@W4Mode@QIcon@@W4State@4@@Z
?add@QActionGroup@@QAEXPAVQAction@@@Z
?add@QLayout@@QAEXPAVQWidget@@@Z
?add@QTextList@@QAEXABVQTextBlock@@@Z
?add@QToolTip@@SAXPAVQWidget@@ABVQRect@@ABVQString@@@Z
?add@QToolTip@@SAXPAVQWidget@@ABVQString@@@Z
?add@QWhatsThis@@SAXPAVQWidget@@ABVQString@@@Z
?addAction@QActionGroup@@QAEPAVQAction@@ABVQIcon@@ABVQString@@@Z
?addAction@QActionGroup@@QAEPAVQAction@@ABVQString@@@Z
?addAction@QActionGroup@@QAEPAVQAction@@PAV2@@Z
?addAction@QMenu@@QAEPAVQAction@@ABVQIcon@@ABVQString@@@Z
?addAction@QMenu@@QAEPAVQAction@@ABVQIcon@@ABVQString@@PBVQObject@@PBDABVQKeySequence@@@Z
?addAction@QMenu@@QAEPAVQAction@@ABVQString@@@Z
?addAction@QMenu@@QAEPAVQAction@@ABVQString@@PBVQObject@@PBDABVQKeySequence@@@Z
?addAction@QMenuBar@@QAEPAVQAction@@ABVQString@@@Z
?addAction@QMenuBar@@QAEPAVQAction@@ABVQString@@PBVQObject@@PBD@Z
?addAction@QToolBar@@QAEPAVQAction@@ABVQIcon@@ABVQString@@@Z
?addAction@QToolBar@@QAEPAVQAction@@ABVQIcon@@ABVQString@@PBVQObject@@PBD@Z
?addAction@QToolBar@@QAEPAVQAction@@ABVQString@@@Z
?addAction@QToolBar@@QAEPAVQAction@@ABVQString@@PBVQObject@@PBD@Z
?addAction@QWidget@@QAEXPAVQAction@@@Z
?addActions@QWidget@@QAEXV?$QList@PAVQAction@@@@@Z
?addApplicationFont@QFontDatabase@@SAHABVQString@@@Z
?addApplicationFontFromData@QFontDatabase@@SAHABVQByteArray@@@Z
?addBitmapFontToPath@QFontEngine@@QAEXNNPBUQGlyphLayout@@HPAVQPainterPath@@V?$QFlags@W4RenderFlag@QTextItem@@@@@Z
?addButton@QButtonGroup@@QAEXPAVQAbstractButton@@@Z
?addButton@QButtonGroup@@QAEXPAVQAbstractButton@@H@Z
?addButton@QDialogButtonBox@@QAEPAVQPushButton@@ABVQString@@W4ButtonRole@1@@Z
?addButton@QDialogButtonBox@@QAEPAVQPushButton@@W4StandardButton@1@@Z
?addButton@QDialogButtonBox@@QAEXPAVQAbstractButton@@W4ButtonRole@1@@Z
?addButton@QMessageBox@@QAEPAVQPushButton@@ABVQString@@W4ButtonRole@1@@Z
?addButton@QMessageBox@@QAEPAVQPushButton@@W4StandardButton@1@@Z
?addButton@QMessageBox@@QAEXPAVQAbstractButton@@W4ButtonRole@1@@Z
?addChild@QTreeWidgetItem@@QAEXPAV1@@Z
?addChildLayout@QLayout@@IAEXPAV1@@Z
?addChildWidget@QLayout@@IAEXPAVQWidget@@@Z
?addChildren@QTreeWidgetItem@@QAEXABV?$QList@PAVQTreeWidgetItem@@@@@Z
?addColSpacing@QGridLayout@@QAEXHH@Z
?addControllingSignal@QAccessibleWidget@@IAEXABVQString@@@Z
?addControllingSignal@QAccessibleWidgetEx@@IAEXABVQString@@@Z
?addDockWidget@QMainWindow@@QAEXW4DockWidgetArea@Qt@@PAVQDockWidget@@@Z
?addDockWidget@QMainWindow@@QAEXW4DockWidgetArea@Qt@@PAVQDockWidget@@W4Orientation@3@@Z
?addEditor@QAbstractItemViewPrivate@@QAEXABVQModelIndex@@PAVQWidget@@@Z
?addEllipse@QGraphicsScene@@QAEPAVQGraphicsEllipseItem@@ABVQRectF@@ABVQPen@@ABVQBrush@@@Z
?addEllipse@QGraphicsScene@@QAEPAVQGraphicsEllipseItem@@NNNNABVQPen@@ABVQBrush@@@Z
?addEllipse@QPainterPath@@QAEXABVQPointF@@NN@Z
?addEllipse@QPainterPath@@QAEXABVQRectF@@@Z
?addEllipse@QPainterPath@@QAEXNNNN@Z
?addEnabledOption@QAbstractPrintDialog@@QAEXW4PrintDialogOption@1@@Z
?addEnabledOption@QPageSetupDialog@@QAEXW4PageSetupDialogOption@1@@Z
?addFile@QIcon@@QAEXABVQString@@ABVQSize@@W4Mode@1@W4State@1@@Z
?addFile@QIconEngine@@UAEXABVQString@@ABVQSize@@W4Mode@QIcon@@W4State@5@@Z
?addGlyphsToPath@QFontEngine@@UAEXPAIPAUQFixedPoint@@HPAVQPainterPath@@V?$QFlags@W4RenderFlag@QTextItem@@@@@Z
?addIfClose@QBezier@@QBEXPANN@Z
?addItem@QBoxLayout@@UAEXPAVQLayoutItem@@@Z
?addItem@QComboBox@@QAEXABVQIcon@@ABVQString@@ABVQVariant@@@Z
?addItem@QComboBox@@QAEXABVQString@@ABVQVariant@@@Z
?addItem@QDockWidgetLayout@@UAEXPAVQLayoutItem@@@Z
?addItem@QFormLayout@@UAEXPAVQLayoutItem@@@Z
?addItem@QGraphicsGridLayout@@QAEXPAVQGraphicsLayoutItem@@HHHHV?$QFlags@W4AlignmentFlag@Qt@@@@@Z
?addItem@QGraphicsGridLayout@@QAEXPAVQGraphicsLayoutItem@@HHV?$QFlags@W4AlignmentFlag@Qt@@@@@Z
?addItem@QGraphicsLinearLayout@@QAEXPAVQGraphicsLayoutItem@@@Z
?addItem@QGraphicsScene@@QAEXPAVQGraphicsItem@@@Z
?addItem@QGridLayout@@MAEXPAVQLayoutItem@@@Z
?addItem@QGridLayout@@QAEXPAVQLayoutItem@@HHHHV?$QFlags@W4AlignmentFlag@Qt@@@@@Z
?addItem@QListWidget@@QAEXABVQString@@@Z
?addItem@QListWidget@@QAEXPAVQListWidgetItem@@@Z
?addItem@QStackedLayout@@UAEXPAVQLayoutItem@@@Z
?addItem@QToolBarLayout@@UAEXPAVQLayoutItem@@@Z
?addItem@QToolBox@@QAEHPAVQWidget@@ABVQIcon@@ABVQString@@@Z
?addItem@QToolBox@@QAEHPAVQWidget@@ABVQString@@@Z
?addItems@QComboBox@@QAEXABVQStringList@@@Z
?addItems@QListWidget@@QAEXABVQStringList@@@Z
?addLayout@QBoxLayout@@QAEXPAVQLayout@@H@Z
?addLayout@QGridLayout@@QAEXPAVQLayout@@HHHHV?$QFlags@W4AlignmentFlag@Qt@@@@@Z
?addLayout@QGridLayout@@QAEXPAVQLayout@@HHV?$QFlags@W4AlignmentFlag@Qt@@@@@Z
?addLine@QAbstractSlider@@QAEXXZ
?addLine@QGraphicsScene@@QAEPAVQGraphicsLineItem@@ABVQLineF@@ABVQPen@@@Z
?addLine@QGraphicsScene@@QAEPAVQGraphicsLineItem@@NNNNABVQPen@@@Z
?addMapping@QDataWidgetMapper@@QAEXPAVQWidget@@H@Z
?addMapping@QDataWidgetMapper@@QAEXPAVQWidget@@HABVQByteArray@@@Z
?addMenu@QMenu@@QAEPAV1@ABVQIcon@@ABVQString@@@Z
?addMenu@QMenu@@QAEPAV1@ABVQString@@@Z
?addMenu@QMenu@@QAEPAVQAction@@PAV1@@Z
?addMenu@QMenuBar@@QAEPAVQAction@@PAVQMenu@@@Z
?addMenu@QMenuBar@@QAEPAVQMenu@@ABVQIcon@@ABVQString@@@Z
?addMenu@QMenuBar@@QAEPAVQMenu@@ABVQString@@@Z
?addMultiCell@QGridLayout@@QAEXPAVQLayoutItem@@HHHHV?$QFlags@W4AlignmentFlag@Qt@@@@@Z
?addMultiCellLayout@QGridLayout@@QAEXPAVQLayout@@HHHHV?$QFlags@W4AlignmentFlag@Qt@@@@@Z
?addMultiCellWidget@QGridLayout@@QAEXPAVQWidget@@HHHHV?$QFlags@W4AlignmentFlag@Qt@@@@@Z
?addOutlineToPath@QFontEngine@@UAEXNNPBUQGlyphLayout@@HPAVQPainterPath@@V?$QFlags@W4RenderFlag@QTextItem@@@@@Z
?addOutlineToPath@QFontEngineMulti@@UAEXNNPBUQGlyphLayout@@HPAVQPainterPath@@V?$QFlags@W4RenderFlag@QTextItem@@@@@Z
?addPage@QAbstractSlider@@QAEXXZ
?addPage@QWizard@@QAEHPAVQWizardPage@@@Z
?addPath@QGraphicsScene@@QAEPAVQGraphicsPathItem@@ABVQPainterPath@@ABVQPen@@ABVQBrush@@@Z
?addPath@QPainterPath@@QAEXABV1@@Z
?addPermanentWidget@QStatusBar@@QAEXPAVQWidget@@H@Z
?addPixmap@QGraphicsScene@@QAEPAVQGraphicsPixmapItem@@ABVQPixmap@@@Z
?addPixmap@QIcon@@QAEXABVQPixmap@@W4Mode@1@W4State@1@@Z
?addPixmap@QIconEngine@@UAEXABVQPixmap@@W4Mode@QIcon@@W4State@4@@Z
?addPolygon@QGraphicsScene@@QAEPAVQGraphicsPolygonItem@@ABVQPolygonF@@ABVQPen@@ABVQBrush@@@Z
?addPolygon@QPainterPath@@QAEXABVQPolygonF@@@Z
?addRect@QGraphicsScene@@QAEPAVQGraphicsRectItem@@ABVQRectF@@ABVQPen@@ABVQBrush@@@Z
?addRect@QGraphicsScene@@QAEPAVQGraphicsRectItem@@NNNNABVQPen@@ABVQBrush@@@Z
?addRect@QPainterPath@@QAEXABVQRectF@@@Z
?addRect@QPainterPath@@QAEXNNNN@Z
?addRegion@QPainterPath@@QAEXABVQRegion@@@Z
?addRequiredBoundaries@QTextEngine@@ABEXXZ
?addResource@QTextDocument@@QAEXHABVQUrl@@ABVQVariant@@@Z
?addRoundRect@QPainterPath@@QAEXABVQRectF@@H@Z
?addRoundRect@QPainterPath@@QAEXABVQRectF@@HH@Z
?addRoundRect@QPainterPath@@QAEXNNNNH@Z
?addRoundRect@QPainterPath@@QAEXNNNNHH@Z
?addRoundedRect@QPainterPath@@QAEXABVQRectF@@NNW4SizeMode@Qt@@@Z
?addRoundedRect@QPainterPath@@QAEXNNNNNNW4SizeMode@Qt@@@Z
?addRow@QFormLayout@@QAEXABVQString@@PAVQLayout@@@Z
?addRow@QFormLayout@@QAEXABVQString@@PAVQWidget@@@Z
?addRow@QFormLayout@@QAEXPAVQLayout@@@Z
?addRow@QFormLayout@@QAEXPAVQWidget@@0@Z
?addRow@QFormLayout@@QAEXPAVQWidget@@@Z
?addRow@QFormLayout@@QAEXPAVQWidget@@PAVQLayout@@@Z
?addRowSpacing@QGridLayout@@QAEXHH@Z
?addScrollBarWidget@QAbstractScrollArea@@QAEXPAVQWidget@@V?$QFlags@W4AlignmentFlag@Qt@@@@@Z
?addSeparator@QActionGroup@@QAEXXZ
?addSeparator@QMenu@@QAEPAVQAction@@XZ
?addSeparator@QMenuBar@@QAEPAVQAction@@XZ
?addSeparator@QToolBar@@QAEPAVQAction@@XZ
?addSimpleText@QGraphicsScene@@QAEPAVQGraphicsSimpleTextItem@@ABVQString@@ABVQFont@@@Z
?addSpacerItem@QBoxLayout@@QAEXPAVQSpacerItem@@@Z
?addSpacing@QBoxLayout@@QAEXH@Z
?addStack@QUndoGroup@@QAEXPAVQUndoStack@@@Z
?addStep@QSlider@@QAEXXZ
?addStretch@QBoxLayout@@QAEXH@Z
?addStretch@QGraphicsLinearLayout@@QAEXH@Z
?addStrut@QBoxLayout@@QAEXH@Z
?addSubWindow@QMdiArea@@QAEPAVQMdiSubWindow@@PAVQWidget@@V?$QFlags@W4WindowType@Qt@@@@@Z
?addTab@QTabBar@@QAEHABVQIcon@@ABVQString@@@Z
?addTab@QTabBar@@QAEHABVQString@@@Z
?addTab@QTabWidget@@QAEHPAVQWidget@@ABVQIcon@@ABVQString@@@Z
?addTab@QTabWidget@@QAEHPAVQWidget@@ABVQString@@@Z
?addText@QGraphicsScene@@QAEPAVQGraphicsTextItem@@ABVQString@@ABVQFont@@@Z
?addText@QPainterPath@@QAEXABVQPointF@@ABVQFont@@ABVQString@@@Z
?addText@QPainterPath@@QAEXNNABVQFont@@ABVQString@@@Z
?addTo@QAction@@QAE_NPAVQWidget@@@Z
?addTo@QActionGroup@@QAE_NPAVQWidget@@@Z
?addToGroup@QGraphicsItemGroup@@QAEXPAVQGraphicsItem@@@Z
?addToIndex@QGraphicsItem@@IAEXXZ
?addToPolygon@QBezier@@QBEXPAVQPolygonF@@@Z
?addToPolygonIterative@QBezier@@QBEXPAVQPolygonF@@@Z
?addToPolygonMixed@QBezier@@QBEXPAVQPolygonF@@@Z
?addToolBar@QMainWindow@@QAEPAVQToolBar@@ABVQString@@@Z
?addToolBar@QMainWindow@@QAEXPAVQToolBar@@@Z
?addToolBar@QMainWindow@@QAEXW4ToolBarArea@Qt@@PAVQToolBar@@@Z
?addToolBarBreak@QMainWindow@@QAEXW4ToolBarArea@Qt@@@Z
?addTopLevelItem@QTreeWidget@@QAEXPAVQTreeWidgetItem@@@Z
?addTopLevelItems@QTreeWidget@@QAEXABV?$QList@PAVQTreeWidgetItem@@@@@Z
?addWidget@QBoxLayout@@QAEXPAVQWidget@@HV?$QFlags@W4AlignmentFlag@Qt@@@@@Z
?addWidget@QGraphicsScene@@QAEPAVQGraphicsProxyWidget@@PAVQWidget@@V?$QFlags@W4WindowType@Qt@@@@@Z
?addWidget@QGridLayout@@QAEXPAVQWidget@@@Z
?addWidget@QGridLayout@@QAEXPAVQWidget@@HHHHV?$QFlags@W4AlignmentFlag@Qt@@@@@Z
?addWidget@QGridLayout@@QAEXPAVQWidget@@HHV?$QFlags@W4AlignmentFlag@Qt@@@@@Z
?addWidget@QLayout@@QAEXPAVQWidget@@@Z
?addWidget@QSplitter@@QAEXPAVQWidget@@@Z
?addWidget@QStackedLayout@@QAEHPAVQWidget@@@Z
?addWidget@QStackedWidget@@QAEHPAVQWidget@@@Z
?addWidget@QStatusBar@@QAEXPAVQWidget@@H@Z
?addWidget@QStatusBar@@QAEXPAVQWidget@@H_N@Z
?addWidget@QToolBar@@QAEPAVQAction@@PAVQWidget@@@Z
?addWindow@QWorkspace@@QAEPAVQWidget@@PAV2@V?$QFlags@W4WindowType@Qt@@@@@Z
?additionalFormats@QTextLayout@@QBE?AV?$QList@UFormatRange@QTextLayout@@@@XZ
?adjoint@QTransform@@QBE?AV1@XZ
?adjustFlags@QWidgetPrivate@@SAXAAV?$QFlags@W4WindowType@Qt@@@@PAVQWidget@@@Z
?adjustPosition@QDialog@@IAEXPAVQWidget@@@Z
?adjustSize@QGraphicsTextItem@@QAEXXZ
?adjustSize@QGraphicsWidget@@QAEXXZ
?adjustSize@QTextControl@@QAEXXZ
?adjustSize@QTextDocument@@QAEXXZ
?adjustSize@QWidget@@QAEXXZ
?adjustedSize@QWidgetPrivate@@QBE?AVQSize@@XZ
?advance@QGraphicsItem@@UAEXH@Z
?advance@QGraphicsScene@@QAEXXZ
?afterAnimationStep@QGraphicsItemAnimation@@MAEXN@Z
?alert@QApplication@@SAXPAVQWidget@@H@Z
?alignedRect@QStyle@@SA?AVQRect@@W4LayoutDirection@Qt@@V?$QFlags@W4AlignmentFlag@Qt@@@@ABVQSize@@ABV2@@Z
?alignment@QAbstractSpinBox@@QBE?AV?$QFlags@W4AlignmentFlag@Qt@@@@XZ
?alignment@QGraphicsGridLayout@@QBE?AV?$QFlags@W4AlignmentFlag@Qt@@@@PAVQGraphicsLayoutItem@@@Z
?alignment@QGraphicsLinearLayout@@QBE?AV?$QFlags@W4AlignmentFlag@Qt@@@@PAVQGraphicsLayoutItem@@@Z
?alignment@QGraphicsView@@QBE?AV?$QFlags@W4AlignmentFlag@Qt@@@@XZ
?alignment@QGroupBox@@QBE?AV?$QFlags@W4AlignmentFlag@Qt@@@@XZ
?alignment@QLabel@@QBE?AV?$QFlags@W4AlignmentFlag@Qt@@@@XZ
?alignment@QLayoutItem@@QBE?AV?$QFlags@W4AlignmentFlag@Qt@@@@XZ
?alignment@QLineEdit@@QBE?AV?$QFlags@W4AlignmentFlag@Qt@@@@XZ
?alignment@QProgressBar@@QBE?AV?$QFlags@W4AlignmentFlag@Qt@@@@XZ
?alignment@QScrollArea@@QBE?AV?$QFlags@W4AlignmentFlag@Qt@@@@XZ
?alignment@QTextBlockFormat@@QBE?AV?$QFlags@W4AlignmentFlag@Qt@@@@XZ
?alignment@QTextEdit@@QBE?AV?$QFlags@W4AlignmentFlag@Qt@@@@XZ
?alignment@QTextOption@@QBE?AV?$QFlags@W4AlignmentFlag@Qt@@@@XZ
?alignment@QTextTableFormat@@QBE?AV?$QFlags@W4AlignmentFlag@Qt@@@@XZ
?alignmentRect@QLayout@@IBE?AVQRect@@ABV2@@Z
?alignmentValue@Declaration@QCss@@QBE?AV?$QFlags@W4AlignmentFlag@Qt@@@@XZ
?allColumnsShowFocus@QTreeView@@QBE_NXZ
?allFormats@QTextDocument@@QBE?AV?$QVector@VQTextFormat@@@@XZ
?allFormatsForMime@QWindowsMime@@CA?AV?$QVector@UtagFORMATETC@@@@PBVQMimeData@@@Z
?allGray@QImage@@QBE_NXZ
?allMimesForFormats@QWindowsMime@@CA?AVQStringList@@PAUIDataObject@@@Z
?allWidgets@QApplication@@SA?AV?$QList@PAVQWidget@@@@XZ
?allowedAreas@QDockWidget@@QBE?AV?$QFlags@W4DockWidgetArea@Qt@@@@XZ
?allowedAreas@QToolBar@@QBE?AV?$QFlags@W4ToolBarArea@Qt@@@@XZ
?allowedAreasChanged@QDockWidget@@IAEXV?$QFlags@W4DockWidgetArea@Qt@@@@@Z
?allowedAreasChanged@QToolBar@@IAEXV?$QFlags@W4ToolBarArea@Qt@@@@@Z
?allowsErrorInteraction@QSessionManager@@QAE_NXZ
?allowsInteraction@QSessionManager@@QAE_NXZ
?alpha@QColor@@QBEHXZ
?alphaChannel@QImage@@QBE?AV1@XZ
?alphaChannel@QPixmap@@QBE?AV1@XZ
?alphaChannel@QPixmapData@@UBE?AVQPixmap@@XZ
?alphaF@QColor@@QBENXZ
?alphaMapForGlyph@QFontEngine@@UAE?AVQImage@@I@Z
?alterCharForCapitalization@QFontPrivate@@QBEXAAVQChar@@@Z
?alternateBase@QPalette@@QBEABVQBrush@@XZ
?alternatingRowColors@QAbstractItemView@@QBE_NXZ
?anchor@QTextCursor@@QBEHXZ
?anchorAt@QAbstractTextDocumentLayout@@QBE?AVQString@@ABVQPointF@@@Z
?anchorAt@QTextControl@@QBE?AVQString@@ABVQPointF@@@Z
?anchorAt@QTextEdit@@QBE?AVQString@@ABVQPoint@@@Z
?anchorAtCursor@QTextControl@@QBE?AVQString@@XZ
?anchorClicked@QTextBrowser@@IAEXABVQUrl@@@Z
?anchorHref@QTextCharFormat@@QBE?AVQString@@XZ
?anchorName@QTextCharFormat@@QBE?AVQString@@XZ
?anchorNames@QTextCharFormat@@QBE?AVQStringList@@XZ
?anchorPosition@QTextControl@@QBE?AVQPointF@@ABVQString@@@Z
?angle@QConicalGradient@@QBENXZ
?angleAtPercent@QPainterPath@@QBENN@Z
?animateClick@QAbstractButton@@QAEXH@Z
?animate_combo@QApplicationPrivate@@2_NA
?animate_menu@QApplicationPrivate@@2_NA
?animate_toolbox@QApplicationPrivate@@2_NA
?animate_tooltip@QApplicationPrivate@@2_NA
?animate_ui@QApplicationPrivate@@2_NA
?answerRect@QDragMoveEvent@@QBE?AVQRect@@XZ
?appName@QApplicationPrivate@@UBE?AVQString@@XZ
?app_compile_version@QApplicationPrivate@@2HA
?app_cspec@QApplicationPrivate@@2HA
?app_font@QApplicationPrivate@@0PAVQFont@@A
?app_icon@QApplicationPrivate@@2PAVQIcon@@A
?app_pal@QApplicationPrivate@@2PAVQPalette@@A
?app_strut@QApplicationPrivate@@2VQSize@@A
?app_style@QApplicationPrivate@@2PAVQStyle@@A
?append@?$QList@VQItemSelectionRange@@@@QAEXABVQItemSelectionRange@@@Z
?append@QTextControl@@QAEXABVQString@@@Z
?append@QTextEdit@@QAEXABVQString@@@Z
?appendColumn@QStandardItem@@QAEXABV?$QList@PAVQStandardItem@@@@@Z
?appendColumn@QStandardItemModel@@QAEXABV?$QList@PAVQStandardItem@@@@@Z
?appendHtml@QPlainTextEdit@@QAEXABVQString@@@Z
?appendHtml@QTextControl@@QAEXABVQString@@@Z
?appendPlainText@QPlainTextEdit@@QAEXABVQString@@@Z
?appendPlainText@QTextControl@@QAEXABVQString@@@Z
?appendRow@QStandardItem@@QAEXABV?$QList@PAVQStandardItem@@@@@Z
?appendRow@QStandardItem@@QAEXPAV1@@Z
?appendRow@QStandardItemModel@@QAEXABV?$QList@PAVQStandardItem@@@@@Z
?appendRow@QStandardItemModel@@QAEXPAVQStandardItem@@@Z
?appendRows@QStandardItem@@QAEXABV?$QList@PAVQStandardItem@@@@@Z
?appendUndoItem@QTextDocument@@QAEXPAVQAbstractUndoItem@@@Z
?applicationFontFamilies@QFontDatabase@@SA?AVQStringList@@H@Z
?arcMoveTo@QPainterPath@@QAEXABVQRectF@@N@Z
?arcMoveTo@QPainterPath@@QAEXNNNNN@Z
?arcTo@QPainterPath@@QAEXABVQRectF@@NN@Z
?arcTo@QPainterPath@@QAEXNNNNNN@Z
?arrangeIcons@QWorkspace@@QAEXXZ
?arrowType@QToolButton@@QBE?AW4ArrowType@Qt@@XZ
?ascent@QFontEngineMulti@@UBE?AUQFixed@@XZ
?ascent@QFontMetrics@@QBEHXZ
?ascent@QFontMetricsF@@QBENXZ
?ascent@QTextInlineObject@@QBENXZ
?ascent@QTextItem@@QBENXZ
?ascent@QTextLine@@QBENXZ
?ascii@QKeyEvent@@QBEHXZ
?assign@QKeySequence@@AAEHABVQString@@@Z
?associatedWidgets@QAction@@QBE?AV?$QList@PAVQWidget@@@@XZ
?at@?$QList@VQItemSelectionRange@@@@QBEABVQItemSelectionRange@@H@Z
?atBlockEnd@QTextCursor@@QBE_NXZ
?atBlockStart@QTextCursor@@QBE_NXZ
?atEnd@QTextCursor@@QBE_NXZ
?atEnd@iterator@QTextBlock@@QBE_NXZ
?atEnd@iterator@QTextFrame@@QBE_NXZ
?atStart@QTextCursor@@QBE_NXZ
?atWordSeparator@QTextEngine@@QBE_NH@Z
?attachmentValue@Declaration@QCss@@QBE?AW4Attachment@2@XZ
?attributes@QInputMethodEvent@@QBEABV?$QList@VAttribute@QInputMethodEvent@@@@XZ
?attributes@QTextEngine@@QBEPBUHB_CharAttributes@@XZ
?autoAdd@QLayout@@QBE_NXZ
?autoClose@QProgressDialog@@QBE_NXZ
?autoCompletion@QComboBox@@QBE_NXZ
?autoCompletionCaseSensitivity@QComboBox@@QBE?AW4CaseSensitivity@Qt@@XZ
?autoDefault@QPushButton@@QBE_NXZ
?autoDestruct@QPaintEngine@@ABE_NXZ
?autoExclusive@QAbstractButton@@QBE_NXZ
?autoExpandDelay@QTreeView@@QBEHXZ
?autoFillBackground@QWidget@@QBE_NXZ
?autoFormatting@QTextEdit@@QBE?AV?$QFlags@W4AutoFormattingFlag@QTextEdit@@@@XZ
?autoGeometry@QMenuBar@@QBE_NXZ
?autoRaise@QToolButton@@QBE_NXZ
?autoRepeat@QAbstractButton@@QBE_NXZ
?autoRepeat@QAction@@QBE_NXZ
?autoRepeat@QShortcut@@QBE_NXZ
?autoRepeatDelay@QAbstractButton@@QBEHXZ
?autoRepeatInterval@QAbstractButton@@QBEHXZ
?autoReset@QProgressDialog@@QBE_NXZ
?autoScrollMargin@QAbstractItemView@@QBEHXZ
?available@QSound@@SA_NXZ
?availableGeometry@QDesktopWidget@@QBE?BVQRect@@ABVQPoint@@@Z
?availableGeometry@QDesktopWidget@@QBE?BVQRect@@H@Z
?availableGeometry@QDesktopWidget@@QBE?BVQRect@@PBVQWidget@@@Z
?availablePrinters@QPrinterInfo@@SA?AV?$QList@VQPrinterInfo@@@@XZ
?averageCharWidth@QFontEngine@@UBE?AUQFixed@@XZ
?averageCharWidth@QFontEngineMulti@@UBE?AUQFixed@@XZ
?averageCharWidth@QFontMetrics@@QBEHXZ
?averageCharWidth@QFontMetricsF@@QBENXZ
?back@?$QList@VQItemSelectionRange@@@@QAEAAVQItemSelectionRange@@XZ
?back@?$QList@VQItemSelectionRange@@@@QBEABVQItemSelectionRange@@XZ
?back@QWizard@@QAEXXZ
?background@QColorGroup@@QBEABVQColor@@XZ
?background@QListWidgetItem@@QBE?AVQBrush@@XZ
?background@QMdiArea@@QBE?AVQBrush@@XZ
?background@QPainter@@QBEABVQBrush@@XZ
?background@QPalette@@QBEABVQBrush@@XZ
?background@QStandardItem@@QBE?AVQBrush@@XZ
?background@QTableWidgetItem@@QBE?AVQBrush@@XZ
?background@QTextFormat@@QBE?AVQBrush@@XZ
?background@QTreeWidgetItem@@QBE?AVQBrush@@H@Z
?background@QWorkspace@@QBE?AVQBrush@@XZ
?backgroundBrush@QGraphicsScene@@QBE?AVQBrush@@XZ
?backgroundBrush@QGraphicsView@@QBE?AVQBrush@@XZ
?backgroundBrush@QPaintEngineState@@QBE?AVQBrush@@XZ
?backgroundBrush@QWidget@@QBEABVQBrush@@XZ
?backgroundColor@QAccessibleInterface@@QAE?AVQColor@@XZ
?backgroundColor@QImageReader@@QBE?AVQColor@@XZ
?backgroundColor@QListWidgetItem@@QBE?AVQColor@@XZ
?backgroundColor@QMovie@@QBE?AVQColor@@XZ
?backgroundColor@QPainter@@QBEABVQColor@@XZ
?backgroundColor@QTableWidgetItem@@QBE?AVQColor@@XZ
?backgroundColor@QTreeWidgetItem@@QBE?AVQColor@@H@Z
?backgroundColor@QWidget@@QBEABVQColor@@XZ
?backgroundMode@QPaintEngineState@@QBE?AW4BGMode@Qt@@XZ
?backgroundMode@QPainter@@QBE?AW4BGMode@Qt@@XZ
?backgroundMode@QWidget@@QBE?AW4BackgroundMode@Qt@@XZ
?backgroundOffset@QWidget@@QBE?AVQPoint@@XZ
?backgroundOrigin@QWidget@@QBE?AW4BackgroundOrigin@1@XZ
?backgroundPixmap@QWidget@@QBEPBVQPixmap@@XZ
?backgroundRole@QWidget@@QBE?AW4ColorRole@QPalette@@XZ
?backgroundVisible@QPlainTextEdit@@QBE_NXZ
?backspace@QLineEdit@@QAEXXZ
?backward@QTextBrowser@@UAEXXZ
?backwardAvailable@QTextBrowser@@IAEX_N@Z
?backwardHistoryCount@QTextBrowser@@QBEHXZ
?base@QColorGroup@@QBEABVQColor@@XZ
?base@QPalette@@QBEABVQBrush@@XZ
?baseSize@QWidget@@QBE?AVQSize@@XZ
?basicSelectorMatches@StyleSelector@QCss@@AAE_NABUBasicSelector@2@TNodePtr@12@@Z
?batchSize@QListView@@QBEHXZ
?beep@QApplication@@SAXXZ
?before@QActionEvent@@QBEPAVQAction@@XZ
?beforeAnimationStep@QGraphicsItemAnimation@@MAEXN@Z
?begin@?$QList@VQItemSelectionRange@@@@QAE?AViterator@1@XZ
?begin@?$QList@VQItemSelectionRange@@@@QBE?AVconst_iterator@1@XZ
?begin@QDashStroker@@UAEXPAX@Z
?begin@QPainter@@QAE_NPAVQPaintDevice@@@Z
?begin@QPainter@@QAE_NPAVQPaintDevice@@PBVQWidget@@@Z
?begin@QStrokerOps@@UAEXPAX@Z
?begin@QTextBlock@@QBE?AViterator@1@XZ
?begin@QTextDocument@@QBE?AVQTextBlock@@XZ
?begin@QTextFrame@@QBE?AViterator@1@XZ
?begin@QTextTableCell@@QBE?AViterator@QTextFrame@@XZ
?beginEditBlock@QTextCursor@@QAEXXZ
?beginLayout@QTextLayout@@QAEXXZ
?beginMacro@QUndoStack@@QAEXABVQString@@@Z
?beginPaint@QWindowSurface@@UAEXABVQRegion@@@Z
?beginSharedPainter@QWidgetPrivate@@QAEPAVQPainter@@XZ
?bezierOnInterval@QBezier@@QBE?AV1@NN@Z
?bidiReorder@QTextEngine@@SAXHPBEPAH@Z
?bitBlt@@YAXPAVQImage@@HHPBV1@HHHHV?$QFlags@W4ImageConversionFlag@Qt@@@@@Z
?bitBlt@@YAXPAVQPaintDevice@@ABVQPoint@@PBV1@ABVQRect@@_N@Z
?bitBlt@@YAXPAVQPaintDevice@@HHPBV1@HHHH_N@Z
?bitBlt@@YAXPAVQPaintDevice@@HHPBVQImage@@HHHHH@Z
?bitOrder@QImage@@QBE?AW4Endian@1@XZ
?bitmap@QCursor@@QBEPBVQBitmap@@XZ
?bits@QImage@@QAEPAEXZ
?bits@QImage@@QBEPBEXZ
?black@QColor@@QBEHXZ
?blackF@QColor@@QBENXZ
?block@QTextCursor@@QBE?AVQTextBlock@@XZ
?blockBoundingGeometry@QPlainTextEdit@@IBE?AVQRectF@@ABVQTextBlock@@@Z
?blockBoundingRect@QPlainTextDocumentLayout@@UBE?AVQRectF@@ABVQTextBlock@@@Z
?blockBoundingRect@QPlainTextEdit@@IBE?AVQRectF@@ABVQTextBlock@@@Z
?blockBoundingRect@QTextControl@@UBE?AVQRectF@@ABVQTextBlock@@@Z
?blockCharFormat@QTextCursor@@QBE?AVQTextCharFormat@@XZ
?blockCount@QPlainTextEdit@@QBEHXZ
?blockCount@QTextDocument@@QBEHXZ
?blockCountChanged@QPlainTextEdit@@IAEXH@Z
?blockCountChanged@QTextControl@@IAEXH@Z
?blockCountChanged@QTextDocument@@IAEXH@Z
?blockFormat@QTextBlock@@QBE?AVQTextBlockFormat@@XZ
?blockFormat@QTextCursor@@QBE?AVQTextBlockFormat@@XZ
?blockFormat@QTextFormatCollection@@QBE?AVQTextBlockFormat@@H@Z
?blockFormatChanged@QTextBlockGroup@@MAEXABVQTextBlock@@@Z
?blockFormatIndex@QTextBlock@@QBEHXZ
?blockInserted@QTextBlockGroup@@MAEXABVQTextBlock@@@Z
?blockList@QTextBlockGroup@@IBE?AV?$QList@VQTextBlock@@@@XZ
?blockNumber@QTextBlock@@QBEHXZ
?blockNumber@QTextCursor@@QBEHXZ
?blockRemoved@QTextBlockGroup@@MAEXABVQTextBlock@@@Z
?blockWidth@QPlainTextDocumentLayout@@AAENABVQTextBlock@@@Z
?blue@QColor@@QBEHXZ
?blueF@QColor@@QBENXZ
?bold@QFont@@QBE_NXZ
?bold@QFontDatabase@@QBE_NABVQString@@0@Z
?bold@QFontInfo@@QBE_NXZ
?bold@QTextEdit@@QBE_NXZ
?boolProperty@QTextFormat@@QBE_NH@Z
?border@QTextFrameFormat@@QBENXZ
?borderBrush@QTextFrameFormat@@QBE?AVQBrush@@XZ
?borderImageValue@Declaration@QCss@@QBEXPAVQString@@PAHPAW4TileMode@2@2@Z
?borderStyle@QTextFrameFormat@@QBE?AW4BorderStyle@1@XZ
?borderValue@ValueExtractor@QCss@@AAEXABUDeclaration@2@PAHPAW4BorderStyle@2@PAVQBrush@@@Z
?bottom@QDoubleValidator@@QBENXZ
?bottom@QIntValidator@@QBEHXZ
?bottom@QItemSelectionRange@@QBEHXZ
?bottomMargin@QTextBlockFormat@@QBENXZ
?bottomMargin@QTextFrameFormat@@QBENXZ
?bottomPadding@QTextTableCellFormat@@QBENXZ
?bottomRight@QItemSelectionRange@@QBE?AVQModelIndex@@XZ
?bottomRow@QTableWidgetSelectionRange@@QBEHXZ
?boundingBox@QFontEngineMulti@@UAE?AUglyph_metrics_t@@I@Z
?boundingBox@QFontEngineMulti@@UAE?AUglyph_metrics_t@@PBUQGlyphLayout@@H@Z
?boundingBox@QTextEngine@@QBE?AUglyph_metrics_t@@HH@Z
?boundingRect@QFontMetrics@@QBE?AVQRect@@ABV2@HABVQString@@HPAH@Z
?boundingRect@QFontMetrics@@QBE?AVQRect@@ABVQString@@@Z
?boundingRect@QFontMetrics@@QBE?AVQRect@@ABVQString@@H@Z
?boundingRect@QFontMetrics@@QBE?AVQRect@@HHHHHABVQString@@HHPAH@Z
?boundingRect@QFontMetrics@@QBE?AVQRect@@HHHHHABVQString@@HPAH@Z
?boundingRect@QFontMetrics@@QBE?AVQRect@@VQChar@@@Z
?boundingRect@QFontMetricsF@@QBE?AVQRectF@@ABV2@HABVQString@@HPAH@Z
?boundingRect@QFontMetricsF@@QBE?AVQRectF@@ABVQString@@@Z
?boundingRect@QFontMetricsF@@QBE?AVQRectF@@VQChar@@@Z
?boundingRect@QGraphicsEllipseItem@@UBE?AVQRectF@@XZ
?boundingRect@QGraphicsItemGroup@@UBE?AVQRectF@@XZ
?boundingRect@QGraphicsLineItem@@UBE?AVQRectF@@XZ
?boundingRect@QGraphicsPathItem@@UBE?AVQRectF@@XZ
?boundingRect@QGraphicsPixmapItem@@UBE?AVQRectF@@XZ
?boundingRect@QGraphicsPolygonItem@@UBE?AVQRectF@@XZ
?boundingRect@QGraphicsRectItem@@UBE?AVQRectF@@XZ
?boundingRect@QGraphicsSimpleTextItem@@UBE?AVQRectF@@XZ
?boundingRect@QGraphicsTextItem@@UBE?AVQRectF@@XZ
?boundingRect@QGraphicsWidget@@UBE?AVQRectF@@XZ
?boundingRect@QPainter@@QAE?AVQRect@@ABV2@HABVQString@@@Z
?boundingRect@QPainter@@QAE?AVQRect@@ABV2@HABVQString@@H@Z
?boundingRect@QPainter@@QAE?AVQRect@@HHHHHABVQString@@@Z
?boundingRect@QPainter@@QAE?AVQRect@@HHHHHABVQString@@H@Z
?boundingRect@QPainter@@QAE?AVQRectF@@ABV2@ABVQString@@ABVQTextOption@@@Z
?boundingRect@QPainter@@QAE?AVQRectF@@ABV2@HABVQString@@@Z
?boundingRect@QPainterPath@@QBE?AVQRectF@@XZ
?boundingRect@QPicture@@QBE?AVQRect@@XZ
?boundingRect@QPolygon@@QBE?AVQRect@@XZ
?boundingRect@QPolygonF@@QBE?AVQRectF@@XZ
?boundingRect@QRegion@@QBE?AVQRect@@XZ
?boundingRect@QTextLayout@@QBE?AVQRectF@@XZ
?boundingRegion@QGraphicsItem@@QBE?AVQRegion@@ABVQTransform@@@Z
?boundingRegionGranularity@QGraphicsItem@@QBENXZ
?bounds@QBezier@@QBE?AVQRectF@@XZ
?brightText@QColorGroup@@QBEABVQColor@@XZ
?brightText@QPalette@@QBEABVQBrush@@XZ
?brush@QAbstractGraphicsShapeItem@@QBE?AVQBrush@@XZ
?brush@QPaintEngineState@@QBE?AVQBrush@@XZ
?brush@QPainter@@QBEABVQBrush@@XZ
?brush@QPalette@@QBEABVQBrush@@W4ColorGroup@1@W4ColorRole@1@@Z
?brush@QPalette@@QBEABVQBrush@@W4ColorRole@1@@Z
?brush@QPen@@QBE?AVQBrush@@XZ
?brushNeedsResolving@QPaintEngineState@@QBE_NXZ
?brushOrigin@QPaintEngineState@@QBE?AVQPointF@@XZ
?brushOrigin@QPainter@@QBE?AVQPoint@@XZ
?brushProperty@QTextFormat@@QBE?AVQBrush@@H@Z
?brushValue@Declaration@QCss@@QBE?AVQBrush@@ABVQPalette@@@Z
?brushValues@Declaration@QCss@@QBEXPAVQBrush@@ABVQPalette@@@Z
?bspTreeDepth@QGraphicsScene@@QBEHXZ
?buddy@QLabel@@QBEPAVQWidget@@XZ
?buddy@QSortFilterProxyModel@@UBE?AVQModelIndex@@ABV2@@Z
?buffer@QPixmapData@@UAEPAVQImage@@XZ
?buffer@QWindowSurface@@UAEPAVQImage@@PBVQWidget@@@Z
?button@QButtonGroup@@QBEPAVQAbstractButton@@H@Z
?button@QColorGroup@@QBEABVQColor@@XZ
?button@QDialogButtonBox@@QBEPAVQPushButton@@W4StandardButton@1@@Z
?button@QGraphicsSceneMouseEvent@@QBE?AW4MouseButton@Qt@@XZ
?button@QMessageBox@@QBEPAVQAbstractButton@@W4StandardButton@1@@Z
?button@QMouseEvent@@QBE?AW4MouseButton@Qt@@XZ
?button@QPalette@@QBEABVQBrush@@XZ
?button@QWizard@@QBEPAVQAbstractButton@@W4WizardButton@1@@Z
?buttonClicked@QButtonGroup@@IAEXH@Z
?buttonClicked@QButtonGroup@@IAEXPAVQAbstractButton@@@Z
?buttonDownPos@QGraphicsSceneMouseEvent@@QBE?AVQPointF@@W4MouseButton@Qt@@@Z
?buttonDownScenePos@QGraphicsSceneMouseEvent@@QBE?AVQPointF@@W4MouseButton@Qt@@@Z
?buttonDownScreenPos@QGraphicsSceneMouseEvent@@QBE?AVQPoint@@W4MouseButton@Qt@@@Z
?buttonPressed@QButtonGroup@@IAEXH@Z
?buttonPressed@QButtonGroup@@IAEXPAVQAbstractButton@@@Z
?buttonReleased@QButtonGroup@@IAEXH@Z
?buttonReleased@QButtonGroup@@IAEXPAVQAbstractButton@@@Z
?buttonRole@QDialogButtonBox@@QBE?AW4ButtonRole@1@PAVQAbstractButton@@@Z
?buttonSymbols@QAbstractSpinBox@@QBE?AW4ButtonSymbols@1@XZ
?buttonText@QColorGroup@@QBEABVQColor@@XZ
?buttonText@QMessageBox@@QBE?AVQString@@H@Z
?buttonText@QPalette@@QBEABVQBrush@@XZ
?buttonText@QWizard@@QBE?AVQString@@W4WizardButton@1@@Z
?buttonText@QWizardPage@@QBE?AVQString@@W4WizardButton@QWizard@@@Z
?buttons@QButtonGroup@@QBE?AV?$QList@PAVQAbstractButton@@@@XZ
?buttons@QDialogButtonBox@@QBE?AV?$QList@PAVQAbstractButton@@@@XZ
?buttons@QGraphicsSceneDragDropEvent@@QBE?AV?$QFlags@W4MouseButton@Qt@@@@XZ
?buttons@QGraphicsSceneMouseEvent@@QBE?AV?$QFlags@W4MouseButton@Qt@@@@XZ
?buttons@QGraphicsSceneWheelEvent@@QBE?AV?$QFlags@W4MouseButton@Qt@@@@XZ
?buttons@QMouseEvent@@QBE?AV?$QFlags@W4MouseButton@Qt@@@@XZ
?buttons@QWheelEvent@@QBE?AV?$QFlags@W4MouseButton@Qt@@@@XZ
?bytesPerLine@QImage@@QBEHXZ
?cacheEnabled@QTextLayout@@QBE_NXZ
?cacheKey@QIcon@@QBE_JXZ
?cacheKey@QImage@@QBE_JXZ
?cacheKey@QPalette@@QBE_JXZ
?cacheKey@QPixmap@@QBE_JXZ
?cacheLimit@QPixmapCache@@SAHXZ
?cacheMode@QGraphicsItem@@QBE?AW4CacheMode@1@XZ
?cacheMode@QGraphicsView@@QBE?AV?$QFlags@W4CacheModeFlag@QGraphicsView@@@@XZ
?cacheMode@QMovie@@QAE?AW4CacheMode@1@XZ
?cacheMode@QMovie@@QBE?AW4CacheMode@1@XZ
?cacheStatistics@QFont@@SAXXZ
?calculateTabWidth@QTextEngine@@QBE?AUQFixed@@HU2@@Z
?calendarPopup@QDateTimeEdit@@QBE_NXZ
?calendarWidget@QDateTimeEdit@@QBEPAVQCalendarWidget@@XZ
?canDecode@QAbstractItemViewPrivate@@QBE_NPAVQDropEvent@@@Z
?canFetchMore@QFileSystemModel@@UBE_NABVQModelIndex@@@Z
?canFetchMore@QSortFilterProxyModel@@UBE_NABVQModelIndex@@@Z
?canInsertFromMimeData@QPlainTextEdit@@MBE_NPBVQMimeData@@@Z
?canInsertFromMimeData@QTextControl@@UBE_NPBVQMimeData@@@Z
?canInsertFromMimeData@QTextEdit@@MBE_NPBVQMimeData@@@Z
?canPaste@QPlainTextEdit@@QBE_NXZ
?canPaste@QTextControl@@QBE_NXZ
?canPaste@QTextEdit@@QBE_NXZ
?canRead@QImageReader@@QBE_NXZ
?canRedo@QUndoGroup@@QBE_NXZ
?canRedo@QUndoStack@@QBE_NXZ
?canRedoChanged@QUndoGroup@@IAEX_N@Z
?canRedoChanged@QUndoStack@@IAEX_N@Z
?canRender@QFontEngineMulti@@UAE_NPBVQChar@@H@Z
?canUndo@QUndoGroup@@QBE_NXZ
?canUndo@QUndoStack@@QBE_NXZ
?canUndoChanged@QUndoGroup@@IAEX_N@Z
?canUndoChanged@QUndoStack@@IAEX_N@Z
?canWrite@QImageWriter@@QBE_NXZ
?cancel@QDragManager@@QAEX_N@Z
?cancel@QProgressDialog@@QAEXXZ
?cancel@QSessionManager@@QAEXXZ
?canceled@QProgressDialog@@IAEXXZ
?capForJoinMode@QStroker@@KA?AW4PenCapStyle@Qt@@W4LineJoinMode@1@@Z
?capStyle@QPainterPathStroker@@QBE?AW4PenCapStyle@Qt@@XZ
?capStyle@QPen@@QBE?AW4PenCapStyle@Qt@@XZ
?capStyle@QStroker@@QBE?AW4PenCapStyle@Qt@@XZ
?capStyleMode@QStroker@@QBE?AW4LineJoinMode@1@XZ
?capitalization@QFont@@QBE?AW4Capitalization@1@XZ
?caption@QWidget@@QBE?AVQString@@XZ
?cascade@QWorkspace@@QAEXXZ
?cascadeSubWindows@QMdiArea@@QAEXXZ
?cascadingSectionResizes@QHeaderView@@QBE_NXZ
?caseSensitivity@QCompleter@@QBE?AW4CaseSensitivity@Qt@@XZ
?cast_helper@QAccessibleInterface@@AAEPAVQAccessible2Interface@@W4InterfaceType@QAccessible2@@@Z
?cellActivated@QTableWidget@@IAEXHH@Z
?cellAt@QTextTable@@QBE?AVQTextTableCell@@ABVQTextCursor@@@Z
?cellAt@QTextTable@@QBE?AVQTextTableCell@@H@Z
?cellAt@QTextTable@@QBE?AVQTextTableCell@@HH@Z
?cellChanged@QTableWidget@@IAEXHH@Z
?cellClicked@QTableWidget@@IAEXHH@Z
?cellDoubleClicked@QTableWidget@@IAEXHH@Z
?cellEntered@QTableWidget@@IAEXHH@Z
?cellGeometry@QGridLayout@@QBE?AVQRect@@HH@Z
?cellPadding@QTextTableFormat@@QBENXZ
?cellPressed@QTableWidget@@IAEXHH@Z
?cellRect@QGridLayout@@QBE?AVQRect@@HH@Z
?cellSpacing@QTextTableFormat@@QBENXZ
?cellWidget@QTableWidget@@QBEPAVQWidget@@HH@Z
?center@QConicalGradient@@QBE?AVQPointF@@XZ
?center@QRadialGradient@@QBE?AVQPointF@@XZ
?centerButtons@QDialogButtonBox@@QBE_NXZ
?centerCursor@QPlainTextEdit@@QAEXXZ
?centerOn@QGraphicsView@@QAEXABVQPointF@@@Z
?centerOn@QGraphicsView@@QAEXNN@Z
?centerOn@QGraphicsView@@QAEXPBVQGraphicsItem@@@Z
?centerOnScroll@QPlainTextEdit@@QBE_NXZ
?centralWidget@QMainWindow@@QBEPAVQWidget@@XZ
?changeEvent@QAbstractButton@@MAEXPAVQEvent@@@Z
?changeEvent@QAbstractSlider@@MAEXPAVQEvent@@@Z
?changeEvent@QAbstractSpinBox@@MAEXPAVQEvent@@@Z
?changeEvent@QColorDialog@@MAEXPAVQEvent@@@Z
?changeEvent@QComboBox@@MAEXPAVQEvent@@@Z
?changeEvent@QDialogButtonBox@@MAEXPAVQEvent@@@Z
?changeEvent@QDockWidget@@MAEXPAVQEvent@@@Z
?changeEvent@QErrorMessage@@MAEXPAVQEvent@@@Z
?changeEvent@QFileDialog@@MAEXPAVQEvent@@@Z
?changeEvent@QFontDialog@@MAEXPAVQEvent@@@Z
?changeEvent@QFrame@@MAEXPAVQEvent@@@Z
?changeEvent@QGraphicsWidget@@MAEXPAVQEvent@@@Z
?changeEvent@QGroupBox@@MAEXPAVQEvent@@@Z
?changeEvent@QLabel@@MAEXPAVQEvent@@@Z
?changeEvent@QLineEdit@@MAEXPAVQEvent@@@Z
?changeEvent@QMdiSubWindow@@MAEXPAVQEvent@@@Z
?changeEvent@QMenu@@MAEXPAVQEvent@@@Z
?changeEvent@QMenuBar@@MAEXPAVQEvent@@@Z
?changeEvent@QMessageBox@@MAEXPAVQEvent@@@Z
?changeEvent@QPlainTextEdit@@MAEXPAVQEvent@@@Z
?changeEvent@QProgressDialog@@MAEXPAVQEvent@@@Z
?changeEvent@QRubberBand@@MAEXPAVQEvent@@@Z
?changeEvent@QSplitter@@MAEXPAVQEvent@@@Z
?changeEvent@QTabBar@@MAEXPAVQEvent@@@Z
?changeEvent@QTabWidget@@MAEXPAVQEvent@@@Z
?changeEvent@QTextEdit@@MAEXPAVQEvent@@@Z
?changeEvent@QToolBar@@MAEXPAVQEvent@@@Z
?changeEvent@QToolBox@@MAEXPAVQEvent@@@Z
?changeEvent@QToolButton@@MAEXPAVQEvent@@@Z
?changeEvent@QWidget@@MAEXPAVQEvent@@@Z
?changeEvent@QWorkspace@@MAEXPAVQEvent@@@Z
?changeItem@QComboBox@@QAEXABVQPixmap@@ABVQString@@H@Z
?changeItem@QComboBox@@QAEXABVQPixmap@@H@Z
?changeItem@QComboBox@@QAEXABVQString@@H@Z
?changeItem@QMenu@@QAEXHABVQIcon@@ABVQString@@@Z
?changeItem@QMenu@@QAEXHABVQPixmap@@@Z
?changeItem@QMenu@@QAEXHABVQString@@@Z
?changeItem@QMenuBar@@QAEXHABVQIcon@@ABVQString@@@Z
?changeItem@QMenuBar@@QAEXHABVQPixmap@@@Z
?changeItem@QMenuBar@@QAEXHABVQString@@@Z
?changeOverrideCursor@QApplication@@SAXABVQCursor@@@Z
?changeSize@QSpacerItem@@QAEXHHW4Policy@QSizePolicy@@0@Z
?changeTab@QTabWidget@@QAEXPAVQWidget@@ABVQIcon@@ABVQString@@@Z
?changeTab@QTabWidget@@QAEXPAVQWidget@@ABVQString@@@Z
?changed@QAction@@IAEXXZ
?changed@QClipboard@@IAEXW4Mode@1@@Z
?changed@QGraphicsScene@@IAEXABV?$QList@VQRectF@@@@@Z
?charFormat@QTextBlock@@QBE?AVQTextCharFormat@@XZ
?charFormat@QTextCursor@@QBE?AVQTextCharFormat@@XZ
?charFormat@QTextFormatCollection@@QBE?AVQTextCharFormat@@H@Z
?charFormat@QTextFragment@@QBE?AVQTextCharFormat@@XZ
?charFormatIndex@QTextBlock@@QBEHXZ
?charFormatIndex@QTextFragment@@QBEHXZ
?charWidth@QFontMetrics@@QBEHABVQString@@H@Z
?characterAt@QLineEdit@@QBEHHPAVQChar@@@Z
?check@QItemDelegate@@IBE?AVQRect@@ABVQStyleOptionViewItem@@ABV2@ABVQVariant@@@Z
?checkFormat@QPicturePrivate@@QAE_NXZ
?checkOverflow@QLCDNumber@@QBE_NH@Z
?checkOverflow@QLCDNumber@@QBE_NN@Z
?checkPersistentEditorFocus@QAbstractItemViewPrivate@@QAEXXZ
?checkState@QCheckBox@@QBE?AW4CheckState@Qt@@XZ
?checkState@QListWidgetItem@@QBE?AW4CheckState@Qt@@XZ
?checkState@QStandardItem@@QBE?AW4CheckState@Qt@@XZ
?checkState@QTableWidgetItem@@QBE?AW4CheckState@Qt@@XZ
?checkState@QTreeWidgetItem@@QBE?AW4CheckState@Qt@@H@Z
?checkStateSet@QAbstractButton@@MAEXXZ
?checkStateSet@QCheckBox@@MAEXXZ
?checkUsePopupMenu@QToolBarLayout@@QAEXXZ
?checkedAction@QActionGroup@@QBEPAVQAction@@XZ
?checkedButton@QButtonGroup@@QBEPAVQAbstractButton@@XZ
?checkedId@QButtonGroup@@QBEHXZ
?child@QAccessibleEvent@@QBEHXZ
?child@QStandardItem@@QBEPAV1@HH@Z
?child@QTreeWidgetItem@@QBEPAV1@H@Z
?child@QUndoCommand@@QBEPBV1@H@Z
?childAt@QAccessibleApplication@@UBEHHH@Z
?childAt@QAccessibleWidget@@UBEHHH@Z
?childAt@QAccessibleWidgetEx@@UBEHHH@Z
?childAt@QWidget@@QBEPAV1@ABVQPoint@@@Z
?childAt@QWidget@@QBEPAV1@ABVQPoint@@_N@Z
?childAt@QWidget@@QBEPAV1@HH@Z
?childAt@QWidget@@QBEPAV1@HH_N@Z
?childCount@QAccessibleApplication@@UBEHXZ
?childCount@QAccessibleWidget@@UBEHXZ
?childCount@QAccessibleWidgetEx@@UBEHXZ
?childCount@QTreeWidgetItem@@QBEHXZ
?childCount@QUndoCommand@@QBEHXZ
?childEvent@QGroupBox@@MAEXPAVQChildEvent@@@Z
?childEvent@QLayout@@MAEXPAVQChildEvent@@@Z
?childEvent@QMdiArea@@MAEXPAVQChildEvent@@@Z
?childEvent@QMdiSubWindow@@MAEXPAVQChildEvent@@@Z
?childEvent@QSplitter@@MAEXPAVQChildEvent@@@Z
?childEvent@QToolBar@@MAEXPAVQChildEvent@@@Z
?childEvent@QWorkspace@@MAEXPAVQChildEvent@@@Z
?childFrames@QTextFrame@@QBE?AV?$QList@PAVQTextFrame@@@@XZ
?childIndicatorPolicy@QTreeWidgetItem@@QBE?AW4ChildIndicatorPolicy@1@XZ
?childItems@QGraphicsItem@@QBE?AV?$QList@PAVQGraphicsItem@@@@XZ
?children@QGraphicsItem@@QBE?AV?$QList@PAVQGraphicsItem@@@@XZ
?childrenBoundingRect@QGraphicsItem@@QBE?AVQRectF@@XZ
?childrenCheckState@QTreeWidgetItem@@ABE?AVQVariant@@H@Z
?childrenCollapsible@QSplitter@@QBE_NXZ
?childrenRect@QWidget@@QBE?AVQRect@@XZ
?childrenRegion@QWidget@@QBE?AVQRegion@@XZ
?classId@QPixmapData@@QBE?AW4ClassId@1@XZ
?cleanChanged@QUndoGroup@@IAEX_N@Z
?cleanChanged@QUndoStack@@IAEX_N@Z
?cleanIcon@QUndoView@@QBE?AVQIcon@@XZ
?cleanIndex@QUndoStack@@QBEHXZ
?cleanText@QDoubleSpinBox@@QBE?AVQString@@XZ
?cleanText@QSpinBox@@QBE?AVQString@@XZ
?cleanUp@QBrush@@AAEXPAUQBrushData@@@Z
?cleanUp@QRegion@@CAXPAUQRegionData@1@@Z
?cleanWidget_sys@QWidgetPrivate@@QAEXABVQRegion@@@Z
?cleanup@QAccessible@@SAXXZ
?cleanup@QColormap@@SAXXZ
?cleanup@QFont@@SAXXZ
?cleanupPage@QWizard@@MAEXH@Z
?cleanupPage@QWizardPage@@UAEXXZ
?clear@?$QList@VQItemSelectionRange@@@@QAEXXZ
?clear@QAbstractSpinBox@@UAEXXZ
?clear@QBitmap@@QAEXXZ
?clear@QClipboard@@QAEXW4Mode@1@@Z
?clear@QComboBox@@QAEXXZ
?clear@QDateTimeEdit@@UAEXXZ
?clear@QDialogButtonBox@@QAEXXZ
?clear@QGraphicsItemAnimation@@QAEXXZ
?clear@QGraphicsScene@@QAEXXZ
?clear@QItemSelectionModel@@UAEXXZ
?clear@QLabel@@QAEXXZ
?clear@QLineEdit@@QAEXXZ
?clear@QListWidget@@QAEXXZ
?clear@QMenu@@QAEXXZ
?clear@QMenuBar@@QAEXXZ
?clear@QPixmapCache@@SAXXZ
?clear@QPlainTextEdit@@QAEXXZ
?clear@QSortFilterProxyModel@@QAEXXZ
?clear@QSplashScreen@@QAEXXZ
?clear@QStandardItemModel@@QAEXXZ
?clear@QStatusBar@@QAEXXZ
?clear@QTabWidget@@QAEXXZ
?clear@QTableWidget@@QAEXXZ
?clear@QTextControl@@QAEXXZ
?clear@QTextDocument@@UAEXXZ
?clear@QTextEdit@@QAEXXZ
?clear@QToolBar@@QAEXXZ
?clear@QTreeWidget@@QAEXXZ
?clear@QUndoStack@@QAEXXZ
?clearAdditionalFormats@QTextLayout@@QAEXXZ
?clearBackground@QTextFormat@@QAEXXZ
?clearColumnWidthConstraints@QTextTableFormat@@QAEXXZ
?clearContents@QTableWidget@@QAEXXZ
?clearDirty@QPaintEngine@@QAEXV?$QFlags@W4DirtyFlag@QPaintEngine@@@@@Z
?clearEdit@QComboBox@@QAEXXZ
?clearEditText@QComboBox@@QAEXXZ
?clearFocus@QGraphicsItem@@QAEXXZ
?clearFocus@QGraphicsScene@@QAEXXZ
?clearFocus@QWidget@@QAEXXZ
?clearForeground@QTextFormat@@QAEXXZ
?clearHistory@QTextBrowser@@QAEXXZ
?clearLayout@QTextBlock@@QAEXXZ
?clearLayout@QTextLayout@@QAEXXZ
?clearLineData@QTextEngine@@QAEXXZ
?clearMapping@QDataWidgetMapper@@QAEXXZ
?clearMask@QWidget@@QAEXXZ
?clearMaximumDate@QDateTimeEdit@@QAEXXZ
?clearMaximumDateTime@QDateTimeEdit@@QAEXXZ
?clearMaximumTime@QDateTimeEdit@@QAEXXZ
?clearMessage@QSplashScreen@@QAEXXZ
?clearMessage@QStatusBar@@QAEXXZ
?clearMinimumDate@QDateTimeEdit@@QAEXXZ
?clearMinimumDateTime@QDateTimeEdit@@QAEXXZ
?clearMinimumTime@QDateTimeEdit@@QAEXXZ
?clearModified@QLineEdit@@QAEXXZ
?clearOrRemove@QAbstractItemViewPrivate@@QAEXXZ
?clearProperty@QTextFormat@@QAEXH@Z
?clearPropertyFlags@QListView@@QAEXXZ
?clearSelection@QAbstractItemView@@QAEXXZ
?clearSelection@QGraphicsScene@@QAEXXZ
?clearSelection@QItemSelectionModel@@QAEXXZ
?clearSelection@QTextCursor@@QAEXXZ
?clearSpans@QTableView@@QAEXXZ
?clearValidator@QComboBox@@QAEXXZ
?clearValidator@QLineEdit@@QAEXXZ
?click@QAbstractButton@@QAEXXZ
?clicked@QAbstractButton@@IAEX_N@Z
?clicked@QAbstractItemView@@IAEXABVQModelIndex@@@Z
?clicked@QCalendarWidget@@IAEXABVQDate@@@Z
?clicked@QDialogButtonBox@@IAEXPAVQAbstractButton@@@Z
?clicked@QGroupBox@@IAEX_N@Z
?clickedButton@QMessageBox@@QBEPAVQAbstractButton@@XZ
?clipOperation@QPaintEngineState@@QBE?AW4ClipOperation@Qt@@XZ
?clipPath@QPaintEngineState@@QBE?AVQPainterPath@@XZ
?clipPath@QPainter@@QBE?AVQPainterPath@@XZ
?clipRect@QImageReader@@QBE?AVQRect@@XZ
?clipRect@QStrokerOps@@QBE?AVQRectF@@XZ
?clipRect@QWidgetPrivate@@QBE?AVQRect@@XZ
?clipRegion@QPaintEngineState@@QBE?AVQRegion@@XZ
?clipRegion@QPainter@@QBE?AVQRegion@@XZ
?clipRegion@QWidgetPrivate@@QBE?AVQRegion@@XZ
?clipboard@QApplication@@SAPAVQClipboard@@XZ
?clone@QIconEngineV2@@UBEPAV1@XZ
?clone@QListWidgetItem@@UBEPAV1@XZ
?clone@QStandardItem@@UBEPAV1@XZ
?clone@QTableWidgetItem@@UBEPAV1@XZ
?clone@QTextDocument@@QBEPAV1@PAVQObject@@@Z
?clone@QTreeWidgetItem@@UBEPAV1@XZ
?close@QGraphicsWidget@@QAE_NXZ
?close@QWidget@@QAE_NXZ
?close@QWidget@@QAE_N_N@Z
?closeActiveSubWindow@QMdiArea@@QAEXXZ
?closeActiveWindow@QWorkspace@@QAEXXZ
?closeAllSubWindows@QMdiArea@@QAEXXZ
?closeAllWindows@QApplication@@SAXXZ
?closeAllWindows@QWorkspace@@QAEXXZ
?closeEditor@QAbstractItemDelegate@@IAEXPAVQWidget@@W4EndEditHint@1@@Z
?closeEditor@QAbstractItemView@@MAEXPAVQWidget@@W4EndEditHint@QAbstractItemDelegate@@@Z
?closeEvent@QAbstractSpinBox@@MAEXPAVQCloseEvent@@@Z
?closeEvent@QDialog@@MAEXPAVQCloseEvent@@@Z
?closeEvent@QDockWidget@@MAEXPAVQCloseEvent@@@Z
?closeEvent@QGraphicsWidget@@MAEXPAVQCloseEvent@@@Z
?closeEvent@QMdiSubWindow@@MAEXPAVQCloseEvent@@@Z
?closeEvent@QMessageBox@@MAEXPAVQCloseEvent@@@Z
?closeEvent@QProgressDialog@@MAEXPAVQCloseEvent@@@Z
?closeEvent@QWidget@@MAEXPAVQCloseEvent@@@Z
?closePersistentEditor@QAbstractItemView@@QAEXABVQModelIndex@@@Z
?closePersistentEditor@QListWidget@@QAEXPAVQListWidgetItem@@@Z
?closePersistentEditor@QTableWidget@@QAEXPAVQTableWidgetItem@@@Z
?closePersistentEditor@QTreeWidget@@QAEXPAVQTreeWidgetItem@@H@Z
?closePopup@QApplicationPrivate@@QAEXPAVQWidget@@@Z
?closeSubpath@QPainterPath@@QAEXXZ
?close_helper@QWidgetPrivate@@QAE_NW4CloseMode@1@@Z
?closestAcceptableSize@QLayout@@SA?AVQSize@@PBVQWidget@@ABV2@@Z
?closestLegalPosition@QSplitter@@IAEHHH@Z
?closestLegalPosition@QSplitterHandle@@IAEHH@Z
?codecForHtml@Qt@@YAPAVQTextCodec@@ABVQByteArray@@@Z
?coefficients@QBezier@@SAXNAAN000@Z
?colSpacing@QGridLayout@@QBEHH@Z
?colStretch@QGridLayout@@QBEHH@Z
?collapse@QTreeView@@QAEXABVQModelIndex@@@Z
?collapseAll@QTreeView@@QAEXXZ
?collapseItem@QTreeWidget@@QAEXPBVQTreeWidgetItem@@@Z
?collapsed@QTreeView@@IAEXABVQModelIndex@@@Z
?collateCopies@QPrinter@@QBE_NXZ
?collateCopiesEnabled@QPrinter@@QBE_NXZ
?collidesWithItem@QGraphicsItem@@UBE_NPBV1@W4ItemSelectionMode@Qt@@@Z
?collidesWithPath@QGraphicsItem@@UBE_NABVQPainterPath@@W4ItemSelectionMode@Qt@@@Z
?collidingItems@QGraphicsItem@@QBE?AV?$QList@PAVQGraphicsItem@@@@W4ItemSelectionMode@Qt@@@Z
?collidingItems@QGraphicsScene@@QBE?AV?$QList@PAVQGraphicsItem@@@@PBVQGraphicsItem@@W4ItemSelectionMode@Qt@@@Z
?color@QBrush@@QBEABVQColor@@XZ
?color@QColorDialog@@ABE?AVQColor@@XZ
?color@QImage@@QBEIH@Z
?color@QPalette@@QBEABVQColor@@W4ColorGroup@1@W4ColorRole@1@@Z
?color@QPalette@@QBEABVQColor@@W4ColorRole@1@@Z
?color@QPen@@QBE?AVQColor@@XZ
?color@QTextEdit@@QBE?AVQColor@@XZ
?colorAt@QColormap@@QBE?BVQColor@@I@Z
?colorGroup@QWidget@@QBE?AVQColorGroup@@XZ
?colorMode@QApplication@@SAHXZ
?colorMode@QPrinter@@QBE?AW4ColorMode@1@XZ
?colorNames@QColor@@SA?AVQStringList@@XZ
?colorProperty@QTextFormat@@QBE?AVQColor@@H@Z
?colorSpec@QApplication@@SAHXZ
?colorTable@QImage@@QBE?AV?$QVector@I@@XZ
?colorValue@Declaration@QCss@@QBE?AVQColor@@ABVQPalette@@@Z
?colorValues@Declaration@QCss@@QBEXPAVQColor@@ABVQPalette@@@Z
?colormap@QColormap@@QBE?BV?$QVector@VQColor@@@@XZ
?column@QStandardItem@@QBEHXZ
?column@QTableWidget@@QBEHPBVQTableWidgetItem@@@Z
?column@QTableWidgetItem@@QBEHXZ
?column@QTextTableCell@@QBEHXZ
?columnAlignment@QGraphicsGridLayout@@QBE?AV?$QFlags@W4AlignmentFlag@Qt@@@@H@Z
?columnAt@QTableView@@QBEHH@Z
?columnAt@QTreeView@@QBEHH@Z
?columnCount@QDirModel@@UBEHABVQModelIndex@@@Z
?columnCount@QFileSystemModel@@UBEHABVQModelIndex@@@Z
?columnCount@QGraphicsGridLayout@@QBEHXZ
?columnCount@QGridLayout@@QBEHXZ
?columnCount@QMenu@@IBEHXZ
?columnCount@QProxyModel@@UBEHABVQModelIndex@@@Z
?columnCount@QSortFilterProxyModel@@UBEHABVQModelIndex@@@Z
?columnCount@QStandardItem@@QBEHXZ
?columnCount@QStandardItemModel@@UBEHABVQModelIndex@@@Z
?columnCount@QTableWidget@@QBEHXZ
?columnCount@QTableWidgetSelectionRange@@QBEHXZ
?columnCount@QTreeWidget@@QBEHXZ
?columnCount@QTreeWidgetItem@@QBEHXZ
?columnCountChanged@QTableView@@IAEXHH@Z
?columnCountChanged@QTreeView@@IAEXHH@Z
?columnIntersectsSelection@QItemSelectionModel@@QBE_NHABVQModelIndex@@@Z
?columnMaximumWidth@QGraphicsGridLayout@@QBENH@Z
?columnMinimumWidth@QGraphicsGridLayout@@QBENH@Z
?columnMinimumWidth@QGridLayout@@QBEHH@Z
?columnMoved@QTableView@@IAEXHHH@Z
?columnMoved@QTreeView@@IAEXXZ
?columnNumber@QTextCursor@@QBEHXZ
?columnPreferredWidth@QGraphicsGridLayout@@QBENH@Z
?columnResized@QTableView@@IAEXHHH@Z
?columnResized@QTreeView@@IAEXHHH@Z
?columnSpacing@QGraphicsGridLayout@@QBENH@Z
?columnSpan@QTableView@@QBEHHH@Z
?columnSpan@QTextTableCell@@QBEHXZ
?columnStretch@QGridLayout@@QBEHH@Z
?columnStretchFactor@QGraphicsGridLayout@@QBEHH@Z
?columnViewportPosition@QTableView@@QBEHH@Z
?columnViewportPosition@QTreeView@@QBEHH@Z
?columnWidth@QTableView@@QBEHH@Z
?columnWidth@QTreeView@@QBEHH@Z
?columnWidthConstraints@QTextTableFormat@@QBE?AV?$QVector@VQTextLength@@@@XZ
?columnWidths@QColumnView@@QBE?AV?$QList@H@@XZ
?columns@QMenu@@IBEHXZ
?columns@QTextTable@@QBEHXZ
?columns@QTextTableFormat@@QBEHXZ
?combinedLayoutSpacing@QStyle@@QBEHV?$QFlags@W4ControlType@QSizePolicy@@@@0W4Orientation@Qt@@PAVQStyleOption@@PAVQWidget@@@Z
?combinedMatrix@QPainter@@QBE?AVQMatrix@@XZ
?combinedTransform@QPainter@@QBE?AVQTransform@@XZ
?command@QUndoStack@@QBEPBVQUndoCommand@@H@Z
?commitData@QAbstractItemDelegate@@IAEXPAVQWidget@@@Z
?commitData@QAbstractItemView@@MAEXPAVQWidget@@@Z
?commitData@QApplication@@UAEXAAVQSessionManager@@@Z
?commitDataRequest@QApplication@@IAEXAAVQSessionManager@@@Z
?commitString@QInputMethodEvent@@QBEABVQString@@XZ
?commonAncestorItem@QGraphicsItem@@QBEPAV1@PBV1@@Z
?complete@QCompleter@@QAEXABVQRect@@@Z
?completeChanged@QWizardPage@@IAEXXZ
?completer@QComboBox@@QBEPAVQCompleter@@XZ
?completer@QLineEdit@@QBEPAVQCompleter@@XZ
?completionColumn@QCompleter@@QBEHXZ
?completionCount@QCompleter@@QBEHXZ
?completionMode@QCompleter@@QBE?AW4CompletionMode@1@XZ
?completionModel@QCompleter@@QBEPAVQAbstractItemModel@@XZ
?completionPrefix@QCompleter@@QBE?AVQString@@XZ
?completionRole@QCompleter@@QBEHXZ
?compositionMode@QPaintEngineState@@QBE?AW4CompositionMode@QPainter@@XZ
?compositionMode@QPainter@@QBE?AW4CompositionMode@1@XZ
?compressEvent@QApplication@@MAE_NPAVQEvent@@PAVQObject@@PAVQPostEventList@@@Z
?compression@QImageWriter@@QBEHXZ
?computeBoundingRect@QPainterPath@@ABEXXZ
?computeControlPointRect@QPainterPath@@ABEXXZ
?confirmOverwrite@QFileDialog@@QBE_NXZ
?connectItem@QMenu@@QAE_NHPBVQObject@@PBD@Z
?connectItem@QMenuBar@@QAE_NHPBVQObject@@PBD@Z
?connectNotify@QClipboard@@MAEXPBD@Z
?connectPath@QPainterPath@@QAEXABV1@@Z
?connectToModel@QProxyModel@@IBEXPBVQAbstractItemModel@@@Z
?constBegin@?$QList@VQItemSelectionRange@@@@QBE?AVconst_iterator@1@XZ
?constEnd@?$QList@VQItemSelectionRange@@@@QBE?AVconst_iterator@1@XZ
?constPolish@QWidget@@QBEXXZ
?construct@QApplicationPrivate@@QAEXXZ
?contains@?$QList@VQItemSelectionRange@@@@QBE?AVQBool@@ABVQItemSelectionRange@@@Z
?contains@QGraphicsEllipseItem@@UBE_NABVQPointF@@@Z
?contains@QGraphicsItem@@UBE_NABVQPointF@@@Z
?contains@QGraphicsLineItem@@UBE_NABVQPointF@@@Z
?contains@QGraphicsPathItem@@UBE_NABVQPointF@@@Z
?contains@QGraphicsPixmapItem@@UBE_NABVQPointF@@@Z
?contains@QGraphicsPolygonItem@@UBE_NABVQPointF@@@Z
?contains@QGraphicsRectItem@@UBE_NABVQPointF@@@Z
?contains@QGraphicsSimpleTextItem@@UBE_NABVQPointF@@@Z
?contains@QGraphicsTextItem@@UBE_NABVQPointF@@@Z
?contains@QItemSelection@@QBE_NABVQModelIndex@@@Z
?contains@QItemSelectionRange@@QBE_NABVQModelIndex@@@Z
?contains@QItemSelectionRange@@QBE_NHHABVQModelIndex@@@Z
?contains@QPainterPath@@QBE_NABV1@@Z
?contains@QPainterPath@@QBE_NABVQPointF@@@Z
?contains@QPainterPath@@QBE_NABVQRectF@@@Z
?contains@QRegion@@QBE_NABVQPoint@@@Z
?contains@QRegion@@QBE_NABVQRect@@@Z
?contains@QTextBlock@@QBE_NH@Z
?contains@QTextFragment@@QBE_NH@Z
?containsPoint@QPolygon@@QBE_NABVQPoint@@W4FillRule@Qt@@@Z
?containsPoint@QPolygonF@@QBE_NABVQPointF@@W4FillRule@Qt@@@Z
?contentOffset@QPlainTextEdit@@IBE?AVQPointF@@XZ
?contentsChange@QTextDocument@@IAEXHHH@Z
?contentsChanged@QTextDocument@@IAEXXZ
?contentsOffset@QAbstractItemViewPrivate@@UBE?AVQPoint@@XZ
?contentsRect@QGraphicsLayoutItem@@QBE?AVQRectF@@XZ
?contentsRect@QLayout@@QBE?AVQRect@@XZ
?contentsRect@QWidget@@QBE?AVQRect@@XZ
?contentsSize@QListView@@IBE?AVQSize@@XZ
?context@QShortcut@@QAE?AW4ShortcutContext@Qt@@XZ
?contextMenu@QSystemTrayIcon@@QBEPAVQMenu@@XZ
?contextMenuEvent@QAbstractScrollArea@@MAEXPAVQContextMenuEvent@@@Z
?contextMenuEvent@QAbstractSpinBox@@MAEXPAVQContextMenuEvent@@@Z
?contextMenuEvent@QComboBox@@MAEXPAVQContextMenuEvent@@@Z
?contextMenuEvent@QDialog@@MAEXPAVQContextMenuEvent@@@Z
?contextMenuEvent@QGraphicsItem@@MAEXPAVQGraphicsSceneContextMenuEvent@@@Z
?contextMenuEvent@QGraphicsProxyWidget@@MAEXPAVQGraphicsSceneContextMenuEvent@@@Z
?contextMenuEvent@QGraphicsScene@@MAEXPAVQGraphicsSceneContextMenuEvent@@@Z
?contextMenuEvent@QGraphicsTextItem@@MAEXPAVQGraphicsSceneContextMenuEvent@@@Z
?contextMenuEvent@QGraphicsView@@MAEXPAVQContextMenuEvent@@@Z
?contextMenuEvent@QLabel@@MAEXPAVQContextMenuEvent@@@Z
?contextMenuEvent@QLineEdit@@MAEXPAVQContextMenuEvent@@@Z
?contextMenuEvent@QMainWindow@@MAEXPAVQContextMenuEvent@@@Z
?contextMenuEvent@QMdiSubWindow@@MAEXPAVQContextMenuEvent@@@Z
?contextMenuEvent@QPlainTextEdit@@MAEXPAVQContextMenuEvent@@@Z
?contextMenuEvent@QScrollBar@@MAEXPAVQContextMenuEvent@@@Z
?contextMenuEvent@QTextEdit@@MAEXPAVQContextMenuEvent@@@Z
?contextMenuEvent@QWidget@@MAEXPAVQContextMenuEvent@@@Z
?contextMenuPolicy@QWidget@@QBE?AW4ContextMenuPolicy@Qt@@XZ
?contiguousSelectionCommand@QAbstractItemViewPrivate@@QBE?AV?$QFlags@W4SelectionFlag@QItemSelectionModel@@@@ABVQModelIndex@@PBVQEvent@@@Z
?controlPointRect@QPainterPath@@QBE?AVQRectF@@XZ
?controlType@QSizePolicy@@QBE?AW4ControlType@1@XZ
?controlTypes@QLayoutItem@@QBE?AV?$QFlags@W4ControlType@QSizePolicy@@@@XZ
?convertBitOrder@QImage@@QBE?AV1@W4Endian@1@@Z
?convertDepth@QImage@@QBE?AV1@HV?$QFlags@W4ImageConversionFlag@Qt@@@@@Z
?convertDepthWithPalette@QImage@@QBE?AV1@HPAIHV?$QFlags@W4ImageConversionFlag@Qt@@@@@Z
?convertFromImage@QPixmap@@QAE_NABVQImage@@V?$QFlags@W4ImageConversionFlag@Qt@@@@@Z
?convertFromImage@QPixmap@@QAE_NABVQImage@@W4ColorMode@1@@Z
?convertFromPlainText@Qt@@YA?AVQString@@ABV2@W4WhiteSpaceMode@1@@Z
?convertTo@QColor@@QBE?AV1@W4Spec@1@@Z
?convertToFormat@QImage@@QBE?AV1@W4Format@1@ABV?$QVector@I@@V?$QFlags@W4ImageConversionFlag@Qt@@@@@Z
?convertToFormat@QImage@@QBE?AV1@W4Format@1@V?$QFlags@W4ImageConversionFlag@Qt@@@@@Z
?convertToImage@QPixmap@@QBE?AVQImage@@XZ
?converterFromMime@QWindowsMime@@CAPAV1@ABUtagFORMATETC@@PBVQMimeData@@@Z
?converterToMime@QWindowsMime@@CAPAV1@ABVQString@@PAUIDataObject@@@Z
?coordinateMode@QGradient@@QBE?AW4CoordinateMode@1@XZ
?coordinateOffset@QPaintEngine@@UBE?AVQPoint@@XZ
?copy@QImage@@QBE?AV1@ABVQRect@@@Z
?copy@QImage@@QBE?AV1@ABVQRect@@V?$QFlags@W4ImageConversionFlag@Qt@@@@@Z
?copy@QImage@@QBE?AV1@HHHH@Z
?copy@QImage@@QBE?AV1@HHHHV?$QFlags@W4ImageConversionFlag@Qt@@@@@Z
?copy@QLineEdit@@QBEXXZ
?copy@QPalette@@QBE?AV1@XZ
?copy@QPicture@@IBE?AV1@XZ
?copy@QPixmap@@QBE?AV1@ABVQRect@@@Z
?copy@QPixmap@@QBE?AV1@HHHH@Z
?copy@QPixmapData@@UAEXPBV1@ABVQRect@@@Z
?copy@QPlainTextEdit@@QAEXXZ
?copy@QRegion@@ABE?AV1@XZ
?copy@QTextControl@@QAEXXZ
?copy@QTextEdit@@QAEXXZ
?copyAvailable@QPlainTextEdit@@IAEX_N@Z
?copyAvailable@QTextControl@@IAEX_N@Z
?copyAvailable@QTextEdit@@IAEX_N@Z
?copyBlt@@YAXPAVQPixmap@@HHPBV1@HHHH@Z
?copyText@QAccessibleSimpleEditableTextInterface@@UAEXHH@Z
?corner@QMainWindow@@QBE?AW4DockWidgetArea@Qt@@W4Corner@3@@Z
?cornerWidget@QAbstractScrollArea@@QBEPAVQWidget@@XZ
?cornerWidget@QMenuBar@@QBEPAVQWidget@@W4Corner@Qt@@@Z
?cornerWidget@QTabWidget@@QBEPAVQWidget@@W4Corner@Qt@@@Z
?correctionMode@QAbstractSpinBox@@QBE?AW4CorrectionMode@1@XZ
?count@?$QList@VQItemSelectionRange@@@@QBEHABVQItemSelectionRange@@@Z
?count@?$QList@VQItemSelectionRange@@@@QBEHXZ
?count@QBoxLayout@@UBEHXZ
?count@QComboBox@@QBEHXZ
?count@QDockWidgetLayout@@UBEHXZ
?count@QFormLayout@@UBEHXZ
?count@QGraphicsGridLayout@@UBEHXZ
?count@QGraphicsLinearLayout@@UBEHXZ
?count@QGridLayout@@UBEHXZ
?count@QHeaderView@@QBEHXZ
?count@QKeyEvent@@QBEHXZ
?count@QKeySequence@@QBEIXZ
?count@QListWidget@@QBEHXZ
?count@QMenu@@QBEIXZ
?count@QMenuBar@@QBEIXZ
?count@QSplitter@@QBEHXZ
?count@QStackedLayout@@UBEHXZ
?count@QStackedWidget@@QBEHXZ
?count@QTabBar@@QBEHXZ
?count@QTabWidget@@QBEHXZ
?count@QTextList@@QBEHXZ
?count@QToolBarLayout@@UBEHXZ
?count@QToolBox@@QBEHXZ
?count@QUndoStack@@QBEHXZ
?create@QImage@@QAE_NABVQSize@@HHW4Endian@1@@Z
?create@QImage@@QAE_NHHHHW4Endian@1@@Z
?create@QInputContextFactory@@SAPAVQInputContext@@ABVQString@@PAVQObject@@@Z
?create@QStyleFactory@@SAPAVQStyle@@ABVQString@@@Z
?create@QWidget@@IAEXPAUHWND__@@_N1@Z
?createAction@QWhatsThis@@SAPAVQAction@@PAVQObject@@@Z
?createAlphaMask@QImage@@QBE?AV1@V?$QFlags@W4ImageConversionFlag@Qt@@@@@Z
?createColorGroup@QPalette@@ABE?AVQColorGroup@@W4ColorGroup@1@@Z
?createColumn@QColumnView@@MAEPAVQAbstractItemView@@ABVQModelIndex@@@Z
?createDatabase@QFontDatabase@@CAXXZ
?createEditor@QAbstractItemDelegate@@UBEPAVQWidget@@PAV2@ABVQStyleOptionViewItem@@ABVQModelIndex@@@Z
?createEditor@QItemDelegate@@UBEPAVQWidget@@PAV2@ABVQStyleOptionViewItem@@ABVQModelIndex@@@Z
?createEditor@QItemEditorFactory@@UBEPAVQWidget@@W4Type@QVariant@@PAV2@@Z
?createEditor@QStyledItemDelegate@@UBEPAVQWidget@@PAV2@ABVQStyleOptionViewItem@@ABVQModelIndex@@@Z
?createEventDispatcher@QApplicationPrivate@@UAEXXZ
?createExtendedKeyEvent@QKeyEvent@@SAPAV1@W4Type@QEvent@@HV?$QFlags@W4KeyboardModifier@Qt@@@@IIIABVQString@@_NG@Z
?createExtendedMouseEvent@QMouseEvent@@SAPAV1@W4Type@QEvent@@ABVQPointF@@ABVQPoint@@W4MouseButton@Qt@@V?$QFlags@W4MouseButton@Qt@@@@V?$QFlags@W4KeyboardModifier@Qt@@@@@Z
?createExtra@QWidgetPrivate@@QAEXXZ
?createHandle@QSplitter@@MAEPAVQSplitterHandle@@XZ
?createHeuristicMask@QImage@@QBE?AV1@_N@Z
?createHeuristicMask@QPixmap@@QBE?AVQBitmap@@_N@Z
?createItem@QToolBarLayout@@AAEPAVQToolBarItem@@PAVQAction@@@Z
?createItemGroup@QGraphicsScene@@QAEPAVQGraphicsItemGroup@@ABV?$QList@PAVQGraphicsItem@@@@@Z
?createLine@QTextLayout@@QAE?AVQTextLine@@XZ
?createList@QTextCursor@@QAEPAVQTextList@@ABVQTextListFormat@@@Z
?createList@QTextCursor@@QAEPAVQTextList@@W4Style@QTextListFormat@@@Z
?createMaskFromColor@QImage@@QBE?AV1@IW4MaskMode@Qt@@@Z
?createMaskFromColor@QPixmap@@QBE?AVQBitmap@@ABVQColor@@@Z
?createMaskFromColor@QPixmap@@QBE?AVQBitmap@@ABVQColor@@W4MaskMode@Qt@@@Z
?createMimeDataFromSelection@QPlainTextEdit@@MBEPAVQMimeData@@XZ
?createMimeDataFromSelection@QTextControl@@UBEPAVQMimeData@@XZ
?createMimeDataFromSelection@QTextEdit@@MBEPAVQMimeData@@XZ
?createObject@QTextDocument@@MAEPAVQTextObject@@ABVQTextFormat@@@Z
?createObjectIndex@QTextFormatCollection@@QAEHABVQTextFormat@@@Z
?createPopupMenu@QMainWindow@@UAEPAVQMenu@@XZ
?createRecursively@QWidgetPrivate@@QAEXXZ
?createRedoAction@QUndoGroup@@QBEPAVQAction@@PAVQObject@@ABVQString@@@Z
?createRedoAction@QUndoStack@@QBEPAVQAction@@PAVQObject@@ABVQString@@@Z
?createSpacerItem@QLayoutPrivate@@SAPAVQSpacerItem@@PBVQLayout@@HHW4Policy@QSizePolicy@@1@Z
?createStandardContextMenu@QLineEdit@@QAEPAVQMenu@@XZ
?createStandardContextMenu@QPlainTextEdit@@QAEPAVQMenu@@XZ
?createStandardContextMenu@QTextControl@@QAEPAVQMenu@@ABVQPointF@@PAVQWidget@@@Z
?createStandardContextMenu@QTextEdit@@QAEPAVQMenu@@ABVQPoint@@@Z
?createStandardContextMenu@QTextEdit@@QAEPAVQMenu@@XZ
?createStroke@QPainterPathStroker@@QBE?AVQPainterPath@@ABV2@@Z
?createSysExtra@QWidgetPrivate@@QAEXXZ
?createTLExtra@QWidgetPrivate@@QAEXXZ
?createTLSysExtra@QWidgetPrivate@@QAEXXZ
?createUndoAction@QUndoGroup@@QBEPAVQAction@@PAVQObject@@ABVQString@@@Z
?createUndoAction@QUndoStack@@QBEPAVQAction@@PAVQObject@@ABVQString@@@Z
?createWidget@QWidgetAction@@MAEPAVQWidget@@PAV2@@Z
?createWidgetItem@QLayoutPrivate@@SAPAVQWidgetItem@@PBVQLayout@@PAVQWidget@@@Z
?createWinId@QWidget@@QAEXXZ
?createWinId@QWidgetPrivate@@QAEXPAUHWND__@@@Z
?create_sys@QWidgetPrivate@@QAEXPAUHWND__@@_N1@Z
?createdWidgets@QWidgetAction@@IBE?AV?$QList@PAVQWidget@@@@XZ
?creator@QPrinter@@QBE?AVQString@@XZ
?critical@QMessageBox@@SA?AW4StandardButton@1@PAVQWidget@@ABVQString@@1V?$QFlags@W4StandardButton@QMessageBox@@@@W421@@Z
?critical@QMessageBox@@SAHPAVQWidget@@ABVQString@@1111HH@Z
?critical@QMessageBox@@SAHPAVQWidget@@ABVQString@@1HHH@Z
?critical@QMessageBox@@SAHPAVQWidget@@ABVQString@@1W4StandardButton@1@2@Z
?cubicTo@QPainterPath@@QAEXABVQPointF@@00@Z
?cubicTo@QPainterPath@@QAEXNNNNNN@Z
?cubicTo@QStrokerOps@@QAEXNNNNNN@Z
?current@QLayoutIterator@@QAEPAVQLayoutItem@@XZ
?currentBlock@QSyntaxHighlighter@@IBE?AVQTextBlock@@XZ
?currentBlock@iterator@QTextFrame@@QBE?AVQTextBlock@@XZ
?currentBlockState@QSyntaxHighlighter@@IBEHXZ
?currentBlockUserData@QSyntaxHighlighter@@IBEPAVQTextBlockUserData@@XZ
?currentCellChanged@QTableWidget@@IAEXHHHH@Z
?currentChanged@QAbstractItemView@@MAEXABVQModelIndex@@0@Z
?currentChanged@QColumnView@@MAEXABVQModelIndex@@0@Z
?currentChanged@QFileDialog@@IAEXABVQString@@@Z
?currentChanged@QHeaderView@@MAEXABVQModelIndex@@0@Z
?currentChanged@QItemSelectionModel@@IAEXABVQModelIndex@@0@Z
?currentChanged@QListView@@MAEXABVQModelIndex@@0@Z
?currentChanged@QStackedLayout@@IAEXH@Z
?currentChanged@QStackedWidget@@IAEXH@Z
?currentChanged@QTabBar@@IAEXH@Z
?currentChanged@QTabWidget@@IAEXH@Z
?currentChanged@QTabWidget@@IAEXPAVQWidget@@@Z
?currentChanged@QTableView@@MAEXABVQModelIndex@@0@Z
?currentChanged@QToolBox@@IAEXH@Z
?currentChanged@QTreeView@@MAEXABVQModelIndex@@0@Z
?currentCharFormat@QPlainTextEdit@@QBE?AVQTextCharFormat@@XZ
?currentCharFormat@QTextControl@@QBE?AVQTextCharFormat@@XZ
?currentCharFormat@QTextEdit@@QBE?AVQTextCharFormat@@XZ
?currentCharFormatChanged@QTextControl@@IAEXABVQTextCharFormat@@@Z
?currentCharFormatChanged@QTextEdit@@IAEXABVQTextCharFormat@@@Z
?currentColorChanged@QTextEdit@@IAEXABVQColor@@@Z
?currentColorGroup@QPalette@@QBE?AW4ColorGroup@1@XZ
?currentColumn@QTableWidget@@QBEHXZ
?currentColumn@QTreeWidget@@QBEHXZ
?currentColumnChanged@QItemSelectionModel@@IAEXABVQModelIndex@@0@Z
?currentCompletion@QCompleter@@QBE?AVQString@@XZ
?currentFont@QFontComboBox@@QBE?AVQFont@@XZ
?currentFont@QTextEdit@@QBE?AVQFont@@XZ
?currentFontChanged@QFontComboBox@@IAEXABVQFont@@@Z
?currentFontChanged@QTextEdit@@IAEXABVQFont@@@Z
?currentFrame@QTextCursor@@QBEPAVQTextFrame@@XZ
?currentFrame@iterator@QTextFrame@@QBEPAV2@XZ
?currentFrameNumber@QMovie@@QBEHXZ
?currentId@QWizard@@QBEHXZ
?currentIdChanged@QWizard@@IAEXH@Z
?currentImage@QMovie@@QBE?AVQImage@@XZ
?currentImageNumber@QImageIOHandler@@UBEHXZ
?currentImageNumber@QImageReader@@QBEHXZ
?currentImageRect@QImageIOHandler@@UBE?AVQRect@@XZ
?currentImageRect@QImageReader@@QBE?AVQRect@@XZ
?currentIndex@QAbstractItemView@@QBE?AVQModelIndex@@XZ
?currentIndex@QComboBox@@QBEHXZ
?currentIndex@QCompleter@@QBE?AVQModelIndex@@XZ
?currentIndex@QDataWidgetMapper@@QBEHXZ
?currentIndex@QItemSelectionModel@@QBE?AVQModelIndex@@XZ
?currentIndex@QStackedLayout@@QBEHXZ
?currentIndex@QStackedWidget@@QBEHXZ
?currentIndex@QTabBar@@QBEHXZ
?currentIndex@QTabWidget@@QBEHXZ
?currentIndex@QToolBox@@QBEHXZ
?currentIndexChanged@QComboBox@@IAEXABVQString@@@Z
?currentIndexChanged@QComboBox@@IAEXH@Z
?currentIndexChanged@QDataWidgetMapper@@IAEXH@Z
?currentItem@QComboBox@@QBEHXZ
?currentItem@QListWidget@@QBEPAVQListWidgetItem@@XZ
?currentItem@QTableWidget@@QBEPAVQTableWidgetItem@@XZ
?currentItem@QToolBox@@QBEPAVQWidget@@XZ
?currentItem@QTreeWidget@@QBEPAVQTreeWidgetItem@@XZ
?currentItemChanged@QListWidget@@IAEXPAVQListWidgetItem@@0@Z
?currentItemChanged@QTableWidget@@IAEXPAVQTableWidgetItem@@0@Z
?currentItemChanged@QTreeWidget@@IAEXPAVQTreeWidgetItem@@0@Z
?currentList@QTextCursor@@QBEPAVQTextList@@XZ
?currentMessage@QStatusBar@@QBE?AVQString@@XZ
?currentPage@QPrintPreviewWidget@@QBEHXZ
?currentPage@QTabWidget@@QBEPAVQWidget@@XZ
?currentPage@QWizard@@QBEPAVQWizardPage@@XZ
?currentPageChanged@QCalendarWidget@@IAEXHH@Z
?currentPageIndex@QTabWidget@@QBEHXZ
?currentPixmap@QMovie@@QBE?AVQPixmap@@XZ
?currentPlatform@QApplicationPrivate@@SAIXZ
?currentPosition@QPainterPath@@QBE?AVQPointF@@XZ
?currentRow@QCompleter@@QBEHXZ
?currentRow@QListWidget@@QBEHXZ
?currentRow@QTableWidget@@QBEHXZ
?currentRowChanged@QItemSelectionModel@@IAEXABVQModelIndex@@0@Z
?currentRowChanged@QListWidget@@IAEXH@Z
?currentSection@QDateTimeEdit@@QBE?AW4Section@1@XZ
?currentSectionIndex@QDateTimeEdit@@QBEHXZ
?currentSubWindow@QMdiArea@@QBEPAVQMdiSubWindow@@XZ
?currentTable@QTextCursor@@QBEPAVQTextTable@@XZ
?currentTarget@QDragManager@@QAEPAVQWidget@@XZ
?currentText@QComboBox@@QBE?AVQString@@XZ
?currentTextChanged@QListWidget@@IAEXABVQString@@@Z
?currentWidget@QStackedLayout@@QBEPAVQWidget@@XZ
?currentWidget@QStackedWidget@@QBEPAVQWidget@@XZ
?currentWidget@QTabWidget@@QBEPAVQWidget@@XZ
?currentWidget@QToolBox@@QBEPAVQWidget@@XZ
?cursor@QGraphicsItem@@QBE?AVQCursor@@XZ
?cursor@QWidget@@QBE?AVQCursor@@XZ
?cursorBackward@QLineEdit@@QAEX_NH@Z
?cursorFlashTime@QApplication@@SAHXZ
?cursorForPosition@QPlainTextEdit@@QBE?AVQTextCursor@@ABVQPoint@@@Z
?cursorForPosition@QTextControl@@QBE?AVQTextCursor@@ABVQPointF@@@Z
?cursorForPosition@QTextEdit@@QBE?AVQTextCursor@@ABVQPoint@@@Z
?cursorForward@QLineEdit@@QAEX_NH@Z
?cursorIsFocusIndicator@QTextControl@@QBE_NXZ
?cursorLeft@QLineEdit@@QAEX_NH@Z
?cursorPosition@QLineEdit@@QBEHXZ
?cursorPositionAt@QLineEdit@@QAEHABVQPoint@@@Z
?cursorPositionChanged@QLineEdit@@IAEXHH@Z
?cursorPositionChanged@QPlainTextEdit@@IAEXXZ
?cursorPositionChanged@QTextControl@@IAEXXZ
?cursorPositionChanged@QTextDocument@@IAEXABVQTextCursor@@@Z
?cursorPositionChanged@QTextEdit@@IAEXXZ
?cursorRect@QLineEdit@@IBE?AVQRect@@XZ
?cursorRect@QPlainTextEdit@@QBE?AVQRect@@ABVQTextCursor@@@Z
?cursorRect@QPlainTextEdit@@QBE?AVQRect@@XZ
?cursorRect@QTextControl@@QBE?AVQRectF@@ABVQTextCursor@@@Z
?cursorRect@QTextControl@@QBE?AVQRectF@@XZ
?cursorRect@QTextEdit@@QBE?AVQRect@@ABVQTextCursor@@@Z
?cursorRect@QTextEdit@@QBE?AVQRect@@XZ
?cursorRight@QLineEdit@@QAEX_NH@Z
?cursorToX@QTextLine@@QBENHW4Edge@1@@Z
?cursorToX@QTextLine@@QBENPAHW4Edge@1@@Z
?cursorWidth@QPlainTextDocumentLayout@@QBEHXZ
?cursorWidth@QPlainTextEdit@@QBEHXZ
?cursorWidth@QTextControl@@QBEHXZ
?cursorWidth@QTextEdit@@QBEHXZ
?cursorWordBackward@QLineEdit@@QAEX_N@Z
?cursorWordForward@QLineEdit@@QAEX_N@Z
?cursor_flash_time@QApplicationPrivate@@2HA
?curveThreshold@QPainterPathStroker@@QBENXZ
?curveThreshold@QStroker@@QBENXZ
?customButtonClicked@QWizard@@IAEXH@Z
?customColor@QColorDialog@@SAIH@Z
?customContextMenuRequested@QWidget@@IAEXABVQPoint@@@Z
?customCount@QColorDialog@@SAHXZ
?cut@QLineEdit@@QAEXXZ
?cut@QPlainTextEdit@@QAEXXZ
?cut@QTextControl@@QAEXXZ
?cut@QTextEdit@@QAEXXZ
?cutText@QAccessibleSimpleEditableTextInterface@@UAEXHH@Z
?cyan@QColor@@QBEHXZ
?cyanF@QColor@@QBENXZ
?d_func@QAbstractButton@@AAEPAVQAbstractButtonPrivate@@XZ
?d_func@QAbstractButton@@ABEPBVQAbstractButtonPrivate@@XZ
?d_func@QAbstractGraphicsShapeItem@@AAEPAVQAbstractGraphicsShapeItemPrivate@@XZ
?d_func@QAbstractGraphicsShapeItem@@ABEPBVQAbstractGraphicsShapeItemPrivate@@XZ
?d_func@QAbstractItemView@@AAEPAVQAbstractItemViewPrivate@@XZ
?d_func@QAbstractItemView@@ABEPBVQAbstractItemViewPrivate@@XZ
?d_func@QAbstractPageSetupDialog@@AAEPAVQAbstractPageSetupDialogPrivate@@XZ
?d_func@QAbstractPageSetupDialog@@ABEPBVQAbstractPageSetupDialogPrivate@@XZ
?d_func@QAbstractPrintDialog@@AAEPAVQAbstractPrintDialogPrivate@@XZ
?d_func@QAbstractPrintDialog@@ABEPBVQAbstractPrintDialogPrivate@@XZ
?d_func@QAbstractProxyModel@@AAEPAVQAbstractProxyModelPrivate@@XZ
?d_func@QAbstractProxyModel@@ABEPBVQAbstractProxyModelPrivate@@XZ
?d_func@QAbstractScrollArea@@AAEPAVQAbstractScrollAreaPrivate@@XZ
?d_func@QAbstractScrollArea@@ABEPBVQAbstractScrollAreaPrivate@@XZ
?d_func@QAbstractSlider@@AAEPAVQAbstractSliderPrivate@@XZ
?d_func@QAbstractSlider@@ABEPBVQAbstractSliderPrivate@@XZ
?d_func@QAbstractSpinBox@@AAEPAVQAbstractSpinBoxPrivate@@XZ
?d_func@QAbstractSpinBox@@ABEPBVQAbstractSpinBoxPrivate@@XZ
?d_func@QAbstractTextDocumentLayout@@AAEPAVQAbstractTextDocumentLayoutPrivate@@XZ
?d_func@QAbstractTextDocumentLayout@@ABEPBVQAbstractTextDocumentLayoutPrivate@@XZ
?d_func@QAction@@AAEPAVQActionPrivate@@XZ
?d_func@QAction@@ABEPBVQActionPrivate@@XZ
?d_func@QActionGroup@@AAEPAVQActionGroupPrivate@@XZ
?d_func@QActionGroup@@ABEPBVQActionGroupPrivate@@XZ
?d_func@QApplication@@AAEPAVQApplicationPrivate@@XZ
?d_func@QApplication@@ABEPBVQApplicationPrivate@@XZ
?d_func@QBoxLayout@@AAEPAVQBoxLayoutPrivate@@XZ
?d_func@QBoxLayout@@ABEPBVQBoxLayoutPrivate@@XZ
?d_func@QButtonGroup@@AAEPAVQButtonGroupPrivate@@XZ
?d_func@QButtonGroup@@ABEPBVQButtonGroupPrivate@@XZ
?d_func@QCalendarWidget@@AAEPAVQCalendarWidgetPrivate@@XZ
?d_func@QCalendarWidget@@ABEPBVQCalendarWidgetPrivate@@XZ
?d_func@QCheckBox@@AAEPAVQCheckBoxPrivate@@XZ
?d_func@QCheckBox@@ABEPBVQCheckBoxPrivate@@XZ
?d_func@QCleanlooksStyle@@AAEPAVQCleanlooksStylePrivate@@XZ
?d_func@QCleanlooksStyle@@ABEPBVQCleanlooksStylePrivate@@XZ
?d_func@QClipboard@@AAEPAVQClipboardPrivate@@XZ
?d_func@QClipboard@@ABEPBVQClipboardPrivate@@XZ
?d_func@QColorDialog@@AAEPAVQColorDialogPrivate@@XZ
?d_func@QColorDialog@@ABEPBVQColorDialogPrivate@@XZ
?d_func@QColumnView@@AAEPAVQColumnViewPrivate@@XZ
?d_func@QColumnView@@ABEPBVQColumnViewPrivate@@XZ
?d_func@QComboBox@@AAEPAVQComboBoxPrivate@@XZ
?d_func@QComboBox@@ABEPBVQComboBoxPrivate@@XZ
?d_func@QCommandLinkButton@@AAEPAVQCommandLinkButtonPrivate@@XZ
?d_func@QCommandLinkButton@@ABEPBVQCommandLinkButtonPrivate@@XZ
?d_func@QCommonStyle@@AAEPAVQCommonStylePrivate@@XZ
?d_func@QCommonStyle@@ABEPBVQCommonStylePrivate@@XZ
?d_func@QCompleter@@AAEPAVQCompleterPrivate@@XZ
?d_func@QCompleter@@ABEPBVQCompleterPrivate@@XZ
?d_func@QDataWidgetMapper@@AAEPAVQDataWidgetMapperPrivate@@XZ
?d_func@QDataWidgetMapper@@ABEPBVQDataWidgetMapperPrivate@@XZ
?d_func@QDateTimeEdit@@AAEPAVQDateTimeEditPrivate@@XZ
?d_func@QDateTimeEdit@@ABEPBVQDateTimeEditPrivate@@XZ
?d_func@QDesktopWidget@@AAEPAVQDesktopWidgetPrivate@@XZ
?d_func@QDesktopWidget@@ABEPBVQDesktopWidgetPrivate@@XZ
?d_func@QDial@@AAEPAVQDialPrivate@@XZ
?d_func@QDial@@ABEPBVQDialPrivate@@XZ
?d_func@QDialog@@AAEPAVQDialogPrivate@@XZ
?d_func@QDialog@@ABEPBVQDialogPrivate@@XZ
?d_func@QDialogButtonBox@@AAEPAVQDialogButtonBoxPrivate@@XZ
?d_func@QDialogButtonBox@@ABEPBVQDialogButtonBoxPrivate@@XZ
?d_func@QDirModel@@AAEPAVQDirModelPrivate@@XZ
?d_func@QDirModel@@ABEPBVQDirModelPrivate@@XZ
?d_func@QDockWidget@@AAEPAVQDockWidgetPrivate@@XZ
?d_func@QDockWidget@@ABEPBVQDockWidgetPrivate@@XZ
?d_func@QDoubleSpinBox@@AAEPAVQDoubleSpinBoxPrivate@@XZ
?d_func@QDoubleSpinBox@@ABEPBVQDoubleSpinBoxPrivate@@XZ
?d_func@QDoubleValidator@@AAEPAVQDoubleValidatorPrivate@@XZ
?d_func@QDoubleValidator@@ABEPBVQDoubleValidatorPrivate@@XZ
?d_func@QDrag@@AAEPAVQDragPrivate@@XZ
?d_func@QDrag@@ABEPBVQDragPrivate@@XZ
?d_func@QErrorMessage@@AAEPAVQErrorMessagePrivate@@XZ
?d_func@QErrorMessage@@ABEPBVQErrorMessagePrivate@@XZ
?d_func@QFileDialog@@AAEPAVQFileDialogPrivate@@XZ
?d_func@QFileDialog@@ABEPBVQFileDialogPrivate@@XZ
?d_func@QFileIconProvider@@AAEPAVQFileIconProviderPrivate@@XZ
?d_func@QFileIconProvider@@ABEPBVQFileIconProviderPrivate@@XZ
?d_func@QFileSystemModel@@AAEPAVQFileSystemModelPrivate@@XZ
?d_func@QFileSystemModel@@ABEPBVQFileSystemModelPrivate@@XZ
?d_func@QFocusFrame@@AAEPAVQFocusFramePrivate@@XZ
?d_func@QFocusFrame@@ABEPBVQFocusFramePrivate@@XZ
?d_func@QFontComboBox@@AAEPAVQFontComboBoxPrivate@@XZ
?d_func@QFontComboBox@@ABEPBVQFontComboBoxPrivate@@XZ
?d_func@QFontDialog@@AAEPAVQFontDialogPrivate@@XZ
?d_func@QFontDialog@@ABEPBVQFontDialogPrivate@@XZ
?d_func@QFormLayout@@AAEPAVQFormLayoutPrivate@@XZ
?d_func@QFormLayout@@ABEPBVQFormLayoutPrivate@@XZ
?d_func@QFrame@@AAEPAVQFramePrivate@@XZ
?d_func@QFrame@@ABEPBVQFramePrivate@@XZ
?d_func@QGraphicsEllipseItem@@AAEPAVQGraphicsEllipseItemPrivate@@XZ
?d_func@QGraphicsEllipseItem@@ABEPBVQGraphicsEllipseItemPrivate@@XZ
?d_func@QGraphicsGridLayout@@AAEPAVQGraphicsGridLayoutPrivate@@XZ
?d_func@QGraphicsGridLayout@@ABEPBVQGraphicsGridLayoutPrivate@@XZ
?d_func@QGraphicsItem@@AAEPAVQGraphicsItemPrivate@@XZ
?d_func@QGraphicsItem@@ABEPBVQGraphicsItemPrivate@@XZ
?d_func@QGraphicsItemGroup@@AAEPAVQGraphicsItemGroupPrivate@@XZ
?d_func@QGraphicsItemGroup@@ABEPBVQGraphicsItemGroupPrivate@@XZ
?d_func@QGraphicsLayout@@AAEPAVQGraphicsLayoutPrivate@@XZ
?d_func@QGraphicsLayout@@ABEPBVQGraphicsLayoutPrivate@@XZ
?d_func@QGraphicsLayoutItem@@AAEPAVQGraphicsLayoutItemPrivate@@XZ
?d_func@QGraphicsLayoutItem@@ABEPBVQGraphicsLayoutItemPrivate@@XZ
?d_func@QGraphicsLineItem@@AAEPAVQGraphicsLineItemPrivate@@XZ
?d_func@QGraphicsLineItem@@ABEPBVQGraphicsLineItemPrivate@@XZ
?d_func@QGraphicsLinearLayout@@AAEPAVQGraphicsLinearLayoutPrivate@@XZ
?d_func@QGraphicsLinearLayout@@ABEPBVQGraphicsLinearLayoutPrivate@@XZ
?d_func@QGraphicsPathItem@@AAEPAVQGraphicsPathItemPrivate@@XZ
?d_func@QGraphicsPathItem@@ABEPBVQGraphicsPathItemPrivate@@XZ
?d_func@QGraphicsPixmapItem@@AAEPAVQGraphicsPixmapItemPrivate@@XZ
?d_func@QGraphicsPixmapItem@@ABEPBVQGraphicsPixmapItemPrivate@@XZ
?d_func@QGraphicsPolygonItem@@AAEPAVQGraphicsPolygonItemPrivate@@XZ
?d_func@QGraphicsPolygonItem@@ABEPBVQGraphicsPolygonItemPrivate@@XZ
?d_func@QGraphicsProxyWidget@@AAEPAVQGraphicsProxyWidgetPrivate@@XZ
?d_func@QGraphicsProxyWidget@@ABEPBVQGraphicsProxyWidgetPrivate@@XZ
?d_func@QGraphicsRectItem@@AAEPAVQGraphicsRectItemPrivate@@XZ
?d_func@QGraphicsRectItem@@ABEPBVQGraphicsRectItemPrivate@@XZ
?d_func@QGraphicsScene@@AAEPAVQGraphicsScenePrivate@@XZ
?d_func@QGraphicsScene@@ABEPBVQGraphicsScenePrivate@@XZ
?d_func@QGraphicsSceneContextMenuEvent@@AAEPAVQGraphicsSceneContextMenuEventPrivate@@XZ
?d_func@QGraphicsSceneContextMenuEvent@@ABEPBVQGraphicsSceneContextMenuEventPrivate@@XZ
?d_func@QGraphicsSceneDragDropEvent@@AAEPAVQGraphicsSceneDragDropEventPrivate@@XZ
?d_func@QGraphicsSceneDragDropEvent@@ABEPBVQGraphicsSceneDragDropEventPrivate@@XZ
?d_func@QGraphicsSceneEvent@@IAEPAVQGraphicsSceneEventPrivate@@XZ
?d_func@QGraphicsSceneEvent@@IBEPBVQGraphicsSceneEventPrivate@@XZ
?d_func@QGraphicsSceneHelpEvent@@AAEPAVQGraphicsSceneHelpEventPrivate@@XZ
?d_func@QGraphicsSceneHelpEvent@@ABEPBVQGraphicsSceneHelpEventPrivate@@XZ
?d_func@QGraphicsSceneHoverEvent@@AAEPAVQGraphicsSceneHoverEventPrivate@@XZ
?d_func@QGraphicsSceneHoverEvent@@ABEPBVQGraphicsSceneHoverEventPrivate@@XZ
?d_func@QGraphicsSceneMouseEvent@@AAEPAVQGraphicsSceneMouseEventPrivate@@XZ
?d_func@QGraphicsSceneMouseEvent@@ABEPBVQGraphicsSceneMouseEventPrivate@@XZ
?d_func@QGraphicsSceneMoveEvent@@AAEPAVQGraphicsSceneMoveEventPrivate@@XZ
?d_func@QGraphicsSceneMoveEvent@@ABEPBVQGraphicsSceneMoveEventPrivate@@XZ
?d_func@QGraphicsSceneResizeEvent@@AAEPAVQGraphicsSceneResizeEventPrivate@@XZ
?d_func@QGraphicsSceneResizeEvent@@ABEPBVQGraphicsSceneResizeEventPrivate@@XZ
?d_func@QGraphicsSceneWheelEvent@@AAEPAVQGraphicsSceneWheelEventPrivate@@XZ
?d_func@QGraphicsSceneWheelEvent@@ABEPBVQGraphicsSceneWheelEventPrivate@@XZ
?d_func@QGraphicsSimpleTextItem@@AAEPAVQGraphicsSimpleTextItemPrivate@@XZ
?d_func@QGraphicsSimpleTextItem@@ABEPBVQGraphicsSimpleTextItemPrivate@@XZ
?d_func@QGraphicsView@@AAEPAVQGraphicsViewPrivate@@XZ
?d_func@QGraphicsView@@ABEPBVQGraphicsViewPrivate@@XZ
?d_func@QGraphicsWidget@@AAEPAVQGraphicsWidgetPrivate@@XZ
?d_func@QGraphicsWidget@@ABEPBVQGraphicsWidgetPrivate@@XZ
?d_func@QGridLayout@@AAEPAVQGridLayoutPrivate@@XZ
?d_func@QGridLayout@@ABEPBVQGridLayoutPrivate@@XZ
?d_func@QGroupBox@@AAEPAVQGroupBoxPrivate@@XZ
?d_func@QGroupBox@@ABEPBVQGroupBoxPrivate@@XZ
?d_func@QHeaderView@@AAEPAVQHeaderViewPrivate@@XZ
?d_func@QHeaderView@@ABEPBVQHeaderViewPrivate@@XZ
?d_func@QImageIOHandler@@AAEPAVQImageIOHandlerPrivate@@XZ
?d_func@QImageIOHandler@@ABEPBVQImageIOHandlerPrivate@@XZ
?d_func@QInputContext@@AAEPAVQInputContextPrivate@@XZ
?d_func@QInputContext@@ABEPBVQInputContextPrivate@@XZ
?d_func@QInputDialog@@AAEPAVQInputDialogPrivate@@XZ
?d_func@QInputDialog@@ABEPBVQInputDialogPrivate@@XZ
?d_func@QItemDelegate@@AAEPAVQItemDelegatePrivate@@XZ
?d_func@QItemDelegate@@ABEPBVQItemDelegatePrivate@@XZ
?d_func@QItemSelectionModel@@AAEPAVQItemSelectionModelPrivate@@XZ
?d_func@QItemSelectionModel@@ABEPBVQItemSelectionModelPrivate@@XZ
?d_func@QLCDNumber@@AAEPAVQLCDNumberPrivate@@XZ
?d_func@QLCDNumber@@ABEPBVQLCDNumberPrivate@@XZ
?d_func@QLabel@@AAEPAVQLabelPrivate@@XZ
?d_func@QLabel@@ABEPBVQLabelPrivate@@XZ
?d_func@QLayout@@AAEPAVQLayoutPrivate@@XZ
?d_func@QLayout@@ABEPBVQLayoutPrivate@@XZ
?d_func@QLineEdit@@AAEPAVQLineEditPrivate@@XZ
?d_func@QLineEdit@@ABEPBVQLineEditPrivate@@XZ
?d_func@QListView@@AAEPAVQListViewPrivate@@XZ
?d_func@QListView@@ABEPBVQListViewPrivate@@XZ
?d_func@QListWidget@@AAEPAVQListWidgetPrivate@@XZ
?d_func@QListWidget@@ABEPBVQListWidgetPrivate@@XZ
?d_func@QMainWindow@@AAEPAVQMainWindowPrivate@@XZ
?d_func@QMainWindow@@ABEPBVQMainWindowPrivate@@XZ
?d_func@QMdiArea@@AAEPAVQMdiAreaPrivate@@XZ
?d_func@QMdiArea@@ABEPBVQMdiAreaPrivate@@XZ
?d_func@QMdiSubWindow@@AAEPAVQMdiSubWindowPrivate@@XZ
?d_func@QMdiSubWindow@@ABEPBVQMdiSubWindowPrivate@@XZ
?d_func@QMenu@@AAEPAVQMenuPrivate@@XZ
?d_func@QMenu@@ABEPBVQMenuPrivate@@XZ
?d_func@QMenuBar@@AAEPAVQMenuBarPrivate@@XZ
?d_func@QMenuBar@@ABEPBVQMenuBarPrivate@@XZ
?d_func@QMessageBox@@AAEPAVQMessageBoxPrivate@@XZ
?d_func@QMessageBox@@ABEPBVQMessageBoxPrivate@@XZ
?d_func@QMotifStyle@@AAEPAVQMotifStylePrivate@@XZ
?d_func@QMotifStyle@@ABEPBVQMotifStylePrivate@@XZ
?d_func@QMovie@@AAEPAVQMoviePrivate@@XZ
?d_func@QMovie@@ABEPBVQMoviePrivate@@XZ
?d_func@QPageSetupDialog@@AAEPAVQPageSetupDialogPrivate@@XZ
?d_func@QPageSetupDialog@@ABEPBVQPageSetupDialogPrivate@@XZ
?d_func@QPaintEngine@@AAEPAVQPaintEnginePrivate@@XZ
?d_func@QPaintEngine@@ABEPBVQPaintEnginePrivate@@XZ
?d_func@QPainter@@AAEPAVQPainterPrivate@@XZ
?d_func@QPainter@@ABEPBVQPainterPrivate@@XZ
?d_func@QPainterPath@@ABEPAVQPainterPathData@@XZ
?d_func@QPainterPathStroker@@AAEPAVQPainterPathStrokerPrivate@@XZ
?d_func@QPainterPathStroker@@ABEPBVQPainterPathStrokerPrivate@@XZ
?d_func@QPicture@@AAEPAVQPicturePrivate@@XZ
?d_func@QPicture@@ABEPBVQPicturePrivate@@XZ
?d_func@QPlainTextDocumentLayout@@AAEPAVQPlainTextDocumentLayoutPrivate@@XZ
?d_func@QPlainTextDocumentLayout@@ABEPBVQPlainTextDocumentLayoutPrivate@@XZ
?d_func@QPlainTextEdit@@AAEPAVQPlainTextEditPrivate@@XZ
?d_func@QPlainTextEdit@@ABEPBVQPlainTextEditPrivate@@XZ
?d_func@QPlastiqueStyle@@AAEPAVQPlastiqueStylePrivate@@XZ
?d_func@QPlastiqueStyle@@ABEPBVQPlastiqueStylePrivate@@XZ
?d_func@QPrintDialog@@AAEPAVQPrintDialogPrivate@@XZ
?d_func@QPrintDialog@@ABEPBVQPrintDialogPrivate@@XZ
?d_func@QPrintPreviewDialog@@AAEPAVQPrintPreviewDialogPrivate@@XZ
?d_func@QPrintPreviewDialog@@ABEPBVQPrintPreviewDialogPrivate@@XZ
?d_func@QPrintPreviewWidget@@AAEPAVQPrintPreviewWidgetPrivate@@XZ
?d_func@QPrintPreviewWidget@@ABEPBVQPrintPreviewWidgetPrivate@@XZ
?d_func@QPrinter@@AAEPAVQPrinterPrivate@@XZ
?d_func@QPrinter@@ABEPBVQPrinterPrivate@@XZ
?d_func@QPrinterInfo@@AAEPAVQPrinterInfoPrivate@@XZ
?d_func@QPrinterInfo@@ABEPBVQPrinterInfoPrivate@@XZ
?d_func@QProgressBar@@AAEPAVQProgressBarPrivate@@XZ
?d_func@QProgressBar@@ABEPBVQProgressBarPrivate@@XZ
?d_func@QProgressDialog@@AAEPAVQProgressDialogPrivate@@XZ
?d_func@QProgressDialog@@ABEPBVQProgressDialogPrivate@@XZ
?d_func@QProxyModel@@AAEPAVQProxyModelPrivate@@XZ
?d_func@QProxyModel@@ABEPBVQProxyModelPrivate@@XZ
?d_func@QPushButton@@AAEPAVQPushButtonPrivate@@XZ
?d_func@QPushButton@@ABEPBVQPushButtonPrivate@@XZ
?d_func@QRadioButton@@AAEPAVQRadioButtonPrivate@@XZ
?d_func@QRadioButton@@ABEPBVQRadioButtonPrivate@@XZ
?d_func@QRubberBand@@AAEPAVQRubberBandPrivate@@XZ
?d_func@QRubberBand@@ABEPBVQRubberBandPrivate@@XZ
?d_func@QScrollArea@@AAEPAVQScrollAreaPrivate@@XZ
?d_func@QScrollArea@@ABEPBVQScrollAreaPrivate@@XZ
?d_func@QScrollBar@@AAEPAVQScrollBarPrivate@@XZ
?d_func@QScrollBar@@ABEPBVQScrollBarPrivate@@XZ
?d_func@QSessionManager@@AAEPAVQSessionManagerPrivate@@XZ
?d_func@QSessionManager@@ABEPBVQSessionManagerPrivate@@XZ
?d_func@QShortcut@@AAEPAVQShortcutPrivate@@XZ
?d_func@QShortcut@@ABEPBVQShortcutPrivate@@XZ
?d_func@QSizeGrip@@AAEPAVQSizeGripPrivate@@XZ
?d_func@QSizeGrip@@ABEPBVQSizeGripPrivate@@XZ
?d_func@QSlider@@AAEPAVQSliderPrivate@@XZ
?d_func@QSlider@@ABEPBVQSliderPrivate@@XZ
?d_func@QSortFilterProxyModel@@AAEPAVQSortFilterProxyModelPrivate@@XZ
?d_func@QSortFilterProxyModel@@ABEPBVQSortFilterProxyModelPrivate@@XZ
?d_func@QSound@@AAEPAVQSoundPrivate@@XZ
?d_func@QSound@@ABEPBVQSoundPrivate@@XZ
?d_func@QSpinBox@@AAEPAVQSpinBoxPrivate@@XZ
?d_func@QSpinBox@@ABEPBVQSpinBoxPrivate@@XZ
?d_func@QSplashScreen@@AAEPAVQSplashScreenPrivate@@XZ
?d_func@QSplashScreen@@ABEPBVQSplashScreenPrivate@@XZ
?d_func@QSplitter@@AAEPAVQSplitterPrivate@@XZ
?d_func@QSplitter@@ABEPBVQSplitterPrivate@@XZ
?d_func@QSplitterHandle@@AAEPAVQSplitterHandlePrivate@@XZ
?d_func@QSplitterHandle@@ABEPBVQSplitterHandlePrivate@@XZ
?d_func@QStackedLayout@@AAEPAVQStackedLayoutPrivate@@XZ
?d_func@QStackedLayout@@ABEPBVQStackedLayoutPrivate@@XZ
?d_func@QStackedWidget@@AAEPAVQStackedWidgetPrivate@@XZ
?d_func@QStackedWidget@@ABEPBVQStackedWidgetPrivate@@XZ
?d_func@QStandardItem@@AAEPAVQStandardItemPrivate@@XZ
?d_func@QStandardItem@@ABEPBVQStandardItemPrivate@@XZ
?d_func@QStandardItemModel@@AAEPAVQStandardItemModelPrivate@@XZ
?d_func@QStandardItemModel@@ABEPBVQStandardItemModelPrivate@@XZ
?d_func@QStatusBar@@AAEPAVQStatusBarPrivate@@XZ
?d_func@QStatusBar@@ABEPBVQStatusBarPrivate@@XZ
?d_func@QStyle@@AAEPAVQStylePrivate@@XZ
?d_func@QStyle@@ABEPBVQStylePrivate@@XZ
?d_func@QStyledItemDelegate@@AAEPAVQStyledItemDelegatePrivate@@XZ
?d_func@QStyledItemDelegate@@ABEPBVQStyledItemDelegatePrivate@@XZ
?d_func@QSyntaxHighlighter@@AAEPAVQSyntaxHighlighterPrivate@@XZ
?d_func@QSyntaxHighlighter@@ABEPBVQSyntaxHighlighterPrivate@@XZ
?d_func@QSystemTrayIcon@@AAEPAVQSystemTrayIconPrivate@@XZ
?d_func@QSystemTrayIcon@@ABEPBVQSystemTrayIconPrivate@@XZ
?d_func@QTabBar@@AAEPAVQTabBarPrivate@@XZ
?d_func@QTabBar@@ABEPBVQTabBarPrivate@@XZ
?d_func@QTabWidget@@AAEPAVQTabWidgetPrivate@@XZ
?d_func@QTabWidget@@ABEPBVQTabWidgetPrivate@@XZ
?d_func@QTableView@@AAEPAVQTableViewPrivate@@XZ
?d_func@QTableView@@ABEPBVQTableViewPrivate@@XZ
?d_func@QTableWidget@@AAEPAVQTableWidgetPrivate@@XZ
?d_func@QTableWidget@@ABEPBVQTableWidgetPrivate@@XZ
?d_func@QTextBlockGroup@@AAEPAVQTextBlockGroupPrivate@@XZ
?d_func@QTextBlockGroup@@ABEPBVQTextBlockGroupPrivate@@XZ
?d_func@QTextBrowser@@AAEPAVQTextBrowserPrivate@@XZ
?d_func@QTextBrowser@@ABEPBVQTextBrowserPrivate@@XZ
?d_func@QTextControl@@AAEPAVQTextControlPrivate@@XZ
?d_func@QTextControl@@ABEPBVQTextControlPrivate@@XZ
?d_func@QTextDocument@@AAEPAVQTextDocumentPrivate@@XZ
?d_func@QTextDocument@@ABEPBVQTextDocumentPrivate@@XZ
?d_func@QTextEdit@@AAEPAVQTextEditPrivate@@XZ
?d_func@QTextEdit@@ABEPBVQTextEditPrivate@@XZ
?d_func@QTextFrame@@AAEPAVQTextFramePrivate@@XZ
?d_func@QTextFrame@@ABEPBVQTextFramePrivate@@XZ
?d_func@QTextList@@AAEPAVQTextListPrivate@@XZ
?d_func@QTextList@@ABEPBVQTextListPrivate@@XZ
?d_func@QTextObject@@AAEPAVQTextObjectPrivate@@XZ
?d_func@QTextObject@@ABEPBVQTextObjectPrivate@@XZ
?d_func@QTextTable@@AAEPAVQTextTablePrivate@@XZ
?d_func@QTextTable@@ABEPBVQTextTablePrivate@@XZ
?d_func@QToolBar@@AAEPAVQToolBarPrivate@@XZ
?d_func@QToolBar@@ABEPBVQToolBarPrivate@@XZ
?d_func@QToolBox@@AAEPAVQToolBoxPrivate@@XZ
?d_func@QToolBox@@ABEPBVQToolBoxPrivate@@XZ
?d_func@QToolButton@@AAEPAVQToolButtonPrivate@@XZ
?d_func@QToolButton@@ABEPBVQToolButtonPrivate@@XZ
?d_func@QTreeView@@AAEPAVQTreeViewPrivate@@XZ
?d_func@QTreeView@@ABEPBVQTreeViewPrivate@@XZ
?d_func@QTreeWidget@@AAEPAVQTreeWidgetPrivate@@XZ
?d_func@QTreeWidget@@ABEPBVQTreeWidgetPrivate@@XZ
?d_func@QTreeWidgetItemIterator@@AAEPAVQTreeWidgetItemIteratorPrivate@@XZ
?d_func@QTreeWidgetItemIterator@@ABEPBVQTreeWidgetItemIteratorPrivate@@XZ
?d_func@QUndoGroup@@AAEPAVQUndoGroupPrivate@@XZ
?d_func@QUndoGroup@@ABEPBVQUndoGroupPrivate@@XZ
?d_func@QUndoStack@@AAEPAVQUndoStackPrivate@@XZ
?d_func@QUndoStack@@ABEPBVQUndoStackPrivate@@XZ
?d_func@QUndoView@@AAEPAVQUndoViewPrivate@@XZ
?d_func@QUndoView@@ABEPBVQUndoViewPrivate@@XZ
?d_func@QValidator@@AAEPAVQValidatorPrivate@@XZ
?d_func@QValidator@@ABEPBVQValidatorPrivate@@XZ
?d_func@QWidget@@AAEPAVQWidgetPrivate@@XZ
?d_func@QWidget@@ABEPBVQWidgetPrivate@@XZ
?d_func@QWidgetAction@@AAEPAVQWidgetActionPrivate@@XZ
?d_func@QWidgetAction@@ABEPBVQWidgetActionPrivate@@XZ
?d_func@QWindowsStyle@@AAEPAVQWindowsStylePrivate@@XZ
?d_func@QWindowsStyle@@ABEPBVQWindowsStylePrivate@@XZ
?d_func@QWindowsVistaStyle@@AAEPAVQWindowsVistaStylePrivate@@XZ
?d_func@QWindowsVistaStyle@@ABEPBVQWindowsVistaStylePrivate@@XZ
?d_func@QWindowsXPStyle@@AAEPAVQWindowsXPStylePrivate@@XZ
?d_func@QWindowsXPStyle@@ABEPBVQWindowsXPStylePrivate@@XZ
?d_func@QWizard@@AAEPAVQWizardPrivate@@XZ
?d_func@QWizard@@ABEPBVQWizardPrivate@@XZ
?d_func@QWizardPage@@AAEPAVQWizardPagePrivate@@XZ
?d_func@QWizardPage@@ABEPBVQWizardPagePrivate@@XZ
?d_func@QWorkspace@@AAEPAVQWorkspacePrivate@@XZ
?d_func@QWorkspace@@ABEPBVQWorkspacePrivate@@XZ
?dark@QColor@@QBE?AV1@H@Z
?dark@QColorGroup@@QBEABVQColor@@XZ
?dark@QPalette@@QBEABVQBrush@@XZ
?darker@QColor@@QBE?AV1@H@Z
?dashOffset@QDashStroker@@QBENXZ
?dashOffset@QPainterPathStroker@@QBENXZ
?dashOffset@QPen@@QBENXZ
?dashPattern@QDashStroker@@QBE?AV?$QVector@N@@XZ
?dashPattern@QPainterPathStroker@@QBE?AV?$QVector@N@@XZ
?dashPattern@QPen@@QBE?AV?$QVector@N@@XZ
?data@QAbstractProxyModel@@UBE?AVQVariant@@ABVQModelIndex@@H@Z
?data@QAction@@QBE?AVQVariant@@XZ
?data@QClipboard@@QBEPAVQMimeSource@@W4Mode@1@@Z
?data@QClipboardEvent@@QAEPAVQEventPrivate@@XZ
?data@QDirModel@@UBE?AVQVariant@@ABVQModelIndex@@H@Z
?data@QDropEvent@@QBE?AVQByteArray@@PBD@Z
?data@QFileSystemModel@@UBE?AVQVariant@@ABVQModelIndex@@H@Z
?data@QGraphicsItem@@QBE?AVQVariant@@H@Z
?data@QListWidgetItem@@UBE?AVQVariant@@H@Z
?data@QPicture@@QBEPBDXZ
?data@QProxyModel@@UBE?AVQVariant@@ABVQModelIndex@@H@Z
?data@QSortFilterProxyModel@@UBE?AVQVariant@@ABVQModelIndex@@H@Z
?data@QStandardItem@@UBE?AVQVariant@@H@Z
?data@QStandardItemModel@@UBE?AVQVariant@@ABVQModelIndex@@H@Z
?data@QStringListModel@@UBE?AVQVariant@@ABVQModelIndex@@H@Z
?data@QTableWidgetItem@@UBE?AVQVariant@@H@Z
?data@QTreeWidgetItem@@UBE?AVQVariant@@HH@Z
?dataChanged@QAbstractItemView@@MAEXABVQModelIndex@@0@Z
?dataChanged@QClipboard@@IAEXXZ
?dataChanged@QHeaderView@@MAEXABVQModelIndex@@0@Z
?dataChanged@QListView@@MAEXABVQModelIndex@@0@Z
?dataChanged@QTreeView@@UAEXABVQModelIndex@@0@Z
?data_ptr@QBrush@@QAEAAPAUQBrushData@@XZ
?data_ptr@QIcon@@QAEAAPAVQIconPrivate@@XZ
?data_ptr@QImage@@QAEAAPAUQImageData@@XZ
?data_ptr@QKeySequence@@QAEAAPAVQKeySequencePrivate@@XZ
?data_ptr@QPen@@QAEAAPAVQPenPrivate@@XZ
?data_ptr@QPicture@@QAEAAPAVQPicturePrivate@@XZ
?data_ptr@QPixmap@@QAEAAPAVQPixmapData@@XZ
?date@QDateTimeEdit@@QBE?AVQDate@@XZ
?dateChanged@QDateTimeEdit@@IAEXABVQDate@@@Z
?dateEditAcceptDelay@QCalendarWidget@@QBEHXZ
?dateTextFormat@QCalendarWidget@@QBE?AV?$QMap@VQDate@@VQTextCharFormat@@@@XZ
?dateTextFormat@QCalendarWidget@@QBE?AVQTextCharFormat@@ABVQDate@@@Z
?dateTime@QDateTimeEdit@@QBE?AVQDateTime@@XZ
?dateTimeChanged@QDateTimeEdit@@IAEXABVQDateTime@@@Z
?dateTimeFromText@QDateTimeEdit@@MBE?AVQDateTime@@ABVQString@@@Z
?deactivateWidgetCleanup@QWidgetPrivate@@QAEXXZ
?decimals@QDoubleSpinBox@@QBEHXZ
?decimals@QDoubleValidator@@QBEHXZ
?declarationsForNode@StyleSelector@QCss@@QAE?AV?$QVector@UDeclaration@QCss@@@@TNodePtr@12@PBD@Z
?decodeString@QKeySequence@@CAHABVQString@@@Z
?decoration@QItemDelegate@@IBE?AVQPixmap@@ABVQStyleOptionViewItem@@ABVQVariant@@@Z
?defaultAction@QDragManager@@QBE?AW4DropAction@Qt@@V?$QFlags@W4DropAction@Qt@@@@V?$QFlags@W4KeyboardModifier@Qt@@@@@Z
?defaultAction@QMenu@@QBEPAVQAction@@XZ
?defaultAction@QToolButton@@QBEPAVQAction@@XZ
?defaultAlignment@QHeaderView@@QBE?AV?$QFlags@W4AlignmentFlag@Qt@@@@XZ
?defaultBorder@QLayout@@QBEHXZ
?defaultButton@QMessageBox@@QBEPAVQPushButton@@XZ
?defaultDepth@QPixmap@@SAHXZ
?defaultFactory@QItemEditorFactory@@SAPBV1@XZ
?defaultFamily@QFont@@QBE?AVQString@@XZ
?defaultFont@QFont@@SA?AV1@XZ
?defaultFont@QTextDocument@@QBE?AVQFont@@XZ
?defaultFont@QTextFormatCollection@@QBE?AVQFont@@XZ
?defaultPrinter@QPrinterInfo@@SA?AV1@XZ
?defaultSectionSize@QHeaderView@@QBEHXZ
?defaultStyleSheet@QTextDocument@@QBE?AVQString@@XZ
?defaultSuffix@QFileDialog@@QBE?AVQString@@XZ
?defaultTextColor@QGraphicsTextItem@@QBE?AVQColor@@XZ
?defaultTextOption@QTextDocument@@QBE?AVQTextOption@@XZ
?defaultWidget@QWidgetAction@@QBEPAVQWidget@@XZ
?defineIOHandler@QPictureIO@@SAXPBD00P6AXPAV1@@Z2@Z
?del@QLineEdit@@QAEXXZ
?delegateForIndex@QAbstractItemViewPrivate@@QBEPAVQAbstractItemDelegate@@ABVQModelIndex@@@Z
?delegateRefCount@QAbstractItemViewPrivate@@QBEHPBVQAbstractItemDelegate@@@Z
?deleteAllItems@QLayout@@IAEXXZ
?deleteChar@QTextCursor@@QAEXXZ
?deleteCurrent@QLayoutIterator@@QAEXXZ
?deleteExtra@QWidgetPrivate@@QAEXXZ
?deletePreviousChar@QTextCursor@@QAEXXZ
?deleteSysExtra@QWidgetPrivate@@QAEXXZ
?deleteTLSysExtra@QWidgetPrivate@@QAEXXZ
?deleteText@QAccessibleSimpleEditableTextInterface@@UAEXHH@Z
?deleteWidget@QWidgetAction@@MAEXPAVQWidget@@@Z
?delta@QGraphicsSceneWheelEvent@@QBEHXZ
?delta@QWheelEvent@@QBEHXZ
?depth@QColormap@@QBEHXZ
?depth@QImage@@QBEHXZ
?depth@QPaintDevice@@QBEHXZ
?depth@QPixmap@@QBEHXZ
?depth@QPixmapData@@QBEHXZ
?deref@QPixmap@@AAEXXZ
?derivedAt@QBezier@@QBE?AVQPointF@@N@Z
?descent@QFontEngineMulti@@UBE?AUQFixed@@XZ
?descent@QFontMetrics@@QBEHXZ
?descent@QFontMetricsF@@QBENXZ
?descent@QTextInlineObject@@QBENXZ
?descent@QTextItem@@QBENXZ
?descent@QTextLine@@QBENXZ
?description@QCommandLinkButton@@QBE?AVQString@@XZ
?description@QImageWriter@@QBE?AVQString@@XZ
?description@QInputContextFactory@@SA?AVQString@@ABV2@@Z
?description@QPictureIO@@QBE?AVQString@@XZ
?deselect@QLineEdit@@QAEXXZ
?desktop@QApplication@@SAPAVQDesktopWidget@@XZ
?desktopSettingsAware@QApplication@@SA_NXZ
?destroy@QWidget@@IAEX_N0@Z
?destroyItemGroup@QGraphicsScene@@QAEXPAVQGraphicsItemGroup@@@Z
?det@QMatrix@@QBENXZ
?det@QTransform@@QBENXZ
?detach@?$QList@VQItemSelectionRange@@@@QAEXXZ
?detach@QBrush@@AAEXW4BrushStyle@Qt@@@Z
?detach@QFont@@AAEXXZ
?detach@QIcon@@QAEXXZ
?detach@QImage@@QAEXXZ
?detach@QPainterPath@@AAEXXZ
?detach@QPalette@@AAEXXZ
?detach@QPen@@AAEXXZ
?detach@QPicture@@QAEXXZ
?detach@QPixmap@@QAEXXZ
?detach@QRegion@@AAEXXZ
?detach_helper@?$QList@VQItemSelectionRange@@@@AAEXXZ
?detach_helper@QPainterPath@@AAEXXZ
?detach_helper@QPicture@@AAEXXZ
?detailedText@QMessageBox@@QBE?AVQString@@XZ
?determinant@QTransform@@QBENXZ
?devType@QImage@@UBEHXZ
?devType@QPaintDevice@@UBEHXZ
?devType@QPicture@@UBEHXZ
?devType@QPixmap@@UBEHXZ
?devType@QPrinter@@UBEHXZ
?devType@QWidget@@UBEHXZ
?device@QImageIOHandler@@QBEPAVQIODevice@@XZ
?device@QImageReader@@QBEPAVQIODevice@@XZ
?device@QImageWriter@@QBEPAVQIODevice@@XZ
?device@QMovie@@QBEPAVQIODevice@@XZ
?device@QPainter@@QBEPAVQPaintDevice@@XZ
?device@QTabletEvent@@QBE?AW4TabletDevice@1@XZ
?deviceMatrix@QPainter@@QBEABVQMatrix@@XZ
?deviceTransform@QGraphicsItem@@QBE?AVQTransform@@ABV2@@Z
?deviceTransform@QPainter@@QBEABVQTransform@@XZ
?dialMoved@QDial@@IAEXH@Z
?dialPressed@QDial@@IAEXXZ
?dialReleased@QDial@@IAEXXZ
?direction@QBoxLayout@@QBE?AW4Direction@1@XZ
?directory@QFileDialog@@QBE?AVQDir@@XZ
?directoryEntered@QFileDialog@@IAEXABVQString@@@Z
?dirtyRegionOffset@QAbstractItemView@@IBE?AVQPoint@@XZ
?dirtyWidget_sys@QWidgetPrivate@@QAEXABVQRegion@@_N@Z
?disabled@QPalette@@QBE?AVQColorGroup@@XZ
?discardCommand@QSessionManager@@QBE?AVQStringList@@XZ
?disconnectFromModel@QProxyModel@@IBEXPBVQAbstractItemModel@@@Z
?disconnectItem@QMenu@@QAE_NHPBVQObject@@PBD@Z
?disconnectItem@QMenuBar@@QAE_NHPBVQObject@@PBD@Z
?dispatchEnterLeave@QApplicationPrivate@@SAXPAVQWidget@@0@Z
?display@QLCDNumber@@QAEXABVQString@@@Z
?display@QLCDNumber@@QAEXH@Z
?display@QLCDNumber@@QAEXN@Z
?displayFormat@QDateTimeEdit@@QBE?AVQString@@XZ
?displayName@QDesktopServices@@SA?AVQString@@W4StandardLocation@1@@Z
?displayName@QInputContextFactory@@SA?AVQString@@ABV2@@Z
?displayText@QLineEdit@@QBE?AVQString@@XZ
?displayText@QStyledItemDelegate@@UBE?AVQString@@ABVQVariant@@ABVQLocale@@@Z
?displayedSections@QDateTimeEdit@@QBE?AV?$QFlags@W4Section@QDateTimeEdit@@@@XZ
?doAction@QAccessibleApplication@@UAE_NHHABV?$QList@VQVariant@@@@@Z
?doAction@QAccessibleObject@@UAE_NHHABV?$QList@VQVariant@@@@@Z
?doAction@QAccessibleObjectEx@@UAE_NHHABV?$QList@VQVariant@@@@@Z
?doAction@QAccessibleWidget@@UAE_NHHABV?$QList@VQVariant@@@@@Z
?doAction@QAccessibleWidgetEx@@UAE_NHHABV?$QList@VQVariant@@@@@Z
?doAutoScroll@QAbstractItemView@@IAEXXZ
?doDelayedItemsLayout@QAbstractItemViewPrivate@@QAEXXZ
?doImageIO@QPixmap@@ABE_NPAVQImageWriter@@H@Z
?doItemsLayout@QAbstractItemView@@UAEXXZ
?doItemsLayout@QHeaderView@@UAEXXZ
?doItemsLayout@QListView@@UAEXXZ
?doItemsLayout@QTreeView@@UAEXXZ
?doKerning@QFontEngine@@UBEXHPAUQGlyphLayout@@V?$QFlags@W4ShaperFlag@QTextEngine@@@@@Z
?doKerning@QFontEngineMulti@@UBEXHPAUQGlyphLayout@@V?$QFlags@W4ShaperFlag@QTextEngine@@@@@Z
?doKeyboardAction@QTextEdit@@QAEXW4KeyboardAction@1@@Z
?doLayout@QItemDelegate@@IBEXABVQStyleOptionViewItem@@PAVQRect@@11_N@Z
?doMove@QWidgetResizeHandler@@QAEXXZ
?doResize@QLayoutPrivate@@QAEXABVQSize@@@Z
?doResize@QWidgetResizeHandler@@QAEXXZ
?docHandle@QTextBlock@@QBEPAVQTextDocumentPrivate@@XZ
?docHandle@QTextDocument@@QBEPAVQTextDocumentPrivate@@XZ
?docHandle@QTextObject@@QBEPAVQTextDocumentPrivate@@XZ
?docLayout@QTextEngine@@QBEPAVQAbstractTextDocumentLayout@@XZ
?docName@QPrinter@@QBE?AVQString@@XZ
?dockLocationChanged@QDockWidget@@IAEXW4DockWidgetArea@Qt@@@Z
?dockOptions@QMainWindow@@QBE?AV?$QFlags@W4DockOption@QMainWindow@@@@XZ
?dockWidgetArea@QMainWindow@@QBE?AW4DockWidgetArea@Qt@@PAVQDockWidget@@@Z
?document@QAbstractTextDocumentLayout@@QBEPAVQTextDocument@@XZ
?document@QGraphicsTextItem@@QBEPAVQTextDocument@@XZ
?document@QPlainTextEdit@@QBEPAVQTextDocument@@XZ
?document@QSyntaxHighlighter@@QBEPAVQTextDocument@@XZ
?document@QTextBlock@@QBEPBVQTextDocument@@XZ
?document@QTextControl@@QBEPAVQTextDocument@@XZ
?document@QTextEdit@@QBEPAVQTextDocument@@XZ
?document@QTextObject@@QBEPAVQTextDocument@@XZ
?documentChanged@QPlainTextDocumentLayout@@MAEXHHH@Z
?documentLayout@QTextDocument@@QBEPAVQAbstractTextDocumentLayout@@XZ
?documentLayoutChanged@QTextDocument@@IAEXXZ
?documentSize@QPlainTextDocumentLayout@@UBE?AVQSizeF@@XZ
?documentSizeChanged@QAbstractTextDocumentLayout@@IAEXABVQSizeF@@@Z
?documentSizeChanged@QTextControl@@IAEXABVQSizeF@@@Z
?documentTitle@QPlainTextEdit@@QBE?AVQString@@XZ
?documentTitle@QTextEdit@@QBE?AVQString@@XZ
?done@QDialog@@UAEXH@Z
?done@QErrorMessage@@MAEXH@Z
?done@QFileDialog@@MAEXH@Z
?done@QWizard@@MAEXH@Z
?dotsPerMeterX@QImage@@QBEHXZ
?dotsPerMeterY@QImage@@QBEHXZ
?doubleClickInterval@QApplication@@SAHXZ
?doubleClicked@QAbstractItemView@@IAEXABVQModelIndex@@@Z
?doubleProperty@QTextFormat@@QBENH@Z
?doubleSidedPrinting@QPrinter@@QBE_NXZ
?drag@QDragManager@@QAE?AW4DropAction@Qt@@PAVQDrag@@@Z
?dragAccepted@QDragResponseEvent@@QBE_NXZ
?dragCursor@QDragManager@@QBE?AVQPixmap@@W4DropAction@Qt@@@Z
?dragDropMode@QAbstractItemView@@QBE?AW4DragDropMode@1@XZ
?dragDropOverwriteMode@QAbstractItemView@@QBE_NXZ
?dragEnabled@QAbstractItemView@@QBE_NXZ
?dragEnabled@QLineEdit@@QBE_NXZ
?dragEnterEvent@QAbstractItemView@@MAEXPAVQDragEnterEvent@@@Z
?dragEnterEvent@QAbstractScrollArea@@MAEXPAVQDragEnterEvent@@@Z
?dragEnterEvent@QGraphicsItem@@MAEXPAVQGraphicsSceneDragDropEvent@@@Z
?dragEnterEvent@QGraphicsScene@@MAEXPAVQGraphicsSceneDragDropEvent@@@Z
?dragEnterEvent@QGraphicsTextItem@@MAEXPAVQGraphicsSceneDragDropEvent@@@Z
?dragEnterEvent@QGraphicsView@@MAEXPAVQDragEnterEvent@@@Z
?dragEnterEvent@QLineEdit@@MAEXPAVQDragEnterEvent@@@Z
?dragEnterEvent@QPlainTextEdit@@MAEXPAVQDragEnterEvent@@@Z
?dragEnterEvent@QTextEdit@@MAEXPAVQDragEnterEvent@@@Z
?dragEnterEvent@QWidget@@MAEXPAVQDragEnterEvent@@@Z
?dragLeaveEvent@QAbstractItemView@@MAEXPAVQDragLeaveEvent@@@Z
?dragLeaveEvent@QAbstractScrollArea@@MAEXPAVQDragLeaveEvent@@@Z
?dragLeaveEvent@QGraphicsItem@@MAEXPAVQGraphicsSceneDragDropEvent@@@Z
?dragLeaveEvent@QGraphicsScene@@MAEXPAVQGraphicsSceneDragDropEvent@@@Z
?dragLeaveEvent@QGraphicsTextItem@@MAEXPAVQGraphicsSceneDragDropEvent@@@Z
?dragLeaveEvent@QGraphicsView@@MAEXPAVQDragLeaveEvent@@@Z
?dragLeaveEvent@QLineEdit@@MAEXPAVQDragLeaveEvent@@@Z
?dragLeaveEvent@QListView@@MAEXPAVQDragLeaveEvent@@@Z
?dragLeaveEvent@QPlainTextEdit@@MAEXPAVQDragLeaveEvent@@@Z
?dragLeaveEvent@QTextEdit@@MAEXPAVQDragLeaveEvent@@@Z
?dragLeaveEvent@QWidget@@MAEXPAVQDragLeaveEvent@@@Z
?dragMode@QGraphicsView@@QBE?AW4DragMode@1@XZ
?dragMoveEvent@QAbstractItemView@@MAEXPAVQDragMoveEvent@@@Z
?dragMoveEvent@QAbstractScrollArea@@MAEXPAVQDragMoveEvent@@@Z
?dragMoveEvent@QGraphicsItem@@MAEXPAVQGraphicsSceneDragDropEvent@@@Z
?dragMoveEvent@QGraphicsScene@@MAEXPAVQGraphicsSceneDragDropEvent@@@Z
?dragMoveEvent@QGraphicsTextItem@@MAEXPAVQGraphicsSceneDragDropEvent@@@Z
?dragMoveEvent@QGraphicsView@@MAEXPAVQDragMoveEvent@@@Z
?dragMoveEvent@QLineEdit@@MAEXPAVQDragMoveEvent@@@Z
?dragMoveEvent@QListView@@MAEXPAVQDragMoveEvent@@@Z
?dragMoveEvent@QPlainTextEdit@@MAEXPAVQDragMoveEvent@@@Z
?dragMoveEvent@QTextEdit@@MAEXPAVQDragMoveEvent@@@Z
?dragMoveEvent@QTreeView@@MAEXPAVQDragMoveEvent@@@Z
?dragMoveEvent@QWidget@@MAEXPAVQDragMoveEvent@@@Z
?dragPrivate@QDragManager@@QBEPAVQDragPrivate@@XZ
?dragPrivate@QDragManager@@SAPAVQDragPrivate@@PAVQDrag@@@Z
?draggingSlider@QScrollBar@@QAE_NXZ
?draw@QPlainTextDocumentLayout@@UAEXPAVQPainter@@ABUPaintContext@QAbstractTextDocumentLayout@@@Z
?draw@QTextLayout@@QBEXPAVQPainter@@ABVQPointF@@ABV?$QVector@UFormatRange@QTextLayout@@@@ABVQRectF@@@Z
?draw@QTextLine@@QBEXPAVQPainter@@ABVQPointF@@PBUFormatRange@QTextLayout@@@Z
?drawArc@QPainter@@QAEXABVQRect@@HH@Z
?drawArc@QPainter@@QAEXABVQRectF@@HH@Z
?drawArc@QPainter@@QAEXHHHHHH@Z
?drawBackground@QGraphicsScene@@MAEXPAVQPainter@@ABVQRectF@@@Z
?drawBackground@QGraphicsView@@MAEXPAVQPainter@@ABVQRectF@@@Z
?drawBackground@QItemDelegate@@IBEXPAVQPainter@@ABVQStyleOptionViewItem@@ABVQModelIndex@@@Z
?drawBase@QTabBar@@QBE_NXZ
?drawBranches@QTreeView@@MBEXPAVQPainter@@ABVQRect@@ABVQModelIndex@@@Z
?drawCheck@QItemDelegate@@MBEXPAVQPainter@@ABVQStyleOptionViewItem@@ABVQRect@@W4CheckState@Qt@@@Z
?drawChord@QPainter@@QAEXABVQRect@@HH@Z
?drawChord@QPainter@@QAEXABVQRectF@@HH@Z
?drawChord@QPainter@@QAEXHHHHHH@Z
?drawComplexControl@QCleanlooksStyle@@UBEXW4ComplexControl@QStyle@@PBVQStyleOptionComplex@@PAVQPainter@@PBVQWidget@@@Z
?drawComplexControl@QCommonStyle@@UBEXW4ComplexControl@QStyle@@PBVQStyleOptionComplex@@PAVQPainter@@PBVQWidget@@@Z
?drawComplexControl@QMotifStyle@@UBEXW4ComplexControl@QStyle@@PBVQStyleOptionComplex@@PAVQPainter@@PBVQWidget@@@Z
?drawComplexControl@QPlastiqueStyle@@UBEXW4ComplexControl@QStyle@@PBVQStyleOptionComplex@@PAVQPainter@@PBVQWidget@@@Z
?drawComplexControl@QWindowsStyle@@UBEXW4ComplexControl@QStyle@@PBVQStyleOptionComplex@@PAVQPainter@@PBVQWidget@@@Z
?drawComplexControl@QWindowsVistaStyle@@UBEXW4ComplexControl@QStyle@@PBVQStyleOptionComplex@@PAVQPainter@@PBVQWidget@@@Z
?drawComplexControl@QWindowsXPStyle@@UBEXW4ComplexControl@QStyle@@PBVQStyleOptionComplex@@PAVQPainter@@PBVQWidget@@@Z
?drawContents@QSplashScreen@@MAEXPAVQPainter@@@Z
?drawContents@QTextControl@@QAEXPAVQPainter@@ABVQRectF@@PAVQWidget@@@Z
?drawContents@QTextDocument@@QAEXPAVQPainter@@ABVQRectF@@@Z
?drawControl@QCDEStyle@@UBEXW4ControlElement@QStyle@@PBVQStyleOption@@PAVQPainter@@PBVQWidget@@@Z
?drawControl@QCleanlooksStyle@@UBEXW4ControlElement@QStyle@@PBVQStyleOption@@PAVQPainter@@PBVQWidget@@@Z
?drawControl@QCommonStyle@@UBEXW4ControlElement@QStyle@@PBVQStyleOption@@PAVQPainter@@PBVQWidget@@@Z
?drawControl@QMotifStyle@@UBEXW4ControlElement@QStyle@@PBVQStyleOption@@PAVQPainter@@PBVQWidget@@@Z
?drawControl@QPlastiqueStyle@@UBEXW4ControlElement@QStyle@@PBVQStyleOption@@PAVQPainter@@PBVQWidget@@@Z
?drawControl@QWindowsStyle@@UBEXW4ControlElement@QStyle@@PBVQStyleOption@@PAVQPainter@@PBVQWidget@@@Z
?drawControl@QWindowsVistaStyle@@UBEXW4ControlElement@QStyle@@PBVQStyleOption@@PAVQPainter@@PBVQWidget@@@Z
?drawControl@QWindowsXPStyle@@UBEXW4ControlElement@QStyle@@PBVQStyleOption@@PAVQPainter@@PBVQWidget@@@Z
?drawConvexPolygon@QPainter@@QAEXABVQPolygon@@@Z
?drawConvexPolygon@QPainter@@QAEXABVQPolygon@@HH@Z
?drawConvexPolygon@QPainter@@QAEXABVQPolygonF@@@Z
?drawConvexPolygon@QPainter@@QAEXABVQPolygonF@@HH@Z
?drawConvexPolygon@QPainter@@QAEXPBVQPoint@@H@Z
?drawConvexPolygon@QPainter@@QAEXPBVQPointF@@H@Z
?drawCubicBezier@QPainter@@QAEXABVQPolygon@@H@Z
?drawCursor@QTextLayout@@QBEXPAVQPainter@@ABVQPointF@@H@Z
?drawCursor@QTextLayout@@QBEXPAVQPainter@@ABVQPointF@@HH@Z
?drawDecoration@QItemDelegate@@MBEXPAVQPainter@@ABVQStyleOptionViewItem@@ABVQRect@@ABVQPixmap@@@Z
?drawDisplay@QItemDelegate@@MBEXPAVQPainter@@ABVQStyleOptionViewItem@@ABVQRect@@ABVQString@@@Z
?drawEllipse@QPaintEngine@@UAEXABVQRect@@@Z
?drawEllipse@QPaintEngine@@UAEXABVQRectF@@@Z
?drawEllipse@QPainter@@QAEXABVQPoint@@HH@Z
?drawEllipse@QPainter@@QAEXABVQPointF@@NN@Z
?drawEllipse@QPainter@@QAEXABVQRect@@@Z
?drawEllipse@QPainter@@QAEXABVQRectF@@@Z
?drawEllipse@QPainter@@QAEXHHHH@Z
?drawFocus@QItemDelegate@@MBEXPAVQPainter@@ABVQStyleOptionViewItem@@ABVQRect@@@Z
?drawForeground@QGraphicsScene@@MAEXPAVQPainter@@ABVQRectF@@@Z
?drawForeground@QGraphicsView@@MAEXPAVQPainter@@ABVQRectF@@@Z
?drawFrame@QFrame@@IAEXPAVQPainter@@@Z
?drawImage@QPaintEngine@@UAEXABVQRectF@@ABVQImage@@0V?$QFlags@W4ImageConversionFlag@Qt@@@@@Z
?drawImage@QPainter@@QAEXABVQPoint@@ABVQImage@@@Z
?drawImage@QPainter@@QAEXABVQPoint@@ABVQImage@@ABVQRect@@V?$QFlags@W4ImageConversionFlag@Qt@@@@@Z
?drawImage@QPainter@@QAEXABVQPointF@@ABVQImage@@@Z
?drawImage@QPainter@@QAEXABVQPointF@@ABVQImage@@ABVQRectF@@V?$QFlags@W4ImageConversionFlag@Qt@@@@@Z
?drawImage@QPainter@@QAEXABVQRect@@ABVQImage@@0V?$QFlags@W4ImageConversionFlag@Qt@@@@@Z
?drawImage@QPainter@@QAEXABVQRect@@ABVQImage@@@Z
?drawImage@QPainter@@QAEXABVQRectF@@ABVQImage@@0V?$QFlags@W4ImageConversionFlag@Qt@@@@@Z
?drawImage@QPainter@@QAEXABVQRectF@@ABVQImage@@@Z
?drawImage@QPainter@@QAEXHHABVQImage@@HHHHV?$QFlags@W4ImageConversionFlag@Qt@@@@@Z
?drawInlineObject@QAbstractTextDocumentLayout@@MAEXPAVQPainter@@ABVQRectF@@VQTextInlineObject@@HABVQTextFormat@@@Z
?drawItemPixmap@QCleanlooksStyle@@UBEXPAVQPainter@@ABVQRect@@HABVQPixmap@@@Z
?drawItemPixmap@QStyle@@UBEXPAVQPainter@@ABVQRect@@HABVQPixmap@@@Z
?drawItemText@QCleanlooksStyle@@UBEXPAVQPainter@@ABVQRect@@HABVQPalette@@_NABVQString@@W4ColorRole@4@@Z
?drawItemText@QStyle@@UBEXPAVQPainter@@ABVQRect@@HABVQPalette@@_NABVQString@@W4ColorRole@4@@Z
?drawItems@QGraphicsScene@@MAEXPAVQPainter@@HQAPAVQGraphicsItem@@QBVQStyleOptionGraphicsItem@@PAVQWidget@@@Z
?drawItems@QGraphicsView@@MAEXPAVQPainter@@HQAPAVQGraphicsItem@@QBVQStyleOptionGraphicsItem@@@Z
?drawLine@QPainter@@QAEXABVQLine@@@Z
?drawLine@QPainter@@QAEXABVQLineF@@@Z
?drawLine@QPainter@@QAEXABVQPoint@@0@Z
?drawLine@QPainter@@QAEXABVQPointF@@0@Z
?drawLine@QPainter@@QAEXHHHH@Z
?drawLineSegments@QPainter@@QAEXABVQPolygon@@HH@Z
?drawLines@QPaintEngine@@UAEXPBVQLine@@H@Z
?drawLines@QPaintEngine@@UAEXPBVQLineF@@H@Z
?drawLines@QPainter@@QAEXABV?$QVector@VQLine@@@@@Z
?drawLines@QPainter@@QAEXABV?$QVector@VQLineF@@@@@Z
?drawLines@QPainter@@QAEXABV?$QVector@VQPoint@@@@@Z
?drawLines@QPainter@@QAEXABV?$QVector@VQPointF@@@@@Z
?drawLines@QPainter@@QAEXPBVQLine@@H@Z
?drawLines@QPainter@@QAEXPBVQLineF@@H@Z
?drawLines@QPainter@@QAEXPBVQPoint@@H@Z
?drawLines@QPainter@@QAEXPBVQPointF@@H@Z
?drawObject@QTextImageHandler@@UAEXPAVQPainter@@ABVQRectF@@PAVQTextDocument@@HABVQTextFormat@@@Z
?drawPath@QPaintEngine@@UAEXABVQPainterPath@@@Z
?drawPath@QPainter@@QAEXABVQPainterPath@@@Z
?drawPicture@QPainter@@QAEXABVQPoint@@ABVQPicture@@@Z
?drawPicture@QPainter@@QAEXABVQPointF@@ABVQPicture@@@Z
?drawPicture@QPainter@@QAEXHHABVQPicture@@@Z
?drawPie@QPainter@@QAEXABVQRect@@HH@Z
?drawPie@QPainter@@QAEXABVQRectF@@HH@Z
?drawPie@QPainter@@QAEXHHHHHH@Z
?drawPixmap@QPainter@@QAEXABVQPoint@@ABVQPixmap@@@Z
?drawPixmap@QPainter@@QAEXABVQPoint@@ABVQPixmap@@ABVQRect@@@Z
?drawPixmap@QPainter@@QAEXABVQPointF@@ABVQPixmap@@@Z
?drawPixmap@QPainter@@QAEXABVQPointF@@ABVQPixmap@@ABVQRectF@@@Z
?drawPixmap@QPainter@@QAEXABVQRect@@ABVQPixmap@@0@Z
?drawPixmap@QPainter@@QAEXABVQRect@@ABVQPixmap@@@Z
?drawPixmap@QPainter@@QAEXABVQRectF@@ABVQPixmap@@0@Z
?drawPixmap@QPainter@@QAEXHHABVQPixmap@@@Z
?drawPixmap@QPainter@@QAEXHHABVQPixmap@@HHHH@Z
?drawPixmap@QPainter@@QAEXHHHHABVQPixmap@@@Z
?drawPixmap@QPainter@@QAEXHHHHABVQPixmap@@HHHH@Z
?drawPoint@QPainter@@QAEXABVQPoint@@@Z
?drawPoint@QPainter@@QAEXABVQPointF@@@Z
?drawPoint@QPainter@@QAEXHH@Z
?drawPoints@QPaintEngine@@UAEXPBVQPoint@@H@Z
?drawPoints@QPaintEngine@@UAEXPBVQPointF@@H@Z
?drawPoints@QPainter@@QAEXABVQPolygon@@@Z
?drawPoints@QPainter@@QAEXABVQPolygon@@HH@Z
?drawPoints@QPainter@@QAEXABVQPolygonF@@@Z
?drawPoints@QPainter@@QAEXPBVQPoint@@H@Z
?drawPoints@QPainter@@QAEXPBVQPointF@@H@Z
?drawPolygon@QPaintEngine@@UAEXPBVQPoint@@HW4PolygonDrawMode@1@@Z
?drawPolygon@QPaintEngine@@UAEXPBVQPointF@@HW4PolygonDrawMode@1@@Z
?drawPolygon@QPainter@@QAEXABVQPolygon@@W4FillRule@Qt@@@Z
?drawPolygon@QPainter@@QAEXABVQPolygon@@_NHH@Z
?drawPolygon@QPainter@@QAEXABVQPolygonF@@W4FillRule@Qt@@@Z
?drawPolygon@QPainter@@QAEXABVQPolygonF@@_NHH@Z
?drawPolygon@QPainter@@QAEXPBVQPoint@@HW4FillRule@Qt@@@Z
?drawPolygon@QPainter@@QAEXPBVQPointF@@HW4FillRule@Qt@@@Z
?drawPolyline@QPainter@@QAEXABVQPolygon@@@Z
?drawPolyline@QPainter@@QAEXABVQPolygon@@HH@Z
?drawPolyline@QPainter@@QAEXABVQPolygonF@@@Z
?drawPolyline@QPainter@@QAEXPBVQPoint@@H@Z
?drawPolyline@QPainter@@QAEXPBVQPointF@@H@Z
?drawPrimitive@QCDEStyle@@UBEXW4PrimitiveElement@QStyle@@PBVQStyleOption@@PAVQPainter@@PBVQWidget@@@Z
?drawPrimitive@QCleanlooksStyle@@UBEXW4PrimitiveElement@QStyle@@PBVQStyleOption@@PAVQPainter@@PBVQWidget@@@Z
?drawPrimitive@QCommonStyle@@UBEXW4PrimitiveElement@QStyle@@PBVQStyleOption@@PAVQPainter@@PBVQWidget@@@Z
?drawPrimitive@QMotifStyle@@UBEXW4PrimitiveElement@QStyle@@PBVQStyleOption@@PAVQPainter@@PBVQWidget@@@Z
?drawPrimitive@QPlastiqueStyle@@UBEXW4PrimitiveElement@QStyle@@PBVQStyleOption@@PAVQPainter@@PBVQWidget@@@Z
?drawPrimitive@QWindowsStyle@@UBEXW4PrimitiveElement@QStyle@@PBVQStyleOption@@PAVQPainter@@PBVQWidget@@@Z
?drawPrimitive@QWindowsVistaStyle@@UBEXW4PrimitiveElement@QStyle@@PBVQStyleOption@@PAVQPainter@@PBVQWidget@@@Z
?drawPrimitive@QWindowsXPStyle@@UBEXW4PrimitiveElement@QStyle@@PBVQStyleOption@@PAVQPainter@@PBVQWidget@@@Z
?drawRect@QPainter@@QAEXABVQRect@@@Z
?drawRect@QPainter@@QAEXABVQRectF@@@Z
?drawRect@QPainter@@QAEXHHHH@Z
?drawRects@QPaintEngine@@UAEXPBVQRect@@H@Z
?drawRects@QPaintEngine@@UAEXPBVQRectF@@H@Z
?drawRects@QPainter@@QAEXABV?$QVector@VQRect@@@@@Z
?drawRects@QPainter@@QAEXABV?$QVector@VQRectF@@@@@Z
?drawRects@QPainter@@QAEXPBVQRect@@H@Z
?drawRects@QPainter@@QAEXPBVQRectF@@H@Z
?drawRoundRect@QPainter@@QAEXABVQRect@@HH@Z
?drawRoundRect@QPainter@@QAEXABVQRectF@@HH@Z
?drawRoundRect@QPainter@@QAEXHHHHHH@Z
?drawRoundedRect@QPainter@@QAEXABVQRect@@NNW4SizeMode@Qt@@@Z
?drawRoundedRect@QPainter@@QAEXABVQRectF@@NNW4SizeMode@Qt@@@Z
?drawRoundedRect@QPainter@@QAEXHHHHNNW4SizeMode@Qt@@@Z
?drawRow@QTreeView@@MBEXPAVQPainter@@ABVQStyleOptionViewItem@@ABVQModelIndex@@@Z
?drawText@QPainter@@QAEXABVQPoint@@ABVQString@@@Z
?drawText@QPainter@@QAEXABVQPoint@@ABVQString@@H@Z
?drawText@QPainter@@QAEXABVQPoint@@ABVQString@@HH@Z
?drawText@QPainter@@QAEXABVQPointF@@ABVQString@@@Z
?drawText@QPainter@@QAEXABVQPointF@@ABVQString@@HH@Z
?drawText@QPainter@@QAEXABVQRect@@HABVQString@@HPAV2@@Z
?drawText@QPainter@@QAEXABVQRect@@HABVQString@@PAV2@@Z
?drawText@QPainter@@QAEXABVQRectF@@ABVQString@@ABVQTextOption@@@Z
?drawText@QPainter@@QAEXABVQRectF@@HABVQString@@PAV2@@Z
?drawText@QPainter@@QAEXHHABVQString@@@Z
?drawText@QPainter@@QAEXHHABVQString@@H@Z
?drawText@QPainter@@QAEXHHABVQString@@HH@Z
?drawText@QPainter@@QAEXHHHHHABVQString@@HPAVQRect@@@Z
?drawText@QPainter@@QAEXHHHHHABVQString@@PAVQRect@@@Z
?drawText@QWidget@@QAEXABVQPoint@@ABVQString@@@Z
?drawText@QWidget@@QAEXHHABVQString@@@Z
?drawTextItem@QPaintEngine@@UAEXABVQPointF@@ABVQTextItem@@@Z
?drawTextItem@QPainter@@QAEXABVQPoint@@ABVQTextItem@@@Z
?drawTextItem@QPainter@@QAEXABVQPointF@@ABVQTextItem@@@Z
?drawTextItem@QPainter@@QAEXHHABVQTextItem@@@Z
?drawText_helper@QWidget@@AAEXHHABVQString@@@Z
?drawTiledPixmap@QPaintEngine@@UAEXABVQRectF@@ABVQPixmap@@ABVQPointF@@@Z
?drawTiledPixmap@QPainter@@QAEXABVQRect@@ABVQPixmap@@ABVQPoint@@@Z
?drawTiledPixmap@QPainter@@QAEXABVQRectF@@ABVQPixmap@@ABVQPointF@@@Z
?drawTiledPixmap@QPainter@@QAEXHHHHABVQPixmap@@HH@Z
?drawTree@QTreeView@@IBEXPAVQPainter@@ABVQRegion@@@Z
?drawWidget@QWidgetPrivate@@QAEXPAVQPaintDevice@@ABVQRegion@@ABVQPoint@@HPAVQPainter@@@Z
?drop@QDragManager@@QAEXXZ
?dropAction@QDropEvent@@QBE?AW4DropAction@Qt@@XZ
?dropAction@QGraphicsSceneDragDropEvent@@QBE?AW4DropAction@Qt@@XZ
?dropEvent@QAbstractItemView@@MAEXPAVQDropEvent@@@Z
?dropEvent@QAbstractScrollArea@@MAEXPAVQDropEvent@@@Z
?dropEvent@QGraphicsItem@@MAEXPAVQGraphicsSceneDragDropEvent@@@Z
?dropEvent@QGraphicsScene@@MAEXPAVQGraphicsSceneDragDropEvent@@@Z
?dropEvent@QGraphicsTextItem@@MAEXPAVQGraphicsSceneDragDropEvent@@@Z
?dropEvent@QGraphicsView@@MAEXPAVQDropEvent@@@Z
?dropEvent@QLineEdit@@MAEXPAVQDropEvent@@@Z
?dropEvent@QListView@@MAEXPAVQDropEvent@@@Z
?dropEvent@QListWidget@@UAEXPAVQDropEvent@@@Z
?dropEvent@QPlainTextEdit@@MAEXPAVQDropEvent@@@Z
?dropEvent@QTableWidget@@MAEXPAVQDropEvent@@@Z
?dropEvent@QTextEdit@@MAEXPAVQDropEvent@@@Z
?dropEvent@QTreeWidget@@MAEXPAVQDropEvent@@@Z
?dropEvent@QWidget@@MAEXPAVQDropEvent@@@Z
?dropIndicatorPosition@QAbstractItemView@@IBE?AW4DropIndicatorPosition@1@XZ
?dropMimeData@QDirModel@@UAE_NPBVQMimeData@@W4DropAction@Qt@@HHABVQModelIndex@@@Z
?dropMimeData@QFileSystemModel@@UAE_NPBVQMimeData@@W4DropAction@Qt@@HHABVQModelIndex@@@Z
?dropMimeData@QListWidget@@MAE_NHPBVQMimeData@@W4DropAction@Qt@@@Z
?dropMimeData@QProxyModel@@UAE_NPBVQMimeData@@W4DropAction@Qt@@HHABVQModelIndex@@@Z
?dropMimeData@QSortFilterProxyModel@@UAE_NPBVQMimeData@@W4DropAction@Qt@@HHABVQModelIndex@@@Z
?dropMimeData@QTableWidget@@MAE_NHHPBVQMimeData@@W4DropAction@Qt@@@Z
?dropMimeData@QTreeWidget@@MAE_NPAVQTreeWidgetItem@@HPBVQMimeData@@W4DropAction@Qt@@@Z
?dropOn@QAbstractItemViewPrivate@@QAE_NPAVQDropEvent@@PAH1PAVQModelIndex@@@Z
?droppingOnItself@QAbstractItemViewPrivate@@QAE_NPAVQDropEvent@@ABVQModelIndex@@@Z
?duplex@QPrinter@@QBE?AW4DuplexMode@1@XZ
?duplicatesEnabled@QComboBox@@QBE_NXZ
?dx@QMatrix@@QBENXZ
?dx@QTransform@@QBENXZ
?dy@QMatrix@@QBENXZ
?dy@QTransform@@QBENXZ
?dynamicSortFilter@QSortFilterProxyModel@@QBE_NXZ
?echoMode@QLineEdit@@QBE?AW4EchoMode@1@XZ
?edit@QAbstractItemView@@MAE_NABVQModelIndex@@W4EditTrigger@1@PAVQEvent@@@Z
?edit@QAbstractItemView@@QAEXABVQModelIndex@@@Z
?editItem@QListWidget@@QAEXPAVQListWidgetItem@@@Z
?editItem@QTableWidget@@QAEXPAVQTableWidgetItem@@@Z
?editItem@QTreeWidget@@QAEXPAVQTreeWidgetItem@@H@Z
?editTextChanged@QComboBox@@IAEXABVQString@@@Z
?editTriggers@QAbstractItemView@@QBE?AV?$QFlags@W4EditTrigger@QAbstractItemView@@@@XZ
?editable@QComboBox@@QBE_NXZ
?editableTextInterface@QAccessibleInterface@@QAEPAVQAccessibleEditableTextInterface@@XZ
?edited@QLineEdit@@QBE_NXZ
?editingFinished@QAbstractSpinBox@@IAEXXZ
?editingFinished@QLineEdit@@IAEXXZ
?editor@QAbstractItemViewPrivate@@QAEPAVQWidget@@ABVQModelIndex@@ABVQStyleOptionViewItem@@@Z
?editorDestroyed@QAbstractItemView@@MAEXPAVQObject@@@Z
?editorEvent@QAbstractItemDelegate@@UAE_NPAVQEvent@@PAVQAbstractItemModel@@ABVQStyleOptionViewItem@@ABVQModelIndex@@@Z
?editorEvent@QItemDelegate@@MAE_NPAVQEvent@@PAVQAbstractItemModel@@ABVQStyleOptionViewItem@@ABVQModelIndex@@@Z
?editorEvent@QStyledItemDelegate@@MAE_NPAVQEvent@@PAVQAbstractItemModel@@ABVQStyleOptionViewItem@@ABVQModelIndex@@@Z
?editorForIndex@QAbstractItemViewPrivate@@QBEPAVQWidget@@ABVQModelIndex@@@Z
?editorForIterator@QAbstractItemViewPrivate@@QBEPAVQWidget@@ABVconst_iterator@?$QList@U?$QPair@VQPersistentModelIndex@@V?$QPointer@VQWidget@@@@@@@@@Z
?editorForIterator@QAbstractItemViewPrivate@@QBEPAVQWidget@@ABViterator@?$QList@U?$QPair@VQPersistentModelIndex@@V?$QPointer@VQWidget@@@@@@@@@Z
?effectiveSizeHint@QGraphicsLayoutItem@@QBE?AVQSizeF@@W4SizeHint@Qt@@ABV2@@Z
?effectiveWinId@QWidget@@QBEPAUHWND__@@XZ
?elementAt@QPainterPath@@QBEABVElement@1@H@Z
?elementCount@QPainterPath@@QBEHXZ
?elideMode@QTabBar@@QBE?AW4TextElideMode@Qt@@XZ
?elideMode@QTabWidget@@QBE?AW4TextElideMode@Qt@@XZ
?elidedText@QAbstractItemDelegate@@SA?AVQString@@ABVQFontMetrics@@HW4TextElideMode@Qt@@ABV2@@Z
?elidedText@QFontMetrics@@QBE?AVQString@@ABV2@W4TextElideMode@Qt@@HH@Z
?elidedText@QFontMetricsF@@QBE?AVQString@@ABV2@W4TextElideMode@Qt@@NH@Z
?elidedText@QTextEngine@@QBE?AVQString@@W4TextElideMode@Qt@@ABUQFixed@@H@Z
?emSquareSize@QFontEngine@@UBE?AUQFixed@@XZ
?emitActionChanged@QDragManager@@QAEXW4DropAction@Qt@@@Z
?emitChanged@QClipboard@@AAEXW4Mode@1@@Z
?emitCubicTo@QStroker@@QAEXNNNNNN@Z
?emitCubicTo@QStrokerOps@@IAEXNNNNNN@Z
?emitDataChanged@QStandardItem@@IAEXXZ
?emitLastWindowClosed@QApplicationPrivate@@SAXXZ
?emitLineTo@QStroker@@QAEXNN@Z
?emitLineTo@QStrokerOps@@IAEXNN@Z
?emitMoveTo@QStroker@@QAEXNN@Z
?emitMoveTo@QStrokerOps@@IAEXNN@Z
?emitSelectionChanged@QItemSelectionModel@@IAEXABVQItemSelection@@0@Z
?empty@?$QList@VQItemSelectionRange@@@@QBE_NXZ
?emptyLabel@QUndoView@@QBE?AVQString@@XZ
?enabledChange@QWidget@@MAEX_N@Z
?enabledOptions@QAbstractPrintDialog@@QBE?AV?$QFlags@W4PrintDialogOption@QAbstractPrintDialog@@@@XZ
?enabledOptions@QPageSetupDialog@@QBE?AV?$QFlags@W4PageSetupDialogOption@QPageSetupDialog@@@@XZ
?encodeString@QKeySequence@@CA?AVQString@@H@Z
?encodedData@QDropEvent@@UBE?AVQByteArray@@PBD@Z
?end@?$QList@VQItemSelectionRange@@@@QAE?AViterator@1@XZ
?end@?$QList@VQItemSelectionRange@@@@QBE?AVconst_iterator@1@XZ
?end@QDashStroker@@UAEXXZ
?end@QLineEdit@@QAEX_N@Z
?end@QPainter@@QAE_NXZ
?end@QStrokerOps@@UAEXXZ
?end@QTextBlock@@QBE?AViterator@1@XZ
?end@QTextDocument@@QBE?AVQTextBlock@@XZ
?end@QTextFrame@@QBE?AViterator@1@XZ
?end@QTextTableCell@@QBE?AViterator@QTextFrame@@XZ
?endEditBlock@QTextCursor@@QAEXXZ
?endLayout@QTextLayout@@QAEXXZ
?endMacro@QUndoStack@@QAEXXZ
?endPaint@QWindowSurface@@UAEXABVQRegion@@@Z
?endSharedPainter@QWidgetPrivate@@QAE_NXZ
?endTangent@QBezier@@QBE?AVQLineF@@XZ
?enforceNativeChildren@QWidgetPrivate@@QAEXXZ
?engine@QFontEngineMulti@@QBEPAVQFontEngine@@H@Z
?engine@QTextLayout@@QBEPAVQTextEngine@@XZ
?engineForScript@QFontPrivate@@QBEPAVQFontEngine@@H@Z
?ensureBlockLayout@QPlainTextDocumentLayout@@QBEXABVQTextBlock@@@Z
?ensureCursorVisible@QPlainTextEdit@@QAEXXZ
?ensureCursorVisible@QTextControl@@UAEXXZ
?ensureCursorVisible@QTextEdit@@QAEXXZ
?ensureData@QPainterPath@@AAEXXZ
?ensureData_helper@QPainterPath@@AAEXXZ
?ensureHandle@QRegion@@ABEXXZ
?ensurePolished@QWidget@@QBEXXZ
?ensureSpace@QTextEngine@@QBEXH@Z
?ensureVisible@QGraphicsItem@@QAEXABVQRectF@@HH@Z
?ensureVisible@QGraphicsItem@@QAEXNNNNHH@Z
?ensureVisible@QGraphicsView@@QAEXABVQRectF@@HH@Z
?ensureVisible@QGraphicsView@@QAEXNNNNHH@Z
?ensureVisible@QGraphicsView@@QAEXPBVQGraphicsItem@@HH@Z
?ensureVisible@QScrollArea@@QAEXHHHH@Z
?ensureWidgetVisible@QScrollArea@@QAEXPAVQWidget@@HH@Z
?enterEvent@QMenu@@MAEXPAVQEvent@@@Z
?enterEvent@QToolButton@@MAEXPAVQEvent@@@Z
?enterEvent@QWidget@@MAEXPAVQEvent@@@Z
?enterModal@QApplicationPrivate@@SAXPAVQWidget@@@Z
?enterModal_sys@QApplicationPrivate@@SAXPAVQWidget@@@Z
?enterWhatsThisMode@QWhatsThis@@SAXXZ
?entered@QAbstractItemView@@IAEXABVQModelIndex@@@Z
?eor@QRegion@@QBE?AV1@ABV1@@Z
?erase@?$QList@VQItemSelectionRange@@@@QAE?AViterator@1@V21@0@Z
?erase@?$QList@VQItemSelectionRange@@@@QAE?AViterator@1@V21@@Z
?erase@QWidget@@QAEXABVQRect@@@Z
?erase@QWidget@@QAEXABVQRegion@@@Z
?erase@QWidget@@QAEXHHHH@Z
?erase@QWidget@@QAEXXZ
?eraseColor@QWidget@@QBEABVQColor@@XZ
?erasePixmap@QWidget@@QBEPBVQPixmap@@XZ
?eraseRect@QPainter@@QAEXABVQRect@@@Z
?eraseRect@QPainter@@QAEXABVQRectF@@@Z
?eraseRect@QPainter@@QAEXHHHH@Z
?erase_helper@QWidget@@AAEXHHHH@Z
?erased@QPaintEvent@@QBE_NXZ
?error@QImageReader@@QBE?AW4ImageReaderError@1@XZ
?error@QImageWriter@@QBE?AW4ImageWriterError@1@XZ
?error@QMovie@@IAEXW4ImageReaderError@QImageReader@@@Z
?errorString@QImageReader@@QBE?AVQString@@XZ
?errorString@QImageWriter@@QBE?AVQString@@XZ
?errorSymbol@Parser@QCss@@QAE?AUSymbol@2@XZ
?escape@Qt@@YA?AVQString@@ABV2@@Z
?escapeButton@QMessageBox@@QBEPAVQAbstractButton@@XZ
?event@QAbstractButton@@MAE_NPAVQEvent@@@Z
?event@QAbstractItemView@@MAE_NPAVQEvent@@@Z
?event@QAbstractScrollArea@@MAE_NPAVQEvent@@@Z
?event@QAbstractSlider@@MAE_NPAVQEvent@@@Z
?event@QAbstractSpinBox@@UAE_NPAVQEvent@@@Z
?event@QAction@@MAE_NPAVQEvent@@@Z
?event@QApplication@@MAE_NPAVQEvent@@@Z
?event@QCalendarWidget@@MAE_NPAVQEvent@@@Z
?event@QCheckBox@@MAE_NPAVQEvent@@@Z
?event@QClipboard@@MAE_NPAVQEvent@@@Z
?event@QComboBox@@UAE_NPAVQEvent@@@Z
?event@QCommandLinkButton@@MAE_NPAVQEvent@@@Z
?event@QCompleter@@MAE_NPAVQEvent@@@Z
?event@QDateTimeEdit@@UAE_NPAVQEvent@@@Z
?event@QDial@@MAE_NPAVQEvent@@@Z
?event@QDialogButtonBox@@MAE_NPAVQEvent@@@Z
?event@QDockWidget@@MAE_NPAVQEvent@@@Z
?event@QFileSystemModel@@MAE_NPAVQEvent@@@Z
?event@QFocusFrame@@MAE_NPAVQEvent@@@Z
?event@QFontComboBox@@MAE_NPAVQEvent@@@Z
?event@QFrame@@MAE_NPAVQEvent@@@Z
?event@QGraphicsProxyWidget@@MAE_NPAVQEvent@@@Z
?event@QGraphicsScene@@MAE_NPAVQEvent@@@Z
?event@QGraphicsView@@MAE_NPAVQEvent@@@Z
?event@QGraphicsWidget@@MAE_NPAVQEvent@@@Z
?event@QGroupBox@@MAE_NPAVQEvent@@@Z
?event@QHeaderView@@MAE_NPAVQEvent@@@Z
?event@QLCDNumber@@MAE_NPAVQEvent@@@Z
?event@QLabel@@MAE_NPAVQEvent@@@Z
?event@QLineEdit@@UAE_NPAVQEvent@@@Z
?event@QListView@@MAE_NPAVQEvent@@@Z
?event@QListWidget@@MAE_NPAVQEvent@@@Z
?event@QMainWindow@@MAE_NPAVQEvent@@@Z
?event@QMdiArea@@MAE_NPAVQEvent@@@Z
?event@QMdiSubWindow@@MAE_NPAVQEvent@@@Z
?event@QMenu@@MAE_NPAVQEvent@@@Z
?event@QMenuBar@@MAE_NPAVQEvent@@@Z
?event@QMessageBox@@MAE_NPAVQEvent@@@Z
?event@QMotifStyle@@UAE_NPAVQEvent@@@Z
?event@QPlainTextEdit@@MAE_NPAVQEvent@@@Z
?event@QProgressBar@@MAE_NPAVQEvent@@@Z
?event@QPushButton@@MAE_NPAVQEvent@@@Z
?event@QRadioButton@@MAE_NPAVQEvent@@@Z
?event@QRubberBand@@MAE_NPAVQEvent@@@Z
?event@QScrollArea@@MAE_NPAVQEvent@@@Z
?event@QScrollBar@@UAE_NPAVQEvent@@@Z
?event@QShortcut@@MAE_NPAVQEvent@@@Z
?event@QSizeGrip@@MAE_NPAVQEvent@@@Z
?event@QSlider@@UAE_NPAVQEvent@@@Z
?event@QSpinBox@@MAE_NPAVQEvent@@@Z
?event@QSplashScreen@@MAE_NPAVQEvent@@@Z
?event@QSplitter@@MAE_NPAVQEvent@@@Z
?event@QSplitterHandle@@MAE_NPAVQEvent@@@Z
?event@QStackedWidget@@MAE_NPAVQEvent@@@Z
?event@QStatusBar@@MAE_NPAVQEvent@@@Z
?event@QSystemTrayIcon@@MAE_NPAVQEvent@@@Z
?event@QTabBar@@MAE_NPAVQEvent@@@Z
?event@QTabWidget@@MAE_NPAVQEvent@@@Z
?event@QTableWidget@@MAE_NPAVQEvent@@@Z
?event@QTextBrowser@@MAE_NPAVQEvent@@@Z
?event@QTextControl@@MAE_NPAVQEvent@@@Z
?event@QTextEdit@@MAE_NPAVQEvent@@@Z
?event@QToolBar@@MAE_NPAVQEvent@@@Z
?event@QToolBox@@MAE_NPAVQEvent@@@Z
?event@QToolButton@@MAE_NPAVQEvent@@@Z
?event@QTreeWidget@@MAE_NPAVQEvent@@@Z
?event@QWidget@@MAE_NPAVQEvent@@@Z
?event@QWidgetAction@@MAE_NPAVQEvent@@@Z
?event@QWindowsVistaStyle@@UAE_NPAVQEvent@@@Z
?event@QWizard@@MAE_NPAVQEvent@@@Z
?event@QWorkspace@@MAE_NPAVQEvent@@@Z
?eventFilter@QCompleter@@MAE_NPAVQObject@@PAVQEvent@@@Z
?eventFilter@QDialog@@MAE_NPAVQObject@@PAVQEvent@@@Z
?eventFilter@QDragManager@@EAE_NPAVQObject@@PAVQEvent@@@Z
?eventFilter@QFocusFrame@@MAE_NPAVQObject@@PAVQEvent@@@Z
?eventFilter@QFontDialog@@EAE_NPAVQObject@@PAVQEvent@@@Z
?eventFilter@QGraphicsProxyWidget@@MAE_NPAVQObject@@PAVQEvent@@@Z
?eventFilter@QGraphicsScene@@MAE_NPAVQObject@@PAVQEvent@@@Z
?eventFilter@QItemDelegate@@MAE_NPAVQObject@@PAVQEvent@@@Z
?eventFilter@QMdiArea@@MAE_NPAVQObject@@PAVQEvent@@@Z
?eventFilter@QMdiSubWindow@@MAE_NPAVQObject@@PAVQEvent@@@Z
?eventFilter@QMenuBar@@MAE_NPAVQObject@@PAVQEvent@@@Z
?eventFilter@QMotifStyle@@MAE_NPAVQObject@@PAVQEvent@@@Z
?eventFilter@QPlastiqueStyle@@MAE_NPAVQObject@@PAVQEvent@@@Z
?eventFilter@QScrollArea@@MAE_NPAVQObject@@PAVQEvent@@@Z
?eventFilter@QSizeGrip@@MAE_NPAVQObject@@PAVQEvent@@@Z
?eventFilter@QStyledItemDelegate@@MAE_NPAVQObject@@PAVQEvent@@@Z
?eventFilter@QWidgetAction@@MAE_NPAVQObject@@PAVQEvent@@@Z
?eventFilter@QWidgetResizeHandler@@MAE_NPAVQObject@@PAVQEvent@@@Z
?eventFilter@QWindowsStyle@@MAE_NPAVQObject@@PAVQEvent@@@Z
?eventFilter@QWorkspace@@MAE_NPAVQObject@@PAVQEvent@@@Z
?exactMatch@QFont@@QBE_NXZ
?exactMatch@QFontInfo@@QBE_NXZ
?exclusive@QButtonGroup@@QBE_NXZ
?exec@QApplication@@SAHXZ
?exec@QDialog@@QAEHXZ
?exec@QDrag@@QAE?AW4DropAction@Qt@@V?$QFlags@W4DropAction@Qt@@@@@Z
?exec@QDrag@@QAE?AW4DropAction@Qt@@V?$QFlags@W4DropAction@Qt@@@@W423@@Z
?exec@QMenu@@QAEPAVQAction@@ABVQPoint@@PAV2@@Z
?exec@QMenu@@QAEPAVQAction@@XZ
?exec@QMenu@@SAPAVQAction@@V?$QList@PAVQAction@@@@ABVQPoint@@PAV2@@Z
?exec@QPageSetupDialog@@UAEHXZ
?exec@QPicture@@AAE_NPAVQPainter@@AAVQDataStream@@H@Z
?exec@QPrintDialog@@UAEHXZ
?exec@QRegion@@AAEXABVQByteArray@@H@Z
?executeDelayedItemsLayout@QAbstractItemView@@IAEXXZ
?executePendingSort@QTreeWidgetItem@@ABEXXZ
?executePostedLayout@QAbstractItemViewPrivate@@QBEXXZ
?expand@QGridLayout@@QAEXHH@Z
?expand@QTreeView@@QAEXABVQModelIndex@@@Z
?expandAll@QTreeView@@QAEXXZ
?expandItem@QTreeWidget@@QAEXPBVQTreeWidgetItem@@@Z
?expandToDepth@QTreeView@@QAEXH@Z
?expanded@QTreeView@@IAEXABVQModelIndex@@@Z
?expandedSize@QToolBarLayout@@QBE?AVQSize@@ABV2@@Z
?expanding@QSizePolicy@@QBE?AV?$QFlags@W4Orientation@Qt@@@@XZ
?expandingDirections@QBoxLayout@@UBE?AV?$QFlags@W4Orientation@Qt@@@@XZ
?expandingDirections@QFormLayout@@UBE?AV?$QFlags@W4Orientation@Qt@@@@XZ
?expandingDirections@QGridLayout@@UBE?AV?$QFlags@W4Orientation@Qt@@@@XZ
?expandingDirections@QLayout@@UBE?AV?$QFlags@W4Orientation@Qt@@@@XZ
?expandingDirections@QSizePolicy@@QBE?AV?$QFlags@W4Orientation@Qt@@@@XZ
?expandingDirections@QSpacerItem@@UBE?AV?$QFlags@W4Orientation@Qt@@@@XZ
?expandingDirections@QToolBarLayout@@UBE?AV?$QFlags@W4Orientation@Qt@@@@XZ
?expandingDirections@QWidgetItem@@UBE?AV?$QFlags@W4Orientation@Qt@@@@XZ
?expandsOnDoubleClick@QTreeView@@QBE_NXZ
?extendedSelectionCommand@QAbstractItemViewPrivate@@QBE?AV?$QFlags@W4SelectionFlag@QItemSelectionModel@@@@ABVQModelIndex@@PBVQEvent@@@Z
?extension@QDialog@@QBEPAVQWidget@@XZ
?extension@QGraphicsEllipseItem@@MBE?AVQVariant@@ABV2@@Z
?extension@QGraphicsItem@@MBE?AVQVariant@@ABV2@@Z
?extension@QGraphicsLineItem@@MBE?AVQVariant@@ABV2@@Z
?extension@QGraphicsPathItem@@MBE?AVQVariant@@ABV2@@Z
?extension@QGraphicsPixmapItem@@MBE?AVQVariant@@ABV2@@Z
?extension@QGraphicsPolygonItem@@MBE?AVQVariant@@ABV2@@Z
?extension@QGraphicsRectItem@@MBE?AVQVariant@@ABV2@@Z
?extension@QGraphicsSimpleTextItem@@MBE?AVQVariant@@ABV2@@Z
?extension@QGraphicsTextItem@@MBE?AVQVariant@@ABV2@@Z
?externalLoader@QTextImageHandler@@2P6A?AVQImage@@ABVQString@@0@ZA
?extraData@QWidgetPrivate@@QBEPAUQWExtra@@XZ
?extraSelections@QPlainTextEdit@@QBE?AV?$QList@UExtraSelection@QTextEdit@@@@XZ
?extraSelections@QTextControl@@QBE?AV?$QList@UExtraSelection@QTextEdit@@@@XZ
?extraSelections@QTextEdit@@QBE?AV?$QList@UExtraSelection@QTextEdit@@@@XZ
?extractBackground@ValueExtractor@QCss@@QAE_NPAVQBrush@@PAVQString@@PAW4Repeat@2@PAV?$QFlags@W4AlignmentFlag@Qt@@@@PAW4Origin@2@PAW4Attachment@2@4@Z
?extractBorder@ValueExtractor@QCss@@QAE_NPAHPAVQBrush@@PAW4BorderStyle@2@PAVQSize@@@Z
?extractBox@ValueExtractor@QCss@@QAE_NPAH00@Z
?extractFont@ValueExtractor@QCss@@AAEXXZ
?extractFont@ValueExtractor@QCss@@QAE_NPAVQFont@@PAH@Z
?extractGeometry@ValueExtractor@QCss@@QAE_NPAH00000@Z
?extractImage@ValueExtractor@QCss@@QAE_NPAVQIcon@@PAV?$QFlags@W4AlignmentFlag@Qt@@@@PAVQSize@@@Z
?extractOutline@ValueExtractor@QCss@@QAE_NPAHPAVQBrush@@PAW4BorderStyle@2@PAVQSize@@0@Z
?extractPalette@ValueExtractor@QCss@@QAE_NPAVQBrush@@000@Z
?extractPosition@ValueExtractor@QCss@@QAE_NPAH000PAW4Origin@2@PAV?$QFlags@W4AlignmentFlag@Qt@@@@PAW4PositionMode@2@2@Z
?extractStyleFeatures@ValueExtractor@QCss@@QAEHXZ
?faceId@QFontEngine@@UBE?AUFaceId@1@XZ
?fade_menu@QApplicationPrivate@@2_NA
?fade_tooltip@QApplicationPrivate@@2_NA
?families@QFontDatabase@@QBE?AVQStringList@@W4WritingSystem@1@@Z
?family@QFont@@QBE?AVQString@@XZ
?family@QFontInfo@@QBE?AVQString@@XZ
?family@QTextEdit@@QBE?AVQString@@XZ
?features@QDockWidget@@QBE?AV?$QFlags@W4DockWidgetFeature@QDockWidget@@@@XZ
?featuresChanged@QDockWidget@@IAEXV?$QFlags@W4DockWidgetFeature@QDockWidget@@@@@Z
?fetchMore@QFileSystemModel@@UAEXABVQModelIndex@@@Z
?fetchMore@QProxyModel@@UAEXABVQModelIndex@@@Z
?fetchMore@QSortFilterProxyModel@@UAEXABVQModelIndex@@@Z
?field@QWizard@@QBE?AVQVariant@@ABVQString@@@Z
?field@QWizardPage@@IBE?AVQVariant@@ABVQString@@@Z
?fieldGrowthPolicy@QFormLayout@@QBE?AW4FieldGrowthPolicy@1@XZ
?file@QFileOpenEvent@@QBE?AVQString@@XZ
?fileIcon@QDirModel@@QBE?AVQIcon@@ABVQModelIndex@@@Z
?fileIcon@QFileSystemModel@@QBE?AVQIcon@@ABVQModelIndex@@@Z
?fileInfo@QDirModel@@QBE?AVQFileInfo@@ABVQModelIndex@@@Z
?fileInfo@QFileSystemModel@@QBE?AVQFileInfo@@ABVQModelIndex@@@Z
?fileMode@QFileDialog@@QBE?AW4FileMode@1@XZ
?fileName@QDirModel@@QBE?AVQString@@ABVQModelIndex@@@Z
?fileName@QFileSystemModel@@QBE?AVQString@@ABVQModelIndex@@@Z
?fileName@QImageReader@@QBE?AVQString@@XZ
?fileName@QImageWriter@@QBE?AVQString@@XZ
?fileName@QMovie@@QBE?AVQString@@XZ
?fileName@QPictureIO@@QBE?AVQString@@XZ
?fileName@QSound@@QBE?AVQString@@XZ
?filePath@QDirModel@@QBE?AVQString@@ABVQModelIndex@@@Z
?filePath@QFileSystemModel@@QBE?AVQString@@ABVQModelIndex@@@Z
?fileRenamed@QFileSystemModel@@IAEXABVQString@@00@Z
?filesSelected@QFileDialog@@IAEXABVQStringList@@@Z
?fill@QImage@@QAEXI@Z
?fill@QPixmap@@QAEXABVQColor@@@Z
?fill@QPixmap@@QAEXPBVQWidget@@ABVQPoint@@@Z
?fill@QPixmap@@QAEXPBVQWidget@@HH@Z
?fillPath@QPainter@@QAEXABVQPainterPath@@ABVQBrush@@@Z
?fillRect@QPainter@@QAEXABVQRect@@ABVQBrush@@@Z
?fillRect@QPainter@@QAEXABVQRectF@@ABVQBrush@@@Z
?fillRect@QPainter@@QAEXHHHHABVQBrush@@@Z
?fillRule@QGraphicsPolygonItem@@QBE?AW4FillRule@Qt@@XZ
?fillRule@QPainterPath@@QBE?AW4FillRule@Qt@@XZ
?filter@QDirModel@@QBE?AV?$QFlags@W4Filter@QDir@@@@XZ
?filter@QFileDialog@@QBE?AV?$QFlags@W4Filter@QDir@@@@XZ
?filter@QFileSystemModel@@QBE?AV?$QFlags@W4Filter@QDir@@@@XZ
?filterAcceptsColumn@QSortFilterProxyModel@@MBE_NHABVQModelIndex@@@Z
?filterAcceptsRow@QSortFilterProxyModel@@MBE_NHABVQModelIndex@@@Z
?filterCaseSensitivity@QSortFilterProxyModel@@QBE?AW4CaseSensitivity@Qt@@XZ
?filterChanged@QSortFilterProxyModel@@IAEXXZ
?filterEvent@QInputContext@@UAE_NPBVQEvent@@@Z
?filterKeyColumn@QSortFilterProxyModel@@QBEHXZ
?filterRegExp@QSortFilterProxyModel@@QBE?AVQRegExp@@XZ
?filterRole@QSortFilterProxyModel@@QBEHXZ
?filterSelected@QFileDialog@@IAEXABVQString@@@Z
?filters@QFileDialog@@QBE?AVQStringList@@XZ
?finalStop@QLinearGradient@@QBE?AVQPointF@@XZ
?find@?$QList@VQItemSelectionRange@@@@QAE?AViterator@1@ABVQItemSelectionRange@@@Z
?find@?$QList@VQItemSelectionRange@@@@QAE?AViterator@1@V21@ABVQItemSelectionRange@@@Z
?find@?$QList@VQItemSelectionRange@@@@QBE?AVconst_iterator@1@ABVQItemSelectionRange@@@Z
?find@?$QList@VQItemSelectionRange@@@@QBE?AVconst_iterator@1@V21@ABVQItemSelectionRange@@@Z
?find@QPixmapCache@@SAPAVQPixmap@@ABVQString@@@Z
?find@QPixmapCache@@SA_NABVQString@@AAVQPixmap@@@Z
?find@QPlainTextEdit@@QAE_NABVQString@@V?$QFlags@W4FindFlag@QTextDocument@@@@@Z
?find@QTextControl@@QAE_NABVQString@@V?$QFlags@W4FindFlag@QTextDocument@@@@@Z
?find@QTextDocument@@QBE?AVQTextCursor@@ABVQRegExp@@ABV2@V?$QFlags@W4FindFlag@QTextDocument@@@@@Z
?find@QTextDocument@@QBE?AVQTextCursor@@ABVQRegExp@@HV?$QFlags@W4FindFlag@QTextDocument@@@@@Z
?find@QTextDocument@@QBE?AVQTextCursor@@ABVQString@@ABV2@V?$QFlags@W4FindFlag@QTextDocument@@@@@Z
?find@QTextDocument@@QBE?AVQTextCursor@@ABVQString@@HV?$QFlags@W4FindFlag@QTextDocument@@@@@Z
?find@QTextEdit@@QAE_NABVQString@@V?$QFlags@W4FindFlag@QTextDocument@@@@@Z
?find@QTextEdit@@QAE_NABVQString@@_N1@Z
?find@QWidget@@SAPAV1@PAUHWND__@@@Z
?findActionForId@QMenu@@ABEPAVQAction@@H@Z
?findActionForId@QMenuBar@@ABEPAVQAction@@H@Z
?findBlock@QTextDocument@@QBE?AVQTextBlock@@H@Z
?findBlockByNumber@QTextDocument@@QBE?AVQTextBlock@@H@Z
?findBufferChanged@QClipboard@@IAEXXZ
?findData@QComboBox@@QBEHABVQVariant@@HV?$QFlags@W4MatchFlag@Qt@@@@@Z
?findIdForAction@QMenu@@ABEHPAVQAction@@@Z
?findIdForAction@QMenuBar@@ABEHPAVQAction@@@Z
?findIndex@?$QList@VQItemSelectionRange@@@@QBEHABVQItemSelectionRange@@@Z
?findIntersections@QBezier@@SA?AV?$QVector@U?$QPair@NN@@@@ABV1@0@Z
?findIntersections@QBezier@@SA_NABV1@0PAV?$QVector@U?$QPair@NN@@@@@Z
?findItem@QMenu@@QBEPAVQMenuItem@@H@Z
?findItem@QMenuBar@@QBEPAVQMenuItem@@H@Z
?findItem@QTextEngine@@QBEHH@Z
?findItems@QListWidget@@QBE?AV?$QList@PAVQListWidgetItem@@@@ABVQString@@V?$QFlags@W4MatchFlag@Qt@@@@@Z
?findItems@QStandardItemModel@@QBE?AV?$QList@PAVQStandardItem@@@@ABVQString@@V?$QFlags@W4MatchFlag@Qt@@@@H@Z
?findItems@QTableWidget@@QBE?AV?$QList@PAVQTableWidgetItem@@@@ABVQString@@V?$QFlags@W4MatchFlag@Qt@@@@@Z
?findItems@QTreeWidget@@QBE?AV?$QList@PAVQTreeWidgetItem@@@@ABVQString@@V?$QFlags@W4MatchFlag@Qt@@@@H@Z
?findNextPrevAnchor@QTextControl@@QAE_NABVQTextCursor@@_NAAV2@@Z
?findPopup@QMenu@@QAEPAVQMenuItem@@PAV1@PAH@Z
?findText@QComboBox@@QBEHABVQString@@V?$QFlags@W4MatchFlag@Qt@@@@@Z
?findWidget@QBoxLayout@@QAEHPAVQWidget@@@Z
?findWidget@QGridLayout@@IAE_NPAVQWidget@@PAH1@Z
?finish@QSplashScreen@@QAEXPAVQWidget@@@Z
?finished@QDialog@@IAEXH@Z
?finished@QMovie@@IAEXXZ
?finished@QMovie@@QBE_NXZ
?first@?$QList@VQItemSelectionRange@@@@QAEAAVQItemSelectionRange@@XZ
?first@?$QList@VQItemSelectionRange@@@@QBEABVQItemSelectionRange@@XZ
?firstBlock@QTextDocument@@QBE?AVQTextBlock@@XZ
?firstCursorPosition@QTextFrame@@QBE?AVQTextCursor@@XZ
?firstCursorPosition@QTextTableCell@@QBE?AVQTextCursor@@XZ
?firstDayOfWeek@QCalendarWidget@@QBE?AW4DayOfWeek@Qt@@XZ
?firstPosition@QTextFrame@@QBEHXZ
?firstPosition@QTextTableCell@@QBEHXZ
?firstVisibleBlock@QPlainTextEdit@@IBE?AVQTextBlock@@XZ
?fitInView@QGraphicsView@@QAEXABVQRectF@@W4AspectRatioMode@Qt@@@Z
?fitInView@QGraphicsView@@QAEXNNNNW4AspectRatioMode@Qt@@@Z
?fitInView@QGraphicsView@@QAEXPBVQGraphicsItem@@W4AspectRatioMode@Qt@@@Z
?fitInView@QPrintPreviewWidget@@QAEXXZ
?fitToWidth@QPrintPreviewWidget@@QAEXXZ
?fix_neg_rect@QPaintEngine@@QAEXPAH000@Z
?fixedPitch@QFont@@QBE_NXZ
?fixedPitch@QFontInfo@@QBE_NXZ
?fixup@QAbstractSpinBox@@UBEXAAVQString@@@Z
?fixup@QDateTimeEdit@@MBEXAAVQString@@@Z
?fixup@QDoubleSpinBox@@UBEXAAVQString@@@Z
?fixup@QSpinBox@@MBEXAAVQString@@@Z
?fixup@QValidator@@UBEXAAVQString@@@Z
?flags@QAbstractProxyModel@@UBE?AV?$QFlags@W4ItemFlag@Qt@@@@ABVQModelIndex@@@Z
?flags@QDirModel@@UBE?AV?$QFlags@W4ItemFlag@Qt@@@@ABVQModelIndex@@@Z
?flags@QFileSystemModel@@UBE?AV?$QFlags@W4ItemFlag@Qt@@@@ABVQModelIndex@@@Z
?flags@QGraphicsItem@@QBE?AV?$QFlags@W4GraphicsItemFlag@QGraphicsItem@@@@XZ
?flags@QListWidgetItem@@QBE?AV?$QFlags@W4ItemFlag@Qt@@@@XZ
?flags@QProxyModel@@UBE?AV?$QFlags@W4ItemFlag@Qt@@@@ABVQModelIndex@@@Z
?flags@QSortFilterProxyModel@@UBE?AV?$QFlags@W4ItemFlag@Qt@@@@ABVQModelIndex@@@Z
?flags@QStandardItem@@QBE?AV?$QFlags@W4ItemFlag@Qt@@@@XZ
?flags@QStandardItemModel@@UBE?AV?$QFlags@W4ItemFlag@Qt@@@@ABVQModelIndex@@@Z
?flags@QStringListModel@@UBE?AV?$QFlags@W4ItemFlag@Qt@@@@ABVQModelIndex@@@Z
?flags@QTableWidgetItem@@QBE?AV?$QFlags@W4ItemFlag@Qt@@@@XZ
?flags@QTextOption@@QBE?AV?$QFlags@W4Flag@QTextOption@@@@XZ
?flags@QTreeWidgetItem@@QBE?AV?$QFlags@W4ItemFlag@Qt@@@@XZ
?flow@QListView@@QBE?AW4Flow@1@XZ
?flushX@QApplication@@SAXXZ
?focalPoint@QRadialGradient@@QBE?AVQPointF@@XZ
?focusChanged@QApplication@@IAEXPAVQWidget@@0@Z
?focusInEvent@QAbstractButton@@MAEXPAVQFocusEvent@@@Z
?focusInEvent@QAbstractItemView@@MAEXPAVQFocusEvent@@@Z
?focusInEvent@QAbstractSpinBox@@MAEXPAVQFocusEvent@@@Z
?focusInEvent@QComboBox@@MAEXPAVQFocusEvent@@@Z
?focusInEvent@QDateTimeEdit@@MAEXPAVQFocusEvent@@@Z
?focusInEvent@QGraphicsItem@@MAEXPAVQFocusEvent@@@Z
?focusInEvent@QGraphicsProxyWidget@@MAEXPAVQFocusEvent@@@Z
?focusInEvent@QGraphicsScene@@MAEXPAVQFocusEvent@@@Z
?focusInEvent@QGraphicsTextItem@@MAEXPAVQFocusEvent@@@Z
?focusInEvent@QGraphicsView@@MAEXPAVQFocusEvent@@@Z
?focusInEvent@QGraphicsWidget@@MAEXPAVQFocusEvent@@@Z
?focusInEvent@QGroupBox@@MAEXPAVQFocusEvent@@@Z
?focusInEvent@QLabel@@MAEXPAVQFocusEvent@@@Z
?focusInEvent@QLineEdit@@MAEXPAVQFocusEvent@@@Z
?focusInEvent@QMdiSubWindow@@MAEXPAVQFocusEvent@@@Z
?focusInEvent@QMenuBar@@MAEXPAVQFocusEvent@@@Z
?focusInEvent@QPlainTextEdit@@MAEXPAVQFocusEvent@@@Z
?focusInEvent@QPushButton@@MAEXPAVQFocusEvent@@@Z
?focusInEvent@QTextEdit@@MAEXPAVQFocusEvent@@@Z
?focusInEvent@QWidget@@MAEXPAVQFocusEvent@@@Z
?focusInputContext@QWidgetPrivate@@QAEXXZ
?focusItem@QGraphicsScene@@QBEPAVQGraphicsItem@@XZ
?focusNextChild@QWidget@@IAE_NXZ
?focusNextPrevChild@QAbstractItemView@@MAE_N_N@Z
?focusNextPrevChild@QDateTimeEdit@@MAE_N_N@Z
?focusNextPrevChild@QGraphicsProxyWidget@@MAE_N_N@Z
?focusNextPrevChild@QGraphicsScene@@IAE_N_N@Z
?focusNextPrevChild@QGraphicsView@@MAE_N_N@Z
?focusNextPrevChild@QGraphicsWidget@@MAE_N_N@Z
?focusNextPrevChild@QLabel@@MAE_N_N@Z
?focusNextPrevChild@QMenu@@MAE_N_N@Z
?focusNextPrevChild@QPlainTextEdit@@MAE_N_N@Z
?focusNextPrevChild@QScrollArea@@UAE_N_N@Z
?focusNextPrevChild@QTextBrowser@@MAE_N_N@Z
?focusNextPrevChild@QTextEdit@@MAE_N_N@Z
?focusNextPrevChild@QWidget@@MAE_N_N@Z
?focusNextPrevChild_helper@QApplicationPrivate@@SAPAVQWidget@@PAV2@_N@Z
?focusOutEvent@QAbstractButton@@MAEXPAVQFocusEvent@@@Z
?focusOutEvent@QAbstractItemView@@MAEXPAVQFocusEvent@@@Z
?focusOutEvent@QAbstractSpinBox@@MAEXPAVQFocusEvent@@@Z
?focusOutEvent@QComboBox@@MAEXPAVQFocusEvent@@@Z
?focusOutEvent@QGraphicsItem@@MAEXPAVQFocusEvent@@@Z
?focusOutEvent@QGraphicsProxyWidget@@MAEXPAVQFocusEvent@@@Z
?focusOutEvent@QGraphicsScene@@MAEXPAVQFocusEvent@@@Z
?focusOutEvent@QGraphicsTextItem@@MAEXPAVQFocusEvent@@@Z
?focusOutEvent@QGraphicsView@@MAEXPAVQFocusEvent@@@Z
?focusOutEvent@QGraphicsWidget@@MAEXPAVQFocusEvent@@@Z
?focusOutEvent@QLabel@@MAEXPAVQFocusEvent@@@Z
?focusOutEvent@QLineEdit@@MAEXPAVQFocusEvent@@@Z
?focusOutEvent@QMdiSubWindow@@MAEXPAVQFocusEvent@@@Z
?focusOutEvent@QMenuBar@@MAEXPAVQFocusEvent@@@Z
?focusOutEvent@QPlainTextEdit@@MAEXPAVQFocusEvent@@@Z
?focusOutEvent@QPushButton@@MAEXPAVQFocusEvent@@@Z
?focusOutEvent@QTextBrowser@@MAEXPAVQFocusEvent@@@Z
?focusOutEvent@QTextEdit@@MAEXPAVQFocusEvent@@@Z
?focusOutEvent@QWidget@@MAEXPAVQFocusEvent@@@Z
?focusPolicy@QGraphicsWidget@@QBE?AW4FocusPolicy@Qt@@XZ
?focusPolicy@QWidget@@QBE?AW4FocusPolicy@Qt@@XZ
?focusPreviousChild@QWidget@@IAE_NXZ
?focusProxy@QWidget@@QBEPAV1@XZ
?focusWidget@QApplication@@SAPAVQWidget@@XZ
?focusWidget@QGraphicsWidget@@QBEPAV1@XZ
?focusWidget@QInputContext@@QBEPAVQWidget@@XZ
?focusWidget@QWidget@@QBEPAV1@XZ
?focus_widget@QApplicationPrivate@@2PAVQWidget@@A
?font@QAction@@QBE?AVQFont@@XZ
?font@QApplication@@SA?AVQFont@@PBD@Z
?font@QApplication@@SA?AVQFont@@PBVQWidget@@@Z
?font@QApplication@@SA?AVQFont@@XZ
?font@QFontDatabase@@QBE?AVQFont@@ABVQString@@0H@Z
?font@QFontDialog@@ABE?AVQFont@@XZ
?font@QGraphicsScene@@QBE?AVQFont@@XZ
?font@QGraphicsSimpleTextItem@@QBE?AVQFont@@XZ
?font@QGraphicsTextItem@@QBE?AVQFont@@XZ
?font@QGraphicsWidget@@QBE?AVQFont@@XZ
?font@QInputContext@@UBE?AVQFont@@XZ
?font@QListWidgetItem@@QBE?AVQFont@@XZ
?font@QPaintEngineState@@QBE?AVQFont@@XZ
?font@QPainter@@QBEABVQFont@@XZ
?font@QStandardItem@@QBE?AVQFont@@XZ
?font@QTableWidgetItem@@QBE?AVQFont@@XZ
?font@QTextCharFormat@@QBE?AVQFont@@XZ
?font@QTextEngine@@QBE?AVQFont@@ABUQScriptItem@@@Z
?font@QTextEngine@@QBE?AVQFont@@XZ
?font@QTextItem@@QBE?AVQFont@@XZ
?font@QTextLayout@@QBE?AVQFont@@XZ
?font@QToolTip@@SA?AVQFont@@XZ
?font@QTreeWidgetItem@@QBE?AVQFont@@H@Z
?font@QWidget@@QBEABVQFont@@XZ
?fontCapitalization@QTextCharFormat@@QBE?AW4Capitalization@QFont@@XZ
?fontChange@QWidget@@MAEXABVQFont@@@Z
?fontEmbeddingEnabled@QPrinter@@QBE_NXZ
?fontEngine@QTextEngine@@QBEPAVQFontEngine@@ABUQScriptItem@@PAUQFixed@@1@Z
?fontFamily@QTextCharFormat@@QBE?AVQString@@XZ
?fontFamily@QTextEdit@@QBE?AVQString@@XZ
?fontFilters@QFontComboBox@@QBE?AV?$QFlags@W4FontFilter@QFontComboBox@@@@XZ
?fontFixedPitch@QTextCharFormat@@QBE_NXZ
?fontInfo@QPainter@@QBE?AVQFontInfo@@XZ
?fontInfo@QWidget@@QBE?AVQFontInfo@@XZ
?fontItalic@QTextCharFormat@@QBE_NXZ
?fontItalic@QTextEdit@@QBE_NXZ
?fontLetterSpacing@QTextCharFormat@@QBENXZ
?fontMetrics@QApplication@@SA?AVQFontMetrics@@XZ
?fontMetrics@QPainter@@QBE?AVQFontMetrics@@XZ
?fontMetrics@QWidget@@QBE?AVQFontMetrics@@XZ
?fontOverline@QTextCharFormat@@QBE_NXZ
?fontPointSize@QTextCharFormat@@QBENXZ
?fontPointSize@QTextEdit@@QBENXZ
?fontStrikeOut@QTextCharFormat@@QBE_NXZ
?fontUnderline@QTextCharFormat@@QBE_NXZ
?fontUnderline@QTextEdit@@QBE_NXZ
?fontWeight@QTextCharFormat@@QBEHXZ
?fontWeight@QTextEdit@@QBEHXZ
?fontWordSpacing@QTextCharFormat@@QBENXZ
?forceShow@QProgressDialog@@IAEXXZ
?foreground@QColorGroup@@QBEABVQColor@@XZ
?foreground@QListWidgetItem@@QBE?AVQBrush@@XZ
?foreground@QPalette@@QBEABVQBrush@@XZ
?foreground@QStandardItem@@QBE?AVQBrush@@XZ
?foreground@QTableWidgetItem@@QBE?AVQBrush@@XZ
?foreground@QTextFormat@@QBE?AVQBrush@@XZ
?foreground@QTreeWidgetItem@@QBE?AVQBrush@@H@Z
?foregroundBrush@QGraphicsScene@@QBE?AVQBrush@@XZ
?foregroundBrush@QGraphicsView@@QBE?AVQBrush@@XZ
?foregroundColor@QAccessibleInterface@@QAE?AVQColor@@XZ
?foregroundColor@QWidget@@QBEABVQColor@@XZ
?foregroundRole@QWidget@@QBE?AW4ColorRole@QPalette@@XZ
?formAlignment@QFormLayout@@QBE?AV?$QFlags@W4AlignmentFlag@Qt@@@@XZ
?format@QAbstractTextDocumentLayout@@IAE?AVQTextCharFormat@@H@Z
?format@QDropEvent@@UBEPBDH@Z
?format@QImage@@QBE?AW4Format@1@XZ
?format@QImageIOHandler@@QBE?AVQByteArray@@XZ
?format@QImageReader@@QBE?AVQByteArray@@XZ
?format@QImageWriter@@QBE?AVQByteArray@@XZ
?format@QMovie@@QBE?AVQByteArray@@XZ
?format@QPictureIO@@QBEPBDXZ
?format@QProgressBar@@QBE?AVQString@@XZ
?format@QSyntaxHighlighter@@IBE?AVQTextCharFormat@@H@Z
?format@QTextEngine@@QBE?AVQTextCharFormat@@PBUQScriptItem@@@Z
?format@QTextFormatCollection@@QBE?AVQTextFormat@@H@Z
?format@QTextInlineObject@@QBE?AVQTextFormat@@XZ
?format@QTextList@@QBE?AVQTextListFormat@@XZ
?format@QTextObject@@QBE?AVQTextFormat@@XZ
?format@QTextTable@@QBE?AVQTextTableFormat@@XZ
?format@QTextTableCell@@QBE?AVQTextCharFormat@@XZ
?formatIndex@QAbstractTextDocumentLayout@@IAEHH@Z
?formatIndex@QTextEngine@@QBEHPBUQScriptItem@@@Z
?formatIndex@QTextInlineObject@@QBEHXZ
?formatIndex@QTextObject@@QBEHXZ
?formats@QTextEngine@@QBEPAVQTextFormatCollection@@XZ
?forward@QTextBrowser@@UAEXXZ
?forwardAvailable@QTextBrowser@@IAEX_N@Z
?forwardHistoryCount@QTextBrowser@@QBEHXZ
?fragment@iterator@QTextBlock@@QBE?AVQTextFragment@@XZ
?frame@QLineEdit@@QBE_NXZ
?frameAt@QTextDocument@@QBEPAVQTextFrame@@H@Z
?frameBoundingRect@QPlainTextDocumentLayout@@UBE?AVQRectF@@PAVQTextFrame@@@Z
?frameChanged@QMovie@@IAEXH@Z
?frameCount@QMovie@@QBEHXZ
?frameFormat@QTextFrame@@QBE?AVQTextFrameFormat@@XZ
?frameGeometry@QWidget@@QBE?AVQRect@@XZ
?frameImage@QMovie@@QBE?AVQImage@@XZ
?frameNumber@QMovie@@QBEHXZ
?framePixmap@QMovie@@QBE?AVQPixmap@@XZ
?frameRect@QFrame@@QBE?AVQRect@@XZ
?frameRect@QLineEdit@@QBE?AVQRect@@XZ
?frameRect@QMenuBar@@QBE?AVQRect@@XZ
?frameRect@QMovie@@QBE?AVQRect@@XZ
?frameShadow@QFrame@@QBE?AW4Shadow@1@XZ
?frameShadow@QLineEdit@@QBE?AW4DummyFrame@1@XZ
?frameShadow@QMenuBar@@QBE?AW4DummyFrame@1@XZ
?frameShape@QFrame@@QBE?AW4Shape@1@XZ
?frameShape@QLineEdit@@QBE?AW4DummyFrame@1@XZ
?frameShape@QMenuBar@@QBE?AW4DummyFrame@1@XZ
?frameSize@QWidget@@QBE?AVQSize@@XZ
?frameStrut@QWidgetPrivate@@QBE?AVQRect@@XZ
?frameStyle@QFrame@@QBEHXZ
?frameStyle@QLineEdit@@QBEHXZ
?frameStyle@QMenuBar@@QBEHXZ
?frameWidth@QFrame@@QBEHXZ
?frameWidth@QLineEdit@@QBEHXZ
?frameWidth@QMenu@@QBEHXZ
?frameWidth@QMenuBar@@QBEHXZ
?free@?$QList@VQItemSelectionRange@@@@AAEXPAUData@QListData@@@Z
?freeMemory@QTextEngine@@QAEXXZ
?freeze@QLayout@@QAEXHH@Z
?fromCmyk@QColor@@SA?AV1@HHHHH@Z
?fromCmykF@QColor@@SA?AV1@NNNNN@Z
?fromData@QBitmap@@SA?AV1@ABVQSize@@PBEW4Format@QImage@@@Z
?fromData@QImage@@SA?AV1@ABVQByteArray@@PBD@Z
?fromData@QImage@@SA?AV1@PBEHPBD@Z
?fromFile@QPixmapData@@UAEXABVQString@@PBDV?$QFlags@W4ImageConversionFlag@Qt@@@@@Z
?fromHsv@QColor@@SA?AV1@HHHH@Z
?fromHsvF@QColor@@SA?AV1@NNNN@Z
?fromHtml@QTextDocumentFragment@@SA?AV1@ABVQString@@@Z
?fromHtml@QTextDocumentFragment@@SA?AV1@ABVQString@@PBVQTextDocument@@@Z
?fromImage@QBitmap@@SA?AV1@ABVQImage@@V?$QFlags@W4ImageConversionFlag@Qt@@@@@Z
?fromImage@QPixmap@@SA?AV1@ABVQImage@@V?$QFlags@W4ImageConversionFlag@Qt@@@@@Z
?fromOrToLayoutItemRect@QWidgetPrivate@@QBE?AVQRect@@ABV2@H@Z
?fromPage@QAbstractPrintDialog@@QBEHXZ
?fromPage@QPrinter@@QBEHXZ
?fromPlainText@QTextDocumentFragment@@SA?AV1@ABVQString@@@Z
?fromPoints@QBezier@@SA?AV1@ABVQPointF@@000@Z
?fromRgb@QColor@@SA?AV1@HHHH@Z
?fromRgb@QColor@@SA?AV1@I@Z
?fromRgbF@QColor@@SA?AV1@NNNN@Z
?fromRgba@QColor@@SA?AV1@I@Z
?fromSet@?$QList@VQItemSelectionRange@@@@SA?AV1@ABV?$QSet@VQItemSelectionRange@@@@@Z
?fromStdList@?$QList@VQItemSelectionRange@@@@SA?AV1@ABV?$list@VQItemSelectionRange@@V?$allocator@VQItemSelectionRange@@@std@@@std@@@Z
?fromString@QFont@@QAE_NABVQString@@@Z
?fromString@QKeySequence@@SA?AV1@ABVQString@@W4SequenceFormat@1@@Z
?fromVector@?$QList@VQItemSelectionRange@@@@SA?AV1@ABV?$QVector@VQItemSelectionRange@@@@@Z
?fromWinHBITMAP@QPixmap@@SA?AV1@PAUHBITMAP__@@W4HBitmapFormat@1@@Z
?front@?$QList@VQItemSelectionRange@@@@QAEAAVQItemSelectionRange@@XZ
?front@?$QList@VQItemSelectionRange@@@@QBEABVQItemSelectionRange@@XZ
?fullPage@QPrinter@@QBE_NXZ
?gamma@QImageWriter@@QBEMXZ
?gamma@QPictureIO@@QBEMXZ
?generatedIconPixmap@QCleanlooksStyle@@UBE?AVQPixmap@@W4Mode@QIcon@@ABV2@PBVQStyleOption@@@Z
?generatedIconPixmap@QCommonStyle@@UBE?AVQPixmap@@W4Mode@QIcon@@ABV2@PBVQStyleOption@@@Z
?geometriesChanged@QHeaderView@@IAEXXZ
?geometry@QGraphicsLayoutItem@@QBE?AVQRectF@@XZ
?geometry@QLayout@@UBE?AVQRect@@XZ
?geometry@QSpacerItem@@UBE?AVQRect@@XZ
?geometry@QSystemTrayIcon@@QBE?AVQRect@@XZ
?geometry@QWidget@@QBEABVQRect@@XZ
?geometry@QWidgetItem@@UBE?AVQRect@@XZ
?geometry@QWindowSurface@@QBE?AVQRect@@XZ
?getCMap@QFontEngine@@SAPBEPBEIPA_NPAH@Z
?getCmyk@QColor@@QAEXPAH0000@Z
?getCmykF@QColor@@QAEXPAN0000@Z
?getColor@QColorDialog@@SA?AVQColor@@ABV2@PAVQWidget@@@Z
?getColor@QColorDialog@@SA?AVQColor@@ABV2@PAVQWidget@@PBD@Z
?getContentsMargins@QGraphicsLayout@@UBEXPAN000@Z
?getContentsMargins@QGraphicsLayoutItem@@UBEXPAN000@Z
?getContentsMargins@QGraphicsWidget@@UBEXPAN000@Z
?getContentsMargins@QLayout@@QBEXPAH000@Z
?getContentsMargins@QWidget@@QBEXPAH000@Z
?getDC@QPaintDevice@@UBEPAUHDC__@@XZ
?getDC@QPaintEngine@@UBEPAUHDC__@@XZ
?getDC@QPrinter@@UBEPAUHDC__@@XZ
?getDC@QWidget@@UBEPAUHDC__@@XZ
?getDouble@QInputDialog@@SANABVQString@@0NNNHPA_NPAVQWidget@@PBDV?$QFlags@W4WindowType@Qt@@@@@Z
?getDouble@QInputDialog@@SANPAVQWidget@@ABVQString@@1NNNHPA_NV?$QFlags@W4WindowType@Qt@@@@@Z
?getExistingDirectory@QFileDialog@@SA?AVQString@@ABV2@PAVQWidget@@PBD0_N3@Z
?getExistingDirectory@QFileDialog@@SA?AVQString@@PAVQWidget@@ABV2@1V?$QFlags@W4Option@QFileDialog@@@@@Z
?getFont@QFontDialog@@CA?AVQFont@@PA_NPBV2@PAVQWidget@@@Z
?getFont@QFontDialog@@SA?AVQFont@@PA_NABV2@PAVQWidget@@@Z
?getFont@QFontDialog@@SA?AVQFont@@PA_NABV2@PAVQWidget@@ABVQString@@@Z
?getFont@QFontDialog@@SA?AVQFont@@PA_NABV2@PAVQWidget@@PBD@Z
?getFont@QFontDialog@@SA?AVQFont@@PA_NPAVQWidget@@@Z
?getFont@QFontDialog@@SA?AVQFont@@PA_NPAVQWidget@@PBD@Z
?getGlyphPositions@QFontEngine@@QAEXPBUQGlyphLayout@@HABVQTransform@@V?$QFlags@W4RenderFlag@QTextItem@@@@AAV?$QVarLengthArray@I$0BAA@@@AAV?$QVarLengthArray@UQFixedPoint@@$0BAA@@@@Z
?getHsv@QColor@@QBEXPAH000@Z
?getHsvF@QColor@@QBEXPAN000@Z
?getInteger@QInputDialog@@SAHABVQString@@0HHHHPA_NPAVQWidget@@PBDV?$QFlags@W4WindowType@Qt@@@@@Z
?getInteger@QInputDialog@@SAHPAVQWidget@@ABVQString@@1HHHHPA_NV?$QFlags@W4WindowType@Qt@@@@@Z
?getItem@QInputDialog@@SA?AVQString@@ABV2@0ABVQStringList@@H_NPA_NPAVQWidget@@PBDV?$QFlags@W4WindowType@Qt@@@@@Z
?getItem@QInputDialog@@SA?AVQString@@PAVQWidget@@ABV2@1ABVQStringList@@H_NPA_NV?$QFlags@W4WindowType@Qt@@@@@Z
?getItemPosition@QFormLayout@@QBEXHPAHPAW4ItemRole@1@@Z
?getItemPosition@QGridLayout@@QAEXHPAH000@Z
?getLayoutItemMargins@QWidgetPrivate@@QBEXPAH000@Z
?getLayoutPosition@QFormLayout@@QBEXPAVQLayout@@PAHPAW4ItemRole@1@@Z
?getMargin@QLayoutPrivate@@QBEXPAHHW4PixelMetric@QStyle@@@Z
?getOpaqueChildren@QWidgetPrivate@@QBEABVQRegion@@XZ
?getOpaqueRegion@QWidgetPrivate@@QBE?AVQRegion@@XZ
?getOpaqueSiblings@QWidgetPrivate@@QBE?AVQRegion@@ABV2@@Z
?getOpenFileName@QFileDialog@@SA?AVQString@@ABV2@0PAVQWidget@@PBD0PAV2@_N@Z
?getOpenFileName@QFileDialog@@SA?AVQString@@PAVQWidget@@ABV2@11PAV2@V?$QFlags@W4Option@QFileDialog@@@@@Z
?getOpenFileNames@QFileDialog@@SA?AVQStringList@@ABVQString@@0PAVQWidget@@PBD0PAV3@_N@Z
?getOpenFileNames@QFileDialog@@SA?AVQStringList@@PAVQWidget@@ABVQString@@11PAV4@V?$QFlags@W4Option@QFileDialog@@@@@Z
?getPageMargins@QPrinter@@QBEXPAN000W4Unit@1@@Z
?getPaintContext@QPlainTextEdit@@IBE?AUPaintContext@QAbstractTextDocumentLayout@@XZ
?getPaintContext@QTextControl@@QBE?AUPaintContext@QAbstractTextDocumentLayout@@PAVQWidget@@@Z
?getPointInOutline@QFontEngine@@UAE?AW4HB_Error@@IHIPAH0PAI@Z
?getPrinterDC@QPrintEngine@@UBEPAUHDC__@@XZ
?getRange@QSplitter@@QBEXHPAH0@Z
?getRgb@QColor@@QBEXPAH000@Z
?getRgbF@QColor@@QBEXPAN000@Z
?getRgba@QColor@@QBEXPAH000@Z
?getRgba@QColorDialog@@SAIIPA_NPAVQWidget@@@Z
?getRgba@QColorDialog@@SAIIPA_NPAVQWidget@@PBD@Z
?getSaveFileName@QFileDialog@@SA?AVQString@@ABV2@0PAVQWidget@@PBD0PAV2@_N@Z
?getSaveFileName@QFileDialog@@SA?AVQString@@PAVQWidget@@ABV2@11PAV2@V?$QFlags@W4Option@QFileDialog@@@@@Z
?getSelection@QLineEdit@@QAE_NPAH0@Z
?getSfntTable@QFontEngine@@QBE?AVQByteArray@@I@Z
?getSfntTableData@QFontEngine@@UBE_NIPAEPAI@Z
?getText@QInputDialog@@SA?AVQString@@ABV2@0W4EchoMode@QLineEdit@@0PA_NPAVQWidget@@PBDV?$QFlags@W4WindowType@Qt@@@@@Z
?getText@QInputDialog@@SA?AVQString@@PAVQWidget@@ABV2@1W4EchoMode@QLineEdit@@1PA_NV?$QFlags@W4WindowType@Qt@@@@@Z
?getTrueTypeGlyphIndex@QFontEngine@@SAIPBEI@Z
?getUnscaledGlyph@QFontEngine@@UAEXIPAVQPainterPath@@PAUglyph_metrics_t@@@Z
?getWidgetPosition@QFormLayout@@QBEXPAVQWidget@@PAHPAW4ItemRole@1@@Z
?getWindowFrameMargins@QGraphicsWidget@@QBEXPAN000@Z
?globalPos@QContextMenuEvent@@QBEABVQPoint@@XZ
?globalPos@QHelpEvent@@QBEABVQPoint@@XZ
?globalPos@QMouseEvent@@QBEABVQPoint@@XZ
?globalPos@QTabletEvent@@QBEABVQPoint@@XZ
?globalPos@QWheelEvent@@QBEABVQPoint@@XZ
?globalStrut@QApplication@@SA?AVQSize@@XZ
?globalX@QContextMenuEvent@@QBEHXZ
?globalX@QHelpEvent@@QBEHXZ
?globalX@QMouseEvent@@QBEHXZ
?globalX@QTabletEvent@@QBEHXZ
?globalX@QWheelEvent@@QBEHXZ
?globalY@QContextMenuEvent@@QBEHXZ
?globalY@QHelpEvent@@QBEHXZ
?globalY@QMouseEvent@@QBEHXZ
?globalY@QTabletEvent@@QBEHXZ
?globalY@QWheelEvent@@QBEHXZ
?glyphCount@QFontEngine@@UBEHXZ
?glyphs@QTextEngine@@QBEPAUQGlyphLayout@@PBUQScriptItem@@@Z
?gotFocus@QFocusEvent@@QBE_NXZ
?grabKeyboard@QGraphicsItem@@QAEXXZ
?grabKeyboard@QWidget@@QAEXXZ
?grabKeyboardEvent@QGraphicsWidget@@MAEXPAVQEvent@@@Z
?grabMouse@QGraphicsItem@@QAEXXZ
?grabMouse@QWidget@@QAEXABVQCursor@@@Z
?grabMouse@QWidget@@QAEXXZ
?grabMouseEvent@QGraphicsProxyWidget@@MAEXPAVQEvent@@@Z
?grabMouseEvent@QGraphicsWidget@@MAEXPAVQEvent@@@Z
?grabMouseWhileInWindow@QWidgetPrivate@@QAEXXZ
?grabShortcut@QWidget@@QAEHABVQKeySequence@@W4ShortcutContext@Qt@@@Z
?grabWidget@QPixmap@@SA?AV1@PAVQWidget@@ABVQRect@@@Z
?grabWidget@QPixmap@@SA?AV1@PAVQWidget@@HHHH@Z
?grabWidget@QWindowSurface@@UBE?AVQPixmap@@PBVQWidget@@ABVQRect@@@Z
?grabWindow@QPixmap@@SA?AV1@PAUHWND__@@HHHH@Z
?gradient@QBrush@@QBEPBVQGradient@@XZ
?graphicsProxyWidget@QWidgetPrivate@@QBEPAVQGraphicsProxyWidget@@XZ
?green@QColor@@QBEHXZ
?greenF@QColor@@QBENXZ
?gridSize@QListView@@QBE?AVQSize@@XZ
?gridStyle@QTableView@@QBE?AW4PenStyle@Qt@@XZ
?group@QAbstractButton@@QBEPAVQButtonGroup@@XZ
?group@QGraphicsItem@@QBEPAVQGraphicsItemGroup@@XZ
?group@QUndoView@@QBEPAVQUndoGroup@@XZ
?hPal@QColormap@@SAPAUHPALETTE__@@XZ
?handle@QCursor@@QBEPAUHICON__@@XZ
?handle@QFont@@QBEPAUHFONT__@@XZ
?handle@QRegion@@QBEPAUHRGN__@@XZ
?handle@QSplitter@@QBEPAVQSplitterHandle@@H@Z
?handleRect@QToolBarLayout@@QBE?AVQRect@@XZ
?handleWidth@QSplitter@@QBEHXZ
?handlerForObject@QAbstractTextDocumentLayout@@QBEPAVQTextObjectInterface@@H@Z
?handlesChildEvents@QGraphicsItem@@QBE_NXZ
?harfbuzzFace@QFontEngine@@QBEPAUHB_FaceRec_@@XZ
?harfbuzzFont@QFontEngine@@QBEPAUHB_Font_@@XZ
?hasAcceptableInput@QAbstractSpinBox@@QBE_NXZ
?hasAcceptableInput@QLineEdit@@QBE_NXZ
?hasAlpha@QPixmap@@QBE_NXZ
?hasAlphaBuffer@QImage@@QBE_NXZ
?hasAlphaChannel@QImage@@QBE_NXZ
?hasAlphaChannel@QPixmap@@QBE_NXZ
?hasAutoScroll@QAbstractItemView@@QBE_NXZ
?hasBackground@QWidgetPrivate@@QBE_NXZ
?hasChildren@QDirModel@@UBE_NABVQModelIndex@@@Z
?hasChildren@QFileSystemModel@@UBE_NABVQModelIndex@@@Z
?hasChildren@QProxyModel@@UBE_NABVQModelIndex@@@Z
?hasChildren@QSortFilterProxyModel@@UBE_NABVQModelIndex@@@Z
?hasChildren@QStandardItem@@QBE_NXZ
?hasChildren@QStandardItemModel@@UBE_NABVQModelIndex@@@Z
?hasClipping@QItemDelegate@@QBE_NXZ
?hasClipping@QPainter@@QBE_NXZ
?hasComplexSelection@QTextCursor@@QBE_NXZ
?hasCursor@QGraphicsItem@@QBE_NXZ
?hasCustomDragCursors@QDragManager@@QBE_NXZ
?hasEditor@QAbstractItemViewPrivate@@QBE_NABVQModelIndex@@@Z
?hasExpandFlag@QToolBarLayout@@QBE_NXZ
?hasExtendedInfo@QKeyEvent@@QBE_NXZ
?hasExtendedInfo@QMouseEvent@@QBE_NXZ
?hasFeature@QPaintEngine@@QBE_NV?$QFlags@W4PaintEngineFeature@QPaintEngine@@@@@Z
?hasFocus@QGraphicsItem@@QBE_NXZ
?hasFocus@QGraphicsScene@@QBE_NXZ
?hasFocus@QWidget@@QBE_NXZ
?hasFormatCached@QTextFormatCollection@@QBE_NABVQTextFormat@@@Z
?hasFormats@QTextEngine@@QBE_NXZ
?hasFrame@QAbstractSpinBox@@QBE_NXZ
?hasFrame@QComboBox@@QBE_NXZ
?hasFrame@QLineEdit@@QBE_NXZ
?hasGlobalMouseTracking@QApplication@@SA_NXZ
?hasHeightForWidth@QBoxLayout@@UBE_NXZ
?hasHeightForWidth@QFormLayout@@UBE_NXZ
?hasHeightForWidth@QGridLayout@@UBE_NXZ
?hasHeightForWidth@QLayoutItem@@UBE_NXZ
?hasHeightForWidth@QSizePolicy@@QBE_NXZ
?hasHeightForWidth@QWidgetItem@@UBE_NXZ
?hasMarkedText@QLineEdit@@QBE_NXZ
?hasMouse@QWidget@@QBE_NXZ
?hasMouseTracking@QWidget@@QBE_NXZ
?hasNext@Parser@QCss@@QBE_NXZ
?hasProperty@QTextFormat@@QBE_NH@Z
?hasScaledContents@QLabel@@QBE_NXZ
?hasSelectedText@QLineEdit@@QBE_NXZ
?hasSelectedText@QTextEdit@@QBE_NXZ
?hasSelection@QItemSelectionModel@@QBE_NXZ
?hasSelection@QTextCursor@@QBE_NXZ
?hasTracking@QAbstractSlider@@QBE_NXZ
?hasViewXForm@QPainter@@QBE_NXZ
?hasVisitedPage@QWizard@@QBE_NH@Z
?hasWorldXForm@QPainter@@QBE_NXZ
?header@QTreeView@@QBEPAVQHeaderView@@XZ
?headerData@QAbstractProxyModel@@UBE?AVQVariant@@HW4Orientation@Qt@@H@Z
?headerData@QDirModel@@UBE?AVQVariant@@HW4Orientation@Qt@@H@Z
?headerData@QFileSystemModel@@UBE?AVQVariant@@HW4Orientation@Qt@@H@Z
?headerData@QProxyModel@@UBE?AVQVariant@@HW4Orientation@Qt@@H@Z
?headerData@QSortFilterProxyModel@@UBE?AVQVariant@@HW4Orientation@Qt@@H@Z
?headerData@QStandardItemModel@@UBE?AVQVariant@@HW4Orientation@Qt@@H@Z
?headerDataChanged@QHeaderView@@QAEXW4Orientation@Qt@@HH@Z
?headerItem@QTreeWidget@@QBEPAVQTreeWidgetItem@@XZ
?headerRowCount@QTextTableFormat@@QBEHXZ
?headerTextFormat@QCalendarWidget@@QBE?AVQTextCharFormat@@XZ
?height@QFontMetrics@@QBEHXZ
?height@QFontMetricsF@@QBENXZ
?height@QGraphicsScene@@QBENXZ
?height@QImage@@QBEHXZ
?height@QItemSelectionRange@@QBEHXZ
?height@QPaintDevice@@QBEHXZ
?height@QPixmap@@QBEHXZ
?height@QPixmapData@@QBEHXZ
?height@QTextFrameFormat@@QBE?AVQTextLength@@XZ
?height@QTextImageFormat@@QBENXZ
?height@QTextInlineObject@@QBENXZ
?height@QTextLine@@QBENXZ
?height@QWidget@@QBEHXZ
?heightForWidth@QBoxLayout@@UBEHH@Z
?heightForWidth@QCommandLinkButton@@MBEHH@Z
?heightForWidth@QFormLayout@@UBEHH@Z
?heightForWidth@QGridLayout@@UBEHH@Z
?heightForWidth@QLabel@@UBEHH@Z
?heightForWidth@QLayoutItem@@UBEHH@Z
?heightForWidth@QMenuBar@@UBEHH@Z
?heightForWidth@QWidget@@UBEHH@Z
?heightForWidth@QWidgetItem@@UBEHH@Z
?heightForWidth@QWidgetItemV2@@UBEHH@Z
?heightMM@QPaintDevice@@QBEHXZ
?helpEvent@QAbstractItemDelegate@@QAE_NPAVQHelpEvent@@PAVQAbstractItemView@@ABVQStyleOptionViewItem@@ABVQModelIndex@@@Z
?helpEvent@QGraphicsScene@@MAEXPAVQGraphicsSceneHelpEvent@@@Z
?helpRequested@QDialogButtonBox@@IAEXXZ
?helpRequested@QWizard@@IAEXXZ
?hiResGlobalPos@QTabletEvent@@QBEABVQPointF@@XZ
?hiResGlobalX@QTabletEvent@@QBENXZ
?hiResGlobalY@QTabletEvent@@QBENXZ
?hiddenSectionCount@QHeaderView@@QBEHXZ
?hidden_focus_widget@QApplicationPrivate@@2PAVQWidget@@A
?hide@QGraphicsItem@@QAEXXZ
?hide@QSystemTrayIcon@@QAEXXZ
?hide@QWidget@@QAEXXZ
?hideChildren@QWidgetPrivate@@QAEX_N@Z
?hideColumn@QTableView@@QAEXH@Z
?hideColumn@QTreeView@@QAEXH@Z
?hideEvent@QAbstractSpinBox@@MAEXPAVQHideEvent@@@Z
?hideEvent@QComboBox@@MAEXPAVQHideEvent@@@Z
?hideEvent@QGraphicsProxyWidget@@MAEXPAVQHideEvent@@@Z
?hideEvent@QGraphicsWidget@@MAEXPAVQHideEvent@@@Z
?hideEvent@QMdiSubWindow@@MAEXPAVQHideEvent@@@Z
?hideEvent@QMenu@@MAEXPAVQHideEvent@@@Z
?hideEvent@QScrollBar@@MAEXPAVQHideEvent@@@Z
?hideEvent@QSizeGrip@@MAEXPAVQHideEvent@@@Z
?hideEvent@QWidget@@MAEXPAVQHideEvent@@@Z
?hideEvent@QWorkspace@@MAEXPAVQHideEvent@@@Z
?hideOrShow@QStatusBar@@IAEXXZ
?hidePopup@QComboBox@@UAEXXZ
?hideRow@QTableView@@QAEXH@Z
?hideSection@QHeaderView@@QAEXH@Z
?hideTearOffMenu@QMenu@@QAEXXZ
?hideText@QToolTip@@SAXXZ
?hideText@QWhatsThis@@SAXXZ
?hide_helper@QWidgetPrivate@@QAEXXZ
?hide_sys@QWidgetPrivate@@QAEXXZ
?highlight@QColorGroup@@QBEABVQColor@@XZ
?highlight@QPalette@@QBEABVQBrush@@XZ
?highlightSections@QHeaderView@@QBE_NXZ
?highlighted@QComboBox@@IAEXABVQString@@@Z
?highlighted@QComboBox@@IAEXH@Z
?highlighted@QCompleter@@IAEXABVQModelIndex@@@Z
?highlighted@QCompleter@@IAEXABVQString@@@Z
?highlighted@QMenu@@IAEXH@Z
?highlighted@QMenuBar@@IAEXH@Z
?highlighted@QTextBrowser@@IAEXABVQString@@@Z
?highlighted@QTextBrowser@@IAEXABVQUrl@@@Z
?highlightedText@QColorGroup@@QBEABVQColor@@XZ
?highlightedText@QPalette@@QBEABVQBrush@@XZ
?history@QFileDialog@@QBE?AVQStringList@@XZ
?historyChanged@QTextBrowser@@IAEXXZ
?historyTitle@QTextBrowser@@QBE?AVQString@@H@Z
?historyUrl@QTextBrowser@@QBE?AVQUrl@@H@Z
?hitButton@QAbstractButton@@MBE_NABVQPoint@@@Z
?hitButton@QCheckBox@@MBE_NABVQPoint@@@Z
?hitButton@QRadioButton@@MBE_NABVQPoint@@@Z
?hitButton@QToolButton@@MBE_NABVQPoint@@@Z
?hitTest@QPlainTextDocumentLayout@@UBEHABVQPointF@@W4HitTestAccuracy@Qt@@@Z
?hitTest@QTextControl@@UBEHABVQPointF@@W4HitTestAccuracy@Qt@@@Z
?hitTestComplexControl@QCleanlooksStyle@@UBE?AW4SubControl@QStyle@@W4ComplexControl@3@PBVQStyleOptionComplex@@ABVQPoint@@PBVQWidget@@@Z
?hitTestComplexControl@QCommonStyle@@UBE?AW4SubControl@QStyle@@W4ComplexControl@3@PBVQStyleOptionComplex@@ABVQPoint@@PBVQWidget@@@Z
?hitTestComplexControl@QPlastiqueStyle@@UBE?AW4SubControl@QStyle@@W4ComplexControl@3@PBVQStyleOptionComplex@@ABVQPoint@@PBVQWidget@@@Z
?hitTestComplexControl@QWindowsVistaStyle@@UBE?AW4SubControl@QStyle@@W4ComplexControl@3@PBVQStyleOptionComplex@@ABVQPoint@@PBVQWidget@@@Z
?home@QLineEdit@@QAEX_N@Z
?home@QTextBrowser@@UAEXXZ
?horData@QSizePolicy@@QBE?AW4Policy@1@XZ
?horStretch@QSizePolicy@@QBEIXZ
?horizontalAlignment@QApplication@@SA?AV?$QFlags@W4AlignmentFlag@Qt@@@@V2@@Z
?horizontalHeader@QTableView@@QBEPAVQHeaderView@@XZ
?horizontalHeaderFormat@QCalendarWidget@@QBE?AW4HorizontalHeaderFormat@1@XZ
?horizontalHeaderItem@QStandardItemModel@@QBEPAVQStandardItem@@H@Z
?horizontalHeaderItem@QTableWidget@@QBEPAVQTableWidgetItem@@H@Z
?horizontalOffset@QColumnView@@MBEHXZ
?horizontalOffset@QHeaderView@@MBEHXZ
?horizontalOffset@QListView@@MBEHXZ
?horizontalOffset@QTableView@@MBEHXZ
?horizontalOffset@QTreeView@@MBEHXZ
?horizontalPolicy@QSizePolicy@@QBE?AW4Policy@1@XZ
?horizontalScaleAt@QGraphicsItemAnimation@@QBENN@Z
?horizontalScrollBar@QAbstractScrollArea@@QBEPAVQScrollBar@@XZ
?horizontalScrollBarPolicy@QAbstractScrollArea@@QBE?AW4ScrollBarPolicy@Qt@@XZ
?horizontalScrollMode@QAbstractItemView@@QBE?AW4ScrollMode@1@XZ
?horizontalScrollbarAction@QAbstractItemView@@MAEXH@Z
?horizontalScrollbarAction@QTableView@@MAEXH@Z
?horizontalScrollbarAction@QTreeView@@MAEXH@Z
?horizontalScrollbarValueChanged@QAbstractItemView@@MAEXH@Z
?horizontalShearAt@QGraphicsItemAnimation@@QBENN@Z
?horizontalSpacing@QFormLayout@@QBEHXZ
?horizontalSpacing@QGraphicsGridLayout@@QBENXZ
?horizontalSpacing@QGridLayout@@QBEHXZ
?horizontalStepsPerItem@QAbstractItemView@@IBEHXZ
?horizontalStretch@QSizePolicy@@QBEHXZ
?hotSpot@QCursor@@QBE?AVQPoint@@XZ
?hotSpot@QDrag@@QBE?AVQPoint@@XZ
?hover@QAction@@QAEXXZ
?hoverEnterEvent@QGraphicsItem@@MAEXPAVQGraphicsSceneHoverEvent@@@Z
?hoverEnterEvent@QGraphicsProxyWidget@@MAEXPAVQGraphicsSceneHoverEvent@@@Z
?hoverEnterEvent@QGraphicsTextItem@@MAEXPAVQGraphicsSceneHoverEvent@@@Z
?hoverLeaveEvent@QGraphicsItem@@MAEXPAVQGraphicsSceneHoverEvent@@@Z
?hoverLeaveEvent@QGraphicsProxyWidget@@MAEXPAVQGraphicsSceneHoverEvent@@@Z
?hoverLeaveEvent@QGraphicsTextItem@@MAEXPAVQGraphicsSceneHoverEvent@@@Z
?hoverLeaveEvent@QGraphicsWidget@@MAEXPAVQGraphicsSceneHoverEvent@@@Z
?hoverMoveEvent@QGraphicsItem@@MAEXPAVQGraphicsSceneHoverEvent@@@Z
?hoverMoveEvent@QGraphicsProxyWidget@@MAEXPAVQGraphicsSceneHoverEvent@@@Z
?hoverMoveEvent@QGraphicsTextItem@@MAEXPAVQGraphicsSceneHoverEvent@@@Z
?hoverMoveEvent@QGraphicsWidget@@MAEXPAVQGraphicsSceneHoverEvent@@@Z
?hovered@QAction@@IAEXXZ
?hovered@QActionGroup@@IAEXPAVQAction@@@Z
?hovered@QMenu@@IAEXPAVQAction@@@Z
?hovered@QMenuBar@@IAEXPAVQAction@@@Z
?href@QWhatsThisClickedEvent@@QBE?AVQString@@XZ
?hsv@QColor@@QBEXPAH00@Z
?hue@QColor@@QBEHXZ
?hueF@QColor@@QBENXZ
?icon@QAbstractButton@@QBE?AVQIcon@@XZ
?icon@QAction@@QBE?AVQIcon@@XZ
?icon@QFileIconProvider@@UBE?AVQIcon@@ABVQFileInfo@@@Z
?icon@QFileIconProvider@@UBE?AVQIcon@@W4IconType@1@@Z
?icon@QListWidgetItem@@QBE?AVQIcon@@XZ
?icon@QMenu@@QBE?AVQIcon@@XZ
?icon@QMessageBox@@QBE?AW4Icon@1@XZ
?icon@QStandardItem@@QBE?AVQIcon@@XZ
?icon@QSystemTrayIcon@@QBE?AVQIcon@@XZ
?icon@QTableWidgetItem@@QBE?AVQIcon@@XZ
?icon@QTreeWidgetItem@@QBE?AVQIcon@@H@Z
?icon@QWidget@@QBEPBVQPixmap@@XZ
?iconPixmap@QMessageBox@@QBE?AVQPixmap@@XZ
?iconProvider@QDirModel@@QBEPAVQFileIconProvider@@XZ
?iconProvider@QFileDialog@@QBEPAVQFileIconProvider@@XZ
?iconProvider@QFileSystemModel@@QBEPAVQFileIconProvider@@XZ
?iconSet@QAbstractButton@@QBEPAVQIcon@@XZ
?iconSet@QAction@@QBE?AVQIcon@@XZ
?iconSet@QMenu@@QBE?AVQIcon@@H@Z
?iconSet@QMenuBar@@QBE?AVQIcon@@H@Z
?iconSet@QToolButton@@QBE?AVQIcon@@XZ
?iconSet@QToolButton@@QBE?AVQIcon@@_N@Z
?iconSize@QAbstractButton@@QBE?AVQSize@@XZ
?iconSize@QAbstractItemView@@QBE?AVQSize@@XZ
?iconSize@QComboBox@@QBE?AVQSize@@XZ
?iconSize@QMainWindow@@QBE?AVQSize@@XZ
?iconSize@QTabBar@@QBE?AVQSize@@XZ
?iconSize@QTabWidget@@QBE?AVQSize@@XZ
?iconSize@QToolBar@@QBE?AVQSize@@XZ
?iconSizeChanged@QMainWindow@@IAEXABVQSize@@@Z
?iconSizeChanged@QToolBar@@IAEXABVQSize@@@Z
?iconText@QAction@@QBE?AVQString@@XZ
?iconText@QWidget@@QBE?AVQString@@XZ
?iconValue@Declaration@QCss@@QBE?AVQIcon@@XZ
?iconify@QWidget@@QAEXXZ
?id@QButtonGroup@@QBEHPAVQAbstractButton@@@Z
?id@QMenuItem@@QBEHXZ
?id@QShortcut@@QBEHXZ
?id@QUndoCommand@@UBEHXZ
?idAt@QMenu@@QBEHH@Z
?idAt@QMenuBar@@QBEHH@Z
?idealWidth@QTextDocument@@QBENXZ
?ignore@QDragMoveEvent@@QAEXABVQRect@@@Z
?ignore@QDragMoveEvent@@QAEXXZ
?image@QClipboard@@QBE?AVQImage@@W4Mode@1@@Z
?imageCount@QImageIOHandler@@UBEHXZ
?imageCount@QImageReader@@QBEHXZ
?imageFormat@QImageReader@@SA?AVQByteArray@@ABVQString@@@Z
?imageFormat@QImageReader@@SA?AVQByteArray@@PAVQIODevice@@@Z
?imageFormat@QTextFormatCollection@@QBE?AVQTextImageFormat@@H@Z
?inFont@QFontMetrics@@QBE_NVQChar@@@Z
?inFont@QFontMetricsF@@QBE_NVQChar@@@Z
?inPopupMode@QApplicationPrivate@@QBE_NXZ
?inSizeMove@QApplicationPrivate@@2_NA
?inWhatsThisMode@QWhatsThis@@SA_NXZ
?inactive@QPalette@@QBE?AVQColorGroup@@XZ
?indent@QLabel@@QBEHXZ
?indent@QTextBlockFormat@@QBEHXZ
?indent@QTextListFormat@@QBEHXZ
?indentWidth@QTextDocument@@QBENXZ
?indentation@QTreeView@@QBEHXZ
?index@QDirModel@@QBE?AVQModelIndex@@ABVQString@@H@Z
?index@QDirModel@@UBE?AVQModelIndex@@HHABV2@@Z
?index@QFileSystemModel@@QBE?AVQModelIndex@@ABVQString@@H@Z
?index@QFileSystemModel@@UBE?AVQModelIndex@@HHABV2@@Z
?index@QProxyModel@@UBE?AVQModelIndex@@HHABV2@@Z
?index@QSortFilterProxyModel@@UBE?AVQModelIndex@@HHABV2@@Z
?index@QStandardItem@@QBE?AVQModelIndex@@XZ
?index@QStandardItemModel@@UBE?AVQModelIndex@@HHABV2@@Z
?index@QUndoStack@@QBEHXZ
?indexAbove@QTreeView@@QBE?AVQModelIndex@@ABV2@@Z
?indexAdditionalFormats@QTextEngine@@QAEXXZ
?indexAt@QColumnView@@UBE?AVQModelIndex@@ABVQPoint@@@Z
?indexAt@QHeaderView@@MBE?AVQModelIndex@@ABVQPoint@@@Z
?indexAt@QListView@@UBE?AVQModelIndex@@ABVQPoint@@@Z
?indexAt@QTableView@@UBE?AVQModelIndex@@ABVQPoint@@@Z
?indexAt@QTreeView@@UBE?AVQModelIndex@@ABVQPoint@@@Z
?indexBelow@QTreeView@@QBE?AVQModelIndex@@ABV2@@Z
?indexChanged@QUndoGroup@@IAEXH@Z
?indexChanged@QUndoStack@@IAEXH@Z
?indexForEditor@QAbstractItemViewPrivate@@QBE?AVQModelIndex@@PAVQWidget@@@Z
?indexForFormat@QTextFormatCollection@@QAEHABVQTextFormat@@@Z
?indexForIterator@QAbstractItemViewPrivate@@QBE?AVQModelIndex@@ABVconst_iterator@?$QList@U?$QPair@VQPersistentModelIndex@@V?$QPointer@VQWidget@@@@@@@@@Z
?indexForIterator@QAbstractItemViewPrivate@@QBE?AVQModelIndex@@ABViterator@?$QList@U?$QPair@VQPersistentModelIndex@@V?$QPointer@VQWidget@@@@@@@@@Z
?indexFromItem@QListWidget@@IBE?AVQModelIndex@@PAVQListWidgetItem@@@Z
?indexFromItem@QStandardItemModel@@QBE?AVQModelIndex@@PBVQStandardItem@@@Z
?indexFromItem@QTableWidget@@IBE?AVQModelIndex@@PAVQTableWidgetItem@@@Z
?indexFromItem@QTreeWidget@@IBE?AVQModelIndex@@PAVQTreeWidgetItem@@H@Z
?indexOf@?$QList@VQItemSelectionRange@@@@QBEHABVQItemSelectionRange@@H@Z
?indexOf@QLayout@@UBEHPAVQWidget@@@Z
?indexOf@QMenu@@QBEHH@Z
?indexOf@QMenuBar@@QBEHH@Z
?indexOf@QSplitter@@QBEHPAVQWidget@@@Z
?indexOf@QStackedWidget@@QBEHPAVQWidget@@@Z
?indexOf@QTabWidget@@QBEHPAVQWidget@@@Z
?indexOf@QToolBarLayout@@QBEHPAVQAction@@@Z
?indexOf@QToolBarLayout@@UBEHPAVQWidget@@@Z
?indexOf@QToolBox@@QBEHPAVQWidget@@@Z
?indexOfChild@QAccessibleApplication@@UBEHPBVQAccessibleInterface@@@Z
?indexOfChild@QAccessibleWidget@@UBEHPBVQAccessibleInterface@@@Z
?indexOfChild@QAccessibleWidgetEx@@UBEHPBVQAccessibleInterface@@@Z
?indexOfChild@QTreeWidgetItem@@QBEHPAV1@@Z
?indexOfTopLevelItem@QTreeWidget@@QAEHPAVQTreeWidgetItem@@@Z
?indexOfTopLevelItem@QTreeWidget@@QBEHPAVQTreeWidgetItem@@@Z
?indexRowSizeHint@QTreeView@@IBEHABVQModelIndex@@@Z
?indexWidget@QAbstractItemView@@QBEPAVQWidget@@ABVQModelIndex@@@Z
?indexes@QItemSelection@@QBE?AV?$QList@VQModelIndex@@@@XZ
?indexes@QItemSelectionRange@@QBE?AV?$QList@VQModelIndex@@@@XZ
?indexesMoved@QListView@@IAEXABV?$QList@VQModelIndex@@@@@Z
?information@QMessageBox@@SA?AW4StandardButton@1@PAVQWidget@@ABVQString@@1V?$QFlags@W4StandardButton@QMessageBox@@@@W421@@Z
?information@QMessageBox@@SA?AW4StandardButton@1@PAVQWidget@@ABVQString@@1W421@2@Z
?information@QMessageBox@@SAHPAVQWidget@@ABVQString@@1111HH@Z
?information@QMessageBox@@SAHPAVQWidget@@ABVQString@@1HHH@Z
?informativeText@QMessageBox@@QBE?AVQString@@XZ
?inheritStyle@QWidgetPrivate@@QAEXXZ
?init@Parser@QCss@@QAEXABVQString@@_N@Z
?init@QAbstractItemViewPrivate@@QAEXXZ
?init@QBrush@@AAEXABVQColor@@W4BrushStyle@Qt@@@Z
?init@QFramePrivate@@QAEXXZ
?init@QPalette@@AAEXXZ
?init@QPictureIO@@AAEXXZ
?init@QPixmap@@AAEXHHH@Z
?init@QPixmap@@AAEXHHW4Type@1@@Z
?init@QPrinter@@AAEXW4PrinterMode@1@@Z
?init@QStyleOption@@QAEXPBVQWidget@@@Z
?init@QWidgetPrivate@@QAEXPAVQWidget@@V?$QFlags@W4WindowType@Qt@@@@@Z
?initFrom@QPainter@@QAEXPBVQWidget@@@Z
?initFrom@QStyleOption@@QAEXPBVQWidget@@@Z
?initStyleOption@QAbstractSpinBox@@IBEXPAVQStyleOptionSpinBox@@@Z
?initStyleOption@QCheckBox@@IBEXPAVQStyleOptionButton@@@Z
?initStyleOption@QComboBox@@IBEXPAVQStyleOptionComboBox@@@Z
?initStyleOption@QDateTimeEdit@@IBEXPAVQStyleOptionSpinBox@@@Z
?initStyleOption@QDial@@IBEXPAVQStyleOptionSlider@@@Z
?initStyleOption@QDockWidget@@IBEXPAVQStyleOptionDockWidget@@@Z
?initStyleOption@QFocusFrame@@IBEXPAVQStyleOption@@@Z
?initStyleOption@QGraphicsWidget@@MBEXPAVQStyleOption@@@Z
?initStyleOption@QGroupBox@@IBEXPAVQStyleOptionGroupBox@@@Z
?initStyleOption@QHeaderView@@IBEXPAVQStyleOptionHeader@@@Z
?initStyleOption@QLineEdit@@IBEXPAVQStyleOptionFrame@@@Z
?initStyleOption@QMenu@@IBEXPAVQStyleOptionMenuItem@@PBVQAction@@@Z
?initStyleOption@QMenuBar@@IBEXPAVQStyleOptionMenuItem@@PBVQAction@@@Z
?initStyleOption@QProgressBar@@IBEXPAVQStyleOptionProgressBar@@@Z
?initStyleOption@QPushButton@@IBEXPAVQStyleOptionButton@@@Z
?initStyleOption@QRadioButton@@IBEXPAVQStyleOptionButton@@@Z
?initStyleOption@QRubberBand@@IBEXPAVQStyleOptionRubberBand@@@Z
?initStyleOption@QScrollBar@@IBEXPAVQStyleOptionSlider@@@Z
?initStyleOption@QSlider@@IBEXPAVQStyleOptionSlider@@@Z
?initStyleOption@QStyledItemDelegate@@MBEXPAVQStyleOptionViewItem@@ABVQModelIndex@@@Z
?initStyleOption@QTabBar@@IBEXPAVQStyleOptionTab@@H@Z
?initStyleOption@QTabWidget@@IBEXPAVQStyleOptionTabWidgetFrame@@@Z
?initStyleOption@QToolBar@@IBEXPAVQStyleOptionToolBar@@@Z
?initStyleOption@QToolButton@@IBEXPAVQStyleOptionToolButton@@@Z
?initialize@QAccessible@@SAXXZ
?initialize@QApplicationPrivate@@QAEXXZ
?initialize@QColormap@@SAXXZ
?initialize@QFont@@SAXXZ
?initialize@QHeaderView@@IAEXXZ
?initializeColumn@QColumnView@@IBEXPAVQAbstractItemView@@@Z
?initializePage@QWizard@@MAEXH@Z
?initializePage@QWizardPage@@UAEXXZ
?initializeSections@QHeaderView@@IAEXHH@Z
?initializeSections@QHeaderView@@IAEXXZ
?initializeWidgetPaletteHash@QApplicationPrivate@@SAXXZ
?inputContext@QApplication@@QBEPAVQInputContext@@XZ
?inputContext@QApplicationPrivate@@2PAVQInputContext@@A
?inputContext@QWidget@@QAEPAVQInputContext@@XZ
?inputContext@QWidgetPrivate@@QBEPAVQInputContext@@XZ
?inputFormatList@QPicture@@SA?AVQStringList@@XZ
?inputFormats@QPicture@@SA?AV?$QList@VQByteArray@@@@XZ
?inputFormats@QPictureIO@@SA?AV?$QList@VQByteArray@@@@XZ
?inputMask@QLineEdit@@QBE?AVQString@@XZ
?inputMethodEvent@QAbstractItemView@@MAEXPAVQInputMethodEvent@@@Z
?inputMethodEvent@QComboBox@@MAEXPAVQInputMethodEvent@@@Z
?inputMethodEvent@QGraphicsItem@@MAEXPAVQInputMethodEvent@@@Z
?inputMethodEvent@QGraphicsScene@@MAEXPAVQInputMethodEvent@@@Z
?inputMethodEvent@QGraphicsTextItem@@MAEXPAVQInputMethodEvent@@@Z
?inputMethodEvent@QGraphicsView@@MAEXPAVQInputMethodEvent@@@Z
?inputMethodEvent@QLineEdit@@MAEXPAVQInputMethodEvent@@@Z
?inputMethodEvent@QPlainTextEdit@@MAEXPAVQInputMethodEvent@@@Z
?inputMethodEvent@QTextEdit@@MAEXPAVQInputMethodEvent@@@Z
?inputMethodEvent@QWidget@@MAEXPAVQInputMethodEvent@@@Z
?inputMethodQuery@QAbstractItemView@@UBE?AVQVariant@@W4InputMethodQuery@Qt@@@Z
?inputMethodQuery@QComboBox@@MBE?AVQVariant@@W4InputMethodQuery@Qt@@@Z
?inputMethodQuery@QGraphicsItem@@MBE?AVQVariant@@W4InputMethodQuery@Qt@@@Z
?inputMethodQuery@QGraphicsScene@@UBE?AVQVariant@@W4InputMethodQuery@Qt@@@Z
?inputMethodQuery@QGraphicsTextItem@@MBE?AVQVariant@@W4InputMethodQuery@Qt@@@Z
?inputMethodQuery@QGraphicsView@@UBE?AVQVariant@@W4InputMethodQuery@Qt@@@Z
?inputMethodQuery@QLineEdit@@UBE?AVQVariant@@W4InputMethodQuery@Qt@@@Z
?inputMethodQuery@QPlainTextEdit@@MBE?AVQVariant@@W4InputMethodQuery@Qt@@@Z
?inputMethodQuery@QTextControl@@UBE?AVQVariant@@W4InputMethodQuery@Qt@@@Z
?inputMethodQuery@QTextEdit@@MBE?AVQVariant@@W4InputMethodQuery@Qt@@@Z
?inputMethodQuery@QWidget@@UBE?AVQVariant@@W4InputMethodQuery@Qt@@@Z
?insert@?$QList@VQItemSelectionRange@@@@QAE?AViterator@1@V21@ABVQItemSelectionRange@@@Z
?insert@?$QList@VQItemSelectionRange@@@@QAEXHABVQItemSelectionRange@@@Z
?insert@QButtonGroup@@QAEXPAVQAbstractButton@@@Z
?insert@QLineEdit@@QAEXABVQString@@@Z
?insert@QPixmapCache@@SA_NABVQString@@ABVQPixmap@@@Z
?insert@QTextEdit@@QAEXABVQString@@@Z
?insertAction@QToolBarLayout@@QAEXHPAVQAction@@@Z
?insertAction@QWidget@@QAEXPAVQAction@@0@Z
?insertActions@QWidget@@QAEXPAVQAction@@V?$QList@PAVQAction@@@@@Z
?insertAny@QMenu@@AAEHPBVQIcon@@PBVQString@@PBVQObject@@PBDPBVQKeySequence@@PBV1@HH@Z
?insertAny@QMenuBar@@AAEHPBVQIcon@@PBVQString@@PBVQObject@@PBDPBVQKeySequence@@PBVQMenu@@HH@Z
?insertBlock@QTextCursor@@QAEXABVQTextBlockFormat@@@Z
?insertBlock@QTextCursor@@QAEXABVQTextBlockFormat@@ABVQTextCharFormat@@@Z
?insertBlock@QTextCursor@@QAEXXZ
?insertChild@QTreeWidgetItem@@QAEXHPAV1@@Z
?insertChildren@QTreeWidgetItem@@QAEXHABV?$QList@PAVQTreeWidgetItem@@@@@Z
?insertColumn@QStandardItem@@QAEXHABV?$QList@PAVQStandardItem@@@@@Z
?insertColumn@QStandardItemModel@@QAEXHABV?$QList@PAVQStandardItem@@@@@Z
?insertColumn@QStandardItemModel@@QAE_NHABVQModelIndex@@@Z
?insertColumn@QTableWidget@@QAEXH@Z
?insertColumns@QProxyModel@@UAE_NHHABVQModelIndex@@@Z
?insertColumns@QSortFilterProxyModel@@UAE_NHHABVQModelIndex@@@Z
?insertColumns@QStandardItem@@QAEXHH@Z
?insertColumns@QStandardItemModel@@UAE_NHHABVQModelIndex@@@Z
?insertColumns@QTextTable@@QAEXHH@Z
?insertFragment@QTextCursor@@QAEXABVQTextDocumentFragment@@@Z
?insertFrame@QTextCursor@@QAEPAVQTextFrame@@ABVQTextFrameFormat@@@Z
?insertFromMimeData@QPlainTextEdit@@MAEXPBVQMimeData@@@Z
?insertFromMimeData@QTextControl@@UAEXPBVQMimeData@@@Z
?insertFromMimeData@QTextEdit@@MAEXPBVQMimeData@@@Z
?insertHtml@QTextControl@@QAEXABVQString@@@Z
?insertHtml@QTextCursor@@QAEXABVQString@@@Z
?insertHtml@QTextEdit@@QAEXABVQString@@@Z
?insertImage@QTextCursor@@QAEXABVQString@@@Z
?insertImage@QTextCursor@@QAEXABVQTextImageFormat@@@Z
?insertImage@QTextCursor@@QAEXABVQTextImageFormat@@W4Position@QTextFrameFormat@@@Z
?insertItem@QBoxLayout@@IAEXHPAVQLayoutItem@@@Z
?insertItem@QComboBox@@QAEXABVQPixmap@@ABVQString@@H@Z
?insertItem@QComboBox@@QAEXABVQPixmap@@H@Z
?insertItem@QComboBox@@QAEXABVQString@@H@Z
?insertItem@QComboBox@@QAEXHABVQIcon@@ABVQString@@ABVQVariant@@@Z
?insertItem@QComboBox@@QAEXHABVQString@@ABVQVariant@@@Z
?insertItem@QGraphicsLinearLayout@@QAEXHPAVQGraphicsLayoutItem@@@Z
?insertItem@QListWidget@@QAEXHABVQString@@@Z
?insertItem@QListWidget@@QAEXHPAVQListWidgetItem@@@Z
?insertItem@QMenu@@QAEHABVQIcon@@ABVQString@@HH@Z
?insertItem@QMenu@@QAEHABVQIcon@@ABVQString@@PAV1@HH@Z
?insertItem@QMenu@@QAEHABVQIcon@@ABVQString@@PBVQObject@@PBDABVQKeySequence@@HH@Z
?insertItem@QMenu@@QAEHABVQPixmap@@HH@Z
?insertItem@QMenu@@QAEHABVQPixmap@@PAV1@HH@Z
?insertItem@QMenu@@QAEHABVQPixmap@@PBVQObject@@PBDABVQKeySequence@@HH@Z
?insertItem@QMenu@@QAEHABVQString@@HH@Z
?insertItem@QMenu@@QAEHABVQString@@PAV1@HH@Z
?insertItem@QMenu@@QAEHABVQString@@PBVQObject@@PBDABVQKeySequence@@HH@Z
?insertItem@QMenu@@QAEHPAVQMenuItem@@HH@Z
?insertItem@QMenuBar@@QAEHABVQIcon@@ABVQString@@HH@Z
?insertItem@QMenuBar@@QAEHABVQIcon@@ABVQString@@PAVQMenu@@HH@Z
?insertItem@QMenuBar@@QAEHABVQIcon@@ABVQString@@PBVQObject@@PBDABVQKeySequence@@HH@Z
?insertItem@QMenuBar@@QAEHABVQPixmap@@HH@Z
?insertItem@QMenuBar@@QAEHABVQPixmap@@PAVQMenu@@HH@Z
?insertItem@QMenuBar@@QAEHABVQPixmap@@PBVQObject@@PBDABVQKeySequence@@HH@Z
?insertItem@QMenuBar@@QAEHABVQString@@HH@Z
?insertItem@QMenuBar@@QAEHABVQString@@PAVQMenu@@HH@Z
?insertItem@QMenuBar@@QAEHABVQString@@PBVQObject@@PBDABVQKeySequence@@HH@Z
?insertItem@QToolBox@@QAEHHPAVQWidget@@ABVQIcon@@ABVQString@@@Z
?insertItem@QToolBox@@QAEHHPAVQWidget@@ABVQString@@@Z
?insertItems@QComboBox@@QAEXHABVQStringList@@@Z
?insertItems@QListWidget@@QAEXHABVQStringList@@@Z
?insertLayout@QBoxLayout@@QAEXHPAVQLayout@@H@Z
?insertList@QTextCursor@@QAEPAVQTextList@@ABVQTextListFormat@@@Z
?insertList@QTextCursor@@QAEPAVQTextList@@W4Style@QTextListFormat@@@Z
?insertMenu@QMenu@@QAEPAVQAction@@PAV2@PAV1@@Z
?insertMenu@QMenuBar@@QAEPAVQAction@@PAV2@PAVQMenu@@@Z
?insertPermanentWidget@QStatusBar@@QAEHHPAVQWidget@@H@Z
?insertPlainText@QPlainTextEdit@@QAEXABVQString@@@Z
?insertPlainText@QTextControl@@QAEXABVQString@@@Z
?insertPlainText@QTextEdit@@QAEXABVQString@@@Z
?insertPolicy@QComboBox@@QBE?AW4InsertPolicy@1@XZ
?insertRow@QFormLayout@@QAEXHABVQString@@PAVQLayout@@@Z
?insertRow@QFormLayout@@QAEXHABVQString@@PAVQWidget@@@Z
?insertRow@QFormLayout@@QAEXHPAVQLayout@@@Z
?insertRow@QFormLayout@@QAEXHPAVQWidget@@0@Z
?insertRow@QFormLayout@@QAEXHPAVQWidget@@@Z
?insertRow@QFormLayout@@QAEXHPAVQWidget@@PAVQLayout@@@Z
?insertRow@QStandardItem@@QAEXHABV?$QList@PAVQStandardItem@@@@@Z
?insertRow@QStandardItem@@QAEXHPAV1@@Z
?insertRow@QStandardItemModel@@QAEXHABV?$QList@PAVQStandardItem@@@@@Z
?insertRow@QStandardItemModel@@QAEXHPAVQStandardItem@@@Z
?insertRow@QStandardItemModel@@QAE_NHABVQModelIndex@@@Z
?insertRow@QTableWidget@@QAEXH@Z
?insertRows@QProxyModel@@UAE_NHHABVQModelIndex@@@Z
?insertRows@QSortFilterProxyModel@@UAE_NHHABVQModelIndex@@@Z
?insertRows@QStandardItem@@QAEXHABV?$QList@PAVQStandardItem@@@@@Z
?insertRows@QStandardItem@@QAEXHH@Z
?insertRows@QStandardItemModel@@UAE_NHHABVQModelIndex@@@Z
?insertRows@QStringListModel@@UAE_NHHABVQModelIndex@@@Z
?insertRows@QTextTable@@QAEXHH@Z
?insertSeparator@QComboBox@@QAEXH@Z
?insertSeparator@QMenu@@QAEHH@Z
?insertSeparator@QMenu@@QAEPAVQAction@@PAV2@@Z
?insertSeparator@QMenuBar@@QAEHH@Z
?insertSeparator@QMenuBar@@QAEPAVQAction@@PAV2@@Z
?insertSeparator@QToolBar@@QAEPAVQAction@@PAV2@@Z
?insertSpacerItem@QBoxLayout@@QAEXHPAVQSpacerItem@@@Z
?insertSpacing@QBoxLayout@@QAEXHH@Z
?insertStretch@QBoxLayout@@QAEXHH@Z
?insertStretch@QGraphicsLinearLayout@@QAEXHH@Z
?insertStringList@QComboBox@@QAEXABVQStringList@@H@Z
?insertSubstitution@QFont@@SAXABVQString@@0@Z
?insertSubstitutions@QFont@@SAXABVQString@@ABVQStringList@@@Z
?insertTab@QTabBar@@QAEHHABVQIcon@@ABVQString@@@Z
?insertTab@QTabBar@@QAEHHABVQString@@@Z
?insertTab@QTabWidget@@QAEHHPAVQWidget@@ABVQIcon@@ABVQString@@@Z
?insertTab@QTabWidget@@QAEHHPAVQWidget@@ABVQString@@@Z
?insertTab@QTabWidget@@QAEXPAVQWidget@@ABVQIcon@@ABVQString@@H@Z
?insertTab@QTabWidget@@QAEXPAVQWidget@@ABVQString@@H@Z
?insertTable@QTextCursor@@QAEPAVQTextTable@@HH@Z
?insertTable@QTextCursor@@QAEPAVQTextTable@@HHABVQTextTableFormat@@@Z
?insertTearOffHandle@QMenu@@QAEHHH@Z
?insertText@QAccessibleSimpleEditableTextInterface@@UAEXHABVQString@@@Z
?insertText@QTextCursor@@QAEXABVQString@@@Z
?insertText@QTextCursor@@QAEXABVQString@@ABVQTextCharFormat@@@Z
?insertToolBar@QMainWindow@@QAEXPAVQToolBar@@0@Z
?insertToolBarBreak@QMainWindow@@QAEXPAVQToolBar@@@Z
?insertTopLevelItem@QTreeWidget@@QAEXHPAVQTreeWidgetItem@@@Z
?insertTopLevelItems@QTreeWidget@@QAEXHABV?$QList@PAVQTreeWidgetItem@@@@@Z
?insertWidget@QBoxLayout@@QAEXHPAVQWidget@@HV?$QFlags@W4AlignmentFlag@Qt@@@@@Z
?insertWidget@QSplitter@@QAEXHPAVQWidget@@@Z
?insertWidget@QStackedLayout@@QAEHHPAVQWidget@@@Z
?insertWidget@QStackedWidget@@QAEHHPAVQWidget@@@Z
?insertWidget@QStatusBar@@QAEHHPAVQWidget@@H@Z
?insertWidget@QToolBar@@QAEPAVQAction@@PAV2@PAVQWidget@@@Z
?insertionPolicy@QComboBox@@QBE?AW4InsertPolicy@1@XZ
?installFactory@QAccessible@@SAXP6APAVQAccessibleInterface@@ABVQString@@PAVQObject@@@Z@Z
?installRootObjectHandler@QAccessible@@SAP6AXPAVQObject@@@ZP6AX0@Z@Z
?installSceneEventFilter@QGraphicsItem@@QAEXPAV1@@Z
?installUpdateHandler@QAccessible@@SAP6AXPAVQObject@@HW4Event@1@@ZP6AX0H1@Z@Z
?instance@QApplicationPrivate@@SAPAV1@XZ
?instance@QColormap@@SA?AV1@H@Z
?instance@QDragManager@@0PAV1@A
?instance@QPixmapDataFactory@@SAPAV1@H@Z
?instanceCounter@QWidgetPrivate@@2HA
?intProperty@QTextFormat@@QBEHH@Z
?intValue@Declaration@QCss@@QBE_NPAHPBD@Z
?intValue@QLCDNumber@@QBEHXZ
?interface_cast@QAccessibleInterfaceEx@@UAEPAVQAccessible2Interface@@W4InterfaceType@QAccessible2@@@Z
?internalDelayedPopup@QMenu@@AAEXXZ
?internalDrag@QListView@@IAEXV?$QFlags@W4DropAction@Qt@@@@@Z
?internalDrop@QListView@@IAEXPAVQDropEvent@@@Z
?internalSetSloppyAction@QMenu@@AAEXXZ
?internalWinId@QWidget@@QBEPAUHWND__@@XZ
?interpretText@QAbstractSpinBox@@QAEXXZ
?intersect@QItemSelectionRange@@QBE?AV1@ABV1@@Z
?intersect@QRegion@@QBE?AV1@ABV1@@Z
?intersect@QRegion@@QBE?AV1@ABVQRect@@@Z
?intersected@QItemSelectionRange@@QBE?AV1@ABV1@@Z
?intersected@QPainterPath@@QBE?AV1@ABV1@@Z
?intersected@QPolygon@@QBE?AV1@ABV1@@Z
?intersected@QPolygonF@@QBE?AV1@ABV1@@Z
?intersected@QRegion@@QBE?AV1@ABV1@@Z
?intersected@QRegion@@QBE?AV1@ABVQRect@@@Z
?intersects@QItemSelectionRange@@QBE_NABV1@@Z
?intersects@QPainterPath@@QBE_NABV1@@Z
?intersects@QPainterPath@@QBE_NABVQRectF@@@Z
?intersects@QRegion@@QBE_NABV1@@Z
?intersects@QRegion@@QBE_NABVQRect@@@Z
?intrinsicSize@QTextImageHandler@@UAE?AVQSizeF@@PAVQTextDocument@@HABVQTextFormat@@@Z
?invalidate@QBoxLayout@@UAEXXZ
?invalidate@QColor@@AAEXXZ
?invalidate@QFormLayout@@UAEXXZ
?invalidate@QGraphicsGridLayout@@UAEXXZ
?invalidate@QGraphicsLayout@@UAEXXZ
?invalidate@QGraphicsLinearLayout@@UAEXXZ
?invalidate@QGraphicsScene@@QAEXABVQRectF@@V?$QFlags@W4SceneLayer@QGraphicsScene@@@@@Z
?invalidate@QGraphicsScene@@QAEXNNNNV?$QFlags@W4SceneLayer@QGraphicsScene@@@@@Z
?invalidate@QGridLayout@@UAEXXZ
?invalidate@QLayout@@UAEXXZ
?invalidate@QLayoutItem@@UAEXXZ
?invalidate@QSortFilterProxyModel@@QAEXXZ
?invalidate@QTextEngine@@QAEXXZ
?invalidate@QToolBarLayout@@UAEXXZ
?invalidateBuffer@QWidgetPrivate@@QAEXABVQRegion@@@Z
?invalidateFilter@QSortFilterProxyModel@@IAEXXZ
?invalidateScene@QGraphicsView@@QAEXABVQRectF@@V?$QFlags@W4SceneLayer@QGraphicsScene@@@@@Z
?invalidateSizeCache@QWidgetItemV2@@AAEXXZ
?invert@QMatrix@@QBE?AV1@PA_N@Z
?invertPixels@QImage@@QAEXW4InvertMode@1@@Z
?invertPixels@QImage@@QAEX_N@Z
?inverted@QMatrix@@QBE?AV1@PA_N@Z
?inverted@QTransform@@QBE?AV1@PA_N@Z
?invertedAppearance@QAbstractSlider@@QBE_NXZ
?invertedAppearance@QProgressBar@@QAE_NXZ
?invertedControls@QAbstractSlider@@QBE_NXZ
?invisibleRootItem@QStandardItemModel@@QBEPAVQStandardItem@@XZ
?invisibleRootItem@QTreeWidget@@QBEPAVQTreeWidgetItem@@XZ
?invokeMethod@QAccessibleInterface@@QAE?AVQVariant@@W4Method@QAccessible@@HABV?$QList@VQVariant@@@@@Z
?invokeMethodEx@QAccessibleWidgetEx@@UAE?AVQVariant@@W4Method@QAccessible@@HABV?$QList@VQVariant@@@@@Z
?ioDevice@QPictureIO@@QBEPAVQIODevice@@XZ
?isAboutToShow@QWidgetPrivate@@QBE_NXZ
?isAccelerated@QAbstractSpinBox@@QBE_NXZ
?isActivated@QGraphicsLayout@@QBE_NXZ
?isActive@QAccessible@@SA_NXZ
?isActive@QPaintEngine@@QBE_NXZ
?isActive@QPainter@@QBE_NXZ
?isActive@QUndoStack@@QBE_NXZ
?isActive@QWidgetResizeHandler@@QBE_NW4Action@1@@Z
?isActive@QWidgetResizeHandler@@QBE_NXZ
?isActiveWindow@QGraphicsWidget@@QBE_NXZ
?isActiveWindow@QWidget@@QBE_NXZ
?isAffine@QTransform@@QBE_NXZ
?isAmbiguous@QShortcutEvent@@QAE_NXZ
?isAmbiguous@QShortcutEvent@@QBE_NXZ
?isAncestorOf@QGraphicsItem@@QBE_NPBV1@@Z
?isAncestorOf@QWidget@@QBE_NPBV1@@Z
?isAnchor@QTextCharFormat@@QBE_NXZ
?isAnimated@QMainWindow@@QBE_NXZ
?isAnimated@QTreeView@@QBE_NXZ
?isAnimating@QAbstractItemViewPrivate@@QBE_NXZ
?isAreaAllowed@QDockWidget@@QBE_NW4DockWidgetArea@Qt@@@Z
?isAreaAllowed@QToolBar@@QBE_NW4ToolBarArea@Qt@@@Z
?isAutoRepeat@QKeyEvent@@QBE_NXZ
?isAvailable@QSound@@SA_NXZ
?isBackgroundInherited@QWidgetPrivate@@QBE_NXZ
?isBackwardAvailable@QTextBrowser@@QBE_NXZ
?isBitmapScalable@QFontDatabase@@QBE_NABVQString@@0@Z
?isBlockFormat@QTextFormat@@QBE_NXZ
?isBlockedByModal@QApplicationPrivate@@SA_NPAVQWidget@@@Z
?isBrushSet@QPalette@@QBE_NW4ColorGroup@1@W4ColorRole@1@@Z
?isButtonDown@QWidgetResizeHandler@@QBE_NXZ
?isCharFormat@QTextFormat@@QBE_NXZ
?isCheckable@QAbstractButton@@QBE_NXZ
?isCheckable@QAction@@QBE_NXZ
?isCheckable@QGroupBox@@QBE_NXZ
?isCheckable@QMenu@@QBE_NXZ
?isCheckable@QStandardItem@@QBE_NXZ
?isChecked@QAbstractButton@@QBE_NXZ
?isChecked@QAction@@QBE_NXZ
?isChecked@QGroupBox@@QBE_NXZ
?isClean@QUndoGroup@@QBE_NXZ
?isClean@QUndoStack@@QBE_NXZ
?isClickable@QHeaderView@@QBE_NXZ
?isClipEnabled@QPaintEngineState@@QBE_NXZ
?isClosed@QPolygonF@@QBE_NXZ
?isCollapsible@QSplitter@@QBE_NH@Z
?isColumnHidden@QTableView@@QBE_NH@Z
?isColumnHidden@QTreeView@@QBE_NH@Z
?isColumnSelected@QItemSelectionModel@@QBE_NHABVQModelIndex@@@Z
?isCommitPage@QWizardPage@@QBE_NXZ
?isComplete@QWizardPage@@UBE_NXZ
?isCopyOf@QFont@@QBE_NABV1@@Z
?isCopyOf@QPalette@@QBE_NABV1@@Z
?isCopyOf@QTextCursor@@QBE_NABV1@@Z
?isCornerButtonEnabled@QTableView@@QBE_NXZ
?isCosmetic@QPen@@QBE_NXZ
?isDateEditEnabled@QCalendarWidget@@QBE_NXZ
?isDefault@QPrinterInfo@@QBE_NXZ
?isDefault@QPushButton@@QBE_NXZ
?isDefaultUp@QMenuBar@@QBE_NXZ
?isDesktop@QWidget@@QBE_NXZ
?isDetached@?$QList@VQItemSelectionRange@@@@QBE_NXZ
?isDetached@QBrush@@QBE_NXZ
?isDetached@QIcon@@QBE_NXZ
?isDetached@QImage@@QBE_NXZ
?isDetached@QKeySequence@@QBE_NXZ
?isDetached@QPen@@QAE_NXZ
?isDetached@QPicture@@QBE_NXZ
?isDetached@QPixmap@@QBE_NXZ
?isDialog@QWidget@@QBE_NXZ
?isDir@QDirModel@@QBE_NABVQModelIndex@@@Z
?isDir@QFileSystemModel@@QBE_NABVQModelIndex@@@Z
?isDisabled@QTreeWidgetItem@@QBE_NXZ
?isDockNestingEnabled@QMainWindow@@QBE_NXZ
?isDown@QAbstractButton@@QBE_NXZ
?isDragEnabled@QStandardItem@@QBE_NXZ
?isDropEnabled@QStandardItem@@QBE_NXZ
?isEditable@QComboBox@@QBE_NXZ
?isEditable@QStandardItem@@QBE_NXZ
?isEffectEnabled@QApplication@@SA_NW4UIEffect@Qt@@@Z
?isEmpty@?$QList@VQItemSelectionRange@@@@QBE_NXZ
?isEmpty@Declaration@QCss@@QBE_NXZ
?isEmpty@QKeySequence@@QBE_NXZ
?isEmpty@QLayout@@UBE_NXZ
?isEmpty@QMenu@@QBE_NXZ
?isEmpty@QPainterPath@@QBE_NXZ
?isEmpty@QRegion@@QBE_NXZ
?isEmpty@QSpacerItem@@UBE_NXZ
?isEmpty@QTextDocument@@QBE_NXZ
?isEmpty@QTextDocumentFragment@@QBE_NXZ
?isEmpty@QTextList@@QBE_NXZ
?isEmpty@QToolBarItem@@UBE_NXZ
?isEmpty@QToolBarLayout@@UBE_NXZ
?isEmpty@QWidgetItem@@UBE_NXZ
?isEnabled@QAction@@QBE_NXZ
?isEnabled@QActionGroup@@QBE_NXZ
?isEnabled@QGraphicsItem@@QBE_NXZ
?isEnabled@QLayout@@QBE_NXZ
?isEnabled@QShortcut@@QBE_NXZ
?isEnabled@QStandardItem@@QBE_NXZ
?isEnabled@QWidget@@QBE_NXZ
?isEnabledTo@QWidget@@QBE_NPAV1@@Z
?isEnabledToTLW@QWidget@@QBE_NXZ
?isEqual@QPalette@@QBE_NW4ColorGroup@1@0@Z
?isExclusive@QActionGroup@@QBE_NXZ
?isExpanded@QTreeView@@QBE_NABVQModelIndex@@@Z
?isExpanded@QTreeWidgetItem@@QBE_NXZ
?isFinalPage@QWizardPage@@QBE_NXZ
?isFinished@QSound@@QBE_NXZ
?isFirstColumnSpanned@QTreeView@@QBE_NHABVQModelIndex@@@Z
?isFirstColumnSpanned@QTreeWidgetItem@@QBE_NXZ
?isFirstItemColumnSpanned@QTreeWidget@@QBE_NPBVQTreeWidgetItem@@@Z
?isFixedPitch@QFontDatabase@@QBE_NABVQString@@0@Z
?isFlat@QGroupBox@@QBE_NXZ
?isFlat@QPushButton@@QBE_NXZ
?isFloatable@QToolBar@@QBE_NXZ
?isFloating@QDockWidget@@QBE_NXZ
?isFloating@QToolBar@@QBE_NXZ
?isForwardAvailable@QTextBrowser@@QBE_NXZ
?isFrameFormat@QTextFormat@@QBE_NXZ
?isFullScreen@QWidget@@QBE_NXZ
?isGrayscale@QImage@@QBE_NXZ
?isGridVisible@QCalendarWidget@@QBE_NXZ
?isHeaderHidden@QTreeView@@QBE_NXZ
?isHeaderVisible@QCalendarWidget@@QBE_NXZ
?isHidden@QListWidgetItem@@QBE_NXZ
?isHidden@QTreeWidgetItem@@QBE_NXZ
?isHidden@QWidget@@QBE_NXZ
?isIconVisibleInMenu@QAction@@QBE_NXZ
?isIdentity@QMatrix@@QBE_NXZ
?isIdentity@QTransform@@QBE_NXZ
?isImageFormat@QTextFormat@@QBE_NXZ
?isIndexHidden@QColumnView@@MBE_NABVQModelIndex@@@Z
?isIndexHidden@QHeaderView@@MBE_NABVQModelIndex@@@Z
?isIndexHidden@QListView@@MBE_NABVQModelIndex@@@Z
?isIndexHidden@QTableView@@MBE_NABVQModelIndex@@@Z
?isIndexHidden@QTreeView@@MBE_NABVQModelIndex@@@Z
?isIndexValid@QAbstractItemViewPrivate@@QBE_NABVQModelIndex@@@Z
?isInputMethodEnabled@QWidget@@QBE_NXZ
?isInteractive@QGraphicsView@@QBE_NXZ
?isInvertible@QMatrix@@QBE_NXZ
?isInvertible@QTransform@@QBE_NXZ
?isItemActive@QMenu@@QBE_NH@Z
?isItemActive@QMenuBar@@QBE_NH@Z
?isItemChecked@QMenu@@QBE_NH@Z
?isItemChecked@QMenuBar@@QBE_NH@Z
?isItemEnabled@QMenu@@QBE_NH@Z
?isItemEnabled@QMenuBar@@QBE_NH@Z
?isItemEnabled@QToolBox@@QBE_NH@Z
?isItemExpanded@QTreeWidget@@QBE_NPBVQTreeWidgetItem@@@Z
?isItemHidden@QListWidget@@QBE_NPBVQListWidgetItem@@@Z
?isItemHidden@QTreeWidget@@QBE_NPBVQTreeWidgetItem@@@Z
?isItemSelected@QListWidget@@QBE_NPBVQListWidgetItem@@@Z
?isItemSelected@QTableWidget@@QBE_NPBVQTableWidgetItem@@@Z
?isItemSelected@QTreeWidget@@QBE_NPBVQTreeWidgetItem@@@Z
?isItemVisible@QMenu@@QBE_NH@Z
?isItemVisible@QMenuBar@@QBE_NH@Z
?isLayout@QGraphicsLayoutItem@@QBE_NXZ
?isLeftToRight@QApplication@@SA_NXZ
?isLeftToRight@QWidget@@QBE_NXZ
?isListFormat@QTextFormat@@QBE_NXZ
?isMaximized@QWidget@@QBE_NXZ
?isMenuButton@QPushButton@@QBE_NXZ
?isMinimized@QWidget@@QBE_NXZ
?isModal@QWidget@@QBE_NXZ
?isModified@QLineEdit@@QBE_NXZ
?isModified@QTextDocument@@QBE_NXZ
?isModified@QTextEdit@@QBE_NXZ
?isMovable@QHeaderView@@QBE_NXZ
?isMovable@QToolBar@@QBE_NXZ
?isMove@QWidgetResizeHandler@@ABE_NXZ
?isMovingEnabled@QWidgetResizeHandler@@QBE_NXZ
?isNameFilterDetailsVisible@QFileDialog@@QBE_NXZ
?isNavigationBarVisible@QCalendarWidget@@QBE_NXZ
?isNull@QIcon@@QBE_NXZ
?isNull@QImage@@QBE_NXZ
?isNull@QMovie@@QBE_NXZ
?isNull@QPicture@@QBE_NXZ
?isNull@QPixmap@@QBE_NXZ
?isNull@QPrinterInfo@@QBE_NXZ
?isNull@QRegion@@QBE_NXZ
?isNull@QTextCursor@@QBE_NXZ
?isObscured@QGraphicsItem@@QBE_NABVQRectF@@@Z
?isObscured@QGraphicsItem@@QBE_NNNNN@Z
?isObscured@QGraphicsItem@@QBE_NXZ
?isObscuredBy@QAbstractGraphicsShapeItem@@UBE_NPBVQGraphicsItem@@@Z
?isObscuredBy@QGraphicsEllipseItem@@UBE_NPBVQGraphicsItem@@@Z
?isObscuredBy@QGraphicsItem@@UBE_NPBV1@@Z
?isObscuredBy@QGraphicsItemGroup@@UBE_NPBVQGraphicsItem@@@Z
?isObscuredBy@QGraphicsLineItem@@UBE_NPBVQGraphicsItem@@@Z
?isObscuredBy@QGraphicsPathItem@@UBE_NPBVQGraphicsItem@@@Z
?isObscuredBy@QGraphicsPixmapItem@@UBE_NPBVQGraphicsItem@@@Z
?isObscuredBy@QGraphicsPolygonItem@@UBE_NPBVQGraphicsItem@@@Z
?isObscuredBy@QGraphicsRectItem@@UBE_NPBVQGraphicsItem@@@Z
?isObscuredBy@QGraphicsSimpleTextItem@@UBE_NPBVQGraphicsItem@@@Z
?isObscuredBy@QGraphicsTextItem@@UBE_NPBVQGraphicsItem@@@Z
?isOn@QAbstractButton@@QBE_NXZ
?isOn@QAction@@QBE_NXZ
?isOpaque@QBrush@@QBE_NXZ
?isOpaque@QWidgetPrivate@@QBE_NXZ
?isOptionEnabled@QAbstractPrintDialog@@QBE_NW4PrintDialogOption@1@@Z
?isOptionEnabled@QPageSetupDialog@@QBE_NW4PageSetupDialogOption@1@@Z
?isOptionEnabled@QPrinter@@QBE_NW4PrinterOption@1@@Z
?isOverlapped@QWidgetPrivate@@QBE_NABVQRect@@@Z
?isOverride@QWindowStateChangeEvent@@QBE_NXZ
?isPhase2@QSessionManager@@QBE_NXZ
?isPopup@QWidget@@QBE_NXZ
?isQBitmap@QPixmap@@QBE_NXZ
?isReadOnly@QAbstractSpinBox@@QBE_NXZ
?isReadOnly@QDirModel@@QBE_NXZ
?isReadOnly@QFileDialog@@QBE_NXZ
?isReadOnly@QFileSystemModel@@QBE_NXZ
?isReadOnly@QLineEdit@@QBE_NXZ
?isReadOnly@QPlainTextEdit@@QBE_NXZ
?isReadOnly@QTextEdit@@QBE_NXZ
?isRedoAvailable@QLineEdit@@QBE_NXZ
?isRedoAvailable@QTextDocument@@QBE_NXZ
?isRedoAvailable@QTextEdit@@QBE_NXZ
?isResize@QWidgetResizeHandler@@ABE_NXZ
?isRightToLeft@QApplication@@SA_NXZ
?isRightToLeft@QWidget@@QBE_NXZ
?isRotating@QTransform@@QBE_NXZ
?isRowHidden@QListView@@QBE_NH@Z
?isRowHidden@QTableView@@QBE_NH@Z
?isRowHidden@QTreeView@@QBE_NHABVQModelIndex@@@Z
?isRowSelected@QItemSelectionModel@@QBE_NHABVQModelIndex@@@Z
?isScalable@QFontDatabase@@QBE_NABVQString@@0@Z
?isScaling@QTransform@@QBE_NXZ
?isSectionHidden@QHeaderView@@QBE_NH@Z
?isSelectable@QStandardItem@@QBE_NXZ
?isSelected@QGraphicsItem@@QBE_NXZ
?isSelected@QItemSelectionModel@@QBE_NABVQModelIndex@@@Z
?isSelected@QListWidgetItem@@QBE_NXZ
?isSelected@QTableWidgetItem@@QBE_NXZ
?isSelected@QTreeWidgetItem@@QBE_NXZ
?isSelectionRectVisible@QListView@@QBE_NXZ
?isSeparator@QAction@@QBE_NXZ
?isSeparator@QMainWindow@@QBE_NABVQPoint@@@Z
?isSessionRestored@QApplication@@QBE_NXZ
?isShaded@QMdiSubWindow@@QBE_NXZ
?isShown@QWidget@@QBE_NXZ
?isSizeGripEnabled@QDialog@@QBE_NXZ
?isSizeGripEnabled@QStatusBar@@QBE_NXZ
?isSliderDown@QAbstractSlider@@QBE_NXZ
?isSmoothlyScalable@QFontDatabase@@QBE_NABVQString@@0@Z
?isSolid@QPen@@QBE_NXZ
?isSortIndicatorShown@QHeaderView@@QBE_NXZ
?isSortLocaleAware@QSortFilterProxyModel@@QBE_NXZ
?isSortingEnabled@QListWidget@@QBE_NXZ
?isSortingEnabled@QTableView@@QBE_NXZ
?isSortingEnabled@QTableWidget@@QBE_NXZ
?isSortingEnabled@QTreeView@@QBE_NXZ
?isSortingEnabled@QTreeWidget@@QBE_NXZ
?isSystemTrayAvailable@QSystemTrayIcon@@SA_NXZ
?isTabEnabled@QTabBar@@QBE_NH@Z
?isTabEnabled@QTabWidget@@QBE_NH@Z
?isTabEnabled@QTabWidget@@QBE_NPAVQWidget@@@Z
?isTableCellFormat@QTextFormat@@QBE_NXZ
?isTableFormat@QTextFormat@@QBE_NXZ
?isTearOffEnabled@QMenu@@QBE_NXZ
?isTearOffMenuVisible@QMenu@@QBE_NXZ
?isTextVisible@QProgressBar@@QBE_NXZ
?isToggleAction@QAction@@QBE_NXZ
?isToggleButton@QAbstractButton@@QBE_NXZ
?isTopLevel@QLayout@@QBE_NXZ
?isTopLevel@QWidget@@QBE_NXZ
?isTranslating@QTransform@@QBE_NXZ
?isTristate@QCheckBox@@QBE_NXZ
?isTristate@QStandardItem@@QBE_NXZ
?isUnderMouse@QGraphicsItem@@QBE_NXZ
?isUndoAvailable@QLineEdit@@QBE_NXZ
?isUndoAvailable@QTextDocument@@QBE_NXZ
?isUndoAvailable@QTextEdit@@QBE_NXZ
?isUndoRedoEnabled@QPlainTextEdit@@QBE_NXZ
?isUndoRedoEnabled@QTextDocument@@QBE_NXZ
?isUndoRedoEnabled@QTextEdit@@QBE_NXZ
?isUpdatesEnabled@QWidget@@QBE_NXZ
?isValid@QAccessibleObject@@UBE_NXZ
?isValid@QAccessibleObjectEx@@UBE_NXZ
?isValid@QColor@@QBE_NXZ
?isValid@QItemSelectionRange@@QBE_NXZ
?isValid@QMovie@@QBE_NXZ
?isValid@QPrinter@@QBE_NXZ
?isValid@QTextBlock@@QBE_NXZ
?isValid@QTextBlockFormat@@QBE_NXZ
?isValid@QTextCharFormat@@QBE_NXZ
?isValid@QTextFormat@@QBE_NXZ
?isValid@QTextFragment@@QBE_NXZ
?isValid@QTextFrameFormat@@QBE_NXZ
?isValid@QTextImageFormat@@QBE_NXZ
?isValid@QTextInlineObject@@QBE_NXZ
?isValid@QTextLine@@QBE_NXZ
?isValid@QTextListFormat@@QBE_NXZ
?isValid@QTextTableCell@@QBE_NXZ
?isValid@QTextTableCellFormat@@QBE_NXZ
?isValid@QTextTableFormat@@QBE_NXZ
?isValidCursorPosition@QTextLayout@@QBE_NH@Z
?isVirtualDesktop@QDesktopWidget@@QBE_NXZ
?isVisible@QAction@@QBE_NXZ
?isVisible@QActionGroup@@QBE_NXZ
?isVisible@QGraphicsItem@@QBE_NXZ
?isVisible@QSystemTrayIcon@@QBE_NXZ
?isVisible@QTextBlock@@QBE_NXZ
?isVisible@QToolTip@@SA_NXZ
?isVisible@QWidget@@QBE_NXZ
?isVisibleTo@QGraphicsItem@@QBE_NPBV1@@Z
?isVisibleTo@QWidget@@QBE_NPAV1@@Z
?isVisibleToTLW@QWidget@@QBE_NXZ
?isWidget@QGraphicsItem@@QBE_NXZ
?isWindow@QGraphicsItem@@QBE_NXZ
?isWindow@QWidget@@QBE_NXZ
?isWindowModified@QWidget@@QBE_NXZ
?isWrapping@QListView@@QBE_NXZ
?italic@QFont@@QBE_NXZ
?italic@QFontDatabase@@QBE_NABVQString@@0@Z
?italic@QFontInfo@@QBE_NXZ
?italic@QTextEdit@@QBE_NXZ
?item@QGraphicsItemAnimation@@QBEPAVQGraphicsItem@@XZ
?item@QListWidget@@QBEPAVQListWidgetItem@@H@Z
?item@QStandardItemModel@@QBEPAVQStandardItem@@HH@Z
?item@QTableWidget@@QBEPAVQTableWidgetItem@@HH@Z
?item@QTextList@@QBE?AVQTextBlock@@H@Z
?item@QToolBox@@QBEPAVQWidget@@H@Z
?itemAbove@QTreeWidget@@QBEPAVQTreeWidgetItem@@PBV2@@Z
?itemActivated@QListWidget@@IAEXPAVQListWidgetItem@@@Z
?itemActivated@QTableWidget@@IAEXPAVQTableWidgetItem@@@Z
?itemActivated@QTreeWidget@@IAEXPAVQTreeWidgetItem@@H@Z
?itemAt@QBoxLayout@@UBEPAVQLayoutItem@@H@Z
?itemAt@QDockWidgetLayout@@UBEPAVQLayoutItem@@H@Z
?itemAt@QFormLayout@@QBEPAVQLayoutItem@@HW4ItemRole@1@@Z
?itemAt@QFormLayout@@UBEPAVQLayoutItem@@H@Z
?itemAt@QGraphicsGridLayout@@QBEPAVQGraphicsLayoutItem@@HH@Z
?itemAt@QGraphicsGridLayout@@UBEPAVQGraphicsLayoutItem@@H@Z
?itemAt@QGraphicsLinearLayout@@UBEPAVQGraphicsLayoutItem@@H@Z
?itemAt@QGraphicsScene@@QBEPAVQGraphicsItem@@ABVQPointF@@@Z
?itemAt@QGraphicsScene@@QBEPAVQGraphicsItem@@NN@Z
?itemAt@QGraphicsView@@QBEPAVQGraphicsItem@@ABVQPoint@@@Z
?itemAt@QGraphicsView@@QBEPAVQGraphicsItem@@HH@Z
?itemAt@QGridLayout@@UBEPAVQLayoutItem@@H@Z
?itemAt@QListWidget@@QBEPAVQListWidgetItem@@ABVQPoint@@@Z
?itemAt@QListWidget@@QBEPAVQListWidgetItem@@HH@Z
?itemAt@QStackedLayout@@UBEPAVQLayoutItem@@H@Z
?itemAt@QTableWidget@@QBEPAVQTableWidgetItem@@ABVQPoint@@@Z
?itemAt@QTableWidget@@QBEPAVQTableWidgetItem@@HH@Z
?itemAt@QToolBarLayout@@UBEPAVQLayoutItem@@H@Z
?itemAt@QTreeWidget@@QBEPAVQTreeWidgetItem@@ABVQPoint@@@Z
?itemAt@QTreeWidget@@QBEPAVQTreeWidgetItem@@HH@Z
?itemAtPos@QMenu@@IAEHABVQPoint@@_N@Z
?itemAtPos@QMenuBar@@IAEHABVQPoint@@@Z
?itemAtPosition@QGridLayout@@QBEPAVQLayoutItem@@HH@Z
?itemBelow@QTreeWidget@@QBEPAVQTreeWidgetItem@@PBV2@@Z
?itemChange@QGraphicsItem@@MAE?AVQVariant@@W4GraphicsItemChange@1@ABV2@@Z
?itemChange@QGraphicsProxyWidget@@MAE?AVQVariant@@W4GraphicsItemChange@QGraphicsItem@@ABV2@@Z
?itemChange@QGraphicsWidget@@MAE?AVQVariant@@W4GraphicsItemChange@QGraphicsItem@@ABV2@@Z
?itemChanged@QListWidget@@IAEXPAVQListWidgetItem@@@Z
?itemChanged@QStandardItemModel@@IAEXPAVQStandardItem@@@Z
?itemChanged@QTableWidget@@IAEXPAVQTableWidgetItem@@@Z
?itemChanged@QTreeWidget@@IAEXPAVQTreeWidgetItem@@H@Z
?itemChanged@QTreeWidgetItem@@AAEXXZ
?itemClicked@QListWidget@@IAEXPAVQListWidgetItem@@@Z
?itemClicked@QTableWidget@@IAEXPAVQTableWidgetItem@@@Z
?itemClicked@QTreeWidget@@IAEXPAVQTreeWidgetItem@@H@Z
?itemCollapsed@QTreeWidget@@IAEXPAVQTreeWidgetItem@@@Z
?itemData@QAbstractProxyModel@@UBE?AV?$QMap@HVQVariant@@@@ABVQModelIndex@@@Z
?itemData@QComboBox@@QBE?AVQVariant@@HH@Z
?itemData@QStandardItemModel@@UBE?AV?$QMap@HVQVariant@@@@ABVQModelIndex@@@Z
?itemDelegate@QAbstractItemView@@QBEPAVQAbstractItemDelegate@@ABVQModelIndex@@@Z
?itemDelegate@QAbstractItemView@@QBEPAVQAbstractItemDelegate@@XZ
?itemDelegate@QComboBox@@QBEPAVQAbstractItemDelegate@@XZ
?itemDelegate@QDataWidgetMapper@@QBEPAVQAbstractItemDelegate@@XZ
?itemDelegate@QFileDialog@@QBEPAVQAbstractItemDelegate@@XZ
?itemDelegateForColumn@QAbstractItemView@@QBEPAVQAbstractItemDelegate@@H@Z
?itemDelegateForRow@QAbstractItemView@@QBEPAVQAbstractItemDelegate@@H@Z
?itemDoubleClicked@QListWidget@@IAEXPAVQListWidgetItem@@@Z
?itemDoubleClicked@QTableWidget@@IAEXPAVQTableWidgetItem@@@Z
?itemDoubleClicked@QTreeWidget@@IAEXPAVQTreeWidgetItem@@H@Z
?itemEditorFactory@QItemDelegate@@QBEPAVQItemEditorFactory@@XZ
?itemEditorFactory@QStyledItemDelegate@@QBEPAVQItemEditorFactory@@XZ
?itemEntered@QListWidget@@IAEXPAVQListWidgetItem@@@Z
?itemEntered@QTableWidget@@IAEXPAVQTableWidgetItem@@@Z
?itemEntered@QTreeWidget@@IAEXPAVQTreeWidgetItem@@H@Z
?itemExpanded@QTreeWidget@@IAEXPAVQTreeWidgetItem@@@Z
?itemFont@QMenu@@QBE?AVQFont@@H@Z
?itemForRole@QDockWidgetLayout@@QBEPAVQLayoutItem@@W4Role@1@@Z
?itemFromIndex@QListWidget@@IBEPAVQListWidgetItem@@ABVQModelIndex@@@Z
?itemFromIndex@QStandardItemModel@@QBEPAVQStandardItem@@ABVQModelIndex@@@Z
?itemFromIndex@QTableWidget@@IBEPAVQTableWidgetItem@@ABVQModelIndex@@@Z
?itemFromIndex@QTreeWidget@@IBEPAVQTreeWidgetItem@@ABVQModelIndex@@@Z
?itemGeometry@QMenu@@QAE?AVQRect@@H@Z
?itemHeight@QMenu@@IAEHH@Z
?itemHeight@QMenu@@IAEHPAVQMenuItem@@@Z
?itemIcon@QComboBox@@QBE?AVQIcon@@H@Z
?itemIcon@QToolBox@@QBE?AVQIcon@@H@Z
?itemIconSet@QToolBox@@QBE?AVQIcon@@H@Z
?itemIndexMethod@QGraphicsScene@@QBE?AW4ItemIndexMethod@1@XZ
?itemInserted@QToolBox@@MAEXH@Z
?itemLabel@QToolBox@@QBE?AVQString@@H@Z
?itemNumber@QTextList@@QBEHABVQTextBlock@@@Z
?itemParameter@QMenu@@QBEHH@Z
?itemParameter@QMenuBar@@QBEHH@Z
?itemPixmapRect@QCleanlooksStyle@@UBE?AVQRect@@ABV2@HABVQPixmap@@@Z
?itemPixmapRect@QStyle@@UBE?AVQRect@@ABV2@HABVQPixmap@@@Z
?itemPressed@QListWidget@@IAEXPAVQListWidgetItem@@@Z
?itemPressed@QTableWidget@@IAEXPAVQTableWidgetItem@@@Z
?itemPressed@QTreeWidget@@IAEXPAVQTreeWidgetItem@@H@Z
?itemPrototype@QStandardItemModel@@QBEPBVQStandardItem@@XZ
?itemPrototype@QTableWidget@@QBEPBVQTableWidgetItem@@XZ
?itemRect@QMenuBar@@IAE?AVQRect@@H@Z
?itemRemoved@QToolBox@@MAEXH@Z
?itemSelectionChanged@QListWidget@@IAEXXZ
?itemSelectionChanged@QTableWidget@@IAEXXZ
?itemSelectionChanged@QTreeWidget@@IAEXXZ
?itemSpacing@QGraphicsLinearLayout@@QBENH@Z
?itemText@QComboBox@@QBE?AVQString@@H@Z
?itemText@QTextList@@QBE?AVQString@@ABVQTextBlock@@@Z
?itemText@QToolBox@@QBE?AVQString@@H@Z
?itemTextRect@QStyle@@UBE?AVQRect@@ABVQFontMetrics@@ABV2@H_NABVQString@@@Z
?itemToolTip@QToolBox@@QBE?AVQString@@H@Z
?itemUpdated@QGraphicsScene@@AAEXPAVQGraphicsItem@@ABVQRectF@@@Z
?itemWidget@QListWidget@@QBEPAVQWidget@@PAVQListWidgetItem@@@Z
?itemWidget@QTreeWidget@@QBEPAVQWidget@@PAVQTreeWidgetItem@@H@Z
?itemize@QTextEngine@@QBEXXZ
?items@QGraphicsScene@@QBE?AV?$QList@PAVQGraphicsItem@@@@ABVQPainterPath@@W4ItemSelectionMode@Qt@@@Z
?items@QGraphicsScene@@QBE?AV?$QList@PAVQGraphicsItem@@@@ABVQPointF@@@Z
?items@QGraphicsScene@@QBE?AV?$QList@PAVQGraphicsItem@@@@ABVQPolygonF@@W4ItemSelectionMode@Qt@@@Z
?items@QGraphicsScene@@QBE?AV?$QList@PAVQGraphicsItem@@@@ABVQRectF@@W4ItemSelectionMode@Qt@@@Z
?items@QGraphicsScene@@QBE?AV?$QList@PAVQGraphicsItem@@@@NNNNW4ItemSelectionMode@Qt@@@Z
?items@QGraphicsScene@@QBE?AV?$QList@PAVQGraphicsItem@@@@XZ
?items@QGraphicsView@@QBE?AV?$QList@PAVQGraphicsItem@@@@ABVQPainterPath@@W4ItemSelectionMode@Qt@@@Z
?items@QGraphicsView@@QBE?AV?$QList@PAVQGraphicsItem@@@@ABVQPoint@@@Z
?items@QGraphicsView@@QBE?AV?$QList@PAVQGraphicsItem@@@@ABVQPolygon@@W4ItemSelectionMode@Qt@@@Z
?items@QGraphicsView@@QBE?AV?$QList@PAVQGraphicsItem@@@@ABVQRect@@W4ItemSelectionMode@Qt@@@Z
?items@QGraphicsView@@QBE?AV?$QList@PAVQGraphicsItem@@@@HH@Z
?items@QGraphicsView@@QBE?AV?$QList@PAVQGraphicsItem@@@@HHHHW4ItemSelectionMode@Qt@@@Z
?items@QGraphicsView@@QBE?AV?$QList@PAVQGraphicsItem@@@@XZ
?items@QListWidget@@IBE?AV?$QList@PAVQListWidgetItem@@@@PBVQMimeData@@@Z
?items@QTableWidget@@IBE?AV?$QList@PAVQTableWidgetItem@@@@PBVQMimeData@@@Z
?items@QTreeWidget@@IBE?AV?$QList@PAVQTreeWidgetItem@@@@PBVQMimeData@@@Z
?itemsBoundingRect@QGraphicsScene@@QBE?AVQRectF@@XZ
?itemsExpandable@QTreeView@@QBE_NXZ
?iterator@QLayout@@QAE?AVQLayoutIterator@@XZ
?joinForJoinMode@QStroker@@KA?AW4PenJoinStyle@Qt@@W4LineJoinMode@1@@Z
?joinModeForCap@QStroker@@KA?AW4LineJoinMode@1@W4PenCapStyle@Qt@@@Z
?joinModeForJoin@QStroker@@KA?AW4LineJoinMode@1@W4PenJoinStyle@Qt@@@Z
?joinPoints@QStroker@@QAEXNNABVQLineF@@W4LineJoinMode@1@@Z
?joinPreviousEditBlock@QTextCursor@@QAEXXZ
?joinStyle@QPainterPathStroker@@QBE?AW4PenJoinStyle@Qt@@XZ
?joinStyle@QPen@@QBE?AW4PenJoinStyle@Qt@@XZ
?joinStyle@QStroker@@QBE?AW4PenJoinStyle@Qt@@XZ
?joinStyleMode@QStroker@@QBE?AW4LineJoinMode@1@XZ
?jumpTable@QImage@@QAEPAPAEXZ
?jumpTable@QImage@@QBEPBQBEXZ
?jumpToFrame@QMovie@@QAE_NH@Z
?jumpToImage@QImageIOHandler@@UAE_NH@Z
?jumpToImage@QImageReader@@QAE_NH@Z
?jumpToNextFrame@QMovie@@QAE_NXZ
?jumpToNextImage@QImageIOHandler@@UAE_NXZ
?jumpToNextImage@QImageReader@@QAE_NXZ
?justify@QTextEngine@@QAEXABUQScriptLine@@@Z
?kerning@QFont@@QBE_NXZ
?key@QFont@@QBE?AVQString@@XZ
?key@QIconEngineV2@@UBE?AVQString@@XZ
?key@QKeyEvent@@QBEHXZ
?key@QShortcut@@QBE?AVQKeySequence@@XZ
?key@QShortcutEvent@@QAEABVQKeySequence@@XZ
?key@QShortcutEvent@@QBEABVQKeySequence@@XZ
?keyBindings@QKeySequence@@SA?AV?$QList@VQKeySequence@@@@W4StandardKey@1@@Z
?keyPressEvent@QAbstractButton@@MAEXPAVQKeyEvent@@@Z
?keyPressEvent@QAbstractItemView@@MAEXPAVQKeyEvent@@@Z
?keyPressEvent@QAbstractScrollArea@@MAEXPAVQKeyEvent@@@Z
?keyPressEvent@QAbstractSlider@@MAEXPAVQKeyEvent@@@Z
?keyPressEvent@QAbstractSpinBox@@MAEXPAVQKeyEvent@@@Z
?keyPressEvent@QCalendarWidget@@MAEXPAVQKeyEvent@@@Z
?keyPressEvent@QComboBox@@MAEXPAVQKeyEvent@@@Z
?keyPressEvent@QDateTimeEdit@@MAEXPAVQKeyEvent@@@Z
?keyPressEvent@QDialog@@MAEXPAVQKeyEvent@@@Z
?keyPressEvent@QGraphicsItem@@MAEXPAVQKeyEvent@@@Z
?keyPressEvent@QGraphicsProxyWidget@@MAEXPAVQKeyEvent@@@Z
?keyPressEvent@QGraphicsScene@@MAEXPAVQKeyEvent@@@Z
?keyPressEvent@QGraphicsTextItem@@MAEXPAVQKeyEvent@@@Z
?keyPressEvent@QGraphicsView@@MAEXPAVQKeyEvent@@@Z
?keyPressEvent@QLabel@@MAEXPAVQKeyEvent@@@Z
?keyPressEvent@QLineEdit@@MAEXPAVQKeyEvent@@@Z
?keyPressEvent@QMdiSubWindow@@MAEXPAVQKeyEvent@@@Z
?keyPressEvent@QMenu@@MAEXPAVQKeyEvent@@@Z
?keyPressEvent@QMenuBar@@MAEXPAVQKeyEvent@@@Z
?keyPressEvent@QMessageBox@@MAEXPAVQKeyEvent@@@Z
?keyPressEvent@QPlainTextEdit@@MAEXPAVQKeyEvent@@@Z
?keyPressEvent@QPushButton@@MAEXPAVQKeyEvent@@@Z
?keyPressEvent@QTabBar@@MAEXPAVQKeyEvent@@@Z
?keyPressEvent@QTabWidget@@MAEXPAVQKeyEvent@@@Z
?keyPressEvent@QTextBrowser@@MAEXPAVQKeyEvent@@@Z
?keyPressEvent@QTextEdit@@MAEXPAVQKeyEvent@@@Z
?keyPressEvent@QTreeView@@MAEXPAVQKeyEvent@@@Z
?keyPressEvent@QWidget@@MAEXPAVQKeyEvent@@@Z
?keyPressEvent@QWidgetResizeHandler@@IAEXPAVQKeyEvent@@@Z
?keyReleaseEvent@QAbstractButton@@MAEXPAVQKeyEvent@@@Z
?keyReleaseEvent@QAbstractSpinBox@@MAEXPAVQKeyEvent@@@Z
?keyReleaseEvent@QComboBox@@MAEXPAVQKeyEvent@@@Z
?keyReleaseEvent@QGraphicsItem@@MAEXPAVQKeyEvent@@@Z
?keyReleaseEvent@QGraphicsProxyWidget@@MAEXPAVQKeyEvent@@@Z
?keyReleaseEvent@QGraphicsScene@@MAEXPAVQKeyEvent@@@Z
?keyReleaseEvent@QGraphicsTextItem@@MAEXPAVQKeyEvent@@@Z
?keyReleaseEvent@QGraphicsView@@MAEXPAVQKeyEvent@@@Z
?keyReleaseEvent@QPlainTextEdit@@MAEXPAVQKeyEvent@@@Z
?keyReleaseEvent@QTextEdit@@MAEXPAVQKeyEvent@@@Z
?keyReleaseEvent@QWidget@@MAEXPAVQKeyEvent@@@Z
?keyboardGrabber@QWidget@@SAPAV1@XZ
?keyboardInputDirection@QApplication@@SA?AW4LayoutDirection@Qt@@XZ
?keyboardInputInterval@QApplication@@SAHXZ
?keyboardInputLocale@QApplication@@SA?AVQLocale@@XZ
?keyboardModifiers@QApplication@@SA?AV?$QFlags@W4KeyboardModifier@Qt@@@@XZ
?keyboardModifiers@QDropEvent@@QBE?AV?$QFlags@W4KeyboardModifier@Qt@@@@XZ
?keyboardPageStep@QMdiSubWindow@@QBEHXZ
?keyboardSearch@QAbstractItemView@@UAEXABVQString@@@Z
?keyboardSearch@QTreeView@@UAEXABVQString@@@Z
?keyboardSingleStep@QMdiSubWindow@@QBEHXZ
?keyboardTracking@QAbstractSpinBox@@QBE_NXZ
?keyboard_input_time@QApplicationPrivate@@2HA
?keys@QInputContextFactory@@SA?AVQStringList@@XZ
?keys@QStyleFactory@@SA?AVQStringList@@XZ
?label@QTabWidget@@QBE?AVQString@@H@Z
?label@QToolBar@@QBE?AVQString@@XZ
?labelAlignment@QFormLayout@@QBE?AV?$QFlags@W4AlignmentFlag@Qt@@@@XZ
?labelForField@QFormLayout@@QBEPAVQWidget@@PAV2@@Z
?labelForField@QFormLayout@@QBEPAVQWidget@@PAVQLayout@@@Z
?labelText@QFileDialog@@QBE?AVQString@@W4DialogLabel@1@@Z
?labelText@QProgressDialog@@QBE?AVQString@@XZ
?languageChange@QWidget@@MAEXXZ
?languages@QInputContextFactory@@SA?AVQStringList@@ABVQString@@@Z
?last@?$QList@VQItemSelectionRange@@@@QAEAAVQItemSelectionRange@@XZ
?last@?$QList@VQItemSelectionRange@@@@QBEABVQItemSelectionRange@@XZ
?lastBlock@QTextDocument@@QBE?AVQTextBlock@@XZ
?lastCursorPosition@QTextFrame@@QBE?AVQTextCursor@@XZ
?lastCursorPosition@QTextTableCell@@QBE?AVQTextCursor@@XZ
?lastIndexOf@?$QList@VQItemSelectionRange@@@@QBEHABVQItemSelectionRange@@H@Z
?lastModified@QFileSystemModel@@QBE?AVQDateTime@@ABVQModelIndex@@@Z
?lastPos@QGraphicsSceneHoverEvent@@QBE?AVQPointF@@XZ
?lastPos@QGraphicsSceneMouseEvent@@QBE?AVQPointF@@XZ
?lastPosition@QTextFrame@@QBEHXZ
?lastPosition@QTextTableCell@@QBEHXZ
?lastResortFamily@QFont@@QBE?AVQString@@XZ
?lastResortFont@QFont@@QBE?AVQString@@XZ
?lastScenePos@QGraphicsSceneHoverEvent@@QBE?AVQPointF@@XZ
?lastScenePos@QGraphicsSceneMouseEvent@@QBE?AVQPointF@@XZ
?lastScreenPos@QGraphicsSceneHoverEvent@@QBE?AVQPoint@@XZ
?lastScreenPos@QGraphicsSceneMouseEvent@@QBE?AVQPoint@@XZ
?lastWindowClosed@QApplication@@IAEXXZ
?layout@QGraphicsWidget@@QBEPAVQGraphicsLayout@@XZ
?layout@QLayout@@UAEPAV1@XZ
?layout@QLayoutItem@@UAEPAVQLayout@@XZ
?layout@QTextBlock@@QBEPAVQTextLayout@@XZ
?layout@QWidget@@QBEPAVQLayout@@XZ
?layoutActions@QToolBarLayout@@QAE_NABVQSize@@@Z
?layoutBlock@QPlainTextDocumentLayout@@AAEXABVQTextBlock@@@Z
?layoutData@QTextFrame@@QBEPAVQTextFrameLayoutData@@XZ
?layoutDirection@QApplication@@SA?AW4LayoutDirection@Qt@@XZ
?layoutDirection@QGraphicsWidget@@QBE?AW4LayoutDirection@Qt@@XZ
?layoutDirection@QPainter@@QBE?AW4LayoutDirection@Qt@@XZ
?layoutDirection@QTextFormat@@QBE?AW4LayoutDirection@Qt@@XZ
?layoutDirection@QWidget@@QBE?AW4LayoutDirection@Qt@@XZ
?layoutMode@QListView@@QBE?AW4LayoutMode@1@XZ
?layoutSpacing@QStyle@@QBEHW4ControlType@QSizePolicy@@0W4Orientation@Qt@@PBVQStyleOption@@PBVQWidget@@@Z
?layoutSpacingImplementation@QPlastiqueStyle@@IBEHW4ControlType@QSizePolicy@@0W4Orientation@Qt@@PBVQStyleOption@@PBVQWidget@@@Z
?layoutSpacingImplementation@QStyle@@IBEHW4ControlType@QSizePolicy@@0W4Orientation@Qt@@PBVQStyleOption@@PBVQWidget@@@Z
?layout_helper@QTextLine@@AAEXH@Z
?lazyChildCount@QDirModel@@QBE_NXZ
?leading@QFontEngineMulti@@UBE?AUQFixed@@XZ
?leading@QFontMetrics@@QBEHXZ
?leading@QFontMetricsF@@QBENXZ
?leaveAfterRelease@QApplicationPrivate@@2V?$QPointer@VQWidget@@@@A
?leaveEvent@QMdiSubWindow@@MAEXPAVQEvent@@@Z
?leaveEvent@QMenu@@MAEXPAVQEvent@@@Z
?leaveEvent@QMenuBar@@MAEXPAVQEvent@@@Z
?leaveEvent@QToolButton@@MAEXPAVQEvent@@@Z
?leaveEvent@QWidget@@MAEXPAVQEvent@@@Z
?leaveModal@QApplicationPrivate@@SAXPAVQWidget@@@Z
?leaveModal_sys@QApplicationPrivate@@SAXPAVQWidget@@@Z
?leaveWhatsThisMode@QWhatsThis@@SAXXZ
?left@QItemSelectionRange@@QBEHXZ
?leftBearing@QFontMetrics@@QBEHVQChar@@@Z
?leftBearing@QFontMetricsF@@QBENVQChar@@@Z
?leftColumn@QTableWidgetSelectionRange@@QBEHXZ
?leftMargin@QTextBlockFormat@@QBENXZ
?leftMargin@QTextFrameFormat@@QBENXZ
?leftPadding@QTextTableCellFormat@@QBENXZ
?length@QBezier@@QBENN@Z
?length@QHeaderView@@QBEHXZ
?length@QPainterPath@@QBENXZ
?length@QTextBlock@@QBEHXZ
?length@QTextEngine@@QBEHH@Z
?length@QTextEngine@@QBEHPBUQScriptItem@@@Z
?length@QTextFragment@@QBEHXZ
?lengthProperty@QTextFormat@@QBE?AVQTextLength@@H@Z
?lengthValue@ValueExtractor@QCss@@AAEHABUValue@2@@Z
?lengthValue@ValueExtractor@QCss@@QAEHABUDeclaration@2@@Z
?lengthValues@ValueExtractor@QCss@@AAEXABUDeclaration@2@PAH@Z
?lengthVectorProperty@QTextFormat@@QBE?AV?$QVector@VQTextLength@@@@H@Z
?lessThan@QSortFilterProxyModel@@MBE_NABVQModelIndex@@0@Z
?letterSpacing@QFont@@QBENXZ
?letterSpacingType@QFont@@QBE?AW4SpacingType@1@XZ
?lexem@Parser@QCss@@QBE?AVQString@@XZ
?lexem@Symbol@QCss@@QBE?AVQString@@XZ
?lexemUntil@Parser@QCss@@QAE?AVQString@@W4TokenType@2@@Z
?light@QColor@@QBE?AV1@H@Z
?light@QColorGroup@@QBEABVQColor@@XZ
?light@QPalette@@QBEABVQBrush@@XZ
?lighter@QColor@@QBE?AV1@H@Z
?line@QGraphicsLineItem@@QBE?AVQLineF@@XZ
?lineAt@QTextLayout@@QBE?AVQTextLine@@H@Z
?lineCount@QTextLayout@@QBEHXZ
?lineEdit@QAbstractSpinBox@@IBEPAVQLineEdit@@XZ
?lineEdit@QComboBox@@QBEPAVQLineEdit@@XZ
?lineForTextPosition@QTextLayout@@QBE?AVQTextLine@@H@Z
?lineNumber@QTextLine@@QBEHXZ
?lineSpacing@QFontMetrics@@QBEHXZ
?lineSpacing@QFontMetricsF@@QBENXZ
?lineStep@QAbstractSlider@@QBEHXZ
?lineThickness@QFontEngine@@UBE?AUQFixed@@XZ
?lineThickness@QFontEngineMulti@@UBE?AUQFixed@@XZ
?lineTo@QPainterPath@@QAEXABVQPointF@@@Z
?lineTo@QPainterPath@@QAEXNN@Z
?lineTo@QStrokerOps@@QAEXNN@Z
?lineWidth@QFontMetrics@@QBEHXZ
?lineWidth@QFontMetricsF@@QBENXZ
?lineWidth@QFrame@@QBEHXZ
?lineWidth@QLineEdit@@QBEHXZ
?lineWidth@QMenuBar@@QBEHXZ
?lineWrapColumnOrWidth@QTextEdit@@QBEHXZ
?lineWrapMode@QPlainTextEdit@@QBE?AW4LineWrapMode@1@XZ
?lineWrapMode@QTextEdit@@QBE?AW4LineWrapMode@1@XZ
?link@QColorGroup@@QBEABVQColor@@XZ
?link@QPalette@@QBEABVQBrush@@XZ
?linkActivated@QGraphicsTextItem@@IAEXABVQString@@@Z
?linkActivated@QLabel@@IAEXABVQString@@@Z
?linkActivated@QTextControl@@IAEXABVQString@@@Z
?linkHovered@QGraphicsTextItem@@IAEXABVQString@@@Z
?linkHovered@QLabel@@IAEXABVQString@@@Z
?linkHovered@QTextControl@@IAEXABVQString@@@Z
?linkVisited@QColorGroup@@QBEABVQColor@@XZ
?linkVisited@QPalette@@QBEABVQBrush@@XZ
?listFormat@QTextFormatCollection@@QBE?AVQTextListFormat@@H@Z
?listWidget@QListWidgetItem@@QBEPAVQListWidget@@XZ
?load@QFontDatabase@@CAXPBVQFontPrivate@@H@Z
?load@QImage@@QAE_NABVQString@@PBD@Z
?load@QImage@@QAE_NPAVQIODevice@@PBD@Z
?load@QPicture@@QAE_NABVQString@@PBD@Z
?load@QPicture@@QAE_NPAVQIODevice@@PBD@Z
?load@QPixmap@@QAE_NABVQString@@PBDV?$QFlags@W4ImageConversionFlag@Qt@@@@@Z
?load@QPixmap@@QAE_NABVQString@@PBDW4ColorMode@1@@Z
?loadFromData@QImage@@QAE_NABVQByteArray@@PBD@Z
?loadFromData@QImage@@QAE_NPBEHPBD@Z
?loadFromData@QPixmap@@QAE_NABVQByteArray@@PBDV?$QFlags@W4ImageConversionFlag@Qt@@@@@Z
?loadFromData@QPixmap@@QAE_NPBEIPBDV?$QFlags@W4ImageConversionFlag@Qt@@@@@Z
?loadFromData@QPixmap@@QAE_NPBEIPBDW4ColorMode@1@@Z
?loadKerningPairs@QFontEngine@@QAEXUQFixed@@@Z
?loadPicture@QPictureFormatPlugin@@UAE_NABVQString@@0PAVQPicture@@@Z
?loadResource@QPlainTextEdit@@UAE?AVQVariant@@HABVQUrl@@@Z
?loadResource@QTextBrowser@@UAE?AVQVariant@@HABVQUrl@@@Z
?loadResource@QTextControl@@UAE?AVQVariant@@HABVQUrl@@@Z
?loadResource@QTextDocument@@MAE?AVQVariant@@HABVQUrl@@@Z
?loadResource@QTextEdit@@UAE?AVQVariant@@HABVQUrl@@@Z
?locale@QValidator@@QBE?AVQLocale@@XZ
?locale@QWidget@@QBE?AVQLocale@@XZ
?logClusters@QTextEngine@@QBEPAGPBUQScriptItem@@@Z
?logicalDpiX@QPaintDevice@@QBEHXZ
?logicalDpiY@QPaintDevice@@QBEHXZ
?logicalIndex@QHeaderView@@QBEHH@Z
?logicalIndexAt@QHeaderView@@QBEHABVQPoint@@@Z
?logicalIndexAt@QHeaderView@@QBEHH@Z
?logicalIndexAt@QHeaderView@@QBEHHH@Z
?lookup@Parser@QCss@@QBE?AW4TokenType@2@XZ
?lookupElementName@Parser@QCss@@QBE_NXZ
?loopCount@QImageIOHandler@@UBEHXZ
?loopCount@QImageReader@@QBEHXZ
?loopCount@QMovie@@QBEHXZ
?loops@QSound@@QBEHXZ
?loopsRemaining@QSound@@QBEHXZ
?lostFocus@QFocusEvent@@QBE_NXZ
?lostFocus@QLineEdit@@IAEXXZ
?lower@QWidget@@QAEXXZ
?lower_sys@QWidgetPrivate@@QAEXXZ
?m11@QMatrix@@QBENXZ
?m11@QTransform@@QBENXZ
?m12@QMatrix@@QBENXZ
?m12@QTransform@@QBENXZ
?m13@QTransform@@QBENXZ
?m21@QMatrix@@QBENXZ
?m21@QTransform@@QBENXZ
?m22@QMatrix@@QBENXZ
?m22@QTransform@@QBENXZ
?m23@QTransform@@QBENXZ
?m31@QTransform@@QBENXZ
?m32@QTransform@@QBENXZ
?m33@QTransform@@QBENXZ
?magenta@QColor@@QBEHXZ
?magentaF@QColor@@QBENXZ
?mainWidget@QApplication@@SAPAVQWidget@@XZ
?mainWidget@QLayout@@QBEPAVQWidget@@XZ
?main_widget@QApplicationPrivate@@2PAVQWidget@@A
?map@QMatrix@@QBE?AVQLine@@ABV2@@Z
?map@QMatrix@@QBE?AVQLineF@@ABV2@@Z
?map@QMatrix@@QBE?AVQPainterPath@@ABV2@@Z
?map@QMatrix@@QBE?AVQPoint@@ABV2@@Z
?map@QMatrix@@QBE?AVQPointF@@ABV2@@Z
?map@QMatrix@@QBE?AVQPolygon@@ABV2@@Z
?map@QMatrix@@QBE?AVQPolygonF@@ABV2@@Z
?map@QMatrix@@QBE?AVQRect@@ABV2@@Z
?map@QMatrix@@QBE?AVQRegion@@ABV2@@Z
?map@QMatrix@@QBEXHHPAH0@Z
?map@QMatrix@@QBEXNNPAN0@Z
?map@QPainter@@QBEXHHPAH0@Z
?map@QTransform@@QBE?AVQLine@@ABV2@@Z
?map@QTransform@@QBE?AVQLineF@@ABV2@@Z
?map@QTransform@@QBE?AVQPainterPath@@ABV2@@Z
?map@QTransform@@QBE?AVQPoint@@ABV2@@Z
?map@QTransform@@QBE?AVQPointF@@ABV2@@Z
?map@QTransform@@QBE?AVQPolygon@@ABV2@@Z
?map@QTransform@@QBE?AVQPolygonF@@ABV2@@Z
?map@QTransform@@QBE?AVQRegion@@ABV2@@Z
?map@QTransform@@QBEXHHPAH0@Z
?map@QTransform@@QBEXNNPAN0@Z
?mapFrom@QWidget@@QBE?AVQPoint@@PAV1@ABV2@@Z
?mapFromGlobal@QWidget@@QBE?AVQPoint@@ABV2@@Z
?mapFromItem@QGraphicsItem@@QBE?AVQPainterPath@@PBV1@ABV2@@Z
?mapFromItem@QGraphicsItem@@QBE?AVQPointF@@PBV1@ABV2@@Z
?mapFromItem@QGraphicsItem@@QBE?AVQPointF@@PBV1@NN@Z
?mapFromItem@QGraphicsItem@@QBE?AVQPolygonF@@PBV1@ABV2@@Z
?mapFromItem@QGraphicsItem@@QBE?AVQPolygonF@@PBV1@ABVQRectF@@@Z
?mapFromItem@QGraphicsItem@@QBE?AVQPolygonF@@PBV1@NNNN@Z
?mapFromParent@QGraphicsItem@@QBE?AVQPainterPath@@ABV2@@Z
?mapFromParent@QGraphicsItem@@QBE?AVQPointF@@ABV2@@Z
?mapFromParent@QGraphicsItem@@QBE?AVQPointF@@NN@Z
?mapFromParent@QGraphicsItem@@QBE?AVQPolygonF@@ABV2@@Z
?mapFromParent@QGraphicsItem@@QBE?AVQPolygonF@@ABVQRectF@@@Z
?mapFromParent@QGraphicsItem@@QBE?AVQPolygonF@@NNNN@Z
?mapFromParent@QWidget@@QBE?AVQPoint@@ABV2@@Z
?mapFromScene@QGraphicsItem@@QBE?AVQPainterPath@@ABV2@@Z
?mapFromScene@QGraphicsItem@@QBE?AVQPointF@@ABV2@@Z
?mapFromScene@QGraphicsItem@@QBE?AVQPointF@@NN@Z
?mapFromScene@QGraphicsItem@@QBE?AVQPolygonF@@ABV2@@Z
?mapFromScene@QGraphicsItem@@QBE?AVQPolygonF@@ABVQRectF@@@Z
?mapFromScene@QGraphicsItem@@QBE?AVQPolygonF@@NNNN@Z
?mapFromScene@QGraphicsView@@QBE?AVQPainterPath@@ABV2@@Z
?mapFromScene@QGraphicsView@@QBE?AVQPoint@@ABVQPointF@@@Z
?mapFromScene@QGraphicsView@@QBE?AVQPoint@@NN@Z
?mapFromScene@QGraphicsView@@QBE?AVQPolygon@@ABVQPolygonF@@@Z
?mapFromScene@QGraphicsView@@QBE?AVQPolygon@@ABVQRectF@@@Z
?mapFromScene@QGraphicsView@@QBE?AVQPolygon@@NNNN@Z
?mapFromSource@QSortFilterProxyModel@@UBE?AVQModelIndex@@ABV2@@Z
?mapFromWS@QWidgetPrivate@@QBE?AVQPoint@@ABV2@@Z
?mapFromWS@QWidgetPrivate@@QBE?AVQRect@@ABV2@@Z
?mapRect@QMatrix@@QBE?AVQRect@@ABV2@@Z
?mapRect@QMatrix@@QBE?AVQRectF@@ABV2@@Z
?mapRect@QTransform@@QBE?AVQRect@@ABV2@@Z
?mapRect@QTransform@@QBE?AVQRectF@@ABV2@@Z
?mapSelectionFromSource@QAbstractProxyModel@@UBE?AVQItemSelection@@ABV2@@Z
?mapSelectionFromSource@QSortFilterProxyModel@@UBE?AVQItemSelection@@ABV2@@Z
?mapSelectionToSource@QAbstractProxyModel@@UBE?AVQItemSelection@@ABV2@@Z
?mapSelectionToSource@QSortFilterProxyModel@@UBE?AVQItemSelection@@ABV2@@Z
?mapTo@QWidget@@QBE?AVQPoint@@PAV1@ABV2@@Z
?mapToGlobal@QWidget@@QBE?AVQPoint@@ABV2@@Z
?mapToItem@QGraphicsItem@@QBE?AVQPainterPath@@PBV1@ABV2@@Z
?mapToItem@QGraphicsItem@@QBE?AVQPointF@@PBV1@ABV2@@Z
?mapToItem@QGraphicsItem@@QBE?AVQPointF@@PBV1@NN@Z
?mapToItem@QGraphicsItem@@QBE?AVQPolygonF@@PBV1@ABV2@@Z
?mapToItem@QGraphicsItem@@QBE?AVQPolygonF@@PBV1@ABVQRectF@@@Z
?mapToItem@QGraphicsItem@@QBE?AVQPolygonF@@PBV1@NNNN@Z
?mapToParent@QGraphicsItem@@QBE?AVQPainterPath@@ABV2@@Z
?mapToParent@QGraphicsItem@@QBE?AVQPointF@@ABV2@@Z
?mapToParent@QGraphicsItem@@QBE?AVQPointF@@NN@Z
?mapToParent@QGraphicsItem@@QBE?AVQPolygonF@@ABV2@@Z
?mapToParent@QGraphicsItem@@QBE?AVQPolygonF@@ABVQRectF@@@Z
?mapToParent@QGraphicsItem@@QBE?AVQPolygonF@@NNNN@Z
?mapToParent@QWidget@@QBE?AVQPoint@@ABV2@@Z
?mapToPolygon@QMatrix@@QBE?AVQPolygon@@ABVQRect@@@Z
?mapToPolygon@QTransform@@QBE?AVQPolygon@@ABVQRect@@@Z
?mapToRegion@QMatrix@@QBE?AVQRegion@@ABVQRect@@@Z
?mapToScene@QGraphicsItem@@QBE?AVQPainterPath@@ABV2@@Z
?mapToScene@QGraphicsItem@@QBE?AVQPointF@@ABV2@@Z
?mapToScene@QGraphicsItem@@QBE?AVQPointF@@NN@Z
?mapToScene@QGraphicsItem@@QBE?AVQPolygonF@@ABV2@@Z
?mapToScene@QGraphicsItem@@QBE?AVQPolygonF@@ABVQRectF@@@Z
?mapToScene@QGraphicsItem@@QBE?AVQPolygonF@@NNNN@Z
?mapToScene@QGraphicsView@@QBE?AVQPainterPath@@ABV2@@Z
?mapToScene@QGraphicsView@@QBE?AVQPointF@@ABVQPoint@@@Z
?mapToScene@QGraphicsView@@QBE?AVQPointF@@HH@Z
?mapToScene@QGraphicsView@@QBE?AVQPolygonF@@ABVQPolygon@@@Z
?mapToScene@QGraphicsView@@QBE?AVQPolygonF@@ABVQRect@@@Z
?mapToScene@QGraphicsView@@QBE?AVQPolygonF@@HHHH@Z
?mapToSource@QSortFilterProxyModel@@UBE?AVQModelIndex@@ABV2@@Z
?mapToWS@QWidgetPrivate@@QBE?AVQPoint@@ABV2@@Z
?mapToWS@QWidgetPrivate@@QBE?AVQRect@@ABV2@@Z
?mappedPropertyName@QDataWidgetMapper@@QBE?AVQByteArray@@PAVQWidget@@@Z
?mappedSection@QDataWidgetMapper@@QBEHPAVQWidget@@@Z
?mappedWidgetAt@QDataWidgetMapper@@QBEPAVQWidget@@H@Z
?mapper@QWidgetPrivate@@2PAV?$QHash@PAUHWND__@@PAVQWidget@@@@A
?margin@QLCDNumber@@QBEHXZ
?margin@QLabel@@QBEHXZ
?margin@QLayout@@QBEHXZ
?margin@QLineEdit@@QBEHXZ
?margin@QMenuBar@@QBEHXZ
?margin@QSplitter@@QBEHXZ
?margin@QTabWidget@@QBEHXZ
?margin@QTextFrameFormat@@QBENXZ
?margin@QToolBox@@QBEHXZ
?margins@QPrinter@@QBE?AVQSize@@XZ
?margins@QPrinter@@QBEXPAI000@Z
?markContentsDirty@QTextDocument@@QAEXHH@Z
?markedText@QLineEdit@@QBE?AVQString@@XZ
?mask@QCursor@@QBEPBVQBitmap@@XZ
?mask@QPixmap@@QBE?AVQBitmap@@XZ
?mask@QPixmapData@@UBE?AVQBitmap@@XZ
?mask@QWidget@@QBE?AVQRegion@@XZ
?match@QProxyModel@@UBE?AV?$QList@VQModelIndex@@@@ABVQModelIndex@@HABVQVariant@@HV?$QFlags@W4MatchFlag@Qt@@@@@Z
?match@QSortFilterProxyModel@@UBE?AV?$QList@VQModelIndex@@@@ABVQModelIndex@@HABVQVariant@@HV?$QFlags@W4MatchFlag@Qt@@@@@Z
?matchRules@StyleSelector@QCss@@AAEXTNodePtr@12@ABV?$QVector@UStyleRule@QCss@@@@W4StyleSheetOrigin@2@HPAV?$QVector@U?$QPair@HUStyleRule@QCss@@@@@@@Z
?matches@QKeyEvent@@QBE_NW4StandardKey@QKeySequence@@@Z
?matches@QKeySequence@@QBE?AW4SequenceMatch@1@ABV1@@Z
?matchesFlags@QTreeWidgetItemIterator@@ABE_NPBVQTreeWidgetItem@@@Z
?matrix@QBrush@@QBEABVQMatrix@@XZ
?matrix@QGraphicsItem@@QBE?AVQMatrix@@XZ
?matrix@QGraphicsView@@QBE?AVQMatrix@@XZ
?matrix@QPaintEngineState@@QBE?AVQMatrix@@XZ
?matrix@QPainter@@QBEABVQMatrix@@XZ
?matrixAt@QGraphicsItemAnimation@@QBE?AVQMatrix@@N@Z
?matrixEnabled@QPainter@@QBE_NXZ
?maxCharWidth@QFontEngineMulti@@UBENXZ
?maxCount@QComboBox@@QBEHXZ
?maxInstances@QWidgetPrivate@@2HA
?maxLength@QLineEdit@@QBEHXZ
?maxPage@QAbstractPrintDialog@@QBEHXZ
?maxPage@QPrinter@@QBEHXZ
?maxValue@QAbstractSlider@@QBEHXZ
?maxValue@QSpinBox@@QBEHXZ
?maxVisibleItems@QComboBox@@QBEHXZ
?maxWidth@QFontMetrics@@QBEHXZ
?maxWidth@QFontMetricsF@@QBENXZ
?maximizedButtonsWidget@QMdiSubWindow@@QBEPAVQWidget@@XZ
?maximizedSystemMenuIconWidget@QMdiSubWindow@@QBEPAVQWidget@@XZ
?maximum@QAbstractSlider@@QBEHXZ
?maximum@QDoubleSpinBox@@QBENXZ
?maximum@QProgressBar@@QBEHXZ
?maximum@QProgressDialog@@QBEHXZ
?maximum@QSpinBox@@QBEHXZ
?maximumBlockCount@QPlainTextEdit@@QBEHXZ
?maximumBlockCount@QTextDocument@@QBEHXZ
?maximumDate@QCalendarWidget@@QBE?AVQDate@@XZ
?maximumDate@QDateTimeEdit@@QBE?AVQDate@@XZ
?maximumDateTime@QDateTimeEdit@@QBE?AVQDateTime@@XZ
?maximumHeight@QGraphicsLayoutItem@@QBENXZ
?maximumHeight@QWidget@@QBEHXZ
?maximumSize@QBoxLayout@@UBE?AVQSize@@XZ
?maximumSize@QDockWidgetLayout@@UBE?AVQSize@@XZ
?maximumSize@QGraphicsLayoutItem@@QBE?AVQSizeF@@XZ
?maximumSize@QGridLayout@@UBE?AVQSize@@XZ
?maximumSize@QLayout@@UBE?AVQSize@@XZ
?maximumSize@QSpacerItem@@UBE?AVQSize@@XZ
?maximumSize@QWidget@@QBE?AVQSize@@XZ
?maximumSize@QWidgetItem@@UBE?AVQSize@@XZ
?maximumSize@QWidgetItemV2@@UBE?AVQSize@@XZ
?maximumTime@QDateTimeEdit@@QBE?AVQTime@@XZ
?maximumViewportSize@QAbstractScrollArea@@QBE?AVQSize@@XZ
?maximumWidth@QGraphicsLayoutItem@@QBENXZ
?maximumWidth@QTextLayout@@QBENXZ
?maximumWidth@QWidget@@QBEHXZ
?mayGrowHorizontally@QSizePolicy@@QBE_NXZ
?mayGrowVertically@QSizePolicy@@QBE_NXZ
?mayShrinkHorizontally@QSizePolicy@@QBE_NXZ
?mayShrinkVertically@QSizePolicy@@QBE_NXZ
?maybeBackingStore@QWidgetPrivate@@QBEPAVQWidgetBackingStore@@XZ
?maybeTopData@QWidgetPrivate@@QBEPAUQTLWExtra@@XZ
?mdiArea@QMdiSubWindow@@QBEPAVQMdiArea@@XZ
?menu@QAction@@QBEPAVQMenu@@XZ
?menu@QPushButton@@QBEPAVQMenu@@XZ
?menu@QToolButton@@QBEPAVQMenu@@XZ
?menuAction@QMenu@@QBEPAVQAction@@XZ
?menuBar@QLayout@@QBEPAVQWidget@@XZ
?menuBar@QMainWindow@@QBEPAVQMenuBar@@XZ
?menuBar@QMenubarUpdatedEvent@@QAEPAVQMenuBar@@XZ
?menuRole@QAction@@QBE?AW4MenuRole@1@XZ
?menuText@QAction@@QBE?AVQString@@XZ
?menuWidget@QMainWindow@@QBEPAVQWidget@@XZ
?merge@QItemSelection@@QAEXABV1@V?$QFlags@W4SelectionFlag@QItemSelectionModel@@@@@Z
?merge@QTextFormat@@QAEXABV1@@Z
?mergeBlockCharFormat@QTextCursor@@QAEXABVQTextCharFormat@@@Z
?mergeBlockFormat@QTextCursor@@QAEXABVQTextBlockFormat@@@Z
?mergeCells@QTextTable@@QAEXABVQTextCursor@@@Z
?mergeCells@QTextTable@@QAEXHHHH@Z
?mergeCharFormat@QTextCursor@@QAEXABVQTextCharFormat@@@Z
?mergeCurrentCharFormat@QPlainTextEdit@@QAEXABVQTextCharFormat@@@Z
?mergeCurrentCharFormat@QTextControl@@QAEXABVQTextCharFormat@@@Z
?mergeCurrentCharFormat@QTextEdit@@QAEXABVQTextCharFormat@@@Z
?mergeWith@QUndoCommand@@UAE_NPBV1@@Z
?message@QErrorMessage@@QAEXABVQString@@@Z
?message@QMessageBox@@SAHABVQString@@00PAVQWidget@@PBD@Z
?message@QSplashScreen@@QAEXABVQString@@HABVQColor@@@Z
?message@QStatusBar@@QAEXABVQString@@H@Z
?messageChanged@QSplashScreen@@IAEXABVQString@@@Z
?messageChanged@QStatusBar@@IAEXABVQString@@@Z
?messageClicked@QSystemTrayIcon@@IAEXXZ
?metaInformation@QTextDocument@@QBE?AVQString@@W4MetaInformation@1@@Z
?metaObject@QAbstractButton@@UBEPBUQMetaObject@@XZ
?metaObject@QAbstractItemDelegate@@UBEPBUQMetaObject@@XZ
?metaObject@QAbstractItemView@@UBEPBUQMetaObject@@XZ
?metaObject@QAbstractPageSetupDialog@@UBEPBUQMetaObject@@XZ
?metaObject@QAbstractPrintDialog@@UBEPBUQMetaObject@@XZ
?metaObject@QAbstractProxyModel@@UBEPBUQMetaObject@@XZ
?metaObject@QAbstractScrollArea@@UBEPBUQMetaObject@@XZ
?metaObject@QAbstractSlider@@UBEPBUQMetaObject@@XZ
?metaObject@QAbstractSpinBox@@UBEPBUQMetaObject@@XZ
?metaObject@QAbstractTextDocumentLayout@@UBEPBUQMetaObject@@XZ
?metaObject@QAccessiblePlugin@@UBEPBUQMetaObject@@XZ
?metaObject@QAction@@UBEPBUQMetaObject@@XZ
?metaObject@QActionGroup@@UBEPBUQMetaObject@@XZ
?metaObject@QApplication@@UBEPBUQMetaObject@@XZ
?metaObject@QBoxLayout@@UBEPBUQMetaObject@@XZ
?metaObject@QButtonGroup@@UBEPBUQMetaObject@@XZ
?metaObject@QCDEStyle@@UBEPBUQMetaObject@@XZ
?metaObject@QCalendarWidget@@UBEPBUQMetaObject@@XZ
?metaObject@QCheckBox@@UBEPBUQMetaObject@@XZ
?metaObject@QCleanlooksStyle@@UBEPBUQMetaObject@@XZ
?metaObject@QClipboard@@UBEPBUQMetaObject@@XZ
?metaObject@QColorDialog@@UBEPBUQMetaObject@@XZ
?metaObject@QColumnView@@UBEPBUQMetaObject@@XZ
?metaObject@QComboBox@@UBEPBUQMetaObject@@XZ
?metaObject@QCommandLinkButton@@UBEPBUQMetaObject@@XZ
?metaObject@QCommonStyle@@UBEPBUQMetaObject@@XZ
?metaObject@QCompleter@@UBEPBUQMetaObject@@XZ
?metaObject@QDataWidgetMapper@@UBEPBUQMetaObject@@XZ
?metaObject@QDateEdit@@UBEPBUQMetaObject@@XZ
?metaObject@QDateTimeEdit@@UBEPBUQMetaObject@@XZ
?metaObject@QDesktopWidget@@UBEPBUQMetaObject@@XZ
?metaObject@QDial@@UBEPBUQMetaObject@@XZ
?metaObject@QDialog@@UBEPBUQMetaObject@@XZ
?metaObject@QDialogButtonBox@@UBEPBUQMetaObject@@XZ
?metaObject@QDirModel@@UBEPBUQMetaObject@@XZ
?metaObject@QDockWidget@@UBEPBUQMetaObject@@XZ
?metaObject@QDockWidgetLayout@@UBEPBUQMetaObject@@XZ
?metaObject@QDoubleSpinBox@@UBEPBUQMetaObject@@XZ
?metaObject@QDoubleValidator@@UBEPBUQMetaObject@@XZ
?metaObject@QDrag@@UBEPBUQMetaObject@@XZ
?metaObject@QDragManager@@UBEPBUQMetaObject@@XZ
?metaObject@QErrorMessage@@UBEPBUQMetaObject@@XZ
?metaObject@QFileDialog@@UBEPBUQMetaObject@@XZ
?metaObject@QFileSystemModel@@UBEPBUQMetaObject@@XZ
?metaObject@QFocusFrame@@UBEPBUQMetaObject@@XZ
?metaObject@QFontComboBox@@UBEPBUQMetaObject@@XZ
?metaObject@QFontDialog@@UBEPBUQMetaObject@@XZ
?metaObject@QFontEngine@@UBEPBUQMetaObject@@XZ
?metaObject@QFormLayout@@UBEPBUQMetaObject@@XZ
?metaObject@QFrame@@UBEPBUQMetaObject@@XZ
?metaObject@QGraphicsItemAnimation@@UBEPBUQMetaObject@@XZ
?metaObject@QGraphicsProxyWidget@@UBEPBUQMetaObject@@XZ
?metaObject@QGraphicsScene@@UBEPBUQMetaObject@@XZ
?metaObject@QGraphicsTextItem@@UBEPBUQMetaObject@@XZ
?metaObject@QGraphicsView@@UBEPBUQMetaObject@@XZ
?metaObject@QGraphicsWidget@@UBEPBUQMetaObject@@XZ
?metaObject@QGridLayout@@UBEPBUQMetaObject@@XZ
?metaObject@QGroupBox@@UBEPBUQMetaObject@@XZ
?metaObject@QHBoxLayout@@UBEPBUQMetaObject@@XZ
?metaObject@QHeaderView@@UBEPBUQMetaObject@@XZ
?metaObject@QIconEnginePlugin@@UBEPBUQMetaObject@@XZ
?metaObject@QIconEnginePluginV2@@UBEPBUQMetaObject@@XZ
?metaObject@QImageIOPlugin@@UBEPBUQMetaObject@@XZ
?metaObject@QInputContext@@UBEPBUQMetaObject@@XZ
?metaObject@QInputContextPlugin@@UBEPBUQMetaObject@@XZ
?metaObject@QInputDialog@@UBEPBUQMetaObject@@XZ
?metaObject@QIntValidator@@UBEPBUQMetaObject@@XZ
?metaObject@QItemDelegate@@UBEPBUQMetaObject@@XZ
?metaObject@QItemSelectionModel@@UBEPBUQMetaObject@@XZ
?metaObject@QLCDNumber@@UBEPBUQMetaObject@@XZ
?metaObject@QLabel@@UBEPBUQMetaObject@@XZ
?metaObject@QLayout@@UBEPBUQMetaObject@@XZ
?metaObject@QLineEdit@@UBEPBUQMetaObject@@XZ
?metaObject@QListView@@UBEPBUQMetaObject@@XZ
?metaObject@QListWidget@@UBEPBUQMetaObject@@XZ
?metaObject@QMainWindow@@UBEPBUQMetaObject@@XZ
?metaObject@QMdiArea@@UBEPBUQMetaObject@@XZ
?metaObject@QMdiSubWindow@@UBEPBUQMetaObject@@XZ
?metaObject@QMenu@@UBEPBUQMetaObject@@XZ
?metaObject@QMenuBar@@UBEPBUQMetaObject@@XZ
?metaObject@QMenuItem@@UBEPBUQMetaObject@@XZ
?metaObject@QMessageBox@@UBEPBUQMetaObject@@XZ
?metaObject@QMotifStyle@@UBEPBUQMetaObject@@XZ
?metaObject@QMovie@@UBEPBUQMetaObject@@XZ
?metaObject@QPageSetupDialog@@UBEPBUQMetaObject@@XZ
?metaObject@QPictureFormatPlugin@@UBEPBUQMetaObject@@XZ
?metaObject@QPlainTextDocumentLayout@@UBEPBUQMetaObject@@XZ
?metaObject@QPlainTextEdit@@UBEPBUQMetaObject@@XZ
?metaObject@QPlastiqueStyle@@UBEPBUQMetaObject@@XZ
?metaObject@QPrintDialog@@UBEPBUQMetaObject@@XZ
?metaObject@QPrintPreviewDialog@@UBEPBUQMetaObject@@XZ
?metaObject@QPrintPreviewWidget@@UBEPBUQMetaObject@@XZ
?metaObject@QProgressBar@@UBEPBUQMetaObject@@XZ
?metaObject@QProgressDialog@@UBEPBUQMetaObject@@XZ
?metaObject@QProxyModel@@UBEPBUQMetaObject@@XZ
?metaObject@QPushButton@@UBEPBUQMetaObject@@XZ
?metaObject@QRadioButton@@UBEPBUQMetaObject@@XZ
?metaObject@QRegExpValidator@@UBEPBUQMetaObject@@XZ
?metaObject@QRubberBand@@UBEPBUQMetaObject@@XZ
?metaObject@QScrollArea@@UBEPBUQMetaObject@@XZ
?metaObject@QScrollBar@@UBEPBUQMetaObject@@XZ
?metaObject@QSessionManager@@UBEPBUQMetaObject@@XZ
?metaObject@QShortcut@@UBEPBUQMetaObject@@XZ
?metaObject@QSizeGrip@@UBEPBUQMetaObject@@XZ
?metaObject@QSlider@@UBEPBUQMetaObject@@XZ
?metaObject@QSortFilterProxyModel@@UBEPBUQMetaObject@@XZ
?metaObject@QSound@@UBEPBUQMetaObject@@XZ
?metaObject@QSpinBox@@UBEPBUQMetaObject@@XZ
?metaObject@QSplashScreen@@UBEPBUQMetaObject@@XZ
?metaObject@QSplitter@@UBEPBUQMetaObject@@XZ
?metaObject@QSplitterHandle@@UBEPBUQMetaObject@@XZ
?metaObject@QStackedLayout@@UBEPBUQMetaObject@@XZ
?metaObject@QStackedWidget@@UBEPBUQMetaObject@@XZ
?metaObject@QStandardItemModel@@UBEPBUQMetaObject@@XZ
?metaObject@QStatusBar@@UBEPBUQMetaObject@@XZ
?metaObject@QStringListModel@@UBEPBUQMetaObject@@XZ
?metaObject@QStyle@@UBEPBUQMetaObject@@XZ
?metaObject@QStylePlugin@@UBEPBUQMetaObject@@XZ
?metaObject@QStyledItemDelegate@@UBEPBUQMetaObject@@XZ
?metaObject@QSyntaxHighlighter@@UBEPBUQMetaObject@@XZ
?metaObject@QSystemTrayIcon@@UBEPBUQMetaObject@@XZ
?metaObject@QTabBar@@UBEPBUQMetaObject@@XZ
?metaObject@QTabWidget@@UBEPBUQMetaObject@@XZ
?metaObject@QTableView@@UBEPBUQMetaObject@@XZ
?metaObject@QTableWidget@@UBEPBUQMetaObject@@XZ
?metaObject@QTextBlockGroup@@UBEPBUQMetaObject@@XZ
?metaObject@QTextBrowser@@UBEPBUQMetaObject@@XZ
?metaObject@QTextControl@@UBEPBUQMetaObject@@XZ
?metaObject@QTextDocument@@UBEPBUQMetaObject@@XZ
?metaObject@QTextEdit@@UBEPBUQMetaObject@@XZ
?metaObject@QTextFrame@@UBEPBUQMetaObject@@XZ
?metaObject@QTextImageHandler@@UBEPBUQMetaObject@@XZ
?metaObject@QTextList@@UBEPBUQMetaObject@@XZ
?metaObject@QTextObject@@UBEPBUQMetaObject@@XZ
?metaObject@QTextTable@@UBEPBUQMetaObject@@XZ
?metaObject@QTimeEdit@@UBEPBUQMetaObject@@XZ
?metaObject@QToolBar@@UBEPBUQMetaObject@@XZ
?metaObject@QToolBarLayout@@UBEPBUQMetaObject@@XZ
?metaObject@QToolBox@@UBEPBUQMetaObject@@XZ
?metaObject@QToolButton@@UBEPBUQMetaObject@@XZ
?metaObject@QTreeView@@UBEPBUQMetaObject@@XZ
?metaObject@QTreeWidget@@UBEPBUQMetaObject@@XZ
?metaObject@QUndoGroup@@UBEPBUQMetaObject@@XZ
?metaObject@QUndoStack@@UBEPBUQMetaObject@@XZ
?metaObject@QUndoView@@UBEPBUQMetaObject@@XZ
?metaObject@QVBoxLayout@@UBEPBUQMetaObject@@XZ
?metaObject@QValidator@@UBEPBUQMetaObject@@XZ
?metaObject@QWidget@@UBEPBUQMetaObject@@XZ
?metaObject@QWidgetAction@@UBEPBUQMetaObject@@XZ
?metaObject@QWidgetResizeHandler@@UBEPBUQMetaObject@@XZ
?metaObject@QWindowsStyle@@UBEPBUQMetaObject@@XZ
?metaObject@QWindowsVistaStyle@@UBEPBUQMetaObject@@XZ
?metaObject@QWindowsXPStyle@@UBEPBUQMetaObject@@XZ
?metaObject@QWizard@@UBEPBUQMetaObject@@XZ
?metaObject@QWizardPage@@UBEPBUQMetaObject@@XZ
?metaObject@QWorkspace@@UBEPBUQMetaObject@@XZ
?metric@QImage@@MBEHW4PaintDeviceMetric@QPaintDevice@@@Z
?metric@QPaintDevice@@MBEHW4PaintDeviceMetric@1@@Z
?metric@QPicture@@MBEHW4PaintDeviceMetric@QPaintDevice@@@Z
?metric@QPixmap@@MBEHW4PaintDeviceMetric@QPaintDevice@@@Z
?metric@QPrinter@@MBEHW4PaintDeviceMetric@QPaintDevice@@@Z
?metric@QWidget@@MBEHW4PaintDeviceMetric@QPaintDevice@@@Z
?microFocusChanged@QTextControl@@IAEXXZ
?mid@?$QList@VQItemSelectionRange@@@@QBE?AV1@HH@Z
?mid@QColorGroup@@QBEABVQColor@@XZ
?mid@QPalette@@QBEABVQBrush@@XZ
?midLineWidth@QFrame@@QBEHXZ
?midLineWidth@QLineEdit@@QBEHXZ
?midLineWidth@QMenuBar@@QBEHXZ
?midPoint@QBezier@@QBE?AVQPointF@@XZ
?midTangent@QBezier@@QBE?AVQLineF@@XZ
?midlight@QColorGroup@@QBEABVQColor@@XZ
?midlight@QPalette@@QBEABVQBrush@@XZ
?mightBeRichText@Qt@@YA_NABVQString@@@Z
?mimeData@QClipboard@@QBEPBVQMimeData@@W4Mode@1@@Z
?mimeData@QDirModel@@UBEPAVQMimeData@@ABV?$QList@VQModelIndex@@@@@Z
?mimeData@QDrag@@QBEPAVQMimeData@@XZ
?mimeData@QDropEvent@@QBEPBVQMimeData@@XZ
?mimeData@QFileSystemModel@@UBEPAVQMimeData@@ABV?$QList@VQModelIndex@@@@@Z
?mimeData@QGraphicsSceneDragDropEvent@@QBEPBVQMimeData@@XZ
?mimeData@QListWidget@@MBEPAVQMimeData@@V?$QList@PAVQListWidgetItem@@@@@Z
?mimeData@QProxyModel@@UBEPAVQMimeData@@ABV?$QList@VQModelIndex@@@@@Z
?mimeData@QSortFilterProxyModel@@UBEPAVQMimeData@@ABV?$QList@VQModelIndex@@@@@Z
?mimeData@QTableWidget@@MBEPAVQMimeData@@V?$QList@PAVQTableWidgetItem@@@@@Z
?mimeData@QTreeWidget@@MBEPAVQMimeData@@V?$QList@PAVQTreeWidgetItem@@@@@Z
?mimeTypes@QDirModel@@UBE?AVQStringList@@XZ
?mimeTypes@QFileSystemModel@@UBE?AVQStringList@@XZ
?mimeTypes@QListWidget@@MBE?AVQStringList@@XZ
?mimeTypes@QProxyModel@@UBE?AVQStringList@@XZ
?mimeTypes@QSortFilterProxyModel@@UBE?AVQStringList@@XZ
?mimeTypes@QTableWidget@@MBE?AVQStringList@@XZ
?mimeTypes@QTreeWidget@@MBE?AVQStringList@@XZ
?minLeftBearing@QFontEngine@@UBENXZ
?minLeftBearing@QFontEngineMulti@@UBENXZ
?minLeftBearing@QFontMetrics@@QBEHXZ
?minLeftBearing@QFontMetricsF@@QBENXZ
?minPage@QAbstractPrintDialog@@QBEHXZ
?minPage@QPrinter@@QBEHXZ
?minRightBearing@QFontEngine@@UBENXZ
?minRightBearing@QFontEngineMulti@@UBENXZ
?minRightBearing@QFontMetrics@@QBEHXZ
?minRightBearing@QFontMetricsF@@QBENXZ
?minValue@QAbstractSlider@@QBEHXZ
?minValue@QSpinBox@@QBEHXZ
?minimum@QAbstractSlider@@QBEHXZ
?minimum@QDoubleSpinBox@@QBENXZ
?minimum@QProgressBar@@QBEHXZ
?minimum@QProgressDialog@@QBEHXZ
?minimum@QSpinBox@@QBEHXZ
?minimumContentsLength@QComboBox@@QBEHXZ
?minimumDate@QCalendarWidget@@QBE?AVQDate@@XZ
?minimumDate@QDateTimeEdit@@QBE?AVQDate@@XZ
?minimumDateTime@QDateTimeEdit@@QBE?AVQDateTime@@XZ
?minimumDuration@QProgressDialog@@QBEHXZ
?minimumHeight@QGraphicsLayoutItem@@QBENXZ
?minimumHeight@QWidget@@QBEHXZ
?minimumHeightForWidth@QBoxLayout@@UBEHH@Z
?minimumHeightForWidth@QGridLayout@@UBEHH@Z
?minimumHeightForWidth@QLayoutItem@@UBEHH@Z
?minimumSectionSize@QHeaderView@@QBEHXZ
?minimumSize@QBoxLayout@@UBE?AVQSize@@XZ
?minimumSize@QDockWidgetLayout@@UBE?AVQSize@@XZ
?minimumSize@QFormLayout@@UBE?AVQSize@@XZ
?minimumSize@QGraphicsLayoutItem@@QBE?AVQSizeF@@XZ
?minimumSize@QGridLayout@@UBE?AVQSize@@XZ
?minimumSize@QLayout@@UBE?AVQSize@@XZ
?minimumSize@QSpacerItem@@UBE?AVQSize@@XZ
?minimumSize@QStackedLayout@@UBE?AVQSize@@XZ
?minimumSize@QToolBarLayout@@UBE?AVQSize@@XZ
?minimumSize@QWidget@@QBE?AVQSize@@XZ
?minimumSize@QWidgetItem@@UBE?AVQSize@@XZ
?minimumSize@QWidgetItemV2@@UBE?AVQSize@@XZ
?minimumSizeHint@QAbstractScrollArea@@UBE?AVQSize@@XZ
?minimumSizeHint@QAbstractSpinBox@@UBE?AVQSize@@XZ
?minimumSizeHint@QCalendarWidget@@UBE?AVQSize@@XZ
?minimumSizeHint@QComboBox@@UBE?AVQSize@@XZ
?minimumSizeHint@QCommandLinkButton@@MBE?AVQSize@@XZ
?minimumSizeHint@QDial@@UBE?AVQSize@@XZ
?minimumSizeHint@QDialog@@UBE?AVQSize@@XZ
?minimumSizeHint@QGroupBox@@UBE?AVQSize@@XZ
?minimumSizeHint@QLabel@@UBE?AVQSize@@XZ
?minimumSizeHint@QLineEdit@@UBE?AVQSize@@XZ
?minimumSizeHint@QMdiArea@@UBE?AVQSize@@XZ
?minimumSizeHint@QMdiSubWindow@@UBE?AVQSize@@XZ
?minimumSizeHint@QMenuBar@@UBE?AVQSize@@XZ
?minimumSizeHint@QProgressBar@@UBE?AVQSize@@XZ
?minimumSizeHint@QPushButton@@UBE?AVQSize@@XZ
?minimumSizeHint@QSlider@@UBE?AVQSize@@XZ
?minimumSizeHint@QSplitter@@UBE?AVQSize@@XZ
?minimumSizeHint@QTabBar@@UBE?AVQSize@@XZ
?minimumSizeHint@QTabWidget@@UBE?AVQSize@@XZ
?minimumSizeHint@QToolButton@@UBE?AVQSize@@XZ
?minimumSizeHint@QWidget@@UBE?AVQSize@@XZ
?minimumTime@QDateTimeEdit@@QBE?AVQTime@@XZ
?minimumTitleWidth@QDockWidgetLayout@@QBEHXZ
?minimumWidth@QGraphicsLayoutItem@@QBENXZ
?minimumWidth@QTextLayout@@QBENXZ
?minimumWidth@QWidget@@QBEHXZ
?mirror@QImage@@QBE?AV1@_N0@Z
?mirrored@QImage@@QBE?AV1@_N0@Z
?miterLimit@QPainterPathStroker@@QBENXZ
?miterLimit@QPen@@QBENXZ
?miterLimit@QStroker@@QBENXZ
?mkdir@QDirModel@@QAE?AVQModelIndex@@ABV2@ABVQString@@@Z
?mkdir@QFileSystemModel@@QAE?AVQModelIndex@@ABV2@ABVQString@@@Z
?mnemonic@QKeySequence@@SA?AV1@ABVQString@@@Z
?modalState@QApplicationPrivate@@SA_NXZ
?mode@QColormap@@QBE?AW4Mode@1@XZ
?mode@QFileDialog@@QBE?AW4FileMode@1@XZ
?mode@QLCDNumber@@QBE?AW4Mode@1@XZ
?model@QAbstractItemView@@QBEPAVQAbstractItemModel@@XZ
?model@QComboBox@@QBEPAVQAbstractItemModel@@XZ
?model@QCompleter@@QBEPAVQAbstractItemModel@@XZ
?model@QDataWidgetMapper@@QBEPAVQAbstractItemModel@@XZ
?model@QItemSelectionModel@@QBEPBVQAbstractItemModel@@XZ
?model@QItemSelectionRange@@QBEPBVQAbstractItemModel@@XZ
?model@QProxyModel@@QBEPAVQAbstractItemModel@@XZ
?model@QStandardItem@@QBEPAVQStandardItemModel@@XZ
?modelColumn@QComboBox@@QBEHXZ
?modelColumn@QListView@@QBEHXZ
?modelSorting@QCompleter@@QBE?AW4ModelSorting@1@XZ
?modificationChanged@QPlainTextEdit@@IAEX_N@Z
?modificationChanged@QTextControl@@IAEX_N@Z
?modificationChanged@QTextDocument@@IAEX_N@Z
?modifier_buttons@QApplicationPrivate@@2V?$QFlags@W4KeyboardModifier@Qt@@@@A
?modifiers@QGraphicsSceneContextMenuEvent@@QBE?AV?$QFlags@W4KeyboardModifier@Qt@@@@XZ
?modifiers@QGraphicsSceneDragDropEvent@@QBE?AV?$QFlags@W4KeyboardModifier@Qt@@@@XZ
?modifiers@QGraphicsSceneHoverEvent@@QBE?AV?$QFlags@W4KeyboardModifier@Qt@@@@XZ
?modifiers@QGraphicsSceneMouseEvent@@QBE?AV?$QFlags@W4KeyboardModifier@Qt@@@@XZ
?modifiers@QGraphicsSceneWheelEvent@@QBE?AV?$QFlags@W4KeyboardModifier@Qt@@@@XZ
?modifiers@QInputEvent@@QBE?AV?$QFlags@W4KeyboardModifier@Qt@@@@XZ
?modifiers@QKeyEvent@@QBE?AV?$QFlags@W4KeyboardModifier@Qt@@@@XZ
?monthShown@QCalendarWidget@@QBEHXZ
?mouseButtons@QApplication@@SA?AV?$QFlags@W4MouseButton@Qt@@@@XZ
?mouseButtons@QDropEvent@@QBE?AV?$QFlags@W4MouseButton@Qt@@@@XZ
?mouseDoubleClickEvent@QAbstractItemView@@MAEXPAVQMouseEvent@@@Z
?mouseDoubleClickEvent@QAbstractScrollArea@@MAEXPAVQMouseEvent@@@Z
?mouseDoubleClickEvent@QGraphicsItem@@MAEXPAVQGraphicsSceneMouseEvent@@@Z
?mouseDoubleClickEvent@QGraphicsProxyWidget@@MAEXPAVQGraphicsSceneMouseEvent@@@Z
?mouseDoubleClickEvent@QGraphicsScene@@MAEXPAVQGraphicsSceneMouseEvent@@@Z
?mouseDoubleClickEvent@QGraphicsTextItem@@MAEXPAVQGraphicsSceneMouseEvent@@@Z
?mouseDoubleClickEvent@QGraphicsView@@MAEXPAVQMouseEvent@@@Z
?mouseDoubleClickEvent@QHeaderView@@MAEXPAVQMouseEvent@@@Z
?mouseDoubleClickEvent@QLineEdit@@MAEXPAVQMouseEvent@@@Z
?mouseDoubleClickEvent@QMdiSubWindow@@MAEXPAVQMouseEvent@@@Z
?mouseDoubleClickEvent@QPlainTextEdit@@MAEXPAVQMouseEvent@@@Z
?mouseDoubleClickEvent@QTextEdit@@MAEXPAVQMouseEvent@@@Z
?mouseDoubleClickEvent@QTreeView@@MAEXPAVQMouseEvent@@@Z
?mouseDoubleClickEvent@QWidget@@MAEXPAVQMouseEvent@@@Z
?mouseGrabber@QWidget@@SAPAV1@XZ
?mouseGrabberItem@QGraphicsScene@@QBEPAVQGraphicsItem@@XZ
?mouseHandler@QInputContext@@UAEXHPAVQMouseEvent@@@Z
?mouseMoveEvent@QAbstractButton@@MAEXPAVQMouseEvent@@@Z
?mouseMoveEvent@QAbstractItemView@@MAEXPAVQMouseEvent@@@Z
?mouseMoveEvent@QAbstractScrollArea@@MAEXPAVQMouseEvent@@@Z
?mouseMoveEvent@QAbstractSpinBox@@MAEXPAVQMouseEvent@@@Z
?mouseMoveEvent@QCheckBox@@MAEXPAVQMouseEvent@@@Z
?mouseMoveEvent@QDial@@MAEXPAVQMouseEvent@@@Z
?mouseMoveEvent@QGraphicsItem@@MAEXPAVQGraphicsSceneMouseEvent@@@Z
?mouseMoveEvent@QGraphicsProxyWidget@@MAEXPAVQGraphicsSceneMouseEvent@@@Z
?mouseMoveEvent@QGraphicsScene@@MAEXPAVQGraphicsSceneMouseEvent@@@Z
?mouseMoveEvent@QGraphicsTextItem@@MAEXPAVQGraphicsSceneMouseEvent@@@Z
?mouseMoveEvent@QGraphicsView@@MAEXPAVQMouseEvent@@@Z
?mouseMoveEvent@QGroupBox@@MAEXPAVQMouseEvent@@@Z
?mouseMoveEvent@QHeaderView@@MAEXPAVQMouseEvent@@@Z
?mouseMoveEvent@QLabel@@MAEXPAVQMouseEvent@@@Z
?mouseMoveEvent@QLineEdit@@MAEXPAVQMouseEvent@@@Z
?mouseMoveEvent@QListView@@MAEXPAVQMouseEvent@@@Z
?mouseMoveEvent@QMdiSubWindow@@MAEXPAVQMouseEvent@@@Z
?mouseMoveEvent@QMenu@@MAEXPAVQMouseEvent@@@Z
?mouseMoveEvent@QMenuBar@@MAEXPAVQMouseEvent@@@Z
?mouseMoveEvent@QPlainTextEdit@@MAEXPAVQMouseEvent@@@Z
?mouseMoveEvent@QRadioButton@@MAEXPAVQMouseEvent@@@Z
?mouseMoveEvent@QScrollBar@@MAEXPAVQMouseEvent@@@Z
?mouseMoveEvent@QSizeGrip@@MAEXPAVQMouseEvent@@@Z
?mouseMoveEvent@QSlider@@MAEXPAVQMouseEvent@@@Z
?mouseMoveEvent@QSplitterHandle@@MAEXPAVQMouseEvent@@@Z
?mouseMoveEvent@QTabBar@@MAEXPAVQMouseEvent@@@Z
?mouseMoveEvent@QTextBrowser@@MAEXPAVQMouseEvent@@@Z
?mouseMoveEvent@QTextEdit@@MAEXPAVQMouseEvent@@@Z
?mouseMoveEvent@QTreeView@@MAEXPAVQMouseEvent@@@Z
?mouseMoveEvent@QWidget@@MAEXPAVQMouseEvent@@@Z
?mouseMoveEvent@QWidgetResizeHandler@@IAEXPAVQMouseEvent@@@Z
?mousePressEvent@QAbstractButton@@MAEXPAVQMouseEvent@@@Z
?mousePressEvent@QAbstractItemView@@MAEXPAVQMouseEvent@@@Z
?mousePressEvent@QAbstractScrollArea@@MAEXPAVQMouseEvent@@@Z
?mousePressEvent@QAbstractSpinBox@@MAEXPAVQMouseEvent@@@Z
?mousePressEvent@QCalendarWidget@@MAEXPAVQMouseEvent@@@Z
?mousePressEvent@QComboBox@@MAEXPAVQMouseEvent@@@Z
?mousePressEvent@QDateTimeEdit@@MAEXPAVQMouseEvent@@@Z
?mousePressEvent@QDial@@MAEXPAVQMouseEvent@@@Z
?mousePressEvent@QGraphicsItem@@MAEXPAVQGraphicsSceneMouseEvent@@@Z
?mousePressEvent@QGraphicsProxyWidget@@MAEXPAVQGraphicsSceneMouseEvent@@@Z
?mousePressEvent@QGraphicsScene@@MAEXPAVQGraphicsSceneMouseEvent@@@Z
?mousePressEvent@QGraphicsTextItem@@MAEXPAVQGraphicsSceneMouseEvent@@@Z
?mousePressEvent@QGraphicsView@@MAEXPAVQMouseEvent@@@Z
?mousePressEvent@QGroupBox@@MAEXPAVQMouseEvent@@@Z
?mousePressEvent@QHeaderView@@MAEXPAVQMouseEvent@@@Z
?mousePressEvent@QLabel@@MAEXPAVQMouseEvent@@@Z
?mousePressEvent@QLineEdit@@MAEXPAVQMouseEvent@@@Z
?mousePressEvent@QMdiSubWindow@@MAEXPAVQMouseEvent@@@Z
?mousePressEvent@QMenu@@MAEXPAVQMouseEvent@@@Z
?mousePressEvent@QMenuBar@@MAEXPAVQMouseEvent@@@Z
?mousePressEvent@QPlainTextEdit@@MAEXPAVQMouseEvent@@@Z
?mousePressEvent@QScrollBar@@MAEXPAVQMouseEvent@@@Z
?mousePressEvent@QSizeGrip@@MAEXPAVQMouseEvent@@@Z
?mousePressEvent@QSlider@@MAEXPAVQMouseEvent@@@Z
?mousePressEvent@QSplashScreen@@MAEXPAVQMouseEvent@@@Z
?mousePressEvent@QSplitterHandle@@MAEXPAVQMouseEvent@@@Z
?mousePressEvent@QTabBar@@MAEXPAVQMouseEvent@@@Z
?mousePressEvent@QTextBrowser@@MAEXPAVQMouseEvent@@@Z
?mousePressEvent@QTextEdit@@MAEXPAVQMouseEvent@@@Z
?mousePressEvent@QToolButton@@MAEXPAVQMouseEvent@@@Z
?mousePressEvent@QTreeView@@MAEXPAVQMouseEvent@@@Z
?mousePressEvent@QWidget@@MAEXPAVQMouseEvent@@@Z
?mouseReleaseEvent@QAbstractButton@@MAEXPAVQMouseEvent@@@Z
?mouseReleaseEvent@QAbstractItemView@@MAEXPAVQMouseEvent@@@Z
?mouseReleaseEvent@QAbstractScrollArea@@MAEXPAVQMouseEvent@@@Z
?mouseReleaseEvent@QAbstractSpinBox@@MAEXPAVQMouseEvent@@@Z
?mouseReleaseEvent@QComboBox@@MAEXPAVQMouseEvent@@@Z
?mouseReleaseEvent@QDial@@MAEXPAVQMouseEvent@@@Z
?mouseReleaseEvent@QGraphicsItem@@MAEXPAVQGraphicsSceneMouseEvent@@@Z
?mouseReleaseEvent@QGraphicsProxyWidget@@MAEXPAVQGraphicsSceneMouseEvent@@@Z
?mouseReleaseEvent@QGraphicsScene@@MAEXPAVQGraphicsSceneMouseEvent@@@Z
?mouseReleaseEvent@QGraphicsTextItem@@MAEXPAVQGraphicsSceneMouseEvent@@@Z
?mouseReleaseEvent@QGraphicsView@@MAEXPAVQMouseEvent@@@Z
?mouseReleaseEvent@QGroupBox@@MAEXPAVQMouseEvent@@@Z
?mouseReleaseEvent@QHeaderView@@MAEXPAVQMouseEvent@@@Z
?mouseReleaseEvent@QLabel@@MAEXPAVQMouseEvent@@@Z
?mouseReleaseEvent@QLineEdit@@MAEXPAVQMouseEvent@@@Z
?mouseReleaseEvent@QListView@@MAEXPAVQMouseEvent@@@Z
?mouseReleaseEvent@QMdiSubWindow@@MAEXPAVQMouseEvent@@@Z
?mouseReleaseEvent@QMenu@@MAEXPAVQMouseEvent@@@Z
?mouseReleaseEvent@QMenuBar@@MAEXPAVQMouseEvent@@@Z
?mouseReleaseEvent@QPlainTextEdit@@MAEXPAVQMouseEvent@@@Z
?mouseReleaseEvent@QScrollBar@@MAEXPAVQMouseEvent@@@Z
?mouseReleaseEvent@QSizeGrip@@MAEXPAVQMouseEvent@@@Z
?mouseReleaseEvent@QSlider@@MAEXPAVQMouseEvent@@@Z
?mouseReleaseEvent@QSplitterHandle@@MAEXPAVQMouseEvent@@@Z
?mouseReleaseEvent@QTabBar@@MAEXPAVQMouseEvent@@@Z
?mouseReleaseEvent@QTextBrowser@@MAEXPAVQMouseEvent@@@Z
?mouseReleaseEvent@QTextEdit@@MAEXPAVQMouseEvent@@@Z
?mouseReleaseEvent@QToolButton@@MAEXPAVQMouseEvent@@@Z
?mouseReleaseEvent@QTreeView@@MAEXPAVQMouseEvent@@@Z
?mouseReleaseEvent@QWidget@@MAEXPAVQMouseEvent@@@Z
?mouse_buttons@QApplicationPrivate@@2V?$QFlags@W4MouseButton@Qt@@@@A
?mouse_double_click_time@QApplicationPrivate@@2HA
?movable@QToolBarLayout@@QBE_NXZ
?movableChanged@QToolBar@@IAEX_N@Z
?move@?$QList@VQItemSelectionRange@@@@QAEXHH@Z
?move@QDragManager@@QAEXABVQPoint@@@Z
?move@QRubberBand@@QAEXABVQPoint@@@Z
?move@QRubberBand@@QAEXHH@Z
?move@QWidget@@QAEXABVQPoint@@@Z
?move@QWidget@@QAEXHH@Z
?moveBy@QGraphicsItem@@QAEXNN@Z
?moveCursor@QColumnView@@MAE?AVQModelIndex@@W4CursorAction@QAbstractItemView@@V?$QFlags@W4KeyboardModifier@Qt@@@@@Z
?moveCursor@QHeaderView@@MAE?AVQModelIndex@@W4CursorAction@QAbstractItemView@@V?$QFlags@W4KeyboardModifier@Qt@@@@@Z
?moveCursor@QListView@@MAE?AVQModelIndex@@W4CursorAction@QAbstractItemView@@V?$QFlags@W4KeyboardModifier@Qt@@@@@Z
?moveCursor@QPlainTextEdit@@QAEXW4MoveOperation@QTextCursor@@W4MoveMode@3@@Z
?moveCursor@QTableView@@MAE?AVQModelIndex@@W4CursorAction@QAbstractItemView@@V?$QFlags@W4KeyboardModifier@Qt@@@@@Z
?moveCursor@QTextControl@@QAEXW4MoveOperation@QTextCursor@@W4MoveMode@3@@Z
?moveCursor@QTextEdit@@QAEXW4CursorAction@1@W4MoveMode@QTextCursor@@@Z
?moveCursor@QTextEdit@@QAEXW4CursorAction@1@_N@Z
?moveCursor@QTextEdit@@QAEXW4MoveOperation@QTextCursor@@W4MoveMode@3@@Z
?moveCursor@QTreeView@@MAE?AVQModelIndex@@W4CursorAction@QAbstractItemView@@V?$QFlags@W4KeyboardModifier@Qt@@@@@Z
?moveEvent@QGraphicsWidget@@MAEXPAVQGraphicsSceneMoveEvent@@@Z
?moveEvent@QMdiSubWindow@@MAEXPAVQMoveEvent@@@Z
?moveEvent@QRubberBand@@MAEXPAVQMoveEvent@@@Z
?moveEvent@QSizeGrip@@MAEXPAVQMoveEvent@@@Z
?moveEvent@QWidget@@MAEXPAVQMoveEvent@@@Z
?movePosition@QTextCursor@@QAE_NW4MoveOperation@1@W4MoveMode@1@H@Z
?moveRect@QWidgetPrivate@@QAEXABVQRect@@HH@Z
?moveSection@QHeaderView@@QAEXHH@Z
?moveSplitter@QSplitter@@IAEXHH@Z
?moveSplitter@QSplitterHandle@@IAEXH@Z
?moveTo@QPainterPath@@QAEXABVQPointF@@@Z
?moveTo@QPainterPath@@QAEXNN@Z
?moveTo@QStrokerOps@@QAEXNN@Z
?moveToFirst@QSplitter@@QAEXPAVQWidget@@@Z
?moveToLast@QSplitter@@QAEXPAVQWidget@@@Z
?movement@QListView@@QBE?AW4Movement@1@XZ
?movie@QLabel@@QBEPAVQMovie@@XZ
?multiSelectionCommand@QAbstractItemViewPrivate@@QBE?AV?$QFlags@W4SelectionFlag@QItemSelectionModel@@@@ABVQModelIndex@@PBVQEvent@@@Z
?myComputer@QFileSystemModel@@QBE?AVQVariant@@H@Z
?name@QColor@@QBE?AVQString@@XZ
?name@QFontEngineMulti@@UBEPBDXZ
?name@QImageIOHandler@@UBE?AVQByteArray@@XZ
?name@QTextImageFormat@@QBE?AVQString@@XZ
?nameFilterDisables@QFileSystemModel@@QBE_NXZ
?nameFilters@QDirModel@@QBE?AVQStringList@@XZ
?nameFilters@QFileDialog@@QBE?AVQStringList@@XZ
?nameFilters@QFileSystemModel@@QBE?AVQStringList@@XZ
?nativeChildrenForced@QWidgetPrivate@@QBE_NXZ
?nativeModifiers@QKeyEvent@@QBEIXZ
?nativeParentWidget@QWidget@@QBEPAV1@XZ
?nativeScanCode@QKeyEvent@@QBEIXZ
?nativeVirtualKey@QKeyEvent@@QBEIXZ
?nativeWindowDeco@QDockWidgetLayout@@QBE_NXZ
?naturalTextRect@QTextLine@@QBE?AVQRectF@@XZ
?naturalTextWidth@QTextLine@@QBENXZ
?navigate@QAccessibleApplication@@UBEHW4RelationFlag@QAccessible@@HPAPAVQAccessibleInterface@@@Z
?navigate@QAccessibleWidget@@UBEHW4RelationFlag@QAccessible@@HPAPAVQAccessibleInterface@@@Z
?navigate@QAccessibleWidgetEx@@UBEHW4RelationFlag@QAccessible@@HPAPAVQAccessibleInterface@@@Z
?nearestGraphicsProxyWidget@QWidgetPrivate@@SAPAVQGraphicsProxyWidget@@PAVQWidget@@@Z
?newPage@QPrinter@@QAE_NXZ
?newPos@QGraphicsSceneMoveEvent@@QBE?AVQPointF@@XZ
?newSize@QGraphicsSceneResizeEvent@@QBE?AVQSizeF@@XZ
?next@Parser@QCss@@QAE?AW4TokenType@2@XZ
?next@Parser@QCss@@QAE_NW4TokenType@2@@Z
?next@QTextBlock@@QBE?AV1@XZ
?next@QWizard@@QAEXXZ
?nextCheckState@QAbstractButton@@MAEXXZ
?nextCheckState@QCheckBox@@MAEXXZ
?nextCheckState@QToolButton@@MAEXXZ
?nextCursorPosition@QTextLayout@@QBEHHW4CursorMode@1@@Z
?nextFrameDelay@QMovie@@QBEHXZ
?nextId@QWizard@@UBEHXZ
?nextId@QWizardPage@@UBEHXZ
?nextImageDelay@QImageIOHandler@@UBEHXZ
?nextImageDelay@QImageReader@@QBEHXZ
?nextInFocusChain@QWidget@@QBEPAV1@XZ
?nodeIds@StyleSelector@QCss@@UBE?AVQStringList@@TNodePtr@12@@Z
?node_construct@?$QList@VQItemSelectionRange@@@@AAEXPAUNode@1@ABVQItemSelectionRange@@@Z
?node_copy@?$QList@VQItemSelectionRange@@@@AAEXPAUNode@1@00@Z
?node_destruct@?$QList@VQItemSelectionRange@@@@AAEXPAUNode@1@0@Z
?node_destruct@?$QList@VQItemSelectionRange@@@@AAEXPAUNode@1@@Z
?nonBreakableLines@QTextBlockFormat@@QBE_NXZ
?normal@QPalette@@QBE?AVQColorGroup@@XZ
?normalGeometry@QWidget@@QBE?AVQRect@@XZ
?normalVector@QBezier@@QBE?AVQPointF@@N@Z
?notation@QDoubleValidator@@QBE?AW4Notation@1@XZ
?notchSize@QDial@@QBEHXZ
?notchTarget@QDial@@QBENXZ
?notchesVisible@QDial@@QBE_NXZ
?notify@QApplication@@UAE_NPAVQObject@@PAVQEvent@@@Z
?notify_helper@QApplicationPrivate@@QAE_NPAVQObject@@PAVQEvent@@@Z
?numBytes@QImage@@QBEHXZ
?numColors@QImage@@QBEHXZ
?numColors@QPaintDevice@@QBEHXZ
?numColors@QPixmapData@@QBEHXZ
?numCols@QGridLayout@@QBEHXZ
?numCopies@QPrinter@@QBEHXZ
?numDigits@QLCDNumber@@QBEHXZ
?numFormats@QTextFormatCollection@@QBEHXZ
?numPages@QPrintPreviewWidget@@QBEHXZ
?numRects@QRegion@@QBEHXZ
?numRows@QGridLayout@@QBEHXZ
?numScreens@QDesktopWidget@@QBEHXZ
?obey_desktop_settings@QApplicationPrivate@@2_NA
?object@QAccessibleObject@@UBEPAVQObject@@XZ
?object@QAccessibleObjectEx@@UBEPAVQObject@@XZ
?object@QTextDocument@@QBEPAVQTextObject@@H@Z
?objectForFormat@QTextDocument@@QBEPAVQTextObject@@ABVQTextFormat@@@Z
?objectFormat@QTextFormatCollection@@QBE?AVQTextFormat@@H@Z
?objectFormatIndex@QTextFormatCollection@@QBEHH@Z
?objectIndex@QTextFormat@@QBEHXZ
?objectIndex@QTextObject@@QBEHXZ
?objectType@QTextFormat@@QBEHXZ
?offIconSet@QToolButton@@QBE?AVQIcon@@XZ
?offset@QAbstractItemViewPrivate@@QBE?AVQPoint@@XZ
?offset@QGraphicsPixmapItem@@QBE?AVQPointF@@XZ
?offset@QHeaderView@@QBEHXZ
?offset@QImage@@QBE?AVQPoint@@XZ
?offset@QWindowSurface@@UBE?AVQPoint@@PBVQWidget@@@Z
?oldPos@QGraphicsSceneMoveEvent@@QBE?AVQPointF@@XZ
?oldPos@QHoverEvent@@QBEABVQPoint@@XZ
?oldPos@QMoveEvent@@QBEABVQPoint@@XZ
?oldSize@QGraphicsSceneResizeEvent@@QBE?AVQSizeF@@XZ
?oldSize@QResizeEvent@@QBEABVQSize@@XZ
?oldState@QWindowStateChangeEvent@@QBE?AV?$QFlags@W4WindowState@Qt@@@@XZ
?onIconSet@QToolButton@@QBE?AVQIcon@@XZ
?opacity@QPaintEngineState@@QBENXZ
?opacity@QPainter@@QBENXZ
?opaqueArea@QAbstractGraphicsShapeItem@@UBE?AVQPainterPath@@XZ
?opaqueArea@QGraphicsEllipseItem@@UBE?AVQPainterPath@@XZ
?opaqueArea@QGraphicsItem@@UBE?AVQPainterPath@@XZ
?opaqueArea@QGraphicsItemGroup@@UBE?AVQPainterPath@@XZ
?opaqueArea@QGraphicsLineItem@@UBE?AVQPainterPath@@XZ
?opaqueArea@QGraphicsPathItem@@UBE?AVQPainterPath@@XZ
?opaqueArea@QGraphicsPixmapItem@@UBE?AVQPainterPath@@XZ
?opaqueArea@QGraphicsPolygonItem@@UBE?AVQPainterPath@@XZ
?opaqueArea@QGraphicsRectItem@@UBE?AVQPainterPath@@XZ
?opaqueArea@QGraphicsSimpleTextItem@@UBE?AVQPainterPath@@XZ
?opaqueArea@QGraphicsTextItem@@UBE?AVQPainterPath@@XZ
?opaqueResize@QSplitter@@QBE_NXZ
?opaqueResize@QSplitterHandle@@QBE_NXZ
?openEditor@QAbstractItemViewPrivate@@QAE_NABVQModelIndex@@PAVQEvent@@@Z
?openExternalLinks@QGraphicsTextItem@@QBE_NXZ
?openExternalLinks@QLabel@@QBE_NXZ
?openExternalLinks@QTextBrowser@@QBE_NXZ
?openExternalLinks@QTextControl@@QBE_NXZ
?openLinks@QTextBrowser@@QBE_NXZ
?openPersistentEditor@QAbstractItemView@@QAEXABVQModelIndex@@@Z
?openPersistentEditor@QListWidget@@QAEXPAVQListWidgetItem@@@Z
?openPersistentEditor@QTableWidget@@QAEXPAVQTableWidgetItem@@@Z
?openPersistentEditor@QTreeWidget@@QAEXPAVQTreeWidgetItem@@H@Z
?openPopup@QApplicationPrivate@@QAEXPAVQWidget@@@Z
?openPopup@QPushButton@@QAEXXZ
?openPopup@QToolButton@@QAEXXZ
?openUrl@QDesktopServices@@SA_NABVQUrl@@@Z
?optimizationFlags@QGraphicsView@@QBE?AV?$QFlags@W4OptimizationFlag@QGraphicsView@@@@XZ
?option@QImageIOHandler@@UBE?AVQVariant@@W4ImageOption@1@@Z
?options@QWizard@@QBE?AV?$QFlags@W4WizardOption@QWizard@@@@XZ
?orientation@QAbstractSlider@@QBE?AW4Orientation@Qt@@XZ
?orientation@QDataWidgetMapper@@QBE?AW4Orientation@Qt@@XZ
?orientation@QDialog@@QBE?AW4Orientation@Qt@@XZ
?orientation@QDialogButtonBox@@QBE?AW4Orientation@Qt@@XZ
?orientation@QGraphicsLinearLayout@@QBE?AW4Orientation@Qt@@XZ
?orientation@QGraphicsSceneWheelEvent@@QBE?AW4Orientation@Qt@@XZ
?orientation@QHeaderView@@QBE?AW4Orientation@Qt@@XZ
?orientation@QPrintPreviewWidget@@QBE?AW4Orientation@QPrinter@@XZ
?orientation@QPrinter@@QBE?AW4Orientation@1@XZ
?orientation@QProgressBar@@QBE?AW4Orientation@Qt@@XZ
?orientation@QSplitter@@QBE?AW4Orientation@Qt@@XZ
?orientation@QSplitterHandle@@QBE?AW4Orientation@Qt@@XZ
?orientation@QToolBar@@QBE?AW4Orientation@Qt@@XZ
?orientation@QWheelEvent@@QBE?AW4Orientation@Qt@@XZ
?orientationChanged@QToolBar@@IAEXW4Orientation@Qt@@@Z
?origin@QGridLayout@@QBE?AW4Corner@Qt@@XZ
?originCorner@QGridLayout@@QBE?AW4Corner@Qt@@XZ
?originValue@Declaration@QCss@@QBE?AW4Origin@2@XZ
?outputFileName@QPrinter@@QBE?AVQString@@XZ
?outputFormat@QPrinter@@QBE?AW4OutputFormat@1@XZ
?outputFormatList@QPicture@@SA?AVQStringList@@XZ
?outputFormats@QPicture@@SA?AV?$QList@VQByteArray@@@@XZ
?outputFormats@QPictureIO@@SA?AV?$QList@VQByteArray@@@@XZ
?outputToFile@QPrinter@@QBE_NXZ
?overflow@QLCDNumber@@IAEXXZ
?overline@QFont@@QBE_NXZ
?overline@QFontInfo@@QBE_NXZ
?overlinePos@QFontMetrics@@QBEHXZ
?overlinePos@QFontMetricsF@@QBENXZ
?overrideCursor@QApplication@@SAPAVQCursor@@XZ
?overrideWindowFlags@QWidget@@QAEXV?$QFlags@W4WindowType@Qt@@@@@Z
?overrideWindowState@QWidget@@QAEXV?$QFlags@W4WindowState@Qt@@@@@Z
?overwriteMode@QPlainTextEdit@@QBE_NXZ
?overwriteMode@QTextControl@@QBE_NXZ
?overwriteMode@QTextEdit@@QBE_NXZ
?ownCursor@QWidget@@QBE_NXZ
?ownFont@QWidget@@QBE_NXZ
?ownPalette@QWidget@@QBE_NXZ
?ownerDestroyed@QClipboard@@AAEXXZ
?ownsClipboard@QClipboard@@QBE_NXZ
?ownsFindBuffer@QClipboard@@QBE_NXZ
?ownsMode@QClipboard@@ABE_NW4Mode@1@@Z
?ownsSelection@QClipboard@@QBE_NXZ
?padding@QTextFrameFormat@@QBENXZ
?page@QTabWidget@@QBEPAVQWidget@@H@Z
?page@QWizard@@QBEPAVQWizardPage@@H@Z
?pageBreakPolicy@QTextBlockFormat@@QBE?AV?$QFlags@W4PageBreakFlag@QTextFormat@@@@XZ
?pageBreakPolicy@QTextFrameFormat@@QBE?AV?$QFlags@W4PageBreakFlag@QTextFormat@@@@XZ
?pageCount@QPlainTextDocumentLayout@@UBEHXZ
?pageCount@QTextDocument@@QBEHXZ
?pageCountChanged@QAbstractTextDocumentLayout@@IAEXH@Z
?pageOrder@QPrinter@@QBE?AW4PageOrder@1@XZ
?pageRect@QPrinter@@QBE?AVQRect@@XZ
?pageRect@QPrinter@@QBE?AVQRectF@@W4Unit@1@@Z
?pageSize@QPrinter@@QBE?AW4PageSize@1@XZ
?pageSize@QTextDocument@@QBE?AVQSizeF@@XZ
?pageStep@QAbstractSlider@@QBEHXZ
?paint@QGraphicsEllipseItem@@UAEXPAVQPainter@@PBVQStyleOptionGraphicsItem@@PAVQWidget@@@Z
?paint@QGraphicsItemGroup@@UAEXPAVQPainter@@PBVQStyleOptionGraphicsItem@@PAVQWidget@@@Z
?paint@QGraphicsLineItem@@UAEXPAVQPainter@@PBVQStyleOptionGraphicsItem@@PAVQWidget@@@Z
?paint@QGraphicsPathItem@@UAEXPAVQPainter@@PBVQStyleOptionGraphicsItem@@PAVQWidget@@@Z
?paint@QGraphicsPixmapItem@@UAEXPAVQPainter@@PBVQStyleOptionGraphicsItem@@PAVQWidget@@@Z
?paint@QGraphicsPolygonItem@@UAEXPAVQPainter@@PBVQStyleOptionGraphicsItem@@PAVQWidget@@@Z
?paint@QGraphicsProxyWidget@@UAEXPAVQPainter@@PBVQStyleOptionGraphicsItem@@PAVQWidget@@@Z
?paint@QGraphicsRectItem@@UAEXPAVQPainter@@PBVQStyleOptionGraphicsItem@@PAVQWidget@@@Z
?paint@QGraphicsSimpleTextItem@@UAEXPAVQPainter@@PBVQStyleOptionGraphicsItem@@PAVQWidget@@@Z
?paint@QGraphicsTextItem@@UAEXPAVQPainter@@PBVQStyleOptionGraphicsItem@@PAVQWidget@@@Z
?paint@QGraphicsWidget@@UAEXPAVQPainter@@PBVQStyleOptionGraphicsItem@@PAVQWidget@@@Z
?paint@QIcon@@QBEXPAVQPainter@@ABVQRect@@V?$QFlags@W4AlignmentFlag@Qt@@@@W4Mode@1@W4State@1@@Z
?paint@QIcon@@QBEXPAVQPainter@@HHHHV?$QFlags@W4AlignmentFlag@Qt@@@@W4Mode@1@W4State@1@@Z
?paint@QItemDelegate@@UBEXPAVQPainter@@ABVQStyleOptionViewItem@@ABVQModelIndex@@@Z
?paint@QStyledItemDelegate@@UBEXPAVQPainter@@ABVQStyleOptionViewItem@@ABVQModelIndex@@@Z
?paintBackground@QWidgetPrivate@@QBEXPAVQPainter@@ABVQRect@@H@Z
?paintCell@QCalendarWidget@@MBEXPAVQPainter@@ABVQRect@@ABVQDate@@@Z
?paintDevice@QAbstractTextDocumentLayout@@QBEPAVQPaintDevice@@XZ
?paintDevice@QPaintEngine@@QBEPAVQPaintDevice@@XZ
?paintDropIndicator@QAbstractItemViewPrivate@@QAEXPAVQPainter@@@Z
?paintEngine@QImage@@UBEPAVQPaintEngine@@XZ
?paintEngine@QPainter@@QBEPAVQPaintEngine@@XZ
?paintEngine@QPicture@@UBEPAVQPaintEngine@@XZ
?paintEngine@QPixmap@@UBEPAVQPaintEngine@@XZ
?paintEngine@QPrinter@@UBEPAVQPaintEngine@@XZ
?paintEngine@QWidget@@UBEPAVQPaintEngine@@XZ
?paintEvent@QAbstractScrollArea@@MAEXPAVQPaintEvent@@@Z
?paintEvent@QAbstractSpinBox@@MAEXPAVQPaintEvent@@@Z
?paintEvent@QCheckBox@@MAEXPAVQPaintEvent@@@Z
?paintEvent@QComboBox@@MAEXPAVQPaintEvent@@@Z
?paintEvent@QCommandLinkButton@@MAEXPAVQPaintEvent@@@Z
?paintEvent@QDateTimeEdit@@MAEXPAVQPaintEvent@@@Z
?paintEvent@QDial@@MAEXPAVQPaintEvent@@@Z
?paintEvent@QDockWidget@@MAEXPAVQPaintEvent@@@Z
?paintEvent@QFocusFrame@@MAEXPAVQPaintEvent@@@Z
?paintEvent@QFrame@@MAEXPAVQPaintEvent@@@Z
?paintEvent@QGraphicsView@@MAEXPAVQPaintEvent@@@Z
?paintEvent@QGroupBox@@MAEXPAVQPaintEvent@@@Z
?paintEvent@QHeaderView@@MAEXPAVQPaintEvent@@@Z
?paintEvent@QLCDNumber@@MAEXPAVQPaintEvent@@@Z
?paintEvent@QLabel@@MAEXPAVQPaintEvent@@@Z
?paintEvent@QLineEdit@@MAEXPAVQPaintEvent@@@Z
?paintEvent@QListView@@MAEXPAVQPaintEvent@@@Z
?paintEvent@QMdiArea@@MAEXPAVQPaintEvent@@@Z
?paintEvent@QMdiSubWindow@@MAEXPAVQPaintEvent@@@Z
?paintEvent@QMenu@@MAEXPAVQPaintEvent@@@Z
?paintEvent@QMenuBar@@MAEXPAVQPaintEvent@@@Z
?paintEvent@QPlainTextEdit@@MAEXPAVQPaintEvent@@@Z
?paintEvent@QProgressBar@@MAEXPAVQPaintEvent@@@Z
?paintEvent@QPushButton@@MAEXPAVQPaintEvent@@@Z
?paintEvent@QRadioButton@@MAEXPAVQPaintEvent@@@Z
?paintEvent@QRubberBand@@MAEXPAVQPaintEvent@@@Z
?paintEvent@QScrollBar@@MAEXPAVQPaintEvent@@@Z
?paintEvent@QSizeGrip@@MAEXPAVQPaintEvent@@@Z
?paintEvent@QSlider@@MAEXPAVQPaintEvent@@@Z
?paintEvent@QSplitterHandle@@MAEXPAVQPaintEvent@@@Z
?paintEvent@QStatusBar@@MAEXPAVQPaintEvent@@@Z
?paintEvent@QTabBar@@MAEXPAVQPaintEvent@@@Z
?paintEvent@QTabWidget@@MAEXPAVQPaintEvent@@@Z
?paintEvent@QTableView@@MAEXPAVQPaintEvent@@@Z
?paintEvent@QTextBrowser@@MAEXPAVQPaintEvent@@@Z
?paintEvent@QTextEdit@@MAEXPAVQPaintEvent@@@Z
?paintEvent@QToolBar@@MAEXPAVQPaintEvent@@@Z
?paintEvent@QToolButton@@MAEXPAVQPaintEvent@@@Z
?paintEvent@QTreeView@@MAEXPAVQPaintEvent@@@Z
?paintEvent@QWidget@@MAEXPAVQPaintEvent@@@Z
?paintEvent@QWizard@@MAEXPAVQPaintEvent@@@Z
?paintEvent@QWorkspace@@MAEXPAVQPaintEvent@@@Z
?paintOnScreen@QWidgetPrivate@@QBE_NXZ
?paintRequested@QPrintPreviewDialog@@IAEXPAVQPrinter@@@Z
?paintRequested@QPrintPreviewWidget@@IAEXPAVQPrinter@@@Z
?paintSection@QHeaderView@@MBEXPAVQPainter@@ABVQRect@@H@Z
?paintSiblingsRecursive@QWidgetPrivate@@QAEXPAVQPaintDevice@@ABV?$QList@PAVQObject@@@@HABVQRegion@@ABVQPoint@@HPAVQPainter@@@Z
?paintWindowFrame@QGraphicsWidget@@UAEXPAVQPainter@@PBVQStyleOptionGraphicsItem@@PAVQWidget@@@Z
?painter@QPaintEngine@@QBEPAVQPainter@@XZ
?painter@QPaintEngineState@@QBEPAVQPainter@@XZ
?paintingActive@QPaintDevice@@QBE_NXZ
?palette@QApplication@@SA?AVQPalette@@PBD@Z
?palette@QApplication@@SA?AVQPalette@@PBVQWidget@@@Z
?palette@QApplication@@SA?AVQPalette@@XZ
?palette@QGraphicsScene@@QBE?AVQPalette@@XZ
?palette@QGraphicsWidget@@QBE?AVQPalette@@XZ
?palette@QTextControl@@QBE?AVQPalette@@XZ
?palette@QToolTip@@SA?AVQPalette@@XZ
?palette@QWidget@@QBEABVQPalette@@XZ
?paletteBackgroundColor@QWidget@@QBEABVQColor@@XZ
?paletteBackgroundPixmap@QWidget@@QBEPBVQPixmap@@XZ
?paletteChange@QWidget@@MAEXABVQPalette@@@Z
?paletteForegroundColor@QWidget@@QBEABVQColor@@XZ
?paperRect@QPrinter@@QBE?AVQRect@@XZ
?paperRect@QPrinter@@QBE?AVQRectF@@W4Unit@1@@Z
?paperSize@QPrinter@@QBE?AVQSizeF@@W4Unit@1@@Z
?paperSize@QPrinter@@QBE?AW4PageSize@1@XZ
?paperSource@QPrinter@@QBE?AW4PaperSource@1@XZ
?parameterSplitLeft@QBezier@@QAEXNPAV1@@Z
?parameters@QPictureIO@@QBEPBDXZ
?parent@QDirModel@@UBE?AVQModelIndex@@ABV2@@Z
?parent@QFileSystemModel@@UBE?AVQModelIndex@@ABV2@@Z
?parent@QItemSelectionRange@@QBE?AVQModelIndex@@XZ
?parent@QProxyModel@@UBE?AVQModelIndex@@ABV2@@Z
?parent@QSortFilterProxyModel@@UBE?AVQModelIndex@@ABV2@@Z
?parent@QStandardItem@@QBEPAV1@XZ
?parent@QStandardItemModel@@UBE?AVQModelIndex@@ABV2@@Z
?parent@QTreeWidgetItem@@QBEPAV1@XZ
?parentFrame@QTextFrame@@QBEPAV1@XZ
?parentFrame@iterator@QTextFrame@@QBEPAV2@XZ
?parentItem@QGraphicsItem@@QBEPAV1@XZ
?parentLayoutItem@QGraphicsLayoutItem@@QBEPAV1@XZ
?parentObject@QAccessibleWidget@@IBEPAVQObject@@XZ
?parentObject@QAccessibleWidgetEx@@IBEPAVQObject@@XZ
?parentWidget@QAction@@QBEPAVQWidget@@XZ
?parentWidget@QGraphicsItem@@QBEPAVQGraphicsWidget@@XZ
?parentWidget@QLayout@@QBEPAVQWidget@@XZ
?parentWidget@QShortcut@@QBEPAVQWidget@@XZ
?parentWidget@QWidget@@QBEPAV1@XZ
?parentWidget@QWidget@@QBEPAV1@_N@Z
?parse@Parser@QCss@@QAE_NPAUStyleSheet@2@@Z
?parseAttrib@Parser@QCss@@QAE_NPAUAttributeSelector@2@@Z
?parseClass@Parser@QCss@@QAE_NPAVQString@@@Z
?parseCombinator@Parser@QCss@@QAE_NPAW4Relation@BasicSelector@2@@Z
?parseElementName@Parser@QCss@@QAE_NPAVQString@@@Z
?parseExpr@Parser@QCss@@QAE_NPAV?$QVector@UValue@QCss@@@@@Z
?parseFontName@QFontDatabase@@CAXABVQString@@AAV2@1@Z
?parseFunction@Parser@QCss@@QAE_NPAVQString@@0@Z
?parseHexColor@Parser@QCss@@QAE_NPAVQColor@@@Z
?parseImport@Parser@QCss@@QAE_NPAUImportRule@2@@Z
?parseMedia@Parser@QCss@@QAE_NPAUMediaRule@2@@Z
?parseMedium@Parser@QCss@@QAE_NPAVQStringList@@@Z
?parseNextDeclaration@Parser@QCss@@QAE_NPAUDeclaration@2@@Z
?parseNextExpr@Parser@QCss@@QAE_NPAV?$QVector@UValue@QCss@@@@@Z
?parseNextFunction@Parser@QCss@@QAE_NPAVQString@@0@Z
?parseNextMedium@Parser@QCss@@QAE_NPAVQStringList@@@Z
?parseNextOperator@Parser@QCss@@QAE_NPAUValue@2@@Z
?parseNextSelector@Parser@QCss@@QAE_NPAUSelector@2@@Z
?parseNextSimpleSelector@Parser@QCss@@QAE_NPAUBasicSelector@2@@Z
?parsePage@Parser@QCss@@QAE_NPAUPageRule@2@@Z
?parsePrio@Parser@QCss@@QAE_NPAUDeclaration@2@@Z
?parseProperty@Parser@QCss@@QAE_NPAUDeclaration@2@@Z
?parsePseudo@Parser@QCss@@QAE_NPAUPseudo@2@@Z
?parsePseudoPage@Parser@QCss@@QAE_NPAVQString@@@Z
?parseRuleset@Parser@QCss@@QAE_NPAUStyleRule@2@@Z
?parseSelector@Parser@QCss@@QAE_NPAUSelector@2@@Z
?parseSimpleSelector@Parser@QCss@@QAE_NPAUBasicSelector@2@@Z
?parseTerm@Parser@QCss@@QAE_NPAUValue@2@@Z
?paste@QLineEdit@@QAEXXZ
?paste@QPlainTextEdit@@QAEXXZ
?paste@QTextControl@@QAEXXZ
?paste@QTextEdit@@QAEXXZ
?pasteText@QAccessibleSimpleEditableTextInterface@@UAEXH@Z
?path@QGraphicsPathItem@@QBE?AVQPainterPath@@XZ
?pathFromIndex@QCompleter@@UBE?AVQString@@ABVQModelIndex@@@Z
?patternForStyle@QDashStroker@@SA?AV?$QVector@N@@W4PenStyle@Qt@@@Z
?pause@QMovie@@QAEXXZ
?paused@QMovie@@QBE_NXZ
?pen@QAbstractGraphicsShapeItem@@QBE?AVQPen@@XZ
?pen@QGraphicsLineItem@@QBE?AVQPen@@XZ
?pen@QPaintEngineState@@QBE?AVQPen@@XZ
?pen@QPainter@@QBEABVQPen@@XZ
?penNeedsResolving@QPaintEngineState@@QBE_NXZ
?penProperty@QTextFormat@@QBE?AVQPen@@H@Z
?percentAtLength@QPainterPath@@QBENN@Z
?permissions@QFileSystemModel@@QBE?AV?$QFlags@W4Permission@QFile@@@@ABVQModelIndex@@@Z
?physicalDpiX@QPaintDevice@@QBEHXZ
?physicalDpiY@QPaintDevice@@QBEHXZ
?pickMouseReceiver@QApplicationPrivate@@SAPAVQWidget@@PAV2@ABVQPoint@@AAV3@W4Type@QEvent@@V?$QFlags@W4MouseButton@Qt@@@@00@Z
?picture@QLabel@@QBEPBVQPicture@@XZ
?picture@QPictureIO@@QBEABVQPicture@@XZ
?pictureFormat@QPicture@@SAPBDABVQString@@@Z
?pictureFormat@QPictureIO@@SA?AVQByteArray@@ABVQString@@@Z
?pictureFormat@QPictureIO@@SA?AVQByteArray@@PAVQIODevice@@@Z
?pixel@QColor@@QBEIH@Z
?pixel@QColormap@@QBEIABVQColor@@@Z
?pixel@QImage@@QBEIABVQPoint@@@Z
?pixel@QImage@@QBEIHH@Z
?pixelIndex@QImage@@QBEHABVQPoint@@@Z
?pixelIndex@QImage@@QBEHHH@Z
?pixelMetric@QCDEStyle@@UBEHW4PixelMetric@QStyle@@PBVQStyleOption@@PBVQWidget@@@Z
?pixelMetric@QCleanlooksStyle@@UBEHW4PixelMetric@QStyle@@PBVQStyleOption@@PBVQWidget@@@Z
?pixelMetric@QCommonStyle@@UBEHW4PixelMetric@QStyle@@PBVQStyleOption@@PBVQWidget@@@Z
?pixelMetric@QMotifStyle@@UBEHW4PixelMetric@QStyle@@PBVQStyleOption@@PBVQWidget@@@Z
?pixelMetric@QPlastiqueStyle@@UBEHW4PixelMetric@QStyle@@PBVQStyleOption@@PBVQWidget@@@Z
?pixelMetric@QWindowsStyle@@UBEHW4PixelMetric@QStyle@@PBVQStyleOption@@PBVQWidget@@@Z
?pixelMetric@QWindowsVistaStyle@@UBEHW4PixelMetric@QStyle@@PBVQStyleOption@@PBVQWidget@@@Z
?pixelMetric@QWindowsXPStyle@@UBEHW4PixelMetric@QStyle@@PBVQStyleOption@@PBVQWidget@@@Z
?pixelSize@QFont@@QBEHXZ
?pixelSize@QFontInfo@@QBEHXZ
?pixelType@QPixmapData@@QBE?AW4PixelType@1@XZ
?pixmap@QAbstractButton@@QBEPBVQPixmap@@XZ
?pixmap@QBrush@@QBEPAVQPixmap@@XZ
?pixmap@QClipboard@@QBE?AVQPixmap@@W4Mode@1@@Z
?pixmap@QComboBox@@QBE?AVQPixmap@@H@Z
?pixmap@QCursor@@QBE?AVQPixmap@@XZ
?pixmap@QDrag@@QBE?AVQPixmap@@XZ
?pixmap@QGraphicsPixmapItem@@QBE?AVQPixmap@@XZ
?pixmap@QIcon@@QBE?AVQPixmap@@ABVQSize@@W4Mode@1@W4State@1@@Z
?pixmap@QIcon@@QBE?AVQPixmap@@HHW4Mode@1@W4State@1@@Z
?pixmap@QIcon@@QBE?AVQPixmap@@HW4Mode@1@W4State@1@@Z
?pixmap@QIcon@@QBE?AVQPixmap@@W4Size@1@W4Mode@1@W4State@1@@Z
?pixmap@QIcon@@QBE?AVQPixmap@@W4Size@1@_NW4State@1@@Z
?pixmap@QIcon@@QBE?AVQPixmap@@XZ
?pixmap@QIconEngine@@UAE?AVQPixmap@@ABVQSize@@W4Mode@QIcon@@W4State@5@@Z
?pixmap@QLabel@@QBEPBVQPixmap@@XZ
?pixmap@QMenu@@QBE?AVQPixmap@@H@Z
?pixmap@QMenuBar@@QBE?AVQPixmap@@H@Z
?pixmap@QSplashScreen@@QBE?BVQPixmap@@XZ
?pixmap@QWizard@@QBE?AVQPixmap@@W4WizardPixmap@1@@Z
?pixmap@QWizardPage@@QBE?AVQPixmap@@W4WizardPixmap@QWizard@@@Z
?pixmapData@QPixmap@@QBEPAVQPixmapData@@XZ
?pixmapSize@QIcon@@SA?AVQSize@@W4Size@1@@Z
?play@QPicture@@QAE_NPAVQPainter@@@Z
?play@QSound@@QAEXXZ
?play@QSound@@SAXABVQString@@@Z
?point@QPolygon@@QBE?AVQPoint@@H@Z
?point@QPolygon@@QBEXHPAH0@Z
?pointAt@QBezier@@QBE?AVQPointF@@N@Z
?pointAtPercent@QPainterPath@@QBE?AVQPointF@@N@Z
?pointSize@QFont@@QBEHXZ
?pointSize@QFontInfo@@QBEHXZ
?pointSize@QTextEdit@@QBEHXZ
?pointSizeF@QFont@@QBENXZ
?pointSizeF@QFontInfo@@QBENXZ
?pointSizeFloat@QFont@@QBENXZ
?pointSizes@QFontDatabase@@QAE?AV?$QList@H@@ABVQString@@0@Z
?pointToRect@QWidgetPrivate@@SAHABVQPoint@@ABVQRect@@@Z
?pointerType@QTabletEvent@@QBE?AW4PointerType@1@XZ
?polish@QCleanlooksStyle@@UAEXAAVQPalette@@@Z
?polish@QCleanlooksStyle@@UAEXPAVQApplication@@@Z
?polish@QCleanlooksStyle@@UAEXPAVQWidget@@@Z
?polish@QMotifStyle@@UAEXAAVQPalette@@@Z
?polish@QMotifStyle@@UAEXPAVQApplication@@@Z
?polish@QMotifStyle@@UAEXPAVQWidget@@@Z
?polish@QPlastiqueStyle@@UAEXAAVQPalette@@@Z
?polish@QPlastiqueStyle@@UAEXPAVQApplication@@@Z
?polish@QPlastiqueStyle@@UAEXPAVQWidget@@@Z
?polish@QStyle@@UAEXAAVQPalette@@@Z
?polish@QStyle@@UAEXPAVQApplication@@@Z
?polish@QStyle@@UAEXPAVQWidget@@@Z
?polish@QWidget@@QAEXXZ
?polish@QWindowsStyle@@UAEXAAVQPalette@@@Z
?polish@QWindowsStyle@@UAEXPAVQApplication@@@Z
?polish@QWindowsStyle@@UAEXPAVQWidget@@@Z
?polish@QWindowsVistaStyle@@UAEXAAVQPalette@@@Z
?polish@QWindowsVistaStyle@@UAEXPAVQApplication@@@Z
?polish@QWindowsVistaStyle@@UAEXPAVQWidget@@@Z
?polish@QWindowsXPStyle@@UAEXAAVQPalette@@@Z
?polish@QWindowsXPStyle@@UAEXPAVQApplication@@@Z
?polish@QWindowsXPStyle@@UAEXPAVQWidget@@@Z
?polishEvent@QGraphicsWidget@@MAEXXZ
?polygon@QGraphicsPolygonItem@@QBE?AVQPolygonF@@XZ
?pop_back@?$QList@VQItemSelectionRange@@@@QAEXXZ
?pop_front@?$QList@VQItemSelectionRange@@@@QAEXXZ
?popup@QComboBox@@QAEXXZ
?popup@QCompleter@@QBEPAVQAbstractItemView@@XZ
?popup@QMenu@@QAEXABVQPoint@@H@Z
?popup@QMenu@@QAEXABVQPoint@@PAVQAction@@@Z
?popup@QPushButton@@QBEPAVQMenu@@XZ
?popup@QToolButton@@QBEPAVQMenu@@XZ
?popupDelay@QToolButton@@QBEHXZ
?popupMode@QToolButton@@QBE?AW4ToolButtonPopupMode@1@XZ
?popupWidgets@QApplicationPrivate@@2PAV?$QList@PAVQWidget@@@@A
?pos@QContextMenuEvent@@QBEABVQPoint@@XZ
?pos@QCursor@@SA?AVQPoint@@XZ
?pos@QDropEvent@@QBEABVQPoint@@XZ
?pos@QGraphicsItem@@QBE?AVQPointF@@XZ
?pos@QGraphicsSceneContextMenuEvent@@QBE?AVQPointF@@XZ
?pos@QGraphicsSceneDragDropEvent@@QBE?AVQPointF@@XZ
?pos@QGraphicsSceneHoverEvent@@QBE?AVQPointF@@XZ
?pos@QGraphicsSceneMouseEvent@@QBE?AVQPointF@@XZ
?pos@QGraphicsSceneWheelEvent@@QBE?AVQPointF@@XZ
?pos@QHelpEvent@@QBEABVQPoint@@XZ
?pos@QHoverEvent@@QBEABVQPoint@@XZ
?pos@QMouseEvent@@QBEABVQPoint@@XZ
?pos@QMoveEvent@@QBEABVQPoint@@XZ
?pos@QTabletEvent@@QBEABVQPoint@@XZ
?pos@QWheelEvent@@QBEABVQPoint@@XZ
?pos@QWidget@@QBE?AVQPoint@@XZ
?posAt@QGraphicsItemAnimation@@QBE?AVQPointF@@N@Z
?posF@QMouseEvent@@QBE?AVQPointF@@XZ
?posList@QGraphicsItemAnimation@@QBE?AV?$QList@U?$QPair@NVQPointF@@@@@@XZ
?position@QAbstractItemViewPrivate@@QBE?AW4DropIndicatorPosition@QAbstractItemView@@ABVQPoint@@ABVQRect@@ABVQModelIndex@@@Z
?position@QTextBlock@@QBEHXZ
?position@QTextCursor@@QBEHXZ
?position@QTextFragment@@QBEHXZ
?position@QTextFrameFormat@@QBE?AW4Position@1@XZ
?position@QTextLayout@@QBE?AVQPointF@@XZ
?position@QTextLine@@QBE?AVQPointF@@XZ
?positionInlineObject@QAbstractTextDocumentLayout@@MAEXVQTextInlineObject@@HABVQTextFormat@@@Z
?positionValue@Declaration@QCss@@QBE?AW4PositionMode@2@XZ
?possibleActions@QDropEvent@@QBE?AV?$QFlags@W4DropAction@Qt@@@@XZ
?possibleActions@QGraphicsSceneDragDropEvent@@QBE?AV?$QFlags@W4DropAction@Qt@@@@XZ
?preeditAreaPosition@QTextLayout@@QBEHXZ
?preeditAreaText@QTextLayout@@QBE?AVQString@@XZ
?preeditString@QInputMethodEvent@@QBEABVQString@@XZ
?preferredHeight@QGraphicsLayoutItem@@QBENXZ
?preferredSize@QGraphicsLayoutItem@@QBE?AVQSizeF@@XZ
?preferredWidth@QGraphicsLayoutItem@@QBENXZ
?prefix@QDoubleSpinBox@@QBE?AVQString@@XZ
?prefix@QSpinBox@@QBE?AVQString@@XZ
?prepareGeometryChange@QGraphicsItem@@IAEXXZ
?prepareToRender@QWidgetPrivate@@QAE?AVQRegion@@ABV2@V?$QFlags@W4RenderFlag@QWidget@@@@PAVQWidget@@@Z
?prepend@?$QList@VQItemSelectionRange@@@@QAEXABVQItemSelectionRange@@@Z
?pressed@QAbstractButton@@IAEXXZ
?pressed@QAbstractItemView@@IAEXABVQModelIndex@@@Z
?pressure@QTabletEvent@@QBENXZ
?prev@Parser@QCss@@QAEXXZ
?previewChanged@QPrintPreviewWidget@@IAEXXZ
?previewWidget@QColumnView@@QBEPAVQWidget@@XZ
?previous@QTextBlock@@QBE?AV1@XZ
?previousBlockState@QSyntaxHighlighter@@IBEHXZ
?previousCursorPosition@QTextLayout@@QBEHHW4CursorMode@1@@Z
?primaryScreen@QDesktopWidget@@QBEHXZ
?print@QPlainTextEdit@@QBEXPAVQPrinter@@@Z
?print@QPrintPreviewWidget@@QAEXXZ
?print@QTextControl@@QBEXPAVQPrinter@@@Z
?print@QTextDocument@@QBEXPAVQPrinter@@@Z
?print@QTextEdit@@QBEXPAVQPrinter@@@Z
?printEngine@QPrinter@@QBEPAVQPrintEngine@@XZ
?printProgram@QPrinter@@QBE?AVQString@@XZ
?printRange@QAbstractPrintDialog@@QBE?AW4PrintRange@1@XZ
?printRange@QPrinter@@QBE?AW4PrintRange@1@XZ
?printer@QAbstractPageSetupDialog@@QAEPAVQPrinter@@XZ
?printer@QAbstractPrintDialog@@QBEPAVQPrinter@@XZ
?printerName@QPrinter@@QBE?AVQString@@XZ
?printerName@QPrinterInfo@@QBE?AVQString@@XZ
?printerState@QPrinter@@QBE?AW4PrinterState@1@XZ
?priv@QPlainTextDocumentLayout@@ABEPAVQPlainTextDocumentLayoutPrivate@@XZ
?processCurrentSubpath@QDashStroker@@MAEXXZ
?processCurrentSubpath@QStroker@@MAEXXZ
?processEvent@QTextControl@@QAEXPAVQEvent@@ABVQPointF@@PAVQWidget@@@Z
?processEvent@QTextControl@@UAEXPAVQEvent@@ABVQMatrix@@PAVQWidget@@@Z
?process_cmdline@QApplicationPrivate@@QAEXXZ
?propagatePaletteChange@QWidgetPrivate@@QAEXXZ
?properties@QFontEngine@@UBE?AUProperties@1@XZ
?properties@QTextFormat@@QBE?AV?$QMap@HVQVariant@@@@XZ
?property@QTextFormat@@QBE?AVQVariant@@H@Z
?propertyChange@QGraphicsWidget@@MAE?AVQVariant@@ABVQString@@ABV2@@Z
?propertyCount@QTextFormat@@QBEHXZ
?proposedAction@QDropEvent@@QBE?AW4DropAction@Qt@@XZ
?proposedAction@QGraphicsSceneDragDropEvent@@QBE?AW4DropAction@Qt@@XZ
?provides@QDropEvent@@UBE_NPBD@Z
?provides@QMimeSource@@UBE_NPBD@Z
?proxyModel@QFileDialog@@QBEPAVQAbstractProxyModel@@XZ
?pseudoClass@Selector@QCss@@QBE_KPA_K@Z
?pseudoElement@Selector@QCss@@QBE?AVQString@@XZ
?pt1@QBezier@@QBE?AVQPointF@@XZ
?pt2@QBezier@@QBE?AVQPointF@@XZ
?pt3@QBezier@@QBE?AVQPointF@@XZ
?pt4@QBezier@@QBE?AVQPointF@@XZ
?push@QUndoStack@@QAEXPAVQUndoCommand@@@Z
?push_back@?$QList@VQItemSelectionRange@@@@QAEXABVQItemSelectionRange@@@Z
?push_front@?$QList@VQItemSelectionRange@@@@QAEXABVQItemSelectionRange@@@Z
?putPoints@QPolygon@@QAAXHHHHZZ
?putPoints@QPolygon@@QAEXHHABV1@H@Z
?putPoints@QPolygon@@QAEXHHPBH@Z
?qAccessibleEditableTextCastHelper@QAccessibleEditableTextInterface@@QAEPAVQAccessible2Interface@@XZ
?qAccessibleTableCastHelper@QAccessibleTableInterface@@QAEPAVQAccessible2Interface@@XZ
?qAccessibleTextCastHelper@QAccessibleTextInterface@@QAEPAVQAccessible2Interface@@XZ
?qAccessibleValueCastHelper@QAccessibleValueInterface@@QAEPAVQAccessible2Interface@@XZ
?qAlpha@@YAHI@Z
?qBlue@@YAHI@Z
?qDrawArrow@@YAXPAVQPainter@@W4ArrowType@Qt@@W4GUIStyle@3@_NHHHHABVQPalette@@3@Z
?qDrawItem@@YAXPAVQPainter@@W4GUIStyle@Qt@@HHHHHABVQPalette@@_NPBVQPixmap@@ABVQString@@HPBVQColor@@@Z
?qDrawPlainRect@@YAXPAVQPainter@@ABVQRect@@ABVQColor@@HPBVQBrush@@@Z
?qDrawPlainRect@@YAXPAVQPainter@@HHHHABVQColor@@HPBVQBrush@@@Z
?qDrawShadeLine@@YAXPAVQPainter@@ABVQPoint@@1ABVQPalette@@_NHH@Z
?qDrawShadeLine@@YAXPAVQPainter@@HHHHABVQPalette@@_NHH@Z
?qDrawShadePanel@@YAXPAVQPainter@@ABVQRect@@ABVQPalette@@_NHPBVQBrush@@@Z
?qDrawShadePanel@@YAXPAVQPainter@@HHHHABVQPalette@@_NHPBVQBrush@@@Z
?qDrawShadeRect@@YAXPAVQPainter@@ABVQRect@@ABVQPalette@@_NHHPBVQBrush@@@Z
?qDrawShadeRect@@YAXPAVQPainter@@HHHHABVQPalette@@_NHHPBVQBrush@@@Z
?qDrawWinButton@@YAXPAVQPainter@@ABVQRect@@ABVQPalette@@_NPBVQBrush@@@Z
?qDrawWinButton@@YAXPAVQPainter@@HHHHABVQPalette@@_NPBVQBrush@@@Z
?qDrawWinPanel@@YAXPAVQPainter@@ABVQRect@@ABVQPalette@@_NPBVQBrush@@@Z
?qDrawWinPanel@@YAXPAVQPainter@@HHHHABVQPalette@@_NPBVQBrush@@@Z
?qFadeEffect@@YAXPAVQWidget@@H@Z
?qGeomCalc@@YAXAAV?$QVector@UQLayoutStruct@@@@HHHHH@Z
?qGray@@YAHHHH@Z
?qGray@@YAHI@Z
?qGreen@@YAHI@Z
?qIsGray@@YA_NI@Z
?qItemRect@@YA?AVQRect@@PAVQPainter@@W4GUIStyle@Qt@@HHHHH_NPBVQPixmap@@ABVQString@@H@Z
?qRed@@YAHI@Z
?qRgb@@YAIHHH@Z
?qRgba@@YAIHHHH@Z
?qScrollEffect@@YAXPAVQWidget@@IH@Z
?qSmartMaxSize@@YA?AVQSize@@ABV1@00ABVQSizePolicy@@V?$QFlags@W4AlignmentFlag@Qt@@@@@Z
?qSmartMaxSize@@YA?AVQSize@@PBVQWidget@@V?$QFlags@W4AlignmentFlag@Qt@@@@@Z
?qSmartMaxSize@@YA?AVQSize@@PBVQWidgetItem@@V?$QFlags@W4AlignmentFlag@Qt@@@@@Z
?qSmartMinSize@@YA?AVQSize@@ABV1@000ABVQSizePolicy@@@Z
?qSmartMinSize@@YA?AVQSize@@PBVQWidget@@@Z
?qSmartMinSize@@YA?AVQSize@@PBVQWidgetItem@@@Z
?qSmartSpacing@@YAHPBVQLayout@@W4PixelMetric@QStyle@@@Z
?qWinAppCmdShow@@YAHXZ
?qWinProcessConfigRequests@@YAXXZ
?q_func@QAbstractItemViewPrivate@@AAEPAVQAbstractItemView@@XZ
?q_func@QAbstractItemViewPrivate@@ABEPBVQAbstractItemView@@XZ
?q_func@QApplicationPrivate@@AAEPAVQApplication@@XZ
?q_func@QApplicationPrivate@@ABEPBVQApplication@@XZ
?q_func@QFramePrivate@@AAEPAVQFrame@@XZ
?q_func@QFramePrivate@@ABEPBVQFrame@@XZ
?q_func@QLayoutPrivate@@AAEPAVQLayout@@XZ
?q_func@QLayoutPrivate@@ABEPBVQLayout@@XZ
?q_func@QPicturePrivate@@AAEPAVQPicture@@XZ
?q_func@QPicturePrivate@@ABEPBVQPicture@@XZ
?q_func@QWidgetPrivate@@AAEPAVQWidget@@XZ
?q_func@QWidgetPrivate@@ABEPBVQWidget@@XZ
?qtHandler@QErrorMessage@@SAPAV1@XZ
?qt_accHotKey@@YA?AVQString@@ABV1@@Z
?qt_accStripAmp@@YA?AVQString@@ABV1@@Z
?qt_defaultDpi@@YAHXZ
?qt_defaultDpiX@@YAHXZ
?qt_defaultDpiY@@YAHXZ
?qt_enable_test_font@@3_NA
?qt_filedialog_existing_directory_hook@@3P6A?AVQString@@PAVQWidget@@ABV1@1V?$QFlags@W4Option@QFileDialog@@@@@ZA
?qt_filedialog_open_filename_hook@@3P6A?AVQString@@PAVQWidget@@ABV1@11PAV1@V?$QFlags@W4Option@QFileDialog@@@@@ZA
?qt_filedialog_open_filenames_hook@@3P6A?AVQStringList@@PAVQWidget@@ABVQString@@11PAV3@V?$QFlags@W4Option@QFileDialog@@@@@ZA
?qt_filedialog_save_filename_hook@@3P6A?AVQString@@PAVQWidget@@ABV1@11PAV1@V?$QFlags@W4Option@QFileDialog@@@@@ZA
?qt_find_ellipse_coords@@YAXABVQRectF@@NNPAVQPointF@@1@Z
?qt_imageForBrush@@YA?AVQImage@@H_N@Z
?qt_image_cleanup_hook@@3P6AXH@ZA
?qt_image_cleanup_hook_64@@3P6AX_J@ZA
?qt_image_id@@YA_JABVQImage@@@Z
?qt_keymapper_possibleKeys@@YA?AV?$QList@H@@PAVQKeyEvent@@@Z
?qt_metacall@QAbstractButton@@UAEHW4Call@QMetaObject@@HPAPAX@Z
?qt_metacall@QAbstractItemDelegate@@UAEHW4Call@QMetaObject@@HPAPAX@Z
?qt_metacall@QAbstractItemView@@UAEHW4Call@QMetaObject@@HPAPAX@Z
?qt_metacall@QAbstractPageSetupDialog@@UAEHW4Call@QMetaObject@@HPAPAX@Z
?qt_metacall@QAbstractPrintDialog@@UAEHW4Call@QMetaObject@@HPAPAX@Z
?qt_metacall@QAbstractProxyModel@@UAEHW4Call@QMetaObject@@HPAPAX@Z
?qt_metacall@QAbstractScrollArea@@UAEHW4Call@QMetaObject@@HPAPAX@Z
?qt_metacall@QAbstractSlider@@UAEHW4Call@QMetaObject@@HPAPAX@Z
?qt_metacall@QAbstractSpinBox@@UAEHW4Call@QMetaObject@@HPAPAX@Z
?qt_metacall@QAbstractTextDocumentLayout@@UAEHW4Call@QMetaObject@@HPAPAX@Z
?qt_metacall@QAccessiblePlugin@@UAEHW4Call@QMetaObject@@HPAPAX@Z
?qt_metacall@QAction@@UAEHW4Call@QMetaObject@@HPAPAX@Z
?qt_metacall@QActionGroup@@UAEHW4Call@QMetaObject@@HPAPAX@Z
?qt_metacall@QApplication@@UAEHW4Call@QMetaObject@@HPAPAX@Z
?qt_metacall@QBoxLayout@@UAEHW4Call@QMetaObject@@HPAPAX@Z
?qt_metacall@QButtonGroup@@UAEHW4Call@QMetaObject@@HPAPAX@Z
?qt_metacall@QCDEStyle@@UAEHW4Call@QMetaObject@@HPAPAX@Z
?qt_metacall@QCalendarWidget@@UAEHW4Call@QMetaObject@@HPAPAX@Z
?qt_metacall@QCheckBox@@UAEHW4Call@QMetaObject@@HPAPAX@Z
?qt_metacall@QCleanlooksStyle@@UAEHW4Call@QMetaObject@@HPAPAX@Z
?qt_metacall@QClipboard@@UAEHW4Call@QMetaObject@@HPAPAX@Z
?qt_metacall@QColorDialog@@UAEHW4Call@QMetaObject@@HPAPAX@Z
?qt_metacall@QColumnView@@UAEHW4Call@QMetaObject@@HPAPAX@Z
?qt_metacall@QComboBox@@UAEHW4Call@QMetaObject@@HPAPAX@Z
?qt_metacall@QCommandLinkButton@@UAEHW4Call@QMetaObject@@HPAPAX@Z
?qt_metacall@QCommonStyle@@UAEHW4Call@QMetaObject@@HPAPAX@Z
?qt_metacall@QCompleter@@UAEHW4Call@QMetaObject@@HPAPAX@Z
?qt_metacall@QDataWidgetMapper@@UAEHW4Call@QMetaObject@@HPAPAX@Z
?qt_metacall@QDateEdit@@UAEHW4Call@QMetaObject@@HPAPAX@Z
?qt_metacall@QDateTimeEdit@@UAEHW4Call@QMetaObject@@HPAPAX@Z
?qt_metacall@QDesktopWidget@@UAEHW4Call@QMetaObject@@HPAPAX@Z
?qt_metacall@QDial@@UAEHW4Call@QMetaObject@@HPAPAX@Z
?qt_metacall@QDialog@@UAEHW4Call@QMetaObject@@HPAPAX@Z
?qt_metacall@QDialogButtonBox@@UAEHW4Call@QMetaObject@@HPAPAX@Z
?qt_metacall@QDirModel@@UAEHW4Call@QMetaObject@@HPAPAX@Z
?qt_metacall@QDockWidget@@UAEHW4Call@QMetaObject@@HPAPAX@Z
?qt_metacall@QDockWidgetLayout@@UAEHW4Call@QMetaObject@@HPAPAX@Z
?qt_metacall@QDoubleSpinBox@@UAEHW4Call@QMetaObject@@HPAPAX@Z
?qt_metacall@QDoubleValidator@@UAEHW4Call@QMetaObject@@HPAPAX@Z
?qt_metacall@QDrag@@UAEHW4Call@QMetaObject@@HPAPAX@Z
?qt_metacall@QDragManager@@UAEHW4Call@QMetaObject@@HPAPAX@Z
?qt_metacall@QErrorMessage@@UAEHW4Call@QMetaObject@@HPAPAX@Z
?qt_metacall@QFileDialog@@UAEHW4Call@QMetaObject@@HPAPAX@Z
?qt_metacall@QFileSystemModel@@UAEHW4Call@QMetaObject@@HPAPAX@Z
?qt_metacall@QFocusFrame@@UAEHW4Call@QMetaObject@@HPAPAX@Z
?qt_metacall@QFontComboBox@@UAEHW4Call@QMetaObject@@HPAPAX@Z
?qt_metacall@QFontDialog@@UAEHW4Call@QMetaObject@@HPAPAX@Z
?qt_metacall@QFontEngine@@UAEHW4Call@QMetaObject@@HPAPAX@Z
?qt_metacall@QFormLayout@@UAEHW4Call@QMetaObject@@HPAPAX@Z
?qt_metacall@QFrame@@UAEHW4Call@QMetaObject@@HPAPAX@Z
?qt_metacall@QGraphicsItemAnimation@@UAEHW4Call@QMetaObject@@HPAPAX@Z
?qt_metacall@QGraphicsProxyWidget@@UAEHW4Call@QMetaObject@@HPAPAX@Z
?qt_metacall@QGraphicsScene@@UAEHW4Call@QMetaObject@@HPAPAX@Z
?qt_metacall@QGraphicsTextItem@@UAEHW4Call@QMetaObject@@HPAPAX@Z
?qt_metacall@QGraphicsView@@UAEHW4Call@QMetaObject@@HPAPAX@Z
?qt_metacall@QGraphicsWidget@@UAEHW4Call@QMetaObject@@HPAPAX@Z
?qt_metacall@QGridLayout@@UAEHW4Call@QMetaObject@@HPAPAX@Z
?qt_metacall@QGroupBox@@UAEHW4Call@QMetaObject@@HPAPAX@Z
?qt_metacall@QHBoxLayout@@UAEHW4Call@QMetaObject@@HPAPAX@Z
?qt_metacall@QHeaderView@@UAEHW4Call@QMetaObject@@HPAPAX@Z
?qt_metacall@QIconEnginePlugin@@UAEHW4Call@QMetaObject@@HPAPAX@Z
?qt_metacall@QIconEnginePluginV2@@UAEHW4Call@QMetaObject@@HPAPAX@Z
?qt_metacall@QImageIOPlugin@@UAEHW4Call@QMetaObject@@HPAPAX@Z
?qt_metacall@QInputContext@@UAEHW4Call@QMetaObject@@HPAPAX@Z
?qt_metacall@QInputContextPlugin@@UAEHW4Call@QMetaObject@@HPAPAX@Z
?qt_metacall@QInputDialog@@UAEHW4Call@QMetaObject@@HPAPAX@Z
?qt_metacall@QIntValidator@@UAEHW4Call@QMetaObject@@HPAPAX@Z
?qt_metacall@QItemDelegate@@UAEHW4Call@QMetaObject@@HPAPAX@Z
?qt_metacall@QItemSelectionModel@@UAEHW4Call@QMetaObject@@HPAPAX@Z
?qt_metacall@QLCDNumber@@UAEHW4Call@QMetaObject@@HPAPAX@Z
?qt_metacall@QLabel@@UAEHW4Call@QMetaObject@@HPAPAX@Z
?qt_metacall@QLayout@@UAEHW4Call@QMetaObject@@HPAPAX@Z
?qt_metacall@QLineEdit@@UAEHW4Call@QMetaObject@@HPAPAX@Z
?qt_metacall@QListView@@UAEHW4Call@QMetaObject@@HPAPAX@Z
?qt_metacall@QListWidget@@UAEHW4Call@QMetaObject@@HPAPAX@Z
?qt_metacall@QMainWindow@@UAEHW4Call@QMetaObject@@HPAPAX@Z
?qt_metacall@QMdiArea@@UAEHW4Call@QMetaObject@@HPAPAX@Z
?qt_metacall@QMdiSubWindow@@UAEHW4Call@QMetaObject@@HPAPAX@Z
?qt_metacall@QMenu@@UAEHW4Call@QMetaObject@@HPAPAX@Z
?qt_metacall@QMenuBar@@UAEHW4Call@QMetaObject@@HPAPAX@Z
?qt_metacall@QMenuItem@@UAEHW4Call@QMetaObject@@HPAPAX@Z
?qt_metacall@QMessageBox@@UAEHW4Call@QMetaObject@@HPAPAX@Z
?qt_metacall@QMotifStyle@@UAEHW4Call@QMetaObject@@HPAPAX@Z
?qt_metacall@QMovie@@UAEHW4Call@QMetaObject@@HPAPAX@Z
?qt_metacall@QPageSetupDialog@@UAEHW4Call@QMetaObject@@HPAPAX@Z
?qt_metacall@QPictureFormatPlugin@@UAEHW4Call@QMetaObject@@HPAPAX@Z
?qt_metacall@QPlainTextDocumentLayout@@UAEHW4Call@QMetaObject@@HPAPAX@Z
?qt_metacall@QPlainTextEdit@@UAEHW4Call@QMetaObject@@HPAPAX@Z
?qt_metacall@QPlastiqueStyle@@UAEHW4Call@QMetaObject@@HPAPAX@Z
?qt_metacall@QPrintDialog@@UAEHW4Call@QMetaObject@@HPAPAX@Z
?qt_metacall@QPrintPreviewDialog@@UAEHW4Call@QMetaObject@@HPAPAX@Z
?qt_metacall@QPrintPreviewWidget@@UAEHW4Call@QMetaObject@@HPAPAX@Z
?qt_metacall@QProgressBar@@UAEHW4Call@QMetaObject@@HPAPAX@Z
?qt_metacall@QProgressDialog@@UAEHW4Call@QMetaObject@@HPAPAX@Z
?qt_metacall@QProxyModel@@UAEHW4Call@QMetaObject@@HPAPAX@Z
?qt_metacall@QPushButton@@UAEHW4Call@QMetaObject@@HPAPAX@Z
?qt_metacall@QRadioButton@@UAEHW4Call@QMetaObject@@HPAPAX@Z
?qt_metacall@QRegExpValidator@@UAEHW4Call@QMetaObject@@HPAPAX@Z
?qt_metacall@QRubberBand@@UAEHW4Call@QMetaObject@@HPAPAX@Z
?qt_metacall@QScrollArea@@UAEHW4Call@QMetaObject@@HPAPAX@Z
?qt_metacall@QScrollBar@@UAEHW4Call@QMetaObject@@HPAPAX@Z
?qt_metacall@QSessionManager@@UAEHW4Call@QMetaObject@@HPAPAX@Z
?qt_metacall@QShortcut@@UAEHW4Call@QMetaObject@@HPAPAX@Z
?qt_metacall@QSizeGrip@@UAEHW4Call@QMetaObject@@HPAPAX@Z
?qt_metacall@QSlider@@UAEHW4Call@QMetaObject@@HPAPAX@Z
?qt_metacall@QSortFilterProxyModel@@UAEHW4Call@QMetaObject@@HPAPAX@Z
?qt_metacall@QSound@@UAEHW4Call@QMetaObject@@HPAPAX@Z
?qt_metacall@QSpinBox@@UAEHW4Call@QMetaObject@@HPAPAX@Z
?qt_metacall@QSplashScreen@@UAEHW4Call@QMetaObject@@HPAPAX@Z
?qt_metacall@QSplitter@@UAEHW4Call@QMetaObject@@HPAPAX@Z
?qt_metacall@QSplitterHandle@@UAEHW4Call@QMetaObject@@HPAPAX@Z
?qt_metacall@QStackedLayout@@UAEHW4Call@QMetaObject@@HPAPAX@Z
?qt_metacall@QStackedWidget@@UAEHW4Call@QMetaObject@@HPAPAX@Z
?qt_metacall@QStandardItemModel@@UAEHW4Call@QMetaObject@@HPAPAX@Z
?qt_metacall@QStatusBar@@UAEHW4Call@QMetaObject@@HPAPAX@Z
?qt_metacall@QStringListModel@@UAEHW4Call@QMetaObject@@HPAPAX@Z
?qt_metacall@QStyle@@UAEHW4Call@QMetaObject@@HPAPAX@Z
?qt_metacall@QStylePlugin@@UAEHW4Call@QMetaObject@@HPAPAX@Z
?qt_metacall@QStyledItemDelegate@@UAEHW4Call@QMetaObject@@HPAPAX@Z
?qt_metacall@QSyntaxHighlighter@@UAEHW4Call@QMetaObject@@HPAPAX@Z
?qt_metacall@QSystemTrayIcon@@UAEHW4Call@QMetaObject@@HPAPAX@Z
?qt_metacall@QTabBar@@UAEHW4Call@QMetaObject@@HPAPAX@Z
?qt_metacall@QTabWidget@@UAEHW4Call@QMetaObject@@HPAPAX@Z
?qt_metacall@QTableView@@UAEHW4Call@QMetaObject@@HPAPAX@Z
?qt_metacall@QTableWidget@@UAEHW4Call@QMetaObject@@HPAPAX@Z
?qt_metacall@QTextBlockGroup@@UAEHW4Call@QMetaObject@@HPAPAX@Z
?qt_metacall@QTextBrowser@@UAEHW4Call@QMetaObject@@HPAPAX@Z
?qt_metacall@QTextControl@@UAEHW4Call@QMetaObject@@HPAPAX@Z
?qt_metacall@QTextDocument@@UAEHW4Call@QMetaObject@@HPAPAX@Z
?qt_metacall@QTextEdit@@UAEHW4Call@QMetaObject@@HPAPAX@Z
?qt_metacall@QTextFrame@@UAEHW4Call@QMetaObject@@HPAPAX@Z
?qt_metacall@QTextImageHandler@@UAEHW4Call@QMetaObject@@HPAPAX@Z
?qt_metacall@QTextList@@UAEHW4Call@QMetaObject@@HPAPAX@Z
?qt_metacall@QTextObject@@UAEHW4Call@QMetaObject@@HPAPAX@Z
?qt_metacall@QTextTable@@UAEHW4Call@QMetaObject@@HPAPAX@Z
?qt_metacall@QTimeEdit@@UAEHW4Call@QMetaObject@@HPAPAX@Z
?qt_metacall@QToolBar@@UAEHW4Call@QMetaObject@@HPAPAX@Z
?qt_metacall@QToolBarLayout@@UAEHW4Call@QMetaObject@@HPAPAX@Z
?qt_metacall@QToolBox@@UAEHW4Call@QMetaObject@@HPAPAX@Z
?qt_metacall@QToolButton@@UAEHW4Call@QMetaObject@@HPAPAX@Z
?qt_metacall@QTreeView@@UAEHW4Call@QMetaObject@@HPAPAX@Z
?qt_metacall@QTreeWidget@@UAEHW4Call@QMetaObject@@HPAPAX@Z
?qt_metacall@QUndoGroup@@UAEHW4Call@QMetaObject@@HPAPAX@Z
?qt_metacall@QUndoStack@@UAEHW4Call@QMetaObject@@HPAPAX@Z
?qt_metacall@QUndoView@@UAEHW4Call@QMetaObject@@HPAPAX@Z
?qt_metacall@QVBoxLayout@@UAEHW4Call@QMetaObject@@HPAPAX@Z
?qt_metacall@QValidator@@UAEHW4Call@QMetaObject@@HPAPAX@Z
?qt_metacall@QWidget@@UAEHW4Call@QMetaObject@@HPAPAX@Z
?qt_metacall@QWidgetAction@@UAEHW4Call@QMetaObject@@HPAPAX@Z
?qt_metacall@QWidgetResizeHandler@@UAEHW4Call@QMetaObject@@HPAPAX@Z
?qt_metacall@QWindowsStyle@@UAEHW4Call@QMetaObject@@HPAPAX@Z
?qt_metacall@QWindowsVistaStyle@@UAEHW4Call@QMetaObject@@HPAPAX@Z
?qt_metacall@QWindowsXPStyle@@UAEHW4Call@QMetaObject@@HPAPAX@Z
?qt_metacall@QWizard@@UAEHW4Call@QMetaObject@@HPAPAX@Z
?qt_metacall@QWizardPage@@UAEHW4Call@QMetaObject@@HPAPAX@Z
?qt_metacall@QWorkspace@@UAEHW4Call@QMetaObject@@HPAPAX@Z
?qt_metacast@QAbstractButton@@UAEPAXPBD@Z
?qt_metacast@QAbstractItemDelegate@@UAEPAXPBD@Z
?qt_metacast@QAbstractItemView@@UAEPAXPBD@Z
?qt_metacast@QAbstractPageSetupDialog@@UAEPAXPBD@Z
?qt_metacast@QAbstractPrintDialog@@UAEPAXPBD@Z
?qt_metacast@QAbstractProxyModel@@UAEPAXPBD@Z
?qt_metacast@QAbstractScrollArea@@UAEPAXPBD@Z
?qt_metacast@QAbstractSlider@@UAEPAXPBD@Z
?qt_metacast@QAbstractSpinBox@@UAEPAXPBD@Z
?qt_metacast@QAbstractTextDocumentLayout@@UAEPAXPBD@Z
?qt_metacast@QAccessiblePlugin@@UAEPAXPBD@Z
?qt_metacast@QAction@@UAEPAXPBD@Z
?qt_metacast@QActionGroup@@UAEPAXPBD@Z
?qt_metacast@QApplication@@UAEPAXPBD@Z
?qt_metacast@QBoxLayout@@UAEPAXPBD@Z
?qt_metacast@QButtonGroup@@UAEPAXPBD@Z
?qt_metacast@QCDEStyle@@UAEPAXPBD@Z
?qt_metacast@QCalendarWidget@@UAEPAXPBD@Z
?qt_metacast@QCheckBox@@UAEPAXPBD@Z
?qt_metacast@QCleanlooksStyle@@UAEPAXPBD@Z
?qt_metacast@QClipboard@@UAEPAXPBD@Z
?qt_metacast@QColorDialog@@UAEPAXPBD@Z
?qt_metacast@QColumnView@@UAEPAXPBD@Z
?qt_metacast@QComboBox@@UAEPAXPBD@Z
?qt_metacast@QCommandLinkButton@@UAEPAXPBD@Z
?qt_metacast@QCommonStyle@@UAEPAXPBD@Z
?qt_metacast@QCompleter@@UAEPAXPBD@Z
?qt_metacast@QDataWidgetMapper@@UAEPAXPBD@Z
?qt_metacast@QDateEdit@@UAEPAXPBD@Z
?qt_metacast@QDateTimeEdit@@UAEPAXPBD@Z
?qt_metacast@QDesktopWidget@@UAEPAXPBD@Z
?qt_metacast@QDial@@UAEPAXPBD@Z
?qt_metacast@QDialog@@UAEPAXPBD@Z
?qt_metacast@QDialogButtonBox@@UAEPAXPBD@Z
?qt_metacast@QDirModel@@UAEPAXPBD@Z
?qt_metacast@QDockWidget@@UAEPAXPBD@Z
?qt_metacast@QDockWidgetLayout@@UAEPAXPBD@Z
?qt_metacast@QDoubleSpinBox@@UAEPAXPBD@Z
?qt_metacast@QDoubleValidator@@UAEPAXPBD@Z
?qt_metacast@QDrag@@UAEPAXPBD@Z
?qt_metacast@QDragManager@@UAEPAXPBD@Z
?qt_metacast@QErrorMessage@@UAEPAXPBD@Z
?qt_metacast@QFileDialog@@UAEPAXPBD@Z
?qt_metacast@QFileSystemModel@@UAEPAXPBD@Z
?qt_metacast@QFocusFrame@@UAEPAXPBD@Z
?qt_metacast@QFontComboBox@@UAEPAXPBD@Z
?qt_metacast@QFontDialog@@UAEPAXPBD@Z
?qt_metacast@QFontEngine@@UAEPAXPBD@Z
?qt_metacast@QFormLayout@@UAEPAXPBD@Z
?qt_metacast@QFrame@@UAEPAXPBD@Z
?qt_metacast@QGraphicsItemAnimation@@UAEPAXPBD@Z
?qt_metacast@QGraphicsProxyWidget@@UAEPAXPBD@Z
?qt_metacast@QGraphicsScene@@UAEPAXPBD@Z
?qt_metacast@QGraphicsTextItem@@UAEPAXPBD@Z
?qt_metacast@QGraphicsView@@UAEPAXPBD@Z
?qt_metacast@QGraphicsWidget@@UAEPAXPBD@Z
?qt_metacast@QGridLayout@@UAEPAXPBD@Z
?qt_metacast@QGroupBox@@UAEPAXPBD@Z
?qt_metacast@QHBoxLayout@@UAEPAXPBD@Z
?qt_metacast@QHeaderView@@UAEPAXPBD@Z
?qt_metacast@QIconEnginePlugin@@UAEPAXPBD@Z
?qt_metacast@QIconEnginePluginV2@@UAEPAXPBD@Z
?qt_metacast@QImageIOPlugin@@UAEPAXPBD@Z
?qt_metacast@QInputContext@@UAEPAXPBD@Z
?qt_metacast@QInputContextPlugin@@UAEPAXPBD@Z
?qt_metacast@QInputDialog@@UAEPAXPBD@Z
?qt_metacast@QIntValidator@@UAEPAXPBD@Z
?qt_metacast@QItemDelegate@@UAEPAXPBD@Z
?qt_metacast@QItemSelectionModel@@UAEPAXPBD@Z
?qt_metacast@QLCDNumber@@UAEPAXPBD@Z
?qt_metacast@QLabel@@UAEPAXPBD@Z
?qt_metacast@QLayout@@UAEPAXPBD@Z
?qt_metacast@QLineEdit@@UAEPAXPBD@Z
?qt_metacast@QListView@@UAEPAXPBD@Z
?qt_metacast@QListWidget@@UAEPAXPBD@Z
?qt_metacast@QMainWindow@@UAEPAXPBD@Z
?qt_metacast@QMdiArea@@UAEPAXPBD@Z
?qt_metacast@QMdiSubWindow@@UAEPAXPBD@Z
?qt_metacast@QMenu@@UAEPAXPBD@Z
?qt_metacast@QMenuBar@@UAEPAXPBD@Z
?qt_metacast@QMenuItem@@UAEPAXPBD@Z
?qt_metacast@QMessageBox@@UAEPAXPBD@Z
?qt_metacast@QMotifStyle@@UAEPAXPBD@Z
?qt_metacast@QMovie@@UAEPAXPBD@Z
?qt_metacast@QPageSetupDialog@@UAEPAXPBD@Z
?qt_metacast@QPictureFormatPlugin@@UAEPAXPBD@Z
?qt_metacast@QPlainTextDocumentLayout@@UAEPAXPBD@Z
?qt_metacast@QPlainTextEdit@@UAEPAXPBD@Z
?qt_metacast@QPlastiqueStyle@@UAEPAXPBD@Z
?qt_metacast@QPrintDialog@@UAEPAXPBD@Z
?qt_metacast@QPrintPreviewDialog@@UAEPAXPBD@Z
?qt_metacast@QPrintPreviewWidget@@UAEPAXPBD@Z
?qt_metacast@QProgressBar@@UAEPAXPBD@Z
?qt_metacast@QProgressDialog@@UAEPAXPBD@Z
?qt_metacast@QProxyModel@@UAEPAXPBD@Z
?qt_metacast@QPushButton@@UAEPAXPBD@Z
?qt_metacast@QRadioButton@@UAEPAXPBD@Z
?qt_metacast@QRegExpValidator@@UAEPAXPBD@Z
?qt_metacast@QRubberBand@@UAEPAXPBD@Z
?qt_metacast@QScrollArea@@UAEPAXPBD@Z
?qt_metacast@QScrollBar@@UAEPAXPBD@Z
?qt_metacast@QSessionManager@@UAEPAXPBD@Z
?qt_metacast@QShortcut@@UAEPAXPBD@Z
?qt_metacast@QSizeGrip@@UAEPAXPBD@Z
?qt_metacast@QSlider@@UAEPAXPBD@Z
?qt_metacast@QSortFilterProxyModel@@UAEPAXPBD@Z
?qt_metacast@QSound@@UAEPAXPBD@Z
?qt_metacast@QSpinBox@@UAEPAXPBD@Z
?qt_metacast@QSplashScreen@@UAEPAXPBD@Z
?qt_metacast@QSplitter@@UAEPAXPBD@Z
?qt_metacast@QSplitterHandle@@UAEPAXPBD@Z
?qt_metacast@QStackedLayout@@UAEPAXPBD@Z
?qt_metacast@QStackedWidget@@UAEPAXPBD@Z
?qt_metacast@QStandardItemModel@@UAEPAXPBD@Z
?qt_metacast@QStatusBar@@UAEPAXPBD@Z
?qt_metacast@QStringListModel@@UAEPAXPBD@Z
?qt_metacast@QStyle@@UAEPAXPBD@Z
?qt_metacast@QStylePlugin@@UAEPAXPBD@Z
?qt_metacast@QStyledItemDelegate@@UAEPAXPBD@Z
?qt_metacast@QSyntaxHighlighter@@UAEPAXPBD@Z
?qt_metacast@QSystemTrayIcon@@UAEPAXPBD@Z
?qt_metacast@QTabBar@@UAEPAXPBD@Z
?qt_metacast@QTabWidget@@UAEPAXPBD@Z
?qt_metacast@QTableView@@UAEPAXPBD@Z
?qt_metacast@QTableWidget@@UAEPAXPBD@Z
?qt_metacast@QTextBlockGroup@@UAEPAXPBD@Z
?qt_metacast@QTextBrowser@@UAEPAXPBD@Z
?qt_metacast@QTextControl@@UAEPAXPBD@Z
?qt_metacast@QTextDocument@@UAEPAXPBD@Z
?qt_metacast@QTextEdit@@UAEPAXPBD@Z
?qt_metacast@QTextFrame@@UAEPAXPBD@Z
?qt_metacast@QTextImageHandler@@UAEPAXPBD@Z
?qt_metacast@QTextList@@UAEPAXPBD@Z
?qt_metacast@QTextObject@@UAEPAXPBD@Z
?qt_metacast@QTextTable@@UAEPAXPBD@Z
?qt_metacast@QTimeEdit@@UAEPAXPBD@Z
?qt_metacast@QToolBar@@UAEPAXPBD@Z
?qt_metacast@QToolBarLayout@@UAEPAXPBD@Z
?qt_metacast@QToolBox@@UAEPAXPBD@Z
?qt_metacast@QToolButton@@UAEPAXPBD@Z
?qt_metacast@QTreeView@@UAEPAXPBD@Z
?qt_metacast@QTreeWidget@@UAEPAXPBD@Z
?qt_metacast@QUndoGroup@@UAEPAXPBD@Z
?qt_metacast@QUndoStack@@UAEPAXPBD@Z
?qt_metacast@QUndoView@@UAEPAXPBD@Z
?qt_metacast@QVBoxLayout@@UAEPAXPBD@Z
?qt_metacast@QValidator@@UAEPAXPBD@Z
?qt_metacast@QWidget@@UAEPAXPBD@Z
?qt_metacast@QWidgetAction@@UAEPAXPBD@Z
?qt_metacast@QWidgetResizeHandler@@UAEPAXPBD@Z
?qt_metacast@QWindowsStyle@@UAEPAXPBD@Z
?qt_metacast@QWindowsVistaStyle@@UAEPAXPBD@Z
?qt_metacast@QWindowsXPStyle@@UAEPAXPBD@Z
?qt_metacast@QWizard@@UAEPAXPBD@Z
?qt_metacast@QWizardPage@@UAEPAXPBD@Z
?qt_metacast@QWorkspace@@UAEPAXPBD@Z
?qt_pixmap_cleanup_hook@@3P6AXH@ZA
?qt_pixmap_cleanup_hook_64@@3P6AX_J@ZA
?qt_pixmap_id@@YA_JABVQPixmap@@@Z
?qt_qscrollbarStyleOption@@YA?AVQStyleOptionSlider@@PAVQScrollBar@@@Z
?qt_qsliderStyleOption@@YA?AVQStyleOptionSlider@@PAVQSlider@@@Z
?qt_qwidget_data@@YAPAVQWidgetData@@PAVQWidget@@@Z
?qt_set_sequence_auto_mnemonic@@YAX_N@Z
?qt_tab_all_widgets@@3_NA
?qt_translateKeyCode@@YAHH@Z
?qt_tryModalHelper@@YA_NPAVQWidget@@PAPAV1@@Z
?qt_use_native_dialogs@@3_NA
?qt_widget_private@@YAPAVQWidgetPrivate@@PAVQWidget@@@Z
?qt_win_display_dc@@YAPAUHDC__@@XZ
?qt_win_ignoreNextMouseReleaseEvent@@3_NA
?quadTo@QPainterPath@@QAEXABVQPointF@@0@Z
?quadTo@QPainterPath@@QAEXNNNN@Z
?quadToQuad@QTransform@@SA_NABVQPolygonF@@0AAV1@@Z
?quadToSquare@QTransform@@SA_NABVQPolygonF@@AAV1@@Z
?quality@QImageReader@@QBEHXZ
?quality@QImageWriter@@QBEHXZ
?quality@QPictureIO@@QBEHXZ
?query@QMessageBox@@SA_NABVQString@@000PAVQWidget@@PBD@Z
?queryAccessibleInterface@QAccessible@@SAPAVQAccessibleInterface@@PAVQObject@@@Z
?question@QMessageBox@@SA?AW4StandardButton@1@PAVQWidget@@ABVQString@@1V?$QFlags@W4StandardButton@QMessageBox@@@@W421@@Z
?question@QMessageBox@@SAHPAVQWidget@@ABVQString@@1111HH@Z
?question@QMessageBox@@SAHPAVQWidget@@ABVQString@@1HHH@Z
?question@QMessageBox@@SAHPAVQWidget@@ABVQString@@1W4StandardButton@1@2@Z
?quitOnLastWindowClosed@QApplication@@SA_NXZ
?quitOnLastWindowClosed@QApplicationPrivate@@2_NA
?radius@QRadialGradient@@QBENXZ
?raise@QWidget@@QAEXXZ
?raise_sys@QWidgetPrivate@@QAEXXZ
?rangeChanged@QAbstractSlider@@IAEXHH@Z
?rawMode@QFont@@QBE_NXZ
?rawMode@QFontInfo@@QBE_NXZ
?rawName@QFont@@QBE?AVQString@@XZ
?rawValue@QTextLength@@QBENXZ
?read@QIconEngineV2@@UAE_NAAVQDataStream@@@Z
?read@QImageReader@@QAE?AVQImage@@XZ
?read@QImageReader@@QAE_NPAVQImage@@@Z
?read@QListWidgetItem@@UAEXAAVQDataStream@@@Z
?read@QPictureIO@@QAE_NXZ
?read@QStandardItem@@UAEXAAVQDataStream@@@Z
?read@QTableWidgetItem@@UAEXAAVQDataStream@@@Z
?read@QTreeWidgetItem@@UAEXAAVQDataStream@@@Z
?realValue@Declaration@QCss@@QBE_NPANPBD@Z
?reason@QContextMenuEvent@@QBE?AW4Reason@1@XZ
?reason@QFocusEvent@@QAE?AW4FocusReason@Qt@@XZ
?reason@QFocusEvent@@QBE?AW4FocusReason@Qt@@XZ
?reason@QGraphicsSceneContextMenuEvent@@QBE?AW4Reason@1@XZ
?recalcAdvances@QFontEngine@@UBEXHPAUQGlyphLayout@@V?$QFlags@W4ShaperFlag@QTextEngine@@@@@Z
?recalcAdvances@QFontEngineMulti@@UBEXHPAUQGlyphLayout@@V?$QFlags@W4ShaperFlag@QTextEngine@@@@@Z
?recordError@Parser@QCss@@QAE_NXZ
?recreate@QWidget@@QAEXPAV1@V?$QFlags@W4WindowType@Qt@@@@ABVQPoint@@_N@Z
?rect@QAccessibleObject@@UBE?AVQRect@@H@Z
?rect@QAccessibleObjectEx@@UBE?AVQRect@@H@Z
?rect@QAccessibleWidget@@UBE?AVQRect@@H@Z
?rect@QAccessibleWidgetEx@@UBE?AVQRect@@H@Z
?rect@QGraphicsEllipseItem@@QBE?AVQRectF@@XZ
?rect@QGraphicsRectItem@@QBE?AVQRectF@@XZ
?rect@QGraphicsWidget@@QBE?AVQRectF@@XZ
?rect@QImage@@QBE?AVQRect@@XZ
?rect@QItemDelegate@@IBE?AVQRect@@ABVQStyleOptionViewItem@@ABVQModelIndex@@H@Z
?rect@QPaintEvent@@QBEABVQRect@@XZ
?rect@QPixmap@@QBE?AVQRect@@XZ
?rect@QTextInlineObject@@QBE?AVQRectF@@XZ
?rect@QTextLine@@QBE?AVQRectF@@XZ
?rect@QWidget@@QBE?AVQRect@@XZ
?rect@QWindowSurface@@QBE?AVQRect@@PBVQWidget@@@Z
?rectForIndex@QListView@@IBE?AVQRect@@ABVQModelIndex@@@Z
?rectValue@Declaration@QCss@@QBE?AVQRect@@XZ
?rects@QRegion@@QBE?AV?$QVector@VQRect@@@@XZ
?red@QColor@@QBEHXZ
?redF@QColor@@QBENXZ
?redirect@QPainter@@SAPAVQPaintDevice@@PAV2@@Z
?redirect@QPainter@@SAXPAVQPaintDevice@@0@Z
?redirected@QPainter@@SAPAVQPaintDevice@@PBV2@PAVQPoint@@@Z
?redirected@QWidgetPrivate@@QBEPAVQPaintDevice@@PAVQPoint@@@Z
?redo@QLineEdit@@QAEXXZ
?redo@QPlainTextEdit@@QAEXXZ
?redo@QTextControl@@QAEXXZ
?redo@QTextDocument@@QAEXPAVQTextCursor@@@Z
?redo@QTextDocument@@QAEXXZ
?redo@QTextEdit@@QAEXXZ
?redo@QTextEdit@@QBEXXZ
?redo@QUndoCommand@@UAEXXZ
?redo@QUndoGroup@@QAEXXZ
?redo@QUndoStack@@QAEXXZ
?redoAvailable@QPlainTextEdit@@IAEX_N@Z
?redoAvailable@QTextControl@@IAEX_N@Z
?redoAvailable@QTextDocument@@IAEX_N@Z
?redoAvailable@QTextEdit@@IAEX_N@Z
?redoText@QUndoGroup@@QBE?AVQString@@XZ
?redoText@QUndoStack@@QBE?AVQString@@XZ
?redoTextChanged@QUndoGroup@@IAEXABVQString@@@Z
?redoTextChanged@QUndoStack@@IAEXABVQString@@@Z
?reexpand@QTreeView@@IAEXXZ
?reformat@QStatusBar@@IAEXXZ
?refresh@QDirModel@@QAEXABVQModelIndex@@@Z
?refresh@QSplitter@@QAEXXZ
?regExp@QRegExpValidator@@QBEABVQRegExp@@XZ
?region@QPaintEvent@@QBEABVQRegion@@XZ
?registerDropSite@QWidgetPrivate@@QAEX_N@Z
?registerEditor@QItemEditorFactory@@QAEXW4Type@QVariant@@PAVQItemEditorCreatorBase@@@Z
?registerField@QWizardPage@@IAEXABVQString@@PAVQWidget@@PBD2@Z
?registerHandler@QAbstractTextDocumentLayout@@QAEXHPAVQObject@@@Z
?registerMimeType@QWindowsMime@@SAHABVQString@@@Z
?registerOleDnd@QWidgetPrivate@@QAEPAVQOleDropTarget@@PAVQWidget@@@Z
?rehighlight@QSyntaxHighlighter@@QAEXXZ
?reject@QDialog@@UAEXXZ
?rejected@QDialog@@IAEXXZ
?rejected@QDialogButtonBox@@IAEXXZ
?relationTo@QAccessibleApplication@@UBE?AV?$QFlags@W4RelationFlag@QAccessible@@@@HPBVQAccessibleInterface@@H@Z
?relationTo@QAccessibleWidget@@UBE?AV?$QFlags@W4RelationFlag@QAccessible@@@@HPBVQAccessibleInterface@@H@Z
?relationTo@QAccessibleWidgetEx@@UBE?AV?$QFlags@W4RelationFlag@QAccessible@@@@HPBVQAccessibleInterface@@H@Z
?release@QSessionManager@@QAEXXZ
?releaseDC@QPaintDevice@@UBEXPAUHDC__@@@Z
?releaseDC@QPaintEngine@@UBEXPAUHDC__@@@Z
?releaseDC@QPrinter@@UBEXPAUHDC__@@@Z
?releaseDC@QWidget@@UBEXPAUHDC__@@@Z
?releaseEditor@QAbstractItemViewPrivate@@QBEXPAVQWidget@@@Z
?releaseKeyboard@QWidget@@QAEXXZ
?releaseMouse@QWidget@@QAEXXZ
?releasePrinterDC@QPrintEngine@@UBEXPAUHDC__@@@Z
?releaseShortcut@QWidget@@QAEXH@Z
?releaseWidget@QWidgetAction@@QAEXPAVQWidget@@@Z
?released@QAbstractButton@@IAEXXZ
?reload@QTextBrowser@@UAEXXZ
?remove@?$QList@VQItemSelectionRange@@@@QAE?AViterator@1@V21@@Z
?remove@?$QList@VQItemSelectionRange@@@@QAEHABVQItemSelectionRange@@@Z
?remove@QButtonGroup@@QAEXPAVQAbstractButton@@@Z
?remove@QDirModel@@QAE_NABVQModelIndex@@@Z
?remove@QFileSystemModel@@QBE_NABVQModelIndex@@@Z
?remove@QLayout@@QAEXPAVQWidget@@@Z
?remove@QPixmapCache@@SAXABVQString@@@Z
?remove@QTextList@@QAEXABVQTextBlock@@@Z
?remove@QToolTip@@SAXPAVQWidget@@@Z
?remove@QWhatsThis@@SAXPAVQWidget@@@Z
?removeAction@QActionGroup@@QAEXPAVQAction@@@Z
?removeAction@QWidget@@QAEXPAVQAction@@@Z
?removeAll@?$QList@VQItemSelectionRange@@@@QAEHABVQItemSelectionRange@@@Z
?removeAllApplicationFonts@QFontDatabase@@SA_NXZ
?removeApplicationFont@QFontDatabase@@SA_NH@Z
?removeAt@?$QList@VQItemSelectionRange@@@@QAEXH@Z
?removeAt@QGraphicsGridLayout@@UAEXH@Z
?removeAt@QGraphicsLinearLayout@@UAEXH@Z
?removeButton@QButtonGroup@@QAEXPAVQAbstractButton@@@Z
?removeButton@QDialogButtonBox@@QAEXPAVQAbstractButton@@@Z
?removeButton@QMessageBox@@QAEXPAVQAbstractButton@@@Z
?removeCellWidget@QTableWidget@@QAEXHH@Z
?removeChild@QTreeWidgetItem@@QAEXPAV1@@Z
?removeColumn@QStandardItem@@QAEXH@Z
?removeColumn@QTableWidget@@QAEXH@Z
?removeColumns@QSortFilterProxyModel@@UAE_NHHABVQModelIndex@@@Z
?removeColumns@QStandardItem@@QAEXHH@Z
?removeColumns@QStandardItemModel@@UAE_NHHABVQModelIndex@@@Z
?removeColumns@QTextTable@@QAEXHH@Z
?removeDockWidget@QMainWindow@@QAEXPAVQDockWidget@@@Z
?removeEditor@QAbstractItemViewPrivate@@QAEXPAVQWidget@@@Z
?removeFactory@QAccessible@@SAXP6APAVQAccessibleInterface@@ABVQString@@PAVQObject@@@Z@Z
?removeFirst@?$QList@VQItemSelectionRange@@@@QAEXXZ
?removeFrom@QAction@@QAE_NPAVQWidget@@@Z
?removeFromGroup@QGraphicsItemGroup@@QAEXPAVQGraphicsItem@@@Z
?removeFromIndex@QGraphicsItem@@IAEXXZ
?removeGlyphFromCache@QFontEngine@@UAEXI@Z
?removeItem@QComboBox@@QAEXH@Z
?removeItem@QGraphicsLinearLayout@@QAEXPAVQGraphicsLayoutItem@@@Z
?removeItem@QGraphicsScene@@QAEXPAVQGraphicsItem@@@Z
?removeItem@QLayout@@QAEXPAVQLayoutItem@@@Z
?removeItem@QMenu@@QAEXH@Z
?removeItem@QMenuBar@@QAEXH@Z
?removeItem@QTextList@@QAEXH@Z
?removeItem@QToolBox@@QAEHPAVQWidget@@@Z
?removeItem@QToolBox@@QAEXH@Z
?removeItemAt@QMenu@@QAEXH@Z
?removeItemAt@QMenuBar@@QAEXH@Z
?removeItemWidget@QListWidget@@QAEXPAVQListWidgetItem@@@Z
?removeItemWidget@QTreeWidget@@QAEXPAVQTreeWidgetItem@@H@Z
?removeLast@?$QList@VQItemSelectionRange@@@@QAEXXZ
?removeMapping@QDataWidgetMapper@@QAEXPAVQWidget@@@Z
?removeOne@?$QList@VQItemSelectionRange@@@@QAE_NABVQItemSelectionRange@@@Z
?removePage@QTabWidget@@QAEXPAVQWidget@@@Z
?removeRow@QStandardItem@@QAEXH@Z
?removeRow@QTableWidget@@QAEXH@Z
?removeRows@QSortFilterProxyModel@@UAE_NHHABVQModelIndex@@@Z
?removeRows@QStandardItem@@QAEXHH@Z
?removeRows@QStandardItemModel@@UAE_NHHABVQModelIndex@@@Z
?removeRows@QStringListModel@@UAE_NHHABVQModelIndex@@@Z
?removeRows@QTextTable@@QAEXHH@Z
?removeSceneEventFilter@QGraphicsItem@@QAEXPAV1@@Z
?removeSelectedText@QTextCursor@@QAEXXZ
?removeStack@QUndoGroup@@QAEXPAVQUndoStack@@@Z
?removeSubWindow@QMdiArea@@QAEXPAVQWidget@@@Z
?removeSubstitution@QFont@@SAXABVQString@@@Z
?removeTab@QTabBar@@QAEXH@Z
?removeTab@QTabWidget@@QAEXH@Z
?removeTabToolTip@QTabWidget@@QAEXPAVQWidget@@@Z
?removeToolBar@QMainWindow@@QAEXPAVQToolBar@@@Z
?removeToolBarBreak@QMainWindow@@QAEXPAVQToolBar@@@Z
?removeWidget@QLayout@@QAEXPAVQWidget@@@Z
?removeWidget@QStackedWidget@@QAEXPAVQWidget@@@Z
?removeWidget@QStatusBar@@QAEXPAVQWidget@@@Z
?render@QGraphicsScene@@QAEXPAVQPainter@@ABVQRectF@@1W4AspectRatioMode@Qt@@@Z
?render@QGraphicsView@@QAEXPAVQPainter@@ABVQRectF@@ABVQRect@@W4AspectRatioMode@Qt@@@Z
?render@QWidget@@QAEXPAVQPaintDevice@@ABVQPoint@@ABVQRegion@@V?$QFlags@W4RenderFlag@QWidget@@@@@Z
?render@QWidget@@QAEXPAVQPainter@@ABVQPoint@@ABVQRegion@@V?$QFlags@W4RenderFlag@QWidget@@@@@Z
?renderFlags@QTextItem@@QBE?AV?$QFlags@W4RenderFlag@QTextItem@@@@XZ
?renderHints@QGraphicsView@@QBE?AV?$QFlags@W4RenderHint@QPainter@@@@XZ
?renderHints@QPaintEngineState@@QBE?AV?$QFlags@W4RenderHint@QPainter@@@@XZ
?renderHints@QPainter@@QBE?AV?$QFlags@W4RenderHint@QPainter@@@@XZ
?renderToPixmap@QAbstractItemViewPrivate@@QBE?AVQPixmap@@ABV?$QList@VQModelIndex@@@@PAVQRect@@@Z
?repaint@QSplashScreen@@QAEXXZ
?repaint@QWidget@@QAEXABVQRect@@@Z
?repaint@QWidget@@QAEXABVQRect@@_N@Z
?repaint@QWidget@@QAEXABVQRegion@@@Z
?repaint@QWidget@@QAEXABVQRegion@@_N@Z
?repaint@QWidget@@QAEXHHHH@Z
?repaint@QWidget@@QAEXHHHH_N@Z
?repaint@QWidget@@QAEXXZ
?repaint@QWidget@@QAEX_N@Z
?repaintArea@QLineEdit@@IAEXHH@Z
?reparent@QWidget@@QAEXPAV1@ABVQPoint@@_N@Z
?reparent@QWidget@@QAEXPAV1@V?$QFlags@W4WindowType@Qt@@@@ABVQPoint@@_N@Z
?reparentChildWidgets@QLayoutPrivate@@QAEXPAVQWidget@@@Z
?reparentChildren@QWidgetPrivate@@QAEXXZ
?reparentFocusWidgets@QWidgetPrivate@@QAEXPAVQWidget@@@Z
?repeatAction@QAbstractSlider@@IBE?AW4SliderAction@1@XZ
?repeatValue@Declaration@QCss@@QBE?AW4Repeat@2@XZ
?replace@?$QList@VQItemSelectionRange@@@@QAEXHABVQItemSelectionRange@@@Z
?replaceText@QAccessibleSimpleEditableTextInterface@@UAEXHHABVQString@@@Z
?replacementLength@QInputMethodEvent@@QBEHXZ
?replacementStart@QInputMethodEvent@@QBEHXZ
?requestPhase2@QSessionManager@@QAEXXZ
?requestUpdate@QPlainTextDocumentLayout@@QAEXXZ
?requestWidget@QWidgetAction@@QAEPAVQWidget@@PAV2@@Z
?reset@QAbstractItemView@@UAEXXZ
?reset@QGraphicsItemAnimation@@QAEXXZ
?reset@QHeaderView@@UAEXXZ
?reset@QIcon@@QAEXABVQPixmap@@W4Size@1@@Z
?reset@QImage@@QAEXXZ
?reset@QItemSelectionModel@@UAEXXZ
?reset@QListView@@UAEXXZ
?reset@QMatrix@@QAEXXZ
?reset@QProgressBar@@QAEXXZ
?reset@QProgressDialog@@QAEXXZ
?reset@QTransform@@QAEXXZ
?reset@QTreeView@@UAEXXZ
?resetCachedContent@QGraphicsView@@QAEXXZ
?resetFieldGrowthPolicy@QFormLayout@@AAEXXZ
?resetFormAlignment@QFormLayout@@AAEXXZ
?resetFormat@QPicturePrivate@@QAEXXZ
?resetInputContext@QWidget@@IAEXXZ
?resetLabelAlignment@QFormLayout@@AAEXXZ
?resetMatrix@QGraphicsItem@@QAEXXZ
?resetMatrix@QGraphicsView@@QAEXXZ
?resetMatrix@QPainter@@QAEXXZ
?resetRowWrapPolicy@QFormLayout@@AAEXXZ
?resetTransform@QGraphicsItem@@QAEXXZ
?resetTransform@QGraphicsView@@QAEXXZ
?resetTransform@QPainter@@QAEXXZ
?resetXForm@QPainter@@QAEXXZ
?resize@QGraphicsWidget@@QAEXABVQSizeF@@@Z
?resize@QGraphicsWidget@@QAEXNN@Z
?resize@QPixmap@@QAEXABVQSize@@@Z
?resize@QPixmap@@QAEXHH@Z
?resize@QRubberBand@@QAEXABVQSize@@@Z
?resize@QRubberBand@@QAEXHH@Z
?resize@QTextTable@@QAEXHH@Z
?resize@QWidget@@QAEXABVQSize@@@Z
?resize@QWidget@@QAEXHH@Z
?resizeAnchor@QGraphicsView@@QBE?AW4ViewportAnchor@1@XZ
?resizeColumnToContents@QTableView@@QAEXH@Z
?resizeColumnToContents@QTreeView@@QAEXH@Z
?resizeColumnsToContents@QTableView@@QAEXXZ
?resizeContents@QListView@@IAEXHH@Z
?resizeEvent@QAbstractItemView@@MAEXPAVQResizeEvent@@@Z
?resizeEvent@QAbstractScrollArea@@MAEXPAVQResizeEvent@@@Z
?resizeEvent@QAbstractSpinBox@@MAEXPAVQResizeEvent@@@Z
?resizeEvent@QCalendarWidget@@MAEXPAVQResizeEvent@@@Z
?resizeEvent@QColumnView@@MAEXPAVQResizeEvent@@@Z
?resizeEvent@QComboBox@@MAEXPAVQResizeEvent@@@Z
?resizeEvent@QDesktopWidget@@MAEXPAVQResizeEvent@@@Z
?resizeEvent@QDial@@MAEXPAVQResizeEvent@@@Z
?resizeEvent@QDialog@@MAEXPAVQResizeEvent@@@Z
?resizeEvent@QGraphicsProxyWidget@@MAEXPAVQGraphicsSceneResizeEvent@@@Z
?resizeEvent@QGraphicsView@@MAEXPAVQResizeEvent@@@Z
?resizeEvent@QGraphicsWidget@@MAEXPAVQGraphicsSceneResizeEvent@@@Z
?resizeEvent@QGroupBox@@MAEXPAVQResizeEvent@@@Z
?resizeEvent@QListView@@MAEXPAVQResizeEvent@@@Z
?resizeEvent@QMdiArea@@MAEXPAVQResizeEvent@@@Z
?resizeEvent@QMdiSubWindow@@MAEXPAVQResizeEvent@@@Z
?resizeEvent@QMenuBar@@MAEXPAVQResizeEvent@@@Z
?resizeEvent@QMessageBox@@MAEXPAVQResizeEvent@@@Z
?resizeEvent@QPlainTextEdit@@MAEXPAVQResizeEvent@@@Z
?resizeEvent@QProgressDialog@@MAEXPAVQResizeEvent@@@Z
?resizeEvent@QRubberBand@@MAEXPAVQResizeEvent@@@Z
?resizeEvent@QScrollArea@@MAEXPAVQResizeEvent@@@Z
?resizeEvent@QSplitter@@MAEXPAVQResizeEvent@@@Z
?resizeEvent@QStatusBar@@MAEXPAVQResizeEvent@@@Z
?resizeEvent@QTabBar@@MAEXPAVQResizeEvent@@@Z
?resizeEvent@QTabWidget@@MAEXPAVQResizeEvent@@@Z
?resizeEvent@QTextEdit@@MAEXPAVQResizeEvent@@@Z
?resizeEvent@QToolBar@@MAEXPAVQResizeEvent@@@Z
?resizeEvent@QWidget@@MAEXPAVQResizeEvent@@@Z
?resizeEvent@QWizard@@MAEXPAVQResizeEvent@@@Z
?resizeEvent@QWorkspace@@MAEXPAVQResizeEvent@@@Z
?resizeGripsVisible@QColumnView@@QBE_NXZ
?resizeInlineObject@QAbstractTextDocumentLayout@@MAEXVQTextInlineObject@@HABVQTextFormat@@@Z
?resizeMode@QHeaderView@@QBE?AW4ResizeMode@1@H@Z
?resizeMode@QLayout@@QBE?AW4SizeConstraint@1@XZ
?resizeMode@QListView@@QBE?AW4ResizeMode@1@XZ
?resizeRowToContents@QTableView@@QAEXH@Z
?resizeRowsToContents@QTableView@@QAEXXZ
?resizeSection@QHeaderView@@QAEXHH@Z
?resizeSections@QHeaderView@@IAEXXZ
?resizeSections@QHeaderView@@QAEXW4ResizeMode@1@@Z
?resize_helper@QPixmap@@AAEXABVQSize@@@Z
?resized@QDesktopWidget@@IAEXH@Z
?resized@QMovie@@IAEXABVQSize@@@Z
?resolution@QPrinter@@QBEHXZ
?resolve@QFont@@QAEXI@Z
?resolve@QFont@@QBE?AV1@ABV1@@Z
?resolve@QFont@@QBEIXZ
?resolve@QFontPrivate@@QAEXIPBV1@@Z
?resolve@QPalette@@QAEXI@Z
?resolve@QPalette@@QBE?AV1@ABV1@@Z
?resolve@QPalette@@QBEIXZ
?resolveAdditionalFormats@QTextEngine@@ABEXXZ
?resolveFont@QWidgetPrivate@@QAEXXZ
?resolveLayoutDirection@QWidgetPrivate@@QAEXXZ
?resolveLocale@QWidgetPrivate@@QAEXXZ
?resolvePalette@QWidgetPrivate@@QAEXXZ
?resolveSymlinks@QDirModel@@QBE_NXZ
?resolveSymlinks@QFileDialog@@QBE_NXZ
?resolveSymlinks@QFileSystemModel@@QBE_NXZ
?resource@QTextDocument@@QBE?AVQVariant@@HABVQUrl@@@Z
?restart@QMovie@@QAEXXZ
?restart@QWizard@@QAEXXZ
?restartCommand@QSessionManager@@QBE?AVQStringList@@XZ
?restartHint@QSessionManager@@QBE?AW4RestartHint@1@XZ
?restore@QPainter@@QAEXXZ
?restoreDockWidget@QMainWindow@@QAE_NPAVQDockWidget@@@Z
?restoreGeometry@QWidget@@QAE_NABVQByteArray@@@Z
?restoreOverrideCursor@QApplication@@SAXXZ
?restoreRedirected@QPainter@@SAXPBVQPaintDevice@@@Z
?restoreRedirected@QWidgetPrivate@@QAEXXZ
?restoreState@QFileDialog@@QAE_NABVQByteArray@@@Z
?restoreState@QHeaderView@@QAE_NABVQByteArray@@@Z
?restoreState@QMainWindow@@QAE_NABVQByteArray@@H@Z
?restoreState@QSplitter@@QAE_NABVQByteArray@@@Z
?result@QDialog@@QBEHXZ
?returnPressed@QLineEdit@@IAEXXZ
?reverseLayout@QApplication@@SA_NXZ
?revert@QAbstractProxyModel@@UAEXXZ
?revert@QDataWidgetMapper@@QAEXXZ
?revert@QProxyModel@@UAEXXZ
?revision@QTextBlock@@QBEHXZ
?revision@QTextDocument@@QBEHXZ
?rgb@QColor@@QBEIXZ
?rgb@QColor@@QBEXPAH00@Z
?rgbSwapped@QImage@@QBE?AV1@XZ
?rgba@QColor@@QBEIXZ
?right@QItemSelectionRange@@QBEHXZ
?rightBearing@QFontMetrics@@QBEHVQChar@@@Z
?rightBearing@QFontMetricsF@@QBENVQChar@@@Z
?rightColumn@QTableWidgetSelectionRange@@QBEHXZ
?rightMargin@QTextBlockFormat@@QBENXZ
?rightMargin@QTextFrameFormat@@QBENXZ
?rightPadding@QTextTableCellFormat@@QBENXZ
?rmdir@QDirModel@@QAE_NABVQModelIndex@@@Z
?rmdir@QFileSystemModel@@QBE_NABVQModelIndex@@@Z
?role@QAccessibleApplication@@UBE?AW4Role@QAccessible@@H@Z
?role@QAccessibleWidget@@UBE?AW4Role@QAccessible@@H@Z
?role@QAccessibleWidgetEx@@UBE?AW4Role@QAccessible@@H@Z
?rootDirectory@QFileSystemModel@@QBE?AVQDir@@XZ
?rootFrame@QTextDocument@@QBEPAVQTextFrame@@XZ
?rootIndex@QAbstractItemView@@QBE?AVQModelIndex@@XZ
?rootIndex@QDataWidgetMapper@@QBE?AVQModelIndex@@XZ
?rootIsDecorated@QTreeView@@QBE_NXZ
?rootModelIndex@QComboBox@@QBE?AVQModelIndex@@XZ
?rootObjectHandler@QAccessible@@0P6AXPAVQObject@@@ZA
?rootPath@QFileSystemModel@@QBE?AVQString@@XZ
?rootPathChanged@QFileSystemModel@@IAEXABVQString@@@Z
?rotate@QGraphicsItem@@QAEXN@Z
?rotate@QGraphicsView@@QAEXN@Z
?rotate@QMatrix@@QAEAAV1@N@Z
?rotate@QPainter@@QAEXN@Z
?rotate@QTransform@@QAEAAV1@NW4Axis@Qt@@@Z
?rotateRadians@QTransform@@QAEAAV1@NW4Axis@Qt@@@Z
?rotation@QTabletEvent@@QBENXZ
?rotationAt@QGraphicsItemAnimation@@QBENN@Z
?rotationList@QGraphicsItemAnimation@@QBE?AV?$QList@U?$QPair@NN@@@@XZ
?row@QListWidget@@QBEHPBVQListWidgetItem@@@Z
?row@QStandardItem@@QBEHXZ
?row@QTableWidget@@QBEHPBVQTableWidgetItem@@@Z
?row@QTableWidgetItem@@QBEHXZ
?row@QTextTableCell@@QBEHXZ
?rowAlignment@QGraphicsGridLayout@@QBE?AV?$QFlags@W4AlignmentFlag@Qt@@@@H@Z
?rowAt@QTableView@@QBEHH@Z
?rowCount@QDirModel@@UBEHABVQModelIndex@@@Z
?rowCount@QFileSystemModel@@UBEHABVQModelIndex@@@Z
?rowCount@QFormLayout@@QBEHXZ
?rowCount@QGraphicsGridLayout@@QBEHXZ
?rowCount@QGridLayout@@QBEHXZ
?rowCount@QProxyModel@@UBEHABVQModelIndex@@@Z
?rowCount@QSortFilterProxyModel@@UBEHABVQModelIndex@@@Z
?rowCount@QStandardItem@@QBEHXZ
?rowCount@QStandardItemModel@@UBEHABVQModelIndex@@@Z
?rowCount@QStringListModel@@UBEHABVQModelIndex@@@Z
?rowCount@QTableWidget@@QBEHXZ
?rowCount@QTableWidgetSelectionRange@@QBEHXZ
?rowCountChanged@QTableView@@IAEXHH@Z
?rowEnd@QTextTable@@QBE?AVQTextCursor@@ABV2@@Z
?rowHeight@QTableView@@QBEHH@Z
?rowHeight@QTreeView@@IBEHABVQModelIndex@@@Z
?rowIntersectsSelection@QItemSelectionModel@@QBE_NHABVQModelIndex@@@Z
?rowMaximumHeight@QGraphicsGridLayout@@QBENH@Z
?rowMinimumHeight@QGraphicsGridLayout@@QBENH@Z
?rowMinimumHeight@QGridLayout@@QBEHH@Z
?rowMoved@QTableView@@IAEXHHH@Z
?rowPreferredHeight@QGraphicsGridLayout@@QBENH@Z
?rowResized@QTableView@@IAEXHHH@Z
?rowSpacing@QGraphicsGridLayout@@QBENH@Z
?rowSpacing@QGridLayout@@QBEHH@Z
?rowSpan@QTableView@@QBEHHH@Z
?rowSpan@QTextTableCell@@QBEHXZ
?rowStart@QTextTable@@QBE?AVQTextCursor@@ABV2@@Z
?rowStretch@QGridLayout@@QBEHH@Z
?rowStretchFactor@QGraphicsGridLayout@@QBEHH@Z
?rowViewportPosition@QTableView@@QBEHH@Z
?rowWrapPolicy@QFormLayout@@QBE?AW4RowWrapPolicy@1@XZ
?rows@QTextTable@@QBEHXZ
?rowsAboutToBeRemoved@QAbstractItemView@@MAEXABVQModelIndex@@HH@Z
?rowsAboutToBeRemoved@QListView@@MAEXABVQModelIndex@@HH@Z
?rowsAboutToBeRemoved@QTreeView@@MAEXABVQModelIndex@@HH@Z
?rowsInserted@QAbstractItemView@@MAEXABVQModelIndex@@HH@Z
?rowsInserted@QHeaderView@@MAEXABVQModelIndex@@HH@Z
?rowsInserted@QListView@@MAEXABVQModelIndex@@HH@Z
?rowsInserted@QTreeView@@MAEXABVQModelIndex@@HH@Z
?rowsRemoved@QTreeView@@IAEXABVQModelIndex@@HH@Z
?rubberBandSelectionMode@QGraphicsView@@QBE?AW4ItemSelectionMode@Qt@@XZ
?running@QMovie@@QBE_NXZ
?saturation@QColor@@QBEHXZ
?saturationF@QColor@@QBENXZ
?save@QImage@@QBE_NABVQString@@PBDH@Z
?save@QImage@@QBE_NPAVQIODevice@@PBDH@Z
?save@QPainter@@QAEXXZ
?save@QPicture@@QAE_NABVQString@@PBD@Z
?save@QPicture@@QAE_NPAVQIODevice@@PBD@Z
?save@QPixmap@@QBE_NABVQString@@PBDH@Z
?save@QPixmap@@QBE_NPAVQIODevice@@PBDH@Z
?saveGeometry@QWidget@@QBE?AVQByteArray@@XZ
?savePicture@QPictureFormatPlugin@@UAE_NABVQString@@0ABVQPicture@@@Z
?saveState@QApplication@@UAEXAAVQSessionManager@@@Z
?saveState@QFileDialog@@QBE?AVQByteArray@@XZ
?saveState@QHeaderView@@QBE?AVQByteArray@@XZ
?saveState@QMainWindow@@QBE?AVQByteArray@@H@Z
?saveState@QSplitter@@QBE?AVQByteArray@@XZ
?saveStateRequest@QApplication@@IAEXAAVQSessionManager@@@Z
?scale@QGraphicsItem@@QAEXNN@Z
?scale@QGraphicsView@@QAEXNN@Z
?scale@QMatrix@@QAEAAV1@NN@Z
?scale@QPainter@@QAEXNN@Z
?scale@QTransform@@QAEAAV1@NN@Z
?scaleHeight@QImage@@QBE?AV1@H@Z
?scaleList@QGraphicsItemAnimation@@QBE?AV?$QList@U?$QPair@NVQPointF@@@@@@XZ
?scaleWidth@QImage@@QBE?AV1@H@Z
?scaled@QImage@@QBE?AV1@ABVQSize@@W4AspectRatioMode@Qt@@W4TransformationMode@4@@Z
?scaled@QImage@@QBE?AV1@HHW4AspectRatioMode@Qt@@W4TransformationMode@3@@Z
?scaled@QPixmap@@QBE?AV1@ABVQSize@@W4AspectRatioMode@Qt@@W4TransformationMode@4@@Z
?scaled@QPixmap@@QBE?AV1@HHW4AspectRatioMode@Qt@@W4TransformationMode@3@@Z
?scaledClipRect@QImageReader@@QBE?AVQRect@@XZ
?scaledSize@QImageReader@@QBE?AVQSize@@XZ
?scaledSize@QMovie@@QAE?AVQSize@@XZ
?scaledToHeight@QImage@@QBE?AV1@HW4TransformationMode@Qt@@@Z
?scaledToHeight@QPixmap@@QBE?AV1@HW4TransformationMode@Qt@@@Z
?scaledToWidth@QImage@@QBE?AV1@HW4TransformationMode@Qt@@@Z
?scaledToWidth@QPixmap@@QBE?AV1@HW4TransformationMode@Qt@@@Z
?scanLine@QImage@@QAEPAEH@Z
?scanLine@QImage@@QBEPBEH@Z
?scene@QGraphicsItem@@QBEPAVQGraphicsScene@@XZ
?scene@QGraphicsView@@QBEPAVQGraphicsScene@@XZ
?sceneBoundingRect@QGraphicsItem@@QBE?AVQRectF@@XZ
?sceneEvent@QGraphicsItem@@MAE_NPAVQEvent@@@Z
?sceneEvent@QGraphicsTextItem@@MAE_NPAVQEvent@@@Z
?sceneEvent@QGraphicsWidget@@MAE_NPAVQEvent@@@Z
?sceneEventFilter@QGraphicsItem@@MAE_NPAV1@PAVQEvent@@@Z
?sceneMatrix@QGraphicsItem@@QBE?AVQMatrix@@XZ
?scenePos@QGraphicsItem@@QBE?AVQPointF@@XZ
?scenePos@QGraphicsSceneContextMenuEvent@@QBE?AVQPointF@@XZ
?scenePos@QGraphicsSceneDragDropEvent@@QBE?AVQPointF@@XZ
?scenePos@QGraphicsSceneHelpEvent@@QBE?AVQPointF@@XZ
?scenePos@QGraphicsSceneHoverEvent@@QBE?AVQPointF@@XZ
?scenePos@QGraphicsSceneMouseEvent@@QBE?AVQPointF@@XZ
?scenePos@QGraphicsSceneWheelEvent@@QBE?AVQPointF@@XZ
?sceneRect@QGraphicsScene@@QBE?AVQRectF@@XZ
?sceneRect@QGraphicsView@@QBE?AVQRectF@@XZ
?sceneRectChanged@QGraphicsScene@@IAEXABVQRectF@@@Z
?sceneTransform@QGraphicsItem@@QBE?AVQTransform@@XZ
?scheduleDelayedItemsLayout@QAbstractItemView@@IAEXXZ
?screen@QDesktopWidget@@QAEPAVQWidget@@H@Z
?screenGeometry@QDesktopWidget@@QBE?BVQRect@@ABVQPoint@@@Z
?screenGeometry@QDesktopWidget@@QBE?BVQRect@@H@Z
?screenGeometry@QDesktopWidget@@QBE?BVQRect@@PBVQWidget@@@Z
?screenNumber@QDesktopWidget@@QBEHABVQPoint@@@Z
?screenNumber@QDesktopWidget@@QBEHPBVQWidget@@@Z
?screenPos@QGraphicsSceneContextMenuEvent@@QBE?AVQPoint@@XZ
?screenPos@QGraphicsSceneDragDropEvent@@QBE?AVQPoint@@XZ
?screenPos@QGraphicsSceneHelpEvent@@QBE?AVQPoint@@XZ
?screenPos@QGraphicsSceneHoverEvent@@QBE?AVQPoint@@XZ
?screenPos@QGraphicsSceneMouseEvent@@QBE?AVQPoint@@XZ
?screenPos@QGraphicsSceneWheelEvent@@QBE?AVQPoint@@XZ
?scroll@QGraphicsItem@@QAEXNNABVQRectF@@@Z
?scroll@QWidget@@QAEXHH@Z
?scroll@QWidget@@QAEXHHABVQRect@@@Z
?scroll@QWindowSurface@@UAE_NABVQRegion@@HH@Z
?scrollBarWidgets@QAbstractScrollArea@@QAE?AV?$QList@PAVQWidget@@@@V?$QFlags@W4AlignmentFlag@Qt@@@@@Z
?scrollBarsEnabled@QWorkspace@@QBE_NXZ
?scrollChildren@QWidgetPrivate@@QAEXHH@Z
?scrollContentsBy@QAbstractItemViewPrivate@@QAEXHH@Z
?scrollContentsBy@QAbstractScrollArea@@MAEXHH@Z
?scrollContentsBy@QColumnView@@MAEXHH@Z
?scrollContentsBy@QGraphicsView@@MAEXHH@Z
?scrollContentsBy@QHeaderView@@MAEXHH@Z
?scrollContentsBy@QListView@@MAEXHH@Z
?scrollContentsBy@QMdiArea@@MAEXHH@Z
?scrollContentsBy@QPlainTextEdit@@MAEXHH@Z
?scrollContentsBy@QScrollArea@@MAEXHH@Z
?scrollContentsBy@QTableView@@MAEXHH@Z
?scrollContentsBy@QTextEdit@@MAEXHH@Z
?scrollContentsBy@QTreeView@@MAEXHH@Z
?scrollDirtyRegion@QAbstractItemView@@IAEXHH@Z
?scrollDirtyRegion@QAbstractItemViewPrivate@@QAEXHH@Z
?scrollRect@QWidgetPrivate@@QAEXABVQRect@@HH@Z
?scrollTo@QColumnView@@UAEXABVQModelIndex@@W4ScrollHint@QAbstractItemView@@@Z
?scrollTo@QHeaderView@@MAEXABVQModelIndex@@W4ScrollHint@QAbstractItemView@@@Z
?scrollTo@QListView@@UAEXABVQModelIndex@@W4ScrollHint@QAbstractItemView@@@Z
?scrollTo@QTableView@@UAEXABVQModelIndex@@W4ScrollHint@QAbstractItemView@@@Z
?scrollTo@QTreeView@@UAEXABVQModelIndex@@W4ScrollHint@QAbstractItemView@@@Z
?scrollToAnchor@QTextEdit@@QAEXABVQString@@@Z
?scrollToBottom@QAbstractItemView@@QAEXXZ
?scrollToItem@QListWidget@@QAEXPBVQListWidgetItem@@W4ScrollHint@QAbstractItemView@@@Z
?scrollToItem@QTableWidget@@QAEXPBVQTableWidgetItem@@W4ScrollHint@QAbstractItemView@@@Z
?scrollToItem@QTreeWidget@@QAEXPBVQTreeWidgetItem@@W4ScrollHint@QAbstractItemView@@@Z
?scrollToTop@QAbstractItemView@@QAEXXZ
?scroll_sys@QWidgetPrivate@@QAEXHH@Z
?scroll_sys@QWidgetPrivate@@QAEXHHABVQRect@@@Z
?searchPaths@QTextBrowser@@QBE?AVQStringList@@XZ
?secondDerivedAt@QBezier@@QBE?AVQPointF@@N@Z
?sectionAt@QDateTimeEdit@@QBE?AW4Section@1@H@Z
?sectionAutoResize@QHeaderView@@IAEXHW4ResizeMode@1@@Z
?sectionClicked@QHeaderView@@IAEXH@Z
?sectionCount@QDateTimeEdit@@QBEHXZ
?sectionCountChanged@QHeaderView@@IAEXHH@Z
?sectionDoubleClicked@QHeaderView@@IAEXH@Z
?sectionEntered@QHeaderView@@IAEXH@Z
?sectionHandleDoubleClicked@QHeaderView@@IAEXH@Z
?sectionMoved@QHeaderView@@IAEXHHH@Z
?sectionPosition@QHeaderView@@QBEHH@Z
?sectionPressed@QHeaderView@@IAEXH@Z
?sectionResized@QHeaderView@@IAEXHHH@Z
?sectionSize@QHeaderView@@QBEHH@Z
?sectionSizeFromContents@QHeaderView@@MBE?AVQSize@@H@Z
?sectionSizeHint@QHeaderView@@QBEHH@Z
?sectionText@QDateTimeEdit@@QBE?AVQString@@W4Section@1@@Z
?sectionViewportPosition@QHeaderView@@QBEHH@Z
?sectionsAboutToBeRemoved@QHeaderView@@IAEXABVQModelIndex@@HH@Z
?sectionsHidden@QHeaderView@@QBE_NXZ
?sectionsInserted@QHeaderView@@IAEXABVQModelIndex@@HH@Z
?sectionsMoved@QHeaderView@@QBE_NXZ
?segmentStyle@QLCDNumber@@QBE?AW4SegmentStyle@1@XZ
?select@QItemSelection@@QAEXABVQModelIndex@@0@Z
?select@QItemSelectionModel@@UAEXABVQItemSelection@@V?$QFlags@W4SelectionFlag@QItemSelectionModel@@@@@Z
?select@QItemSelectionModel@@UAEXABVQModelIndex@@V?$QFlags@W4SelectionFlag@QItemSelectionModel@@@@@Z
?select@QTextCursor@@QAEXW4SelectionType@1@@Z
?selectAll@QAbstractItemView@@UAEXXZ
?selectAll@QAbstractItemViewPrivate@@QAEXV?$QFlags@W4SelectionFlag@QItemSelectionModel@@@@@Z
?selectAll@QAbstractSpinBox@@QAEXXZ
?selectAll@QColumnView@@UAEXXZ
?selectAll@QLineEdit@@QAEXXZ
?selectAll@QPlainTextEdit@@QAEXXZ
?selectAll@QTextControl@@QAEXXZ
?selectAll@QTextEdit@@QAEXXZ
?selectAll@QTreeView@@UAEXXZ
?selectColor@QColorDialog@@AAE_NABVQColor@@@Z
?selectColumn@QTableView@@QAEXH@Z
?selectFile@QFileDialog@@QAEXABVQString@@@Z
?selectFilter@QFileDialog@@QAEXABVQString@@@Z
?selectNameFilter@QFileDialog@@QAEXABVQString@@@Z
?selectRow@QTableView@@QAEXH@Z
?selected@QActionGroup@@IAEXPAVQAction@@@Z
?selected@QItemDelegate@@IBEPAVQPixmap@@ABV2@ABVQPalette@@_N@Z
?selected@QTabBar@@IAEXH@Z
?selected@QTabWidget@@IAEXABVQString@@@Z
?selectedAlpha@QColorDialog@@ABEHXZ
?selectedColumns@QItemSelectionModel@@QBE?AV?$QList@VQModelIndex@@@@H@Z
?selectedDate@QCalendarWidget@@QBE?AVQDate@@XZ
?selectedFile@QFileDialog@@QBE?AVQString@@XZ
?selectedFiles@QFileDialog@@QBE?AVQStringList@@XZ
?selectedFilter@QFileDialog@@QBE?AVQString@@XZ
?selectedIndexes@QAbstractItemView@@MBE?AV?$QList@VQModelIndex@@@@XZ
?selectedIndexes@QItemSelectionModel@@QBE?AV?$QList@VQModelIndex@@@@XZ
?selectedIndexes@QListView@@MBE?AV?$QList@VQModelIndex@@@@XZ
?selectedIndexes@QTableView@@MBE?AV?$QList@VQModelIndex@@@@XZ
?selectedIndexes@QTreeView@@MBE?AV?$QList@VQModelIndex@@@@XZ
?selectedItems@QGraphicsScene@@QBE?AV?$QList@PAVQGraphicsItem@@@@XZ
?selectedItems@QListWidget@@QBE?AV?$QList@PAVQListWidgetItem@@@@XZ
?selectedItems@QTableWidget@@QAE?AV?$QList@PAVQTableWidgetItem@@@@XZ
?selectedItems@QTreeWidget@@QBE?AV?$QList@PAVQTreeWidgetItem@@@@XZ
?selectedNameFilter@QFileDialog@@QBE?AVQString@@XZ
?selectedRanges@QTableWidget@@QBE?AV?$QList@VQTableWidgetSelectionRange@@@@XZ
?selectedRows@QItemSelectionModel@@QBE?AV?$QList@VQModelIndex@@@@H@Z
?selectedTableCells@QTextCursor@@QBEXPAH000@Z
?selectedText@QLineEdit@@QBE?AVQString@@XZ
?selectedText@QTextCursor@@QBE?AVQString@@XZ
?selectedText@QTextEdit@@QBE?AVQString@@XZ
?selection@QItemSelectionModel@@QBE?BVQItemSelection@@XZ
?selection@QTextCursor@@QBE?AVQTextDocumentFragment@@XZ
?selectionAllowed@QAbstractItemViewPrivate@@UBE_NABVQModelIndex@@@Z
?selectionArea@QGraphicsScene@@QBE?AVQPainterPath@@XZ
?selectionBehavior@QAbstractItemView@@QBE?AW4SelectionBehavior@1@XZ
?selectionBehaviorFlags@QAbstractItemViewPrivate@@QBE?AV?$QFlags@W4SelectionFlag@QItemSelectionModel@@@@XZ
?selectionChanged@QAbstractItemView@@MAEXABVQItemSelection@@0@Z
?selectionChanged@QCalendarWidget@@IAEXXZ
?selectionChanged@QClipboard@@IAEXXZ
?selectionChanged@QGraphicsScene@@IAEXXZ
?selectionChanged@QItemSelectionModel@@IAEXABVQItemSelection@@0@Z
?selectionChanged@QLineEdit@@IAEXXZ
?selectionChanged@QListView@@MAEXABVQItemSelection@@0@Z
?selectionChanged@QPlainTextEdit@@IAEXXZ
?selectionChanged@QTableView@@MAEXABVQItemSelection@@0@Z
?selectionChanged@QTextControl@@IAEXXZ
?selectionChanged@QTextEdit@@IAEXXZ
?selectionChanged@QTreeView@@MAEXABVQItemSelection@@0@Z
?selectionCommand@QAbstractItemView@@MBE?AV?$QFlags@W4SelectionFlag@QItemSelectionModel@@@@ABVQModelIndex@@PBVQEvent@@@Z
?selectionEnd@QTextCursor@@QBEHXZ
?selectionMode@QAbstractItemView@@QBE?AW4SelectionMode@1@XZ
?selectionMode@QCalendarWidget@@QBE?AW4SelectionMode@1@XZ
?selectionModel@QAbstractItemView@@QBEPAVQItemSelectionModel@@XZ
?selectionRect@QTextControl@@QBE?AVQRectF@@ABVQTextCursor@@@Z
?selectionRect@QTextControl@@QBE?AVQRectF@@XZ
?selectionStart@QLineEdit@@QBEHXZ
?selectionStart@QTextCursor@@QBEHXZ
?selectorMatches@StyleSelector@QCss@@AAE_NABUSelector@2@TNodePtr@12@@Z
?self@QApplicationPrivate@@0PAV1@A
?self@QDragManager@@SAPAV1@XZ
?selfMask@QPixmap@@QBE_NXZ
?sendDelegateEvent@QAbstractItemViewPrivate@@QBE_NABVQModelIndex@@PAVQEvent@@@Z
?sendEvent@QInputContext@@QAEXABVQInputMethodEvent@@@Z
?sendMouseEvent@QApplicationPrivate@@SA_NPAVQWidget@@PAVQMouseEvent@@00PAPAV2@AAV?$QPointer@VQWidget@@@@@Z
?sendPendingMoveAndResizeEvents@QWidgetPrivate@@QAEX_N0@Z
?separator@QMenuBar@@QBE?AW4Separator@1@XZ
?separatorsCollapsible@QMenu@@QBE_NXZ
?serialNumber@QIcon@@QBEHXZ
?serialNumber@QImage@@QBEHXZ
?serialNumber@QPalette@@QBEHXZ
?serialNumber@QPixmap@@QBEHXZ
?serialNumber@QPixmapData@@QBEHXZ
?sessionId@QApplication@@QBE?AVQString@@XZ
?sessionId@QSessionManager@@QBE?AVQString@@XZ
?sessionKey@QApplication@@QBE?AVQString@@XZ
?sessionKey@QSessionManager@@QBE?AVQString@@XZ
?setAccel@QAbstractButton@@QAEXABVQKeySequence@@@Z
?setAccel@QAction@@QAEXABVQKeySequence@@@Z
?setAccel@QMenu@@QAEXABVQKeySequence@@H@Z
?setAccel@QMenuBar@@QAEXABVQKeySequence@@H@Z
?setAccelerated@QAbstractSpinBox@@QAEX_N@Z
?setAccelerator@QAccessibleWidget@@IAEXABVQString@@@Z
?setAccelerator@QAccessibleWidgetEx@@IAEXABVQString@@@Z
?setAcceptDrops@QGraphicsItem@@QAEX_N@Z
?setAcceptDrops@QWidget@@QAEX_N@Z
?setAcceptHoverEvents@QGraphicsItem@@QAEX_N@Z
?setAcceptMode@QFileDialog@@QAEXW4AcceptMode@1@@Z
?setAcceptRichText@QTextControl@@QAEX_N@Z
?setAcceptRichText@QTextEdit@@QAEX_N@Z
?setAcceptedMouseButtons@QGraphicsItem@@QAEXV?$QFlags@W4MouseButton@Qt@@@@@Z
?setAcceptsHoverEvents@QGraphicsItem@@QAEX_N@Z
?setAccessibleDescription@QStandardItem@@QAEXABVQString@@@Z
?setAccessibleDescription@QWidget@@QAEXABVQString@@@Z
?setAccessibleName@QWidget@@QAEXABVQString@@@Z
?setAccessibleText@QStandardItem@@QAEXABVQString@@@Z
?setActionGroup@QAction@@QAEXPAVQActionGroup@@@Z
?setActivationOrder@QMdiArea@@QAEXW4WindowOrder@1@@Z
?setActive@QPaintEngine@@QAEX_N@Z
?setActive@QPalette@@QAEXABVQColorGroup@@@Z
?setActive@QUndoStack@@QAEX_N@Z
?setActive@QWidgetResizeHandler@@QAEXW4Action@1@_N@Z
?setActive@QWidgetResizeHandler@@QAEX_N@Z
?setActiveAction@QMenu@@QAEXPAVQAction@@@Z
?setActiveAction@QMenuBar@@QAEXPAVQAction@@@Z
?setActiveItem@QMenu@@QAEXH@Z
?setActiveStack@QUndoGroup@@QAEXPAVQUndoStack@@@Z
?setActiveSubWindow@QMdiArea@@QAEXPAVQMdiSubWindow@@@Z
?setActiveWindow@QApplication@@SAXPAVQWidget@@@Z
?setActiveWindow@QGraphicsScene@@QAEXPAVQGraphicsWidget@@@Z
?setActiveWindow@QWidget@@QAEXXZ
?setActiveWindow@QWorkspace@@QAEXPAVQWidget@@@Z
?setAdditionalFormats@QTextLayout@@QAEXABV?$QList@UFormatRange@QTextLayout@@@@@Z
?setAlignment@QAbstractSpinBox@@QAEXV?$QFlags@W4AlignmentFlag@Qt@@@@@Z
?setAlignment@QGraphicsGridLayout@@QAEXPAVQGraphicsLayoutItem@@V?$QFlags@W4AlignmentFlag@Qt@@@@@Z
?setAlignment@QGraphicsLinearLayout@@QAEXPAVQGraphicsLayoutItem@@V?$QFlags@W4AlignmentFlag@Qt@@@@@Z
?setAlignment@QGraphicsView@@QAEXV?$QFlags@W4AlignmentFlag@Qt@@@@@Z
?setAlignment@QGroupBox@@QAEXH@Z
?setAlignment@QLabel@@QAEXH@Z
?setAlignment@QLabel@@QAEXV?$QFlags@W4AlignmentFlag@Qt@@@@@Z
?setAlignment@QLabel@@QAEXW4AlignmentFlag@Qt@@@Z
?setAlignment@QLayout@@QAE_NPAV1@V?$QFlags@W4AlignmentFlag@Qt@@@@@Z
?setAlignment@QLayout@@QAE_NPAVQWidget@@V?$QFlags@W4AlignmentFlag@Qt@@@@@Z
?setAlignment@QLayoutItem@@QAEXV?$QFlags@W4AlignmentFlag@Qt@@@@@Z
?setAlignment@QLineEdit@@QAEXV?$QFlags@W4AlignmentFlag@Qt@@@@@Z
?setAlignment@QProgressBar@@QAEXV?$QFlags@W4AlignmentFlag@Qt@@@@@Z
?setAlignment@QScrollArea@@QAEXV?$QFlags@W4AlignmentFlag@Qt@@@@@Z
?setAlignment@QTextBlockFormat@@QAEXV?$QFlags@W4AlignmentFlag@Qt@@@@@Z
?setAlignment@QTextEdit@@QAEXV?$QFlags@W4AlignmentFlag@Qt@@@@@Z
?setAlignment@QTextOption@@QAEXV?$QFlags@W4AlignmentFlag@Qt@@@@@Z
?setAlignment@QTextTableFormat@@QAEXV?$QFlags@W4AlignmentFlag@Qt@@@@@Z
?setAllColumnsShowFocus@QTreeView@@QAEX_N@Z
?setAllPagesViewMode@QPrintPreviewWidget@@QAEXXZ
?setAllowedAreas@QDockWidget@@QAEXV?$QFlags@W4DockWidgetArea@Qt@@@@@Z
?setAllowedAreas@QToolBar@@QAEXV?$QFlags@W4ToolBarArea@Qt@@@@@Z
?setAlpha@QColor@@QAEXH@Z
?setAlphaBuffer@QImage@@QAEX_N@Z
?setAlphaChannel@QImage@@QAEXABV1@@Z
?setAlphaChannel@QPixmap@@QAEXABV1@@Z
?setAlphaChannel@QPixmapData@@UAEXABVQPixmap@@@Z
?setAlphaF@QColor@@QAEXN@Z
?setAlternatingRowColors@QAbstractItemView@@QAEX_N@Z
?setAnchor@QTextCharFormat@@QAEX_N@Z
?setAnchorHref@QTextCharFormat@@QAEXABVQString@@@Z
?setAnchorName@QTextCharFormat@@QAEXABVQString@@@Z
?setAnchorNames@QTextCharFormat@@QAEXABVQStringList@@@Z
?setAngle@QConicalGradient@@QAEXN@Z
?setAnimated@QMainWindow@@QAEX_N@Z
?setAnimated@QTreeView@@QAEX_N@Z
?setArrowType@QToolButton@@QAEXW4ArrowType@Qt@@@Z
?setAscent@QTextInlineObject@@QAEXN@Z
?setAttribute@QGraphicsWidget@@QAEXW4WidgetAttribute@Qt@@_N@Z
?setAttribute@QWidget@@QAEXW4WidgetAttribute@Qt@@_N@Z
?setAttributes@QAccessibleSimpleEditableTextInterface@@UAEXHHABVQString@@@Z
?setAutoAdd@QLayout@@QAEX_N@Z
?setAutoClose@QProgressDialog@@QAEX_N@Z
?setAutoCompletion@QComboBox@@QAEX_N@Z
?setAutoCompletionCaseSensitivity@QComboBox@@QAEXW4CaseSensitivity@Qt@@@Z
?setAutoDefault@QPushButton@@QAEX_N@Z
?setAutoDestruct@QPaintEngine@@AAEX_N@Z
?setAutoExclusive@QAbstractButton@@QAEX_N@Z
?setAutoExpandDelay@QTreeView@@QAEXH@Z
?setAutoFillBackground@QWidget@@QAEX_N@Z
?setAutoFormatting@QTextEdit@@QAEXV?$QFlags@W4AutoFormattingFlag@QTextEdit@@@@@Z
?setAutoGeometry@QMenuBar@@QAEX_N@Z
?setAutoRaise@QToolButton@@QAEX_N@Z
?setAutoRepeat@QAbstractButton@@QAEX_N@Z
?setAutoRepeat@QAction@@QAEX_N@Z
?setAutoRepeat@QShortcut@@QAEX_N@Z
?setAutoRepeatDelay@QAbstractButton@@QAEXH@Z
?setAutoRepeatInterval@QAbstractButton@@QAEXH@Z
?setAutoReset@QProgressDialog@@QAEX_N@Z
?setAutoScroll@QAbstractItemView@@QAEX_N@Z
?setAutoScrollMargin@QAbstractItemView@@QAEXH@Z
?setBackground@QListWidgetItem@@QAEXABVQBrush@@@Z
?setBackground@QMdiArea@@QAEXABVQBrush@@@Z
?setBackground@QPainter@@QAEXABVQBrush@@@Z
?setBackground@QStandardItem@@QAEXABVQBrush@@@Z
?setBackground@QTableWidgetItem@@QAEXABVQBrush@@@Z
?setBackground@QTextFormat@@QAEXABVQBrush@@@Z
?setBackground@QTreeWidgetItem@@QAEXHABVQBrush@@@Z
?setBackground@QWorkspace@@QAEXABVQBrush@@@Z
?setBackgroundBrush@QGraphicsScene@@QAEXABVQBrush@@@Z
?setBackgroundBrush@QGraphicsView@@QAEXABVQBrush@@@Z
?setBackgroundColor@QImageReader@@QAEXABVQColor@@@Z
?setBackgroundColor@QListWidgetItem@@UAEXABVQColor@@@Z
?setBackgroundColor@QMovie@@QAEXABVQColor@@@Z
?setBackgroundColor@QPainter@@QAEXABVQColor@@@Z
?setBackgroundColor@QTableWidgetItem@@QAEXABVQColor@@@Z
?setBackgroundColor@QTreeWidgetItem@@QAEXHABVQColor@@@Z
?setBackgroundColor@QWidget@@QAEXABVQColor@@@Z
?setBackgroundMode@QPainter@@QAEXW4BGMode@Qt@@@Z
?setBackgroundMode@QWidget@@QAEXW4BackgroundMode@Qt@@0@Z
?setBackgroundOrigin@QWidget@@QAEXW4BackgroundOrigin@1@@Z
?setBackgroundPixmap@QWidget@@QAEXABVQPixmap@@@Z
?setBackgroundRole@QWidget@@QAEXW4ColorRole@QPalette@@@Z
?setBackgroundVisible@QPlainTextEdit@@QAEX_N@Z
?setBar@QProgressDialog@@QAEXPAVQProgressBar@@@Z
?setBaseSize@QWidget@@QAEXABVQSize@@@Z
?setBaseSize@QWidget@@QAEXHH@Z
?setBatchSize@QListView@@QAEXH@Z
?setBinMode@QLCDNumber@@QAEXXZ
?setBlockCharFormat@QTextCursor@@QAEXABVQTextCharFormat@@@Z
?setBlockFormat@QTextCursor@@QAEXABVQTextBlockFormat@@@Z
?setBlue@QColor@@QAEXH@Z
?setBlueF@QColor@@QAEXN@Z
?setBold@QFont@@QAEX_N@Z
?setBold@QTextEdit@@QAEX_N@Z
?setBorder@QTextFrameFormat@@QAEXN@Z
?setBorderBrush@QTextFrameFormat@@QAEXABVQBrush@@@Z
?setBorderStyle@QTextFrameFormat@@QAEXW4BorderStyle@1@@Z
?setBottom@QDoubleValidator@@QAEXN@Z
?setBottom@QIntValidator@@QAEXH@Z
?setBottomMargin@QTextBlockFormat@@QAEXN@Z
?setBottomMargin@QTextFrameFormat@@QAEXN@Z
?setBottomPadding@QTextTableCellFormat@@QAEXN@Z
?setBoundary@QTextEngine@@ABEXH@Z
?setBoundingRect@QPicture@@QAEXABVQRect@@@Z
?setBoundingRegionGranularity@QGraphicsItem@@QAEXN@Z
?setBrush@QAbstractGraphicsShapeItem@@QAEXABVQBrush@@@Z
?setBrush@QPainter@@QAEXABVQBrush@@@Z
?setBrush@QPainter@@QAEXW4BrushStyle@Qt@@@Z
?setBrush@QPalette@@QAEXW4ColorGroup@1@W4ColorRole@1@ABVQBrush@@@Z
?setBrush@QPalette@@QAEXW4ColorRole@1@ABVQBrush@@@Z
?setBrush@QPen@@QAEXABVQBrush@@@Z
?setBrushOrigin@QPainter@@QAEXABVQPoint@@@Z
?setBrushOrigin@QPainter@@QAEXABVQPointF@@@Z
?setBrushOrigin@QPainter@@QAEXHH@Z
?setBspTreeDepth@QGraphicsScene@@QAEXH@Z
?setBuddy@QLabel@@QAEXPAVQWidget@@@Z
?setButton@QGraphicsSceneMouseEvent@@QAEXW4MouseButton@Qt@@@Z
?setButton@QWizard@@QAEXW4WizardButton@1@PAVQAbstractButton@@@Z
?setButtonDownPos@QGraphicsSceneMouseEvent@@QAEXW4MouseButton@Qt@@ABVQPointF@@@Z
?setButtonDownScenePos@QGraphicsSceneMouseEvent@@QAEXW4MouseButton@Qt@@ABVQPointF@@@Z
?setButtonDownScreenPos@QGraphicsSceneMouseEvent@@QAEXW4MouseButton@Qt@@ABVQPoint@@@Z
?setButtonLayout@QWizard@@QAEXABV?$QList@W4WizardButton@QWizard@@@@@Z
?setButtonSymbols@QAbstractSpinBox@@QAEXW4ButtonSymbols@1@@Z
?setButtonText@QMessageBox@@QAEXHABVQString@@@Z
?setButtonText@QWizard@@QAEXW4WizardButton@1@ABVQString@@@Z
?setButtonText@QWizardPage@@QAEXW4WizardButton@QWizard@@ABVQString@@@Z
?setButtons@QGraphicsSceneDragDropEvent@@QAEXV?$QFlags@W4MouseButton@Qt@@@@@Z
?setButtons@QGraphicsSceneMouseEvent@@QAEXV?$QFlags@W4MouseButton@Qt@@@@@Z
?setButtons@QGraphicsSceneWheelEvent@@QAEXV?$QFlags@W4MouseButton@Qt@@@@@Z
?setCacheEnabled@QTextLayout@@QAEX_N@Z
?setCacheLimit@QPixmapCache@@SAXH@Z
?setCacheMode@QGraphicsItem@@QAEXW4CacheMode@1@ABVQSize@@@Z
?setCacheMode@QGraphicsView@@QAEXV?$QFlags@W4CacheModeFlag@QGraphicsView@@@@@Z
?setCacheMode@QMovie@@QAEXW4CacheMode@1@@Z
?setCalendarPopup@QDateTimeEdit@@QAEX_N@Z
?setCalendarWidget@QDateTimeEdit@@QAEXPAVQCalendarWidget@@@Z
?setCancelButton@QProgressDialog@@QAEXPAVQPushButton@@@Z
?setCancelButtonText@QProgressDialog@@QAEXABVQString@@@Z
?setCapStyle@QPainterPathStroker@@QAEXW4PenCapStyle@Qt@@@Z
?setCapStyle@QPen@@QAEXW4PenCapStyle@Qt@@@Z
?setCapStyle@QStroker@@QAEXW4PenCapStyle@Qt@@@Z
?setCapitalization@QFont@@QAEXW4Capitalization@1@@Z
?setCaption@QWidget@@QAEXABVQString@@@Z
?setCascadingSectionResizes@QHeaderView@@QAEX_N@Z
?setCaseSensitivity@QCompleter@@QAEXW4CaseSensitivity@Qt@@@Z
?setCellPadding@QTextTableFormat@@QAEXN@Z
?setCellSpacing@QTextTableFormat@@QAEXN@Z
?setCellWidget@QTableWidget@@QAEXHHPAVQWidget@@@Z
?setCenter@QConicalGradient@@QAEXABVQPointF@@@Z
?setCenter@QConicalGradient@@QAEXNN@Z
?setCenter@QRadialGradient@@QAEXABVQPointF@@@Z
?setCenter@QRadialGradient@@QAEXNN@Z
?setCenterButtons@QDialogButtonBox@@QAEX_N@Z
?setCenterOnScroll@QPlainTextEdit@@QAEX_N@Z
?setCentralWidget@QMainWindow@@QAEXPAVQWidget@@@Z
?setCharFormat@QTextCursor@@QAEXABVQTextCharFormat@@@Z
?setCheckState@QCheckBox@@QAEXW4CheckState@Qt@@@Z
?setCheckState@QListWidgetItem@@QAEXW4CheckState@Qt@@@Z
?setCheckState@QStandardItem@@QAEXW4CheckState@Qt@@@Z
?setCheckState@QTableWidgetItem@@QAEXW4CheckState@Qt@@@Z
?setCheckState@QTreeWidgetItem@@QAEXHW4CheckState@Qt@@@Z
?setCheckable@QAbstractButton@@QAEX_N@Z
?setCheckable@QAction@@QAEX_N@Z
?setCheckable@QGroupBox@@QAEX_N@Z
?setCheckable@QMenu@@QAEX_N@Z
?setCheckable@QStandardItem@@QAEX_N@Z
?setChecked@QAbstractButton@@QAEX_N@Z
?setChecked@QAction@@QAEX_N@Z
?setChecked@QGroupBox@@QAEX_N@Z
?setChild@QStandardItem@@QAEXHHPAV1@@Z
?setChild@QStandardItem@@QAEXHPAV1@@Z
?setChildIndicatorPolicy@QTreeWidgetItem@@QAEXW4ChildIndicatorPolicy@1@@Z
?setChildrenCollapsible@QSplitter@@QAEX_N@Z
?setClean@QUndoStack@@QAEXXZ
?setCleanIcon@QUndoView@@QAEXABVQIcon@@@Z
?setClickable@QHeaderView@@QAEX_N@Z
?setClipPath@QPainter@@QAEXABVQPainterPath@@W4ClipOperation@Qt@@@Z
?setClipRect@QImageReader@@QAEXABVQRect@@@Z
?setClipRect@QPainter@@QAEXABVQRect@@W4ClipOperation@Qt@@@Z
?setClipRect@QPainter@@QAEXABVQRectF@@W4ClipOperation@Qt@@@Z
?setClipRect@QPainter@@QAEXHHHHW4ClipOperation@Qt@@@Z
?setClipRect@QStrokerOps@@QAEXABVQRectF@@@Z
?setClipRegion@QPainter@@QAEXABVQRegion@@W4ClipOperation@Qt@@@Z
?setClipping@QItemDelegate@@QAEX_N@Z
?setClipping@QPainter@@QAEX_N@Z
?setCmyk@QColor@@QAEXHHHHH@Z
?setCmykF@QColor@@QAEXNNNNN@Z
?setColSpacing@QGridLayout@@QAEXHH@Z
?setColStretch@QGridLayout@@QAEXHH@Z
?setCollapsible@QSplitter@@QAEXH_N@Z
?setCollapsible@QSplitter@@QAEXPAVQWidget@@_N@Z
?setCollateCopies@QPrinter@@QAEX_N@Z
?setCollateCopiesEnabled@QPrinter@@QAEX_N@Z
?setColor@QBrush@@QAEXABVQColor@@@Z
?setColor@QBrush@@QAEXW4GlobalColor@Qt@@@Z
?setColor@QColorDialog@@AAEXABVQColor@@@Z
?setColor@QImage@@QAEXHI@Z
?setColor@QPalette@@QAEXW4ColorGroup@1@W4ColorRole@1@ABVQColor@@@Z
?setColor@QPalette@@QAEXW4ColorRole@1@ABVQColor@@@Z
?setColor@QPen@@QAEXABVQColor@@@Z
?setColor@QTextEdit@@QAEXABVQColor@@@Z
?setColorAt@QGradient@@QAEXNABVQColor@@@Z
?setColorGroup@QPalette@@AAEXW4ColorGroup@1@ABVQBrush@@111111111111111111@Z
?setColorGroup@QPalette@@AAEXW4ColorGroup@1@ABVQBrush@@1111111111111111@Z
?setColorGroup@QPalette@@AAEXW4ColorGroup@1@ABVQColorGroup@@@Z
?setColorGroup@QPalette@@QAEXW4ColorGroup@1@ABVQBrush@@11111111@Z
?setColorMode@QApplication@@SAXH@Z
?setColorMode@QPrinter@@QAEXW4ColorMode@1@@Z
?setColorSpec@QApplication@@SAXH@Z
?setColorTable@QImage@@QAEXV?$QVector@I@@@Z
?setColumnAlignment@QGraphicsGridLayout@@QAEXHV?$QFlags@W4AlignmentFlag@Qt@@@@@Z
?setColumnCount@QStandardItem@@QAEXH@Z
?setColumnCount@QStandardItemModel@@QAEXH@Z
?setColumnCount@QTableWidget@@QAEXH@Z
?setColumnCount@QTreeWidget@@QAEXH@Z
?setColumnFixedWidth@QGraphicsGridLayout@@QAEXHN@Z
?setColumnHidden@QTableView@@QAEXH_N@Z
?setColumnHidden@QTreeView@@QAEXH_N@Z
?setColumnMaximumWidth@QGraphicsGridLayout@@QAEXHN@Z
?setColumnMinimumWidth@QGraphicsGridLayout@@QAEXHN@Z
?setColumnMinimumWidth@QGridLayout@@QAEXHH@Z
?setColumnPreferredWidth@QGraphicsGridLayout@@QAEXHN@Z
?setColumnSpacing@QGraphicsGridLayout@@QAEXHN@Z
?setColumnStretch@QGridLayout@@QAEXHH@Z
?setColumnStretchFactor@QGraphicsGridLayout@@QAEXHH@Z
?setColumnWidth@QTableView@@QAEXHH@Z
?setColumnWidth@QTreeView@@QAEXHH@Z
?setColumnWidthConstraints@QTextTableFormat@@QAEXABV?$QVector@VQTextLength@@@@@Z
?setColumnWidths@QColumnView@@QAEXABV?$QList@H@@@Z
?setColumns@QTextTableFormat@@QAEXH@Z
?setCommitPage@QWizardPage@@QAEX_N@Z
?setCommitString@QInputMethodEvent@@QAEXABVQString@@HH@Z
?setCompleter@QComboBox@@QAEXPAVQCompleter@@@Z
?setCompleter@QLineEdit@@QAEXPAVQCompleter@@@Z
?setCompletionColumn@QCompleter@@QAEXH@Z
?setCompletionMode@QCompleter@@QAEXW4CompletionMode@1@@Z
?setCompletionPrefix@QCompleter@@QAEXABVQString@@@Z
?setCompletionRole@QCompleter@@QAEXH@Z
?setCompositionMode@QPainter@@QAEXW4CompositionMode@1@@Z
?setCompression@QImageWriter@@QAEXH@Z
?setConfirmOverwrite@QFileDialog@@QAEX_N@Z
?setConstraints_sys@QWidgetPrivate@@QAEXXZ
?setContentsMargins@QGraphicsLayout@@QAEXNNNN@Z
?setContentsMargins@QGraphicsWidget@@QAEXNNNN@Z
?setContentsMargins@QLayout@@QAEXHHHH@Z
?setContentsMargins@QWidget@@QAEXHHHH@Z
?setContext@QShortcut@@QAEXW4ShortcutContext@Qt@@@Z
?setContextMenu@QSystemTrayIcon@@QAEXPAVQMenu@@@Z
?setContextMenuPolicy@QWidget@@QAEXW4ContextMenuPolicy@Qt@@@Z
?setControlType@QSizePolicy@@QAEXW4ControlType@1@@Z
?setCoordinateMode@QGradient@@QAEXW4CoordinateMode@1@@Z
?setCorner@QMainWindow@@QAEXW4Corner@Qt@@W4DockWidgetArea@3@@Z
?setCornerButtonEnabled@QTableView@@QAEX_N@Z
?setCornerWidget@QAbstractScrollArea@@QAEXPAVQWidget@@@Z
?setCornerWidget@QMenuBar@@QAEXPAVQWidget@@W4Corner@Qt@@@Z
?setCornerWidget@QTabWidget@@QAEXPAVQWidget@@W4Corner@Qt@@@Z
?setCorrectionMode@QAbstractSpinBox@@QAEXW4CorrectionMode@1@@Z
?setCosmetic@QPen@@QAEX_N@Z
?setCreator@QPrinter@@QAEXABVQString@@@Z
?setCubicToHook@QStrokerOps@@QAEXP6AXNNNNNNPAX@Z@Z
?setCurrentBlockState@QSyntaxHighlighter@@IAEXH@Z
?setCurrentBlockUserData@QSyntaxHighlighter@@IAEXPAVQTextBlockUserData@@@Z
?setCurrentCell@QTableWidget@@QAEXHH@Z
?setCurrentCell@QTableWidget@@QAEXHHV?$QFlags@W4SelectionFlag@QItemSelectionModel@@@@@Z
?setCurrentCharFormat@QPlainTextEdit@@QAEXABVQTextCharFormat@@@Z
?setCurrentCharFormat@QTextControl@@QAEXABVQTextCharFormat@@@Z
?setCurrentCharFormat@QTextEdit@@QAEXABVQTextCharFormat@@@Z
?setCurrentColorGroup@QPalette@@QAEXW4ColorGroup@1@@Z
?setCurrentFont@QFontComboBox@@QAEXABVQFont@@@Z
?setCurrentFont@QTextEdit@@QAEXABVQFont@@@Z
?setCurrentIndex@QAbstractItemView@@QAEXABVQModelIndex@@@Z
?setCurrentIndex@QComboBox@@QAEXH@Z
?setCurrentIndex@QDataWidgetMapper@@UAEXH@Z
?setCurrentIndex@QItemSelectionModel@@QAEXABVQModelIndex@@V?$QFlags@W4SelectionFlag@QItemSelectionModel@@@@@Z
?setCurrentIndex@QStackedLayout@@QAEXH@Z
?setCurrentIndex@QStackedWidget@@QAEXH@Z
?setCurrentIndex@QTabBar@@QAEXH@Z
?setCurrentIndex@QTabWidget@@QAEXH@Z
?setCurrentIndex@QToolBox@@QAEXH@Z
?setCurrentItem@QComboBox@@QAEXH@Z
?setCurrentItem@QListWidget@@QAEXPAVQListWidgetItem@@@Z
?setCurrentItem@QListWidget@@QAEXPAVQListWidgetItem@@V?$QFlags@W4SelectionFlag@QItemSelectionModel@@@@@Z
?setCurrentItem@QTableWidget@@QAEXPAVQTableWidgetItem@@@Z
?setCurrentItem@QTableWidget@@QAEXPAVQTableWidgetItem@@V?$QFlags@W4SelectionFlag@QItemSelectionModel@@@@@Z
?setCurrentItem@QToolBox@@QAEXPAVQWidget@@@Z
?setCurrentItem@QTreeWidget@@QAEXPAVQTreeWidgetItem@@@Z
?setCurrentItem@QTreeWidget@@QAEXPAVQTreeWidgetItem@@H@Z
?setCurrentItem@QTreeWidget@@QAEXPAVQTreeWidgetItem@@HV?$QFlags@W4SelectionFlag@QItemSelectionModel@@@@@Z
?setCurrentModelIndex@QDataWidgetMapper@@QAEXABVQModelIndex@@@Z
?setCurrentPage@QCalendarWidget@@QAEXHH@Z
?setCurrentPage@QPrintPreviewWidget@@QAEXH@Z
?setCurrentPage@QTabWidget@@QAEXH@Z
?setCurrentRow@QCompleter@@QAE_NH@Z
?setCurrentRow@QListWidget@@QAEXH@Z
?setCurrentRow@QListWidget@@QAEXHV?$QFlags@W4SelectionFlag@QItemSelectionModel@@@@@Z
?setCurrentSection@QDateTimeEdit@@QAEXW4Section@1@@Z
?setCurrentSectionIndex@QDateTimeEdit@@QAEXH@Z
?setCurrentTab@QTabBar@@QAEXH@Z
?setCurrentTarget@QDragManager@@QAEXPAVQWidget@@_N@Z
?setCurrentText@QComboBox@@QAEXABVQString@@@Z
?setCurrentWidget@QStackedLayout@@QAEXPAVQWidget@@@Z
?setCurrentWidget@QStackedWidget@@QAEXPAVQWidget@@@Z
?setCurrentWidget@QTabWidget@@QAEXPAVQWidget@@@Z
?setCurrentWidget@QToolBox@@QAEXPAVQWidget@@@Z
?setCursor@QGraphicsItem@@QAEXABVQCursor@@@Z
?setCursor@QWidget@@QAEXABVQCursor@@@Z
?setCursorFlashTime@QApplication@@SAXH@Z
?setCursorIsFocusIndicator@QTextControl@@QAEX_N@Z
?setCursorPosition@QLineEdit@@QAEXH@Z
?setCursorWidth@QPlainTextDocumentLayout@@QAEXH@Z
?setCursorWidth@QPlainTextEdit@@QAEXH@Z
?setCursorWidth@QTextControl@@QAEXH@Z
?setCursorWidth@QTextEdit@@QAEXH@Z
?setCursor_sys@QWidgetPrivate@@QAEXABVQCursor@@@Z
?setCurveThreshold@QPainterPathStroker@@QAEXN@Z
?setCurveThreshold@QStroker@@QAEXN@Z
?setCustomColor@QColorDialog@@SAXHI@Z
?setDashOffset@QDashStroker@@QAEXN@Z
?setDashOffset@QPainterPathStroker@@QAEXN@Z
?setDashOffset@QPen@@QAEXN@Z
?setDashPattern@QDashStroker@@QAEXABV?$QVector@N@@@Z
?setDashPattern@QPainterPathStroker@@QAEXABV?$QVector@N@@@Z
?setDashPattern@QPainterPathStroker@@QAEXW4PenStyle@Qt@@@Z
?setDashPattern@QPen@@QAEXABV?$QVector@N@@@Z
?setData@QAbstractProxyModel@@UAE_NABVQModelIndex@@ABVQVariant@@H@Z
?setData@QAction@@QAEXABVQVariant@@@Z
?setData@QClipboard@@QAEXPAVQMimeSource@@W4Mode@1@@Z
?setData@QDirModel@@UAE_NABVQModelIndex@@ABVQVariant@@H@Z
?setData@QFileSystemModel@@UAE_NABVQModelIndex@@ABVQVariant@@H@Z
?setData@QGraphicsItem@@QAEXHABVQVariant@@@Z
?setData@QListWidgetItem@@UAEXHABVQVariant@@@Z
?setData@QPicture@@UAEXPBDI@Z
?setData@QProxyModel@@UAE_NABVQModelIndex@@ABVQVariant@@H@Z
?setData@QSortFilterProxyModel@@UAE_NABVQModelIndex@@ABVQVariant@@H@Z
?setData@QStandardItem@@UAEXABVQVariant@@H@Z
?setData@QStandardItemModel@@UAE_NABVQModelIndex@@ABVQVariant@@H@Z
?setData@QStringListModel@@UAE_NABVQModelIndex@@ABVQVariant@@H@Z
?setData@QTableWidgetItem@@UAEXHABVQVariant@@@Z
?setData@QTreeWidgetItem@@UAEXHHABVQVariant@@@Z
?setDate@QDateTimeEdit@@QAEXABVQDate@@@Z
?setDateEditAcceptDelay@QCalendarWidget@@QAEXH@Z
?setDateEditEnabled@QCalendarWidget@@QAEX_N@Z
?setDateRange@QCalendarWidget@@QAEXABVQDate@@0@Z
?setDateRange@QDateTimeEdit@@QAEXABVQDate@@0@Z
?setDateTextFormat@QCalendarWidget@@QAEXABVQDate@@ABVQTextCharFormat@@@Z
?setDateTime@QDateTimeEdit@@QAEXABVQDateTime@@@Z
?setDateTimeRange@QDateTimeEdit@@QAEXABVQDateTime@@0@Z
?setDecMode@QLCDNumber@@QAEXXZ
?setDecimals@QDoubleSpinBox@@QAEXH@Z
?setDecimals@QDoubleValidator@@QAEXH@Z
?setDefault@QPushButton@@QAEX_N@Z
?setDefaultAction@QMenu@@QAEXPAVQAction@@@Z
?setDefaultAction@QToolButton@@QAEXPAVQAction@@@Z
?setDefaultAlignment@QHeaderView@@QAEXV?$QFlags@W4AlignmentFlag@Qt@@@@@Z
?setDefaultButton@QMessageBox@@QAEXPAVQPushButton@@@Z
?setDefaultButton@QMessageBox@@QAEXW4StandardButton@1@@Z
?setDefaultFactory@QItemEditorFactory@@SAXPAV1@@Z
?setDefaultFont@QFont@@SAXABV1@@Z
?setDefaultFont@QTextDocument@@QAEXABVQFont@@@Z
?setDefaultFont@QTextFormatCollection@@QAEXABVQFont@@@Z
?setDefaultPositioning@QGridLayout@@QAEXHW4Orientation@Qt@@@Z
?setDefaultProperty@QWizard@@QAEXPBD00@Z
?setDefaultSectionSize@QHeaderView@@QAEXH@Z
?setDefaultStyleSheet@QTextDocument@@QAEXABVQString@@@Z
?setDefaultSuffix@QFileDialog@@QAEXABVQString@@@Z
?setDefaultTextColor@QGraphicsTextItem@@QAEXABVQColor@@@Z
?setDefaultTextOption@QTextDocument@@QAEXABVQTextOption@@@Z
?setDefaultUp@QMenuBar@@QAEX_N@Z
?setDefaultWidget@QWidgetAction@@QAEXPAVQWidget@@@Z
?setDelta@QGraphicsSceneWheelEvent@@QAEXH@Z
?setDescent@QTextInlineObject@@QAEXN@Z
?setDescription@QAccessibleWidget@@IAEXABVQString@@@Z
?setDescription@QAccessibleWidgetEx@@IAEXABVQString@@@Z
?setDescription@QCommandLinkButton@@QAEXABVQString@@@Z
?setDescription@QImageWriter@@QAEXABVQString@@@Z
?setDescription@QPictureIO@@QAEXABVQString@@@Z
?setDesktopSettingsAware@QApplication@@SAX_N@Z
?setDetailedText@QMessageBox@@QAEXABVQString@@@Z
?setDevice@QImageIOHandler@@QAEXPAVQIODevice@@@Z
?setDevice@QImageReader@@QAEXPAVQIODevice@@@Z
?setDevice@QImageWriter@@QAEXPAVQIODevice@@@Z
?setDevice@QMovie@@QAEXPAVQIODevice@@@Z
?setDir@QFileDialog@@QAEXABVQDir@@@Z
?setDir@QFileDialog@@QAEXABVQString@@@Z
?setDirection@QBoxLayout@@QAEXW4Direction@1@@Z
?setDirectory@QFileDialog@@QAEXABVQDir@@@Z
?setDirectory@QFileDialog@@QAEXABVQString@@@Z
?setDirty@QPaintEngine@@QAEXV?$QFlags@W4DirtyFlag@QPaintEngine@@@@@Z
?setDirty@QPainterPath@@AAEX_N@Z
?setDirtyOpaqueRegion@QWidgetPrivate@@QAEXXZ
?setDirtyRegion@QAbstractItemView@@IAEXABVQRegion@@@Z
?setDirtyRegion@QAbstractItemViewPrivate@@QAEXABVQRegion@@@Z
?setDisabled@QAction@@QAEX_N@Z
?setDisabled@QActionGroup@@QAEX_N@Z
?setDisabled@QPalette@@QAEXABVQColorGroup@@@Z
?setDisabled@QTreeWidgetItem@@QAEX_N@Z
?setDisabled@QWidget@@QAEX_N@Z
?setDiscardCommand@QSessionManager@@QAEXABVQStringList@@@Z
?setDisplayFormat@QDateTimeEdit@@QAEXABVQString@@@Z
?setDocName@QPrinter@@QAEXABVQString@@@Z
?setDockNestingEnabled@QMainWindow@@QAEX_N@Z
?setDockOptions@QMainWindow@@QAEXV?$QFlags@W4DockOption@QMainWindow@@@@@Z
?setDocument@QGraphicsTextItem@@QAEXPAVQTextDocument@@@Z
?setDocument@QPlainTextEdit@@QAEXPAVQTextDocument@@@Z
?setDocument@QSyntaxHighlighter@@QAEXPAVQTextDocument@@@Z
?setDocument@QTextControl@@QAEXPAVQTextDocument@@@Z
?setDocument@QTextEdit@@QAEXPAVQTextDocument@@@Z
?setDocumentLayout@QTextDocument@@QAEXPAVQAbstractTextDocumentLayout@@@Z
?setDocumentTitle@QPlainTextEdit@@QAEXABVQString@@@Z
?setDocumentTitle@QTextEdit@@QAEXABVQString@@@Z
?setDotsPerMeterX@QImage@@QAEXH@Z
?setDotsPerMeterY@QImage@@QAEXH@Z
?setDoubleClickInterval@QApplication@@SAXH@Z
?setDoubleSidedPrinting@QPrinter@@QAEX_N@Z
?setDown@QAbstractButton@@QAEX_N@Z
?setDragCursor@QDrag@@QAEXABVQPixmap@@W4DropAction@Qt@@@Z
?setDragDropMode@QAbstractItemView@@QAEXW4DragDropMode@1@@Z
?setDragDropOverwriteMode@QAbstractItemView@@QAEX_N@Z
?setDragEnabled@QAbstractItemView@@QAEX_N@Z
?setDragEnabled@QLineEdit@@QAEX_N@Z
?setDragEnabled@QStandardItem@@QAEX_N@Z
?setDragMode@QGraphicsView@@QAEXW4DragMode@1@@Z
?setDrawBase@QTabBar@@QAEX_N@Z
?setDropAction@QDropEvent@@QAEXW4DropAction@Qt@@@Z
?setDropAction@QGraphicsSceneDragDropEvent@@QAEXW4DropAction@Qt@@@Z
?setDropEnabled@QStandardItem@@QAEX_N@Z
?setDropIndicatorShown@QAbstractItemView@@QAEX_N@Z
?setDuplex@QPrinter@@QAEXW4DuplexMode@1@@Z
?setDuplicatesEnabled@QComboBox@@QAEX_N@Z
?setDynamicSortFilter@QSortFilterProxyModel@@QAEX_N@Z
?setEchoMode@QLineEdit@@QAEXW4EchoMode@1@@Z
?setEditText@QComboBox@@QAEXABVQString@@@Z
?setEditTriggers@QAbstractItemView@@QAEXV?$QFlags@W4EditTrigger@QAbstractItemView@@@@@Z
?setEditable@QComboBox@@QAEX_N@Z
?setEditable@QStandardItem@@QAEX_N@Z
?setEdited@QLineEdit@@QAEX_N@Z
?setEditorData@QAbstractItemDelegate@@UBEXPAVQWidget@@ABVQModelIndex@@@Z
?setEditorData@QItemDelegate@@UBEXPAVQWidget@@ABVQModelIndex@@@Z
?setEditorData@QStyledItemDelegate@@UBEXPAVQWidget@@ABVQModelIndex@@@Z
?setEffectEnabled@QApplication@@SAXW4UIEffect@Qt@@_N@Z
?setElementPositionAt@QPainterPath@@QAEXHNN@Z
?setElideMode@QTabBar@@QAEXW4TextElideMode@Qt@@@Z
?setElideMode@QTabWidget@@QAEXW4TextElideMode@Qt@@@Z
?setEmptyLabel@QUndoView@@QAEXABVQString@@@Z
?setEnabled@QAction@@QAEX_N@Z
?setEnabled@QActionGroup@@QAEX_N@Z
?setEnabled@QGraphicsItem@@QAEX_N@Z
?setEnabled@QLayout@@QAEX_N@Z
?setEnabled@QShortcut@@QAEX_N@Z
?setEnabled@QStandardItem@@QAEX_N@Z
?setEnabled@QWidget@@QAEX_N@Z
?setEnabledOptions@QAbstractPrintDialog@@QAEXV?$QFlags@W4PrintDialogOption@QAbstractPrintDialog@@@@@Z
?setEnabledOptions@QPageSetupDialog@@QAEXV?$QFlags@W4PageSetupDialogOption@QPageSetupDialog@@@@@Z
?setEnabled_helper@QWidgetPrivate@@QAEX_N@Z
?setEngines@QPrinter@@IAEXPAVQPrintEngine@@PAVQPaintEngine@@@Z
?setEraseColor@QWidget@@QAEXABVQColor@@@Z
?setErasePixmap@QWidget@@QAEXABVQPixmap@@@Z
?setErased@QPaintEvent@@QAEX_N@Z
?setEscapeButton@QMessageBox@@QAEXPAVQAbstractButton@@@Z
?setEscapeButton@QMessageBox@@QAEXW4StandardButton@1@@Z
?setExclusive@QActionGroup@@QAEX_N@Z
?setExclusive@QButtonGroup@@QAEX_N@Z
?setExpanded@QToolBarLayout@@QAEX_N@Z
?setExpanded@QTreeView@@QAEXABVQModelIndex@@_N@Z
?setExpanded@QTreeWidgetItem@@QAEX_N@Z
?setExpandsOnDoubleClick@QTreeView@@QAEX_N@Z
?setExtension@QDialog@@QAEXPAVQWidget@@@Z
?setExtension@QGraphicsEllipseItem@@MAEXW4Extension@QGraphicsItem@@ABVQVariant@@@Z
?setExtension@QGraphicsItem@@MAEXW4Extension@1@ABVQVariant@@@Z
?setExtension@QGraphicsLineItem@@MAEXW4Extension@QGraphicsItem@@ABVQVariant@@@Z
?setExtension@QGraphicsPathItem@@MAEXW4Extension@QGraphicsItem@@ABVQVariant@@@Z
?setExtension@QGraphicsPixmapItem@@MAEXW4Extension@QGraphicsItem@@ABVQVariant@@@Z
?setExtension@QGraphicsPolygonItem@@MAEXW4Extension@QGraphicsItem@@ABVQVariant@@@Z
?setExtension@QGraphicsRectItem@@MAEXW4Extension@QGraphicsItem@@ABVQVariant@@@Z
?setExtension@QGraphicsSimpleTextItem@@MAEXW4Extension@QGraphicsItem@@ABVQVariant@@@Z
?setExtension@QGraphicsTextItem@@MAEXW4Extension@QGraphicsItem@@ABVQVariant@@@Z
?setExtraHeight@QWidgetResizeHandler@@QAEXH@Z
?setExtraSelections@QPlainTextEdit@@QAEXABV?$QList@UExtraSelection@QTextEdit@@@@@Z
?setExtraSelections@QTextControl@@QAEXABV?$QList@UExtraSelection@QTextEdit@@@@@Z
?setExtraSelections@QTextEdit@@QAEXABV?$QList@UExtraSelection@QTextEdit@@@@@Z
?setFacingPagesViewMode@QPrintPreviewWidget@@QAEXXZ
?setFamily@QFont@@QAEXABVQString@@@Z
?setFamily@QTextEdit@@QAEXABVQString@@@Z
?setFeatures@QDockWidget@@QAEXV?$QFlags@W4DockWidgetFeature@QDockWidget@@@@@Z
?setField@QWizard@@QAEXABVQString@@ABVQVariant@@@Z
?setField@QWizardPage@@IAEXABVQString@@ABVQVariant@@@Z
?setFieldGrowthPolicy@QFormLayout@@QAEXW4FieldGrowthPolicy@1@@Z
?setFileMode@QFileDialog@@QAEXW4FileMode@1@@Z
?setFileName@QImageReader@@QAEXABVQString@@@Z
?setFileName@QImageWriter@@QAEXABVQString@@@Z
?setFileName@QMovie@@QAEXABVQString@@@Z
?setFileName@QPictureIO@@QAEXABVQString@@@Z
?setFillRule@QGraphicsPolygonItem@@QAEXW4FillRule@Qt@@@Z
?setFillRule@QPainterPath@@QAEXW4FillRule@Qt@@@Z
?setFilter@QDirModel@@QAEXV?$QFlags@W4Filter@QDir@@@@@Z
?setFilter@QFileDialog@@QAEXABVQString@@@Z
?setFilter@QFileDialog@@QAEXV?$QFlags@W4Filter@QDir@@@@@Z
?setFilter@QFileSystemModel@@QAEXV?$QFlags@W4Filter@QDir@@@@@Z
?setFilterCaseSensitivity@QSortFilterProxyModel@@QAEXW4CaseSensitivity@Qt@@@Z
?setFilterFixedString@QSortFilterProxyModel@@QAEXABVQString@@@Z
?setFilterKeyColumn@QSortFilterProxyModel@@QAEXH@Z
?setFilterRegExp@QSortFilterProxyModel@@QAEXABVQRegExp@@@Z
?setFilterRegExp@QSortFilterProxyModel@@QAEXABVQString@@@Z
?setFilterRole@QSortFilterProxyModel@@QAEXH@Z
?setFilterWildcard@QSortFilterProxyModel@@QAEXABVQString@@@Z
?setFilters@QFileDialog@@QAEXABVQStringList@@@Z
?setFinalPage@QWizardPage@@QAEX_N@Z
?setFinalStop@QLinearGradient@@QAEXABVQPointF@@@Z
?setFinalStop@QLinearGradient@@QAEXNN@Z
?setFirstColumnSpanned@QTreeView@@QAEXHABVQModelIndex@@_N@Z
?setFirstColumnSpanned@QTreeWidgetItem@@QAEX_N@Z
?setFirstDayOfWeek@QCalendarWidget@@QAEXW4DayOfWeek@Qt@@@Z
?setFirstItemColumnSpanned@QTreeWidget@@QAEXPBVQTreeWidgetItem@@_N@Z
?setFixedHeight@QWidget@@QAEXH@Z
?setFixedPitch@QFont@@QAEX_N@Z
?setFixedSize@QWidget@@QAEXABVQSize@@@Z
?setFixedSize@QWidget@@QAEXHH@Z
?setFixedWidth@QWidget@@QAEXH@Z
?setFlag@QGraphicsItem@@QAEXW4GraphicsItemFlag@1@_N@Z
?setFlags@QGraphicsItem@@QAEXV?$QFlags@W4GraphicsItemFlag@QGraphicsItem@@@@@Z
?setFlags@QListWidgetItem@@QAEXV?$QFlags@W4ItemFlag@Qt@@@@@Z
?setFlags@QStandardItem@@QAEXV?$QFlags@W4ItemFlag@Qt@@@@@Z
?setFlags@QTableWidgetItem@@QAEXV?$QFlags@W4ItemFlag@Qt@@@@@Z
?setFlags@QTextLayout@@QAEXH@Z
?setFlags@QTextOption@@QAEXV?$QFlags@W4Flag@QTextOption@@@@@Z
?setFlags@QTreeWidgetItem@@QAEXV?$QFlags@W4ItemFlag@Qt@@@@@Z
?setFlat@QGroupBox@@QAEX_N@Z
?setFlat@QPushButton@@QAEX_N@Z
?setFloatable@QToolBar@@QAEX_N@Z
?setFloating@QDockWidget@@QAEX_N@Z
?setFlow@QListView@@QAEXW4Flow@1@@Z
?setFocalPoint@QRadialGradient@@QAEXABVQPointF@@@Z
?setFocalPoint@QRadialGradient@@QAEXNN@Z
?setFocus@QGraphicsItem@@QAEXW4FocusReason@Qt@@@Z
?setFocus@QGraphicsScene@@QAEXW4FocusReason@Qt@@@Z
?setFocus@QTextControl@@QAEX_NW4FocusReason@Qt@@@Z
?setFocus@QWidget@@QAEXW4FocusReason@Qt@@@Z
?setFocus@QWidget@@QAEXXZ
?setFocusItem@QGraphicsScene@@QAEXPAVQGraphicsItem@@W4FocusReason@Qt@@@Z
?setFocusPolicy@QGraphicsWidget@@QAEXW4FocusPolicy@Qt@@@Z
?setFocusPolicy@QWidget@@QAEXW4FocusPolicy@Qt@@@Z
?setFocusProxy@QWidget@@QAEXPAV1@@Z
?setFocusToAnchor@QTextControl@@QAE_NABVQTextCursor@@@Z
?setFocusToNextOrPreviousAnchor@QTextControl@@QAE_N_N@Z
?setFocusWidget@QApplicationPrivate@@SAXPAVQWidget@@W4FocusReason@Qt@@@Z
?setFocusWidget@QInputContext@@UAEXPAVQWidget@@@Z
?setFocus_sys@QWidgetPrivate@@QAEXXZ
?setFont@QAction@@QAEXABVQFont@@@Z
?setFont@QApplication@@SAXABVQFont@@PBD@Z
?setFont@QApplication@@SAXABVQFont@@_NPBD@Z
?setFont@QFontDialog@@AAEXABVQFont@@@Z
?setFont@QGraphicsScene@@QAEXABVQFont@@@Z
?setFont@QGraphicsSimpleTextItem@@QAEXABVQFont@@@Z
?setFont@QGraphicsTextItem@@QAEXABVQFont@@@Z
?setFont@QGraphicsWidget@@QAEXABVQFont@@@Z
?setFont@QListWidgetItem@@QAEXABVQFont@@@Z
?setFont@QPainter@@QAEXABVQFont@@@Z
?setFont@QStandardItem@@QAEXABVQFont@@@Z
?setFont@QTableWidgetItem@@QAEXABVQFont@@@Z
?setFont@QTextCharFormat@@QAEXABVQFont@@@Z
?setFont@QTextLayout@@QAEXABVQFont@@@Z
?setFont@QToolTip@@SAXABVQFont@@@Z
?setFont@QTreeWidgetItem@@QAEXHABVQFont@@@Z
?setFont@QWidget@@QAEXABVQFont@@@Z
?setFont@QWidget@@QAEXABVQFont@@_N@Z
?setFontCapitalization@QTextCharFormat@@QAEXW4Capitalization@QFont@@@Z
?setFontEmbeddingEnabled@QPrinter@@QAEX_N@Z
?setFontFamily@QTextCharFormat@@QAEXABVQString@@@Z
?setFontFamily@QTextEdit@@QAEXABVQString@@@Z
?setFontFilters@QFontComboBox@@QAEXV?$QFlags@W4FontFilter@QFontComboBox@@@@@Z
?setFontFixedPitch@QTextCharFormat@@QAEX_N@Z
?setFontItalic@QTextCharFormat@@QAEX_N@Z
?setFontItalic@QTextEdit@@QAEX_N@Z
?setFontLetterSpacing@QTextCharFormat@@QAEXN@Z
?setFontOverline@QTextCharFormat@@QAEX_N@Z
?setFontPointSize@QTextCharFormat@@QAEXN@Z
?setFontPointSize@QTextEdit@@QAEXN@Z
?setFontStrikeOut@QTextCharFormat@@QAEX_N@Z
?setFontUnderline@QTextCharFormat@@QAEX_N@Z
?setFontUnderline@QTextEdit@@QAEX_N@Z
?setFontWeight@QTextCharFormat@@QAEXH@Z
?setFontWeight@QTextEdit@@QAEXH@Z
?setFontWordSpacing@QTextCharFormat@@QAEXN@Z
?setFont_helper@QWidgetPrivate@@QAEXABVQFont@@@Z
?setForeground@QListWidgetItem@@QAEXABVQBrush@@@Z
?setForeground@QStandardItem@@QAEXABVQBrush@@@Z
?setForeground@QTableWidgetItem@@QAEXABVQBrush@@@Z
?setForeground@QTextFormat@@QAEXABVQBrush@@@Z
?setForeground@QTreeWidgetItem@@QAEXHABVQBrush@@@Z
?setForegroundBrush@QGraphicsScene@@QAEXABVQBrush@@@Z
?setForegroundBrush@QGraphicsView@@QAEXABVQBrush@@@Z
?setForegroundRole@QWidget@@QAEXW4ColorRole@QPalette@@@Z
?setFormAlignment@QFormLayout@@QAEXV?$QFlags@W4AlignmentFlag@Qt@@@@@Z
?setFormat@QImageIOHandler@@QAEXABVQByteArray@@@Z
?setFormat@QImageIOHandler@@QBEXABVQByteArray@@@Z
?setFormat@QImageReader@@QAEXABVQByteArray@@@Z
?setFormat@QImageWriter@@QAEXABVQByteArray@@@Z
?setFormat@QMovie@@QAEXABVQByteArray@@@Z
?setFormat@QPictureIO@@QAEXPBD@Z
?setFormat@QProgressBar@@QAEXABVQString@@@Z
?setFormat@QSyntaxHighlighter@@IAEXHHABVQColor@@@Z
?setFormat@QSyntaxHighlighter@@IAEXHHABVQFont@@@Z
?setFormat@QSyntaxHighlighter@@IAEXHHABVQTextCharFormat@@@Z
?setFormat@QTextList@@QAEXABVQTextListFormat@@@Z
?setFormat@QTextObject@@IAEXABVQTextFormat@@@Z
?setFormat@QTextTable@@QAEXABVQTextTableFormat@@@Z
?setFormat@QTextTableCell@@QAEXABVQTextCharFormat@@@Z
?setFrame@QAbstractSpinBox@@QAEX_N@Z
?setFrame@QComboBox@@QAEX_N@Z
?setFrame@QLineEdit@@QAEX_N@Z
?setFrameFormat@QTextFrame@@QAEXABVQTextFrameFormat@@@Z
?setFrameRect@QFrame@@QAEXABVQRect@@@Z
?setFrameRect@QLineEdit@@QAEXVQRect@@@Z
?setFrameRect@QMenuBar@@QAEXVQRect@@@Z
?setFrameShadow@QFrame@@QAEXW4Shadow@1@@Z
?setFrameShadow@QLineEdit@@QAEXW4DummyFrame@1@@Z
?setFrameShadow@QMenuBar@@QAEXW4DummyFrame@1@@Z
?setFrameShape@QFrame@@QAEXW4Shape@1@@Z
?setFrameShape@QLineEdit@@QAEXW4DummyFrame@1@@Z
?setFrameShape@QMenuBar@@QAEXW4DummyFrame@1@@Z
?setFrameStyle@QFrame@@QAEXH@Z
?setFrameStyle@QLineEdit@@QAEXH@Z
?setFrameStyle@QMenuBar@@QAEXH@Z
?setFrameWidth@QWidgetResizeHandler@@QAEXH@Z
?setFromTo@QAbstractPrintDialog@@QAEXHH@Z
?setFromTo@QPrinter@@QAEXHH@Z
?setFullPage@QPrinter@@QAEX_N@Z
?setGamma@QImageWriter@@QAEXM@Z
?setGamma@QPictureIO@@QAEXM@Z
?setGeometry@QBoxLayout@@UAEXABVQRect@@@Z
?setGeometry@QDockWidgetLayout@@UAEXABVQRect@@@Z
?setGeometry@QFormLayout@@UAEXABVQRect@@@Z
?setGeometry@QGraphicsGridLayout@@UAEXABVQRectF@@@Z
?setGeometry@QGraphicsLayoutItem@@UAEXABVQRectF@@@Z
?setGeometry@QGraphicsLinearLayout@@UAEXABVQRectF@@@Z
?setGeometry@QGraphicsProxyWidget@@UAEXABVQRectF@@@Z
?setGeometry@QGraphicsWidget@@QAEXNNNN@Z
?setGeometry@QGraphicsWidget@@UAEXABVQRectF@@@Z
?setGeometry@QGridLayout@@UAEXABVQRect@@@Z
?setGeometry@QLayout@@UAEXABVQRect@@@Z
?setGeometry@QRubberBand@@QAEXABVQRect@@@Z
?setGeometry@QRubberBand@@QAEXHHHH@Z
?setGeometry@QSpacerItem@@UAEXABVQRect@@@Z
?setGeometry@QStackedLayout@@UAEXABVQRect@@@Z
?setGeometry@QToolBarLayout@@UAEXABVQRect@@@Z
?setGeometry@QWidget@@QAEXABVQRect@@@Z
?setGeometry@QWidget@@QAEXHHHH@Z
?setGeometry@QWidgetItem@@UAEXABVQRect@@@Z
?setGeometry@QWindowSurface@@UAEXABVQRect@@@Z
?setGeometry_sys@QWidgetPrivate@@QAEXHHHH_N@Z
?setGlobalMouseTracking@QApplication@@SAX_N@Z
?setGlobalStrut@QApplication@@SAXABVQSize@@@Z
?setGreen@QColor@@QAEXH@Z
?setGreenF@QColor@@QAEXN@Z
?setGridSize@QListView@@QAEXABVQSize@@@Z
?setGridStyle@QTableView@@QAEXW4PenStyle@Qt@@@Z
?setGridVisible@QCalendarWidget@@QAEX_N@Z
?setGroup@QGraphicsItem@@QAEXPAVQGraphicsItemGroup@@@Z
?setGroup@QUndoView@@QAEXPAVQUndoGroup@@@Z
?setHandleWidth@QSplitter@@QAEXH@Z
?setHandlesChildEvents@QGraphicsItem@@QAEX_N@Z
?setHeader@QTreeView@@QAEXPAVQHeaderView@@@Z
?setHeaderData@QAbstractProxyModel@@UAE_NHW4Orientation@Qt@@ABVQVariant@@H@Z
?setHeaderData@QProxyModel@@UAE_NHW4Orientation@Qt@@ABVQVariant@@H@Z
?setHeaderData@QSortFilterProxyModel@@UAE_NHW4Orientation@Qt@@ABVQVariant@@H@Z
?setHeaderData@QStandardItemModel@@UAE_NHW4Orientation@Qt@@ABVQVariant@@H@Z
?setHeaderHidden@QTreeView@@QAEX_N@Z
?setHeaderItem@QTreeWidget@@QAEXPAVQTreeWidgetItem@@@Z
?setHeaderLabel@QTreeWidget@@QAEXABVQString@@@Z
?setHeaderLabels@QTreeWidget@@QAEXABVQStringList@@@Z
?setHeaderRowCount@QTextTableFormat@@QAEXH@Z
?setHeaderTextFormat@QCalendarWidget@@QAEXABVQTextCharFormat@@@Z
?setHeaderVisible@QCalendarWidget@@QAEX_N@Z
?setHeight@QTextFrameFormat@@QAEXABVQTextLength@@@Z
?setHeight@QTextFrameFormat@@QAEXN@Z
?setHeight@QTextImageFormat@@QAEXN@Z
?setHeightForWidth@QSizePolicy@@QAEX_N@Z
?setHelp@QAccessibleWidget@@IAEXABVQString@@@Z
?setHelp@QAccessibleWidgetEx@@IAEXABVQString@@@Z
?setHexMode@QLCDNumber@@QAEXXZ
?setHidden@QListWidgetItem@@QAEX_N@Z
?setHidden@QTreeWidgetItem@@QAEX_N@Z
?setHidden@QWidget@@QAEX_N@Z
?setHighlightSections@QHeaderView@@QAEX_N@Z
?setHistory@QFileDialog@@QAEXABVQStringList@@@Z
?setHorData@QSizePolicy@@QAEXW4Policy@1@@Z
?setHorStretch@QSizePolicy@@QAEXE@Z
?setHorizontalHeader@QTableView@@QAEXPAVQHeaderView@@@Z
?setHorizontalHeaderFormat@QCalendarWidget@@QAEXW4HorizontalHeaderFormat@1@@Z
?setHorizontalHeaderItem@QStandardItemModel@@QAEXHPAVQStandardItem@@@Z
?setHorizontalHeaderItem@QTableWidget@@QAEXHPAVQTableWidgetItem@@@Z
?setHorizontalHeaderLabels@QStandardItemModel@@QAEXABVQStringList@@@Z
?setHorizontalHeaderLabels@QTableWidget@@QAEXABVQStringList@@@Z
?setHorizontalPolicy@QSizePolicy@@QAEXW4Policy@1@@Z
?setHorizontalScrollBar@QAbstractScrollArea@@QAEXPAVQScrollBar@@@Z
?setHorizontalScrollBarPolicy@QAbstractScrollArea@@QAEXW4ScrollBarPolicy@Qt@@@Z
?setHorizontalScrollMode@QAbstractItemView@@QAEXW4ScrollMode@1@@Z
?setHorizontalSpacing@QFormLayout@@QAEXH@Z
?setHorizontalSpacing@QGraphicsGridLayout@@QAEXN@Z
?setHorizontalSpacing@QGridLayout@@QAEXH@Z
?setHorizontalStepsPerItem@QAbstractItemView@@IAEXH@Z
?setHorizontalStretch@QSizePolicy@@QAEXE@Z
?setHotSpot@QDrag@@QAEXABVQPoint@@@Z
?setHsv@QColor@@QAEXHHHH@Z
?setHsvF@QColor@@QAEXNNNN@Z
?setHtml@QGraphicsTextItem@@QAEXABVQString@@@Z
?setHtml@QTextControl@@QAEXABVQString@@@Z
?setHtml@QTextDocument@@QAEXABVQString@@@Z
?setHtml@QTextEdit@@QAEXABVQString@@@Z
?setIODevice@QPictureIO@@QAEXPAVQIODevice@@@Z
?setIcon@QAbstractButton@@QAEXABVQIcon@@@Z
?setIcon@QAction@@QAEXABVQIcon@@@Z
?setIcon@QListWidgetItem@@QAEXABVQIcon@@@Z
?setIcon@QMenu@@QAEXABVQIcon@@@Z
?setIcon@QMessageBox@@QAEXW4Icon@1@@Z
?setIcon@QStandardItem@@QAEXABVQIcon@@@Z
?setIcon@QSystemTrayIcon@@QAEXABVQIcon@@@Z
?setIcon@QTableWidgetItem@@QAEXABVQIcon@@@Z
?setIcon@QTreeWidgetItem@@QAEXHABVQIcon@@@Z
?setIcon@QWidget@@QAEXABVQPixmap@@@Z
?setIconPixmap@QMessageBox@@QAEXABVQPixmap@@@Z
?setIconProvider@QDirModel@@QAEXPAVQFileIconProvider@@@Z
?setIconProvider@QFileDialog@@QAEXPAVQFileIconProvider@@@Z
?setIconProvider@QFileSystemModel@@QAEXPAVQFileIconProvider@@@Z
?setIconSet@QAbstractButton@@QAEXABVQIcon@@@Z
?setIconSet@QAction@@QAEXABVQIcon@@@Z
?setIconSet@QToolButton@@QAEXABVQIcon@@@Z
?setIconSet@QToolButton@@QAEXABVQIcon@@_N@Z
?setIconSize@QAbstractButton@@QAEXABVQSize@@@Z
?setIconSize@QAbstractItemView@@QAEXABVQSize@@@Z
?setIconSize@QComboBox@@QAEXABVQSize@@@Z
?setIconSize@QMainWindow@@QAEXABVQSize@@@Z
?setIconSize@QTabBar@@QAEXABVQSize@@@Z
?setIconSize@QTabWidget@@QAEXABVQSize@@@Z
?setIconSize@QToolBar@@QAEXABVQSize@@@Z
?setIconText@QAction@@QAEXABVQString@@@Z
?setIconText@QWidget@@QAEXABVQString@@@Z
?setIconVisibleInMenu@QAction@@QAEX_N@Z
?setId@QButtonGroup@@QAEXPAVQAbstractButton@@H@Z
?setId@QMenu@@QAEXHH@Z
?setId@QMenuItem@@AAEXH@Z
?setImage@QClipboard@@QAEXABVQImage@@W4Mode@1@@Z
?setInactive@QPalette@@QAEXABVQColorGroup@@@Z
?setIndent@QLabel@@QAEXH@Z
?setIndent@QTextBlockFormat@@QAEXH@Z
?setIndent@QTextListFormat@@QAEXH@Z
?setIndentWidth@QTextDocument@@QAEXN@Z
?setIndentation@QTreeView@@QAEXH@Z
?setIndex@QUndoStack@@QAEXH@Z
?setIndexWidget@QAbstractItemView@@QAEXABVQModelIndex@@PAVQWidget@@@Z
?setInformativeText@QMessageBox@@QAEXABVQString@@@Z
?setInputContext@QApplication@@QAEXPAVQInputContext@@@Z
?setInputContext@QWidget@@QAEXPAVQInputContext@@@Z
?setInputMask@QLineEdit@@QAEXABVQString@@@Z
?setInputMethodEnabled@QWidget@@QAEX_N@Z
?setInsertPolicy@QComboBox@@QAEXW4InsertPolicy@1@@Z
?setInsertionPolicy@QComboBox@@QAEXW4InsertPolicy@1@@Z
?setInteractive@QGraphicsView@@QAEX_N@Z
?setInvertedAppearance@QAbstractSlider@@QAEX_N@Z
?setInvertedAppearance@QProgressBar@@QAEX_N@Z
?setInvertedControls@QAbstractSlider@@QAEX_N@Z
?setItalic@QFont@@QAEX_N@Z
?setItalic@QTextEdit@@QAEX_N@Z
?setItem@QFormLayout@@QAEXHW4ItemRole@1@PAVQLayoutItem@@@Z
?setItem@QGraphicsItemAnimation@@QAEXPAVQGraphicsItem@@@Z
?setItem@QStandardItemModel@@QAEXHHPAVQStandardItem@@@Z
?setItem@QStandardItemModel@@QAEXHPAVQStandardItem@@@Z
?setItem@QTableWidget@@QAEXHHPAVQTableWidgetItem@@@Z
?setItemChecked@QMenu@@QAEXH_N@Z
?setItemChecked@QMenuBar@@QAEXH_N@Z
?setItemData@QComboBox@@QAEXHABVQVariant@@H@Z
?setItemData@QStandardItemModel@@UAE_NABVQModelIndex@@ABV?$QMap@HVQVariant@@@@@Z
?setItemDelegate@QAbstractItemView@@QAEXPAVQAbstractItemDelegate@@@Z
?setItemDelegate@QComboBox@@QAEXPAVQAbstractItemDelegate@@@Z
?setItemDelegate@QDataWidgetMapper@@QAEXPAVQAbstractItemDelegate@@@Z
?setItemDelegate@QFileDialog@@QAEXPAVQAbstractItemDelegate@@@Z
?setItemDelegateForColumn@QAbstractItemView@@QAEXHPAVQAbstractItemDelegate@@@Z
?setItemDelegateForRow@QAbstractItemView@@QAEXHPAVQAbstractItemDelegate@@@Z
?setItemEditorFactory@QItemDelegate@@QAEXPAVQItemEditorFactory@@@Z
?setItemEditorFactory@QStyledItemDelegate@@QAEXPAVQItemEditorFactory@@@Z
?setItemEnabled@QMenu@@QAEXH_N@Z
?setItemEnabled@QMenuBar@@QAEXH_N@Z
?setItemEnabled@QToolBox@@QAEXH_N@Z
?setItemExpanded@QTreeWidget@@QAEXPBVQTreeWidgetItem@@_N@Z
?setItemFont@QMenu@@QAEXHABVQFont@@@Z
?setItemHidden@QListWidget@@QAEXPBVQListWidgetItem@@_N@Z
?setItemHidden@QTreeWidget@@QAEXPBVQTreeWidgetItem@@_N@Z
?setItemIcon@QComboBox@@QAEXHABVQIcon@@@Z
?setItemIcon@QToolBox@@QAEXHABVQIcon@@@Z
?setItemIconSet@QToolBox@@QAEXHABVQIcon@@@Z
?setItemIndexMethod@QGraphicsScene@@QAEXW4ItemIndexMethod@1@@Z
?setItemLabel@QToolBox@@QAEXHABVQString@@@Z
?setItemParameter@QMenu@@QAE_NHH@Z
?setItemParameter@QMenuBar@@QAE_NHH@Z
?setItemPrototype@QStandardItemModel@@QAEXPBVQStandardItem@@@Z
?setItemPrototype@QTableWidget@@QAEXPBVQTableWidgetItem@@@Z
?setItemSelected@QListWidget@@QAEXPBVQListWidgetItem@@_N@Z
?setItemSelected@QTableWidget@@QAEXPBVQTableWidgetItem@@_N@Z
?setItemSelected@QTreeWidget@@QAEXPBVQTreeWidgetItem@@_N@Z
?setItemSpacing@QGraphicsLinearLayout@@QAEXHN@Z
?setItemText@QComboBox@@QAEXHABVQString@@@Z
?setItemText@QToolBox@@QAEXHABVQString@@@Z
?setItemToolTip@QToolBox@@QAEXHABVQString@@@Z
?setItemVisible@QMenu@@QAEXH_N@Z
?setItemVisible@QMenuBar@@QAEXH_N@Z
?setItemWidget@QListWidget@@QAEXPAVQListWidgetItem@@PAVQWidget@@@Z
?setItemWidget@QTreeWidget@@QAEXPAVQTreeWidgetItem@@HPAVQWidget@@@Z
?setItemsExpandable@QTreeView@@QAEX_N@Z
?setJoinStyle@QPainterPathStroker@@QAEXW4PenJoinStyle@Qt@@@Z
?setJoinStyle@QPen@@QAEXW4PenJoinStyle@Qt@@@Z
?setJoinStyle@QStroker@@QAEXW4PenJoinStyle@Qt@@@Z
?setKerning@QFont@@QAEX_N@Z
?setKey@QKeySequence@@AAEXHH@Z
?setKey@QShortcut@@QAEXABVQKeySequence@@@Z
?setKeyCompression@QWidget@@QAEX_N@Z
?setKeyboardInputInterval@QApplication@@SAXH@Z
?setKeyboardPageStep@QMdiSubWindow@@QAEXH@Z
?setKeyboardSingleStep@QMdiSubWindow@@QAEXH@Z
?setKeyboardTracking@QAbstractSpinBox@@QAEX_N@Z
?setLabel@QProgressDialog@@QAEXPAVQLabel@@@Z
?setLabel@QToolBar@@QAEXABVQString@@@Z
?setLabelAlignment@QFormLayout@@QAEXV?$QFlags@W4AlignmentFlag@Qt@@@@@Z
?setLabelText@QFileDialog@@QAEXW4DialogLabel@1@ABVQString@@@Z
?setLabelText@QProgressDialog@@QAEXABVQString@@@Z
?setLandscapeOrientation@QPrintPreviewWidget@@QAEXXZ
?setLastPos@QGraphicsSceneHoverEvent@@QAEXABVQPointF@@@Z
?setLastPos@QGraphicsSceneMouseEvent@@QAEXABVQPointF@@@Z
?setLastScenePos@QGraphicsSceneHoverEvent@@QAEXABVQPointF@@@Z
?setLastScenePos@QGraphicsSceneMouseEvent@@QAEXABVQPointF@@@Z
?setLastScreenPos@QGraphicsSceneHoverEvent@@QAEXABVQPoint@@@Z
?setLastScreenPos@QGraphicsSceneMouseEvent@@QAEXABVQPoint@@@Z
?setLayout@QFormLayout@@QAEXHW4ItemRole@1@PAVQLayout@@@Z
?setLayout@QGraphicsWidget@@QAEXPAVQGraphicsLayout@@@Z
?setLayout@QWidget@@QAEXPAVQLayout@@@Z
?setLayoutData@QTextFrame@@QAEXPAVQTextFrameLayoutData@@@Z
?setLayoutDirection@QApplication@@SAXW4LayoutDirection@Qt@@@Z
?setLayoutDirection@QGraphicsWidget@@QAEXW4LayoutDirection@Qt@@@Z
?setLayoutDirection@QPainter@@QAEXW4LayoutDirection@Qt@@@Z
?setLayoutDirection@QTextFormat@@QAEXW4LayoutDirection@Qt@@@Z
?setLayoutDirection@QWidget@@QAEXW4LayoutDirection@Qt@@@Z
?setLayoutDirection_helper@QWidgetPrivate@@QAEXW4LayoutDirection@Qt@@@Z
?setLayoutItemMargins@QWidgetPrivate@@QAEXHHHH@Z
?setLayoutItemMargins@QWidgetPrivate@@QAEXW4SubElement@QStyle@@PBVQStyleOption@@@Z
?setLayoutMode@QListView@@QAEXW4LayoutMode@1@@Z
?setLazyChildCount@QDirModel@@QAEX_N@Z
?setLeftMargin@QTextBlockFormat@@QAEXN@Z
?setLeftMargin@QTextFrameFormat@@QAEXN@Z
?setLeftPadding@QTextTableCellFormat@@QAEXN@Z
?setLetterSpacing@QFont@@QAEXW4SpacingType@1@N@Z
?setLine@QGraphicsLineItem@@QAEXABVQLineF@@@Z
?setLine@QGraphicsLineItem@@QAEXNNNN@Z
?setLineEdit@QAbstractSpinBox@@IAEXPAVQLineEdit@@@Z
?setLineEdit@QComboBox@@QAEXPAVQLineEdit@@@Z
?setLineStep@QAbstractSlider@@QAEXH@Z
?setLineStep@QSpinBox@@QAEXH@Z
?setLineToHook@QStrokerOps@@QAEXP6AXNNPAX@Z@Z
?setLineWidth@QFrame@@QAEXH@Z
?setLineWidth@QLineEdit@@QAEXH@Z
?setLineWidth@QMenuBar@@QAEXH@Z
?setLineWidth@QTextLine@@QAEXN@Z
?setLineWrapColumnOrWidth@QTextEdit@@QAEXH@Z
?setLineWrapMode@QPlainTextEdit@@QAEXW4LineWrapMode@1@@Z
?setLineWrapMode@QTextEdit@@QAEXW4LineWrapMode@1@@Z
?setLocale@QValidator@@QAEXABVQLocale@@@Z
?setLocale@QWidget@@QAEXABVQLocale@@@Z
?setLocale_helper@QWidgetPrivate@@QAEXABVQLocale@@@Z
?setLoops@QSound@@QAEXH@Z
?setMainWidget@QApplication@@SAXPAVQWidget@@@Z
?setManagerProperty@QSessionManager@@QAEXABVQString@@0@Z
?setManagerProperty@QSessionManager@@QAEXABVQString@@ABVQStringList@@@Z
?setMargin@QLCDNumber@@QAEXH@Z
?setMargin@QLabel@@QAEXH@Z
?setMargin@QLayout@@QAEXH@Z
?setMargin@QLineEdit@@QAEXH@Z
?setMargin@QMenuBar@@QAEXH@Z
?setMargin@QSplitter@@QAEXH@Z
?setMargin@QTabWidget@@QAEXH@Z
?setMargin@QTextFrameFormat@@QAEXN@Z
?setMargin@QToolBox@@QAEXH@Z
?setMask@QPixmap@@QAEXABVQBitmap@@@Z
?setMask@QPixmapData@@UAEXABVQBitmap@@@Z
?setMask@QWidget@@QAEXABVQBitmap@@@Z
?setMask@QWidget@@QAEXABVQRegion@@@Z
?setMask_sys@QWidgetPrivate@@QAEXABVQRegion@@@Z
?setMatrix@QBrush@@QAEXABVQMatrix@@@Z
?setMatrix@QGraphicsItem@@QAEXABVQMatrix@@_N@Z
?setMatrix@QGraphicsView@@QAEXABVQMatrix@@_N@Z
?setMatrix@QMatrix@@QAEXNNNNNN@Z
?setMatrix@QPainter@@QAEXABVQMatrix@@_N@Z
?setMatrix@QTransform@@QAEXNNNNNNNNN@Z
?setMatrixEnabled@QPainter@@QAEX_N@Z
?setMaxCount@QComboBox@@QAEXH@Z
?setMaxLength@QLineEdit@@QAEXH@Z
?setMaxValue@QAbstractSlider@@QAEXH@Z
?setMaxValue@QSpinBox@@QAEXH@Z
?setMaxVisibleItems@QComboBox@@QAEXH@Z
?setMaximum@QAbstractSlider@@QAEXH@Z
?setMaximum@QDoubleSpinBox@@QAEXN@Z
?setMaximum@QProgressBar@@QAEXH@Z
?setMaximum@QProgressDialog@@QAEXH@Z
?setMaximum@QSpinBox@@QAEXH@Z
?setMaximumBlockCount@QPlainTextEdit@@QAEXH@Z
?setMaximumBlockCount@QTextDocument@@QAEXH@Z
?setMaximumDate@QCalendarWidget@@QAEXABVQDate@@@Z
?setMaximumDate@QDateTimeEdit@@QAEXABVQDate@@@Z
?setMaximumDateTime@QDateTimeEdit@@QAEXABVQDateTime@@@Z
?setMaximumHeight@QGraphicsLayoutItem@@QAEXN@Z
?setMaximumHeight@QWidget@@QAEXH@Z
?setMaximumSize@QGraphicsLayoutItem@@QAEXABVQSizeF@@@Z
?setMaximumSize@QGraphicsLayoutItem@@QAEXNN@Z
?setMaximumSize@QWidget@@QAEXABVQSize@@@Z
?setMaximumSize@QWidget@@QAEXHH@Z
?setMaximumSize_helper@QWidgetPrivate@@QAE_NAAH0@Z
?setMaximumTime@QDateTimeEdit@@QAEXABVQTime@@@Z
?setMaximumWidth@QGraphicsLayoutItem@@QAEXN@Z
?setMaximumWidth@QWidget@@QAEXH@Z
?setMenu@QAction@@QAEXPAVQMenu@@@Z
?setMenu@QPushButton@@QAEXPAVQMenu@@@Z
?setMenu@QToolButton@@QAEXPAVQMenu@@@Z
?setMenuBar@QLayout@@QAEXPAVQWidget@@@Z
?setMenuBar@QMainWindow@@QAEXPAVQMenuBar@@@Z
?setMenuRole@QAction@@QAEXW4MenuRole@1@@Z
?setMenuText@QAction@@QAEXABVQString@@@Z
?setMenuWidget@QMainWindow@@QAEXPAVQWidget@@@Z
?setMetaInformation@QTextDocument@@QAEXW4MetaInformation@1@ABVQString@@@Z
?setMidLineWidth@QFrame@@QAEXH@Z
?setMidLineWidth@QLineEdit@@QAEXH@Z
?setMidLineWidth@QMenuBar@@QAEXH@Z
?setMimeData@QClipboard@@QAEXPAVQMimeData@@W4Mode@1@@Z
?setMimeData@QDrag@@QAEXPAVQMimeData@@@Z
?setMimeData@QGraphicsSceneDragDropEvent@@QAEXPBVQMimeData@@@Z
?setMinMax@QAbstractPrintDialog@@QAEXHH@Z
?setMinMax@QPrinter@@QAEXHH@Z
?setMinValue@QAbstractSlider@@QAEXH@Z
?setMinValue@QSpinBox@@QAEXH@Z
?setMinimum@QAbstractSlider@@QAEXH@Z
?setMinimum@QDoubleSpinBox@@QAEXN@Z
?setMinimum@QProgressBar@@QAEXH@Z
?setMinimum@QProgressDialog@@QAEXH@Z
?setMinimum@QSpinBox@@QAEXH@Z
?setMinimumContentsLength@QComboBox@@QAEXH@Z
?setMinimumDate@QCalendarWidget@@QAEXABVQDate@@@Z
?setMinimumDate@QDateTimeEdit@@QAEXABVQDate@@@Z
?setMinimumDateTime@QDateTimeEdit@@QAEXABVQDateTime@@@Z
?setMinimumDuration@QProgressDialog@@QAEXH@Z
?setMinimumHeight@QGraphicsLayoutItem@@QAEXN@Z
?setMinimumHeight@QWidget@@QAEXH@Z
?setMinimumSectionSize@QHeaderView@@QAEXH@Z
?setMinimumSize@QGraphicsLayoutItem@@QAEXABVQSizeF@@@Z
?setMinimumSize@QGraphicsLayoutItem@@QAEXNN@Z
?setMinimumSize@QWidget@@QAEXABVQSize@@@Z
?setMinimumSize@QWidget@@QAEXHH@Z
?setMinimumSize_helper@QWidgetPrivate@@QAE_NAAH0@Z
?setMinimumTime@QDateTimeEdit@@QAEXABVQTime@@@Z
?setMinimumWidth@QGraphicsLayoutItem@@QAEXN@Z
?setMinimumWidth@QWidget@@QAEXH@Z
?setMiterLimit@QPainterPathStroker@@QAEXN@Z
?setMiterLimit@QPen@@QAEXN@Z
?setMiterLimit@QStroker@@QAEXN@Z
?setModal@QDialog@@QAEX_N@Z
?setModal_sys@QWidgetPrivate@@QAEXXZ
?setMode@QFileDialog@@QAEXW4FileMode@1@@Z
?setMode@QLCDNumber@@QAEXW4Mode@1@@Z
?setModel@QAbstractItemView@@UAEXPAVQAbstractItemModel@@@Z
?setModel@QColumnView@@UAEXPAVQAbstractItemModel@@@Z
?setModel@QComboBox@@QAEXPAVQAbstractItemModel@@@Z
?setModel@QCompleter@@QAEXPAVQAbstractItemModel@@@Z
?setModel@QDataWidgetMapper@@QAEXPAVQAbstractItemModel@@@Z
?setModel@QHeaderView@@UAEXPAVQAbstractItemModel@@@Z
?setModel@QListWidget@@EAEXPAVQAbstractItemModel@@@Z
?setModel@QProxyModel@@UAEXPAVQAbstractItemModel@@@Z
?setModel@QTableView@@UAEXPAVQAbstractItemModel@@@Z
?setModel@QTableWidget@@EAEXPAVQAbstractItemModel@@@Z
?setModel@QTreeView@@UAEXPAVQAbstractItemModel@@@Z
?setModel@QTreeWidget@@EAEXPAVQAbstractItemModel@@@Z
?setModelColumn@QComboBox@@QAEXH@Z
?setModelColumn@QListView@@QAEXH@Z
?setModelData@QAbstractItemDelegate@@UBEXPAVQWidget@@PAVQAbstractItemModel@@ABVQModelIndex@@@Z
?setModelData@QItemDelegate@@UBEXPAVQWidget@@PAVQAbstractItemModel@@ABVQModelIndex@@@Z
?setModelData@QStyledItemDelegate@@UBEXPAVQWidget@@PAVQAbstractItemModel@@ABVQModelIndex@@@Z
?setModelSorting@QCompleter@@QAEXW4ModelSorting@1@@Z
?setModified@QLineEdit@@QAEX_N@Z
?setModified@QTextDocument@@QAEX_N@Z
?setModified@QTextEdit@@QAEX_N@Z
?setModifiers@QGraphicsSceneContextMenuEvent@@QAEXV?$QFlags@W4KeyboardModifier@Qt@@@@@Z
?setModifiers@QGraphicsSceneDragDropEvent@@QAEXV?$QFlags@W4KeyboardModifier@Qt@@@@@Z
?setModifiers@QGraphicsSceneHoverEvent@@QAEXV?$QFlags@W4KeyboardModifier@Qt@@@@@Z
?setModifiers@QGraphicsSceneMouseEvent@@QAEXV?$QFlags@W4KeyboardModifier@Qt@@@@@Z
?setModifiers@QGraphicsSceneWheelEvent@@QAEXV?$QFlags@W4KeyboardModifier@Qt@@@@@Z
?setMouseCursor@QWidgetResizeHandler@@AAEXW4MousePosition@1@@Z
?setMouseTracking@QWidget@@QAEX_N@Z
?setMovable@QHeaderView@@QAEX_N@Z
?setMovable@QToolBar@@QAEX_N@Z
?setMoveToHook@QStrokerOps@@QAEXP6AXNNPAX@Z@Z
?setMovement@QListView@@QAEXW4Movement@1@@Z
?setMovie@QLabel@@QAEXPAVQMovie@@@Z
?setMovingEnabled@QWidgetResizeHandler@@QAEX_N@Z
?setName@QTextImageFormat@@QAEXABVQString@@@Z
?setNameFilter@QFileDialog@@QAEXABVQString@@@Z
?setNameFilterDetailsVisible@QFileDialog@@QAEX_N@Z
?setNameFilterDisables@QFileSystemModel@@QAEX_N@Z
?setNameFilters@QDirModel@@QAEXABVQStringList@@@Z
?setNameFilters@QFileDialog@@QAEXABVQStringList@@@Z
?setNameFilters@QFileSystemModel@@QAEXABVQStringList@@@Z
?setNamedColor@QColor@@QAEXABVQString@@@Z
?setNavigationBarVisible@QCalendarWidget@@QAEX_N@Z
?setNewPos@QGraphicsSceneMoveEvent@@QAEXABVQPointF@@@Z
?setNewSize@QGraphicsSceneResizeEvent@@QAEXABVQSizeF@@@Z
?setNoChange@QCheckBox@@QAEXXZ
?setNoReplayFor@QMenu@@QAEXPAVQWidget@@@Z
?setNonBreakableLines@QTextBlockFormat@@QAEX_N@Z
?setNormal@QPalette@@QAEXABVQColorGroup@@@Z
?setNotation@QDoubleValidator@@QAEXW4Notation@1@@Z
?setNotchTarget@QDial@@QAEXN@Z
?setNotchesVisible@QDial@@QAEX_N@Z
?setNum@QLabel@@QAEXH@Z
?setNum@QLabel@@QAEXN@Z
?setNumColors@QImage@@QAEXH@Z
?setNumColumns@QTextLine@@QAEXH@Z
?setNumColumns@QTextLine@@QAEXHN@Z
?setNumCopies@QPrinter@@QAEXH@Z
?setNumDigits@QLCDNumber@@QAEXH@Z
?setObjectFormat@QTextFormatCollection@@QAEXHABVQTextFormat@@@Z
?setObjectFormatIndex@QTextFormatCollection@@QAEXHH@Z
?setObjectIndex@QTextFormat@@QAEXH@Z
?setObjectType@QTextFormat@@QAEXH@Z
?setOctMode@QLCDNumber@@QAEXXZ
?setOffIconSet@QToolButton@@QAEXABVQIcon@@@Z
?setOffset@QGraphicsPixmapItem@@QAEXABVQPointF@@@Z
?setOffset@QGraphicsPixmapItem@@QAEXNN@Z
?setOffset@QHeaderView@@QAEXH@Z
?setOffset@QImage@@QAEXABVQPoint@@@Z
?setOffsetToLastSection@QHeaderView@@QAEXXZ
?setOffsetToSectionPosition@QHeaderView@@QAEXH@Z
?setOldPos@QGraphicsSceneMoveEvent@@QAEXABVQPointF@@@Z
?setOldSize@QGraphicsSceneResizeEvent@@QAEXABVQSizeF@@@Z
?setOn@QAbstractButton@@QAEX_N@Z
?setOn@QAction@@QAEX_N@Z
?setOnIconSet@QToolButton@@QAEXABVQIcon@@@Z
?setOpacity@QPainter@@QAEXN@Z
?setOpaqueResize@QSplitter@@QAEX_N@Z
?setOpenExternalLinks@QGraphicsTextItem@@QAEX_N@Z
?setOpenExternalLinks@QLabel@@QAEX_N@Z
?setOpenExternalLinks@QTextBrowser@@QAEX_N@Z
?setOpenExternalLinks@QTextControl@@QAEX_N@Z
?setOpenLinks@QTextBrowser@@QAEX_N@Z
?setOptimizationFlag@QGraphicsView@@QAEXW4OptimizationFlag@1@_N@Z
?setOptimizationFlags@QGraphicsView@@QAEXV?$QFlags@W4OptimizationFlag@QGraphicsView@@@@@Z
?setOption@QImageIOHandler@@UAEXW4ImageOption@1@ABVQVariant@@@Z
?setOption@QMdiArea@@QAEXW4AreaOption@1@_N@Z
?setOption@QMdiSubWindow@@QAEXW4SubWindowOption@1@_N@Z
?setOption@QWizard@@QAEXW4WizardOption@1@_N@Z
?setOptionEnabled@QPrinter@@QAEXW4PrinterOption@1@_N@Z
?setOptionTabs@QAbstractPrintDialog@@QAEXABV?$QList@PAVQWidget@@@@@Z
?setOptions@QItemDelegate@@IBE?AVQStyleOptionViewItem@@ABVQModelIndex@@ABV2@@Z
?setOptions@QWizard@@QAEXV?$QFlags@W4WizardOption@QWizard@@@@@Z
?setOrientation@QAbstractSlider@@QAEXW4Orientation@Qt@@@Z
?setOrientation@QDataWidgetMapper@@QAEXW4Orientation@Qt@@@Z
?setOrientation@QDialog@@QAEXW4Orientation@Qt@@@Z
?setOrientation@QDialogButtonBox@@QAEXW4Orientation@Qt@@@Z
?setOrientation@QGraphicsLinearLayout@@QAEXW4Orientation@Qt@@@Z
?setOrientation@QGraphicsSceneWheelEvent@@QAEXW4Orientation@Qt@@@Z
?setOrientation@QPrintPreviewWidget@@QAEXW4Orientation@QPrinter@@@Z
?setOrientation@QPrinter@@QAEXW4Orientation@1@@Z
?setOrientation@QProgressBar@@QAEXW4Orientation@Qt@@@Z
?setOrientation@QSplitter@@QAEXW4Orientation@Qt@@@Z
?setOrientation@QSplitterHandle@@QAEXW4Orientation@Qt@@@Z
?setOrientation@QToolBar@@QAEXW4Orientation@Qt@@@Z
?setOrigin@QGridLayout@@QAEXW4Corner@Qt@@@Z
?setOriginCorner@QGridLayout@@QAEXW4Corner@Qt@@@Z
?setOutputFileName@QPrinter@@QAEXABVQString@@@Z
?setOutputFormat@QPrinter@@QAEXW4OutputFormat@1@@Z
?setOutputToFile@QPrinter@@QAEX_N@Z
?setOverline@QFont@@QAEX_N@Z
?setOverrideCursor@QApplication@@SAXABVQCursor@@@Z
?setOverrideCursor@QApplication@@SAXABVQCursor@@_N@Z
?setOverwriteMode@QPlainTextEdit@@QAEX_N@Z
?setOverwriteMode@QTextControl@@QAEX_N@Z
?setOverwriteMode@QTextEdit@@QAEX_N@Z
?setPadding@QTextFrameFormat@@QAEXN@Z
?setPadding@QTextTableCellFormat@@QAEXN@Z
?setPage@QWizard@@QAEXHPAVQWizardPage@@@Z
?setPageBreakPolicy@QTextBlockFormat@@QAEXV?$QFlags@W4PageBreakFlag@QTextFormat@@@@@Z
?setPageBreakPolicy@QTextFrameFormat@@QAEXV?$QFlags@W4PageBreakFlag@QTextFormat@@@@@Z
?setPageMargins@QPrinter@@QAEXNNNNW4Unit@1@@Z
?setPageOrder@QPrinter@@QAEXW4PageOrder@1@@Z
?setPageSize@QPrinter@@QAEXW4PageSize@1@@Z
?setPageSize@QTextDocument@@QAEXABVQSizeF@@@Z
?setPageStep@QAbstractSlider@@QAEXH@Z
?setPaintDevice@QAbstractTextDocumentLayout@@QAEXPAVQPaintDevice@@@Z
?setPaintDevice@QPaintEngine@@QAEXPAVQPaintDevice@@@Z
?setPalette@QApplication@@SAXABVQPalette@@PBD@Z
?setPalette@QApplication@@SAXABVQPalette@@_NPBD@Z
?setPalette@QGraphicsScene@@QAEXABVQPalette@@@Z
?setPalette@QGraphicsWidget@@QAEXABVQPalette@@@Z
?setPalette@QTextControl@@QAEXABVQPalette@@@Z
?setPalette@QToolTip@@SAXABVQPalette@@@Z
?setPalette@QWidget@@QAEXABVQPalette@@@Z
?setPalette@QWidget@@QAEXABVQPalette@@_N@Z
?setPaletteBackgroundColor@QWidget@@QAEXABVQColor@@@Z
?setPaletteBackgroundColor@QWorkspace@@QAEXABVQColor@@@Z
?setPaletteBackgroundPixmap@QWidget@@QAEXABVQPixmap@@@Z
?setPaletteBackgroundPixmap@QWorkspace@@QAEXABVQPixmap@@@Z
?setPaletteForegroundColor@QWidget@@QAEXABVQColor@@@Z
?setPalette_helper@QApplicationPrivate@@SAXABVQPalette@@PBD_N@Z
?setPalette_helper@QWidgetPrivate@@QAEXABVQPalette@@@Z
?setPaperSize@QPrinter@@QAEXABVQSizeF@@W4Unit@1@@Z
?setPaperSize@QPrinter@@QAEXW4PageSize@1@@Z
?setPaperSource@QPrinter@@QAEXW4PaperSource@1@@Z
?setParameters@QPictureIO@@QAEXPBD@Z
?setParent@QWidget@@QAEXPAV1@@Z
?setParent@QWidget@@QAEXPAV1@V?$QFlags@W4WindowType@Qt@@@@@Z
?setParentItem@QGraphicsItem@@QAEXPAV1@@Z
?setParentLayoutItem@QGraphicsLayoutItem@@QAEXPAV1@@Z
?setParent_sys@QWidgetPrivate@@QAEXPAVQWidget@@V?$QFlags@W4WindowType@Qt@@@@@Z
?setPath@QGraphicsPathItem@@QAEXABVQPainterPath@@@Z
?setPaused@QMovie@@QAEX_N@Z
?setPen@QAbstractGraphicsShapeItem@@QAEXABVQPen@@@Z
?setPen@QGraphicsLineItem@@QAEXABVQPen@@@Z
?setPen@QPainter@@QAEXABVQColor@@@Z
?setPen@QPainter@@QAEXABVQPen@@@Z
?setPen@QPainter@@QAEXW4PenStyle@Qt@@@Z
?setPicture@QLabel@@QAEXABVQPicture@@@Z
?setPicture@QPictureIO@@QAEXABVQPicture@@@Z
?setPixel@QImage@@QAEXABVQPoint@@I@Z
?setPixel@QImage@@QAEXHHI@Z
?setPixelSize@QFont@@QAEXH@Z
?setPixelSizeFloat@QFont@@QAEXN@Z
?setPixmap@QAbstractButton@@QAEXABVQPixmap@@@Z
?setPixmap@QBrush@@QAEXABVQPixmap@@@Z
?setPixmap@QClipboard@@QAEXABVQPixmap@@W4Mode@1@@Z
?setPixmap@QDrag@@QAEXABVQPixmap@@@Z
?setPixmap@QGraphicsPixmapItem@@QAEXABVQPixmap@@@Z
?setPixmap@QIcon@@QAEXABVQPixmap@@W4Size@1@W4Mode@1@W4State@1@@Z
?setPixmap@QIcon@@QAEXABVQString@@W4Size@1@W4Mode@1@W4State@1@@Z
?setPixmap@QLabel@@QAEXABVQPixmap@@@Z
?setPixmap@QSplashScreen@@QAEXABVQPixmap@@@Z
?setPixmap@QToolButton@@QAEXABVQPixmap@@@Z
?setPixmap@QWizard@@QAEXW4WizardPixmap@1@ABVQPixmap@@@Z
?setPixmap@QWizardPage@@QAEXW4WizardPixmap@QWizard@@ABVQPixmap@@@Z
?setPixmapSize@QIcon@@SAXW4Size@1@ABVQSize@@@Z
?setPlainText@QGraphicsTextItem@@QAEXABVQString@@@Z
?setPlainText@QPlainTextEdit@@QAEXABVQString@@@Z
?setPlainText@QTextControl@@QAEXABVQString@@@Z
?setPlainText@QTextDocument@@QAEXABVQString@@@Z
?setPlainText@QTextEdit@@QAEXABVQString@@@Z
?setPoint@QDropEvent@@QAEXABVQPoint@@@Z
?setPoint@QPolygon@@QAEXHABVQPoint@@@Z
?setPoint@QPolygon@@QAEXHHH@Z
?setPointSize@QFont@@QAEXH@Z
?setPointSize@QTextEdit@@QAEXH@Z
?setPointSizeF@QFont@@QAEXN@Z
?setPointSizeFloat@QFont@@QAEXN@Z
?setPoints@QPolygon@@QAAXHHHZZ
?setPoints@QPolygon@@QAEXHPBH@Z
?setPolygon@QGraphicsPolygonItem@@QAEXABVQPolygonF@@@Z
?setPopup@QCompleter@@QAEXPAVQAbstractItemView@@@Z
?setPopup@QPushButton@@QAEXPAVQMenu@@@Z
?setPopup@QToolButton@@QAEXPAVQMenu@@@Z
?setPopupDelay@QToolButton@@QAEXH@Z
?setPopupMode@QToolButton@@QAEXW4ToolButtonPopupMode@1@@Z
?setPortraitOrientation@QPrintPreviewWidget@@QAEXXZ
?setPos@QCursor@@SAXABVQPoint@@@Z
?setPos@QCursor@@SAXHH@Z
?setPos@QGraphicsItem@@QAEXABVQPointF@@@Z
?setPos@QGraphicsItem@@QAEXNN@Z
?setPos@QGraphicsSceneContextMenuEvent@@QAEXABVQPointF@@@Z
?setPos@QGraphicsSceneDragDropEvent@@QAEXABVQPointF@@@Z
?setPos@QGraphicsSceneHoverEvent@@QAEXABVQPointF@@@Z
?setPos@QGraphicsSceneMouseEvent@@QAEXABVQPointF@@@Z
?setPos@QGraphicsSceneWheelEvent@@QAEXABVQPointF@@@Z
?setPosAt@QGraphicsItemAnimation@@QAEXNABVQPointF@@@Z
?setPosition@QTextCursor@@QAEXHW4MoveMode@1@@Z
?setPosition@QTextFrameFormat@@QAEXW4Position@1@@Z
?setPosition@QTextLayout@@QAEXABVQPointF@@@Z
?setPosition@QTextLine@@QAEXABVQPointF@@@Z
?setPositionForIndex@QListView@@IAEXABVQPoint@@ABVQModelIndex@@@Z
?setPossibleActions@QGraphicsSceneDragDropEvent@@QAEXV?$QFlags@W4DropAction@Qt@@@@@Z
?setPreeditArea@QTextLayout@@QAEXHABVQString@@@Z
?setPreferredHeight@QGraphicsLayoutItem@@QAEXN@Z
?setPreferredSize@QGraphicsLayoutItem@@QAEXABVQSizeF@@@Z
?setPreferredSize@QGraphicsLayoutItem@@QAEXNN@Z
?setPreferredWidth@QGraphicsLayoutItem@@QAEXN@Z
?setPrefix@QDoubleSpinBox@@QAEXABVQString@@@Z
?setPrefix@QSpinBox@@QAEXABVQString@@@Z
?setPreviewWidget@QColumnView@@QAEXPAVQWidget@@@Z
?setPrintProgram@QPrinter@@QAEXABVQString@@@Z
?setPrintRange@QAbstractPrintDialog@@QAEXW4PrintRange@1@@Z
?setPrintRange@QPrinter@@QAEXW4PrintRange@1@@Z
?setPrinterName@QPrinter@@QAEXABVQString@@@Z
?setProperty@QTextFormat@@QAEXHABV?$QVector@VQTextLength@@@@@Z
?setProperty@QTextFormat@@QAEXHABVQVariant@@@Z
?setProposedAction@QGraphicsSceneDragDropEvent@@QAEXW4DropAction@Qt@@@Z
?setProxyModel@QFileDialog@@QAEXPAVQAbstractProxyModel@@@Z
?setProxyModel@QProxyModel@@IBE?AVQModelIndex@@ABV2@@Z
?setQuality@QImageReader@@QAEXH@Z
?setQuality@QImageWriter@@QAEXH@Z
?setQuality@QPictureIO@@QAEXH@Z
?setQuitOnLastWindowClosed@QApplication@@SAX_N@Z
?setRadius@QRadialGradient@@QAEXN@Z
?setRange@QAbstractSlider@@QAEXHH@Z
?setRange@QDoubleSpinBox@@QAEXNN@Z
?setRange@QDoubleValidator@@UAEXNNH@Z
?setRange@QIntValidator@@UAEXHH@Z
?setRange@QProgressBar@@QAEXHH@Z
?setRange@QProgressDialog@@QAEXHH@Z
?setRange@QSpinBox@@QAEXHH@Z
?setRangeSelected@QTableWidget@@QAEXABVQTableWidgetSelectionRange@@_N@Z
?setRawMode@QFont@@QAEX_N@Z
?setRawName@QFont@@QAEXABVQString@@@Z
?setReadOnly@QAbstractSpinBox@@QAEX_N@Z
?setReadOnly@QDirModel@@QAEX_N@Z
?setReadOnly@QFileDialog@@QAEX_N@Z
?setReadOnly@QFileSystemModel@@QAEX_N@Z
?setReadOnly@QLineEdit@@QAEX_N@Z
?setReadOnly@QPlainTextEdit@@QAEX_N@Z
?setReadOnly@QTextEdit@@QAEX_N@Z
?setReason@QGraphicsSceneContextMenuEvent@@QAEXW4Reason@1@@Z
?setRect@QGraphicsEllipseItem@@QAEXABVQRectF@@@Z
?setRect@QGraphicsEllipseItem@@QAEXNNNN@Z
?setRect@QGraphicsRectItem@@QAEXABVQRectF@@@Z
?setRect@QGraphicsRectItem@@QAEXNNNN@Z
?setRects@QRegion@@QAEXPBVQRect@@H@Z
?setRed@QColor@@QAEXH@Z
?setRedF@QColor@@QAEXN@Z
?setRedirected@QPainter@@SAXPBVQPaintDevice@@PAV2@ABVQPoint@@@Z
?setRedirected@QWidgetPrivate@@QAEXPAVQPaintDevice@@ABVQPoint@@@Z
?setRegExp@QRegExpValidator@@QAEXABVQRegExp@@@Z
?setRenderHint@QGraphicsView@@QAEXW4RenderHint@QPainter@@_N@Z
?setRenderHint@QPainter@@QAEXW4RenderHint@1@_N@Z
?setRenderHints@QGraphicsView@@QAEXV?$QFlags@W4RenderHint@QPainter@@@@@Z
?setRenderHints@QPainter@@QAEXV?$QFlags@W4RenderHint@QPainter@@@@_N@Z
?setRepeatAction@QAbstractSlider@@IAEXW4SliderAction@1@HH@Z
?setResizeAnchor@QGraphicsView@@QAEXW4ViewportAnchor@1@@Z
?setResizeGripsVisible@QColumnView@@QAEX_N@Z
?setResizeMode@QHeaderView@@QAEXHW4ResizeMode@1@@Z
?setResizeMode@QHeaderView@@QAEXW4ResizeMode@1@@Z
?setResizeMode@QLayout@@QAEXW4SizeConstraint@1@@Z
?setResizeMode@QListView@@QAEXW4ResizeMode@1@@Z
?setResizeMode@QSplitter@@QAEXPAVQWidget@@W4ResizeMode@1@@Z
?setResolution@QPrinter@@QAEXH@Z
?setResolveSymlinks@QDirModel@@QAEX_N@Z
?setResolveSymlinks@QFileDialog@@QAEX_N@Z
?setResolveSymlinks@QFileSystemModel@@QAEX_N@Z
?setRestartCommand@QSessionManager@@QAEXABVQStringList@@@Z
?setRestartHint@QSessionManager@@QAEXW4RestartHint@1@@Z
?setResult@QDialog@@QAEXH@Z
?setReverseLayout@QApplication@@SAX_N@Z
?setRevision@QTextBlock@@QAEXH@Z
?setRgb@QColor@@QAEXHHHH@Z
?setRgb@QColor@@QAEXI@Z
?setRgbF@QColor@@QAEXNNNN@Z
?setRgba@QColor@@QAEXHHHH@Z
?setRgba@QColor@@QAEXI@Z
?setRightMargin@QTextBlockFormat@@QAEXN@Z
?setRightMargin@QTextFrameFormat@@QAEXN@Z
?setRightPadding@QTextTableCellFormat@@QAEXN@Z
?setRootIndex@QAbstractItemView@@UAEXABVQModelIndex@@@Z
?setRootIndex@QColumnView@@UAEXABVQModelIndex@@@Z
?setRootIndex@QDataWidgetMapper@@QAEXABVQModelIndex@@@Z
?setRootIndex@QListView@@UAEXABVQModelIndex@@@Z
?setRootIndex@QTableView@@UAEXABVQModelIndex@@@Z
?setRootIndex@QTreeView@@UAEXABVQModelIndex@@@Z
?setRootIsDecorated@QTreeView@@QAEX_N@Z
?setRootModelIndex@QComboBox@@QAEXABVQModelIndex@@@Z
?setRootObject@QAccessible@@SAXPAVQObject@@@Z
?setRootPath@QFileSystemModel@@QAE?AVQModelIndex@@ABVQString@@@Z
?setRotationAt@QGraphicsItemAnimation@@QAEXNN@Z
?setRowAlignment@QGraphicsGridLayout@@QAEXHV?$QFlags@W4AlignmentFlag@Qt@@@@@Z
?setRowCount@QStandardItem@@QAEXH@Z
?setRowCount@QStandardItemModel@@QAEXH@Z
?setRowCount@QTableWidget@@QAEXH@Z
?setRowFixedHeight@QGraphicsGridLayout@@QAEXHN@Z
?setRowHeight@QTableView@@QAEXHH@Z
?setRowHidden@QListView@@QAEXH_N@Z
?setRowHidden@QTableView@@QAEXH_N@Z
?setRowHidden@QTreeView@@QAEXHABVQModelIndex@@_N@Z
?setRowMaximumHeight@QGraphicsGridLayout@@QAEXHN@Z
?setRowMinimumHeight@QGraphicsGridLayout@@QAEXHN@Z
?setRowMinimumHeight@QGridLayout@@QAEXHH@Z
?setRowPreferredHeight@QGraphicsGridLayout@@QAEXHN@Z
?setRowSpacing@QGraphicsGridLayout@@QAEXHN@Z
?setRowSpacing@QGridLayout@@QAEXHH@Z
?setRowStretch@QGridLayout@@QAEXHH@Z
?setRowStretchFactor@QGraphicsGridLayout@@QAEXHH@Z
?setRowWrapPolicy@QFormLayout@@QAEXW4RowWrapPolicy@1@@Z
?setRubberBand@QSplitter@@IAEXH@Z
?setRubberBandSelectionMode@QGraphicsView@@QAEXW4ItemSelectionMode@Qt@@@Z
?setScaleAt@QGraphicsItemAnimation@@QAEXNNN@Z
?setScaledClipRect@QImageReader@@QAEXABVQRect@@@Z
?setScaledContents@QLabel@@QAEX_N@Z
?setScaledSize@QImageReader@@QAEXABVQSize@@@Z
?setScaledSize@QMovie@@QAEXABVQSize@@@Z
?setScene@QGraphicsView@@QAEXPAVQGraphicsScene@@@Z
?setScenePos@QGraphicsSceneContextMenuEvent@@QAEXABVQPointF@@@Z
?setScenePos@QGraphicsSceneDragDropEvent@@QAEXABVQPointF@@@Z
?setScenePos@QGraphicsSceneHelpEvent@@QAEXABVQPointF@@@Z
?setScenePos@QGraphicsSceneHoverEvent@@QAEXABVQPointF@@@Z
?setScenePos@QGraphicsSceneMouseEvent@@QAEXABVQPointF@@@Z
?setScenePos@QGraphicsSceneWheelEvent@@QAEXABVQPointF@@@Z
?setSceneRect@QGraphicsScene@@QAEXABVQRectF@@@Z
?setSceneRect@QGraphicsScene@@QAEXNNNN@Z
?setSceneRect@QGraphicsView@@QAEXABVQRectF@@@Z
?setSceneRect@QGraphicsView@@QAEXNNNN@Z
?setScreenPos@QGraphicsSceneContextMenuEvent@@QAEXABVQPoint@@@Z
?setScreenPos@QGraphicsSceneDragDropEvent@@QAEXABVQPoint@@@Z
?setScreenPos@QGraphicsSceneHelpEvent@@QAEXABVQPoint@@@Z
?setScreenPos@QGraphicsSceneHoverEvent@@QAEXABVQPoint@@@Z
?setScreenPos@QGraphicsSceneMouseEvent@@QAEXABVQPoint@@@Z
?setScreenPos@QGraphicsSceneWheelEvent@@QAEXABVQPoint@@@Z
?setScrollBarsEnabled@QWorkspace@@QAEX_N@Z
?setSearchPaths@QTextBrowser@@QAEXABVQStringList@@@Z
?setSectionHidden@QHeaderView@@QAEXH_N@Z
?setSegmentStyle@QLCDNumber@@QAEXW4SegmentStyle@1@@Z
?setSelectable@QStandardItem@@QAEX_N@Z
?setSelected@QGraphicsItem@@QAEX_N@Z
?setSelected@QListWidgetItem@@QAEX_N@Z
?setSelected@QTableWidgetItem@@QAEX_N@Z
?setSelected@QTreeWidgetItem@@QAEX_N@Z
?setSelectedAlpha@QColorDialog@@AAEXH@Z
?setSelectedDate@QCalendarWidget@@QAEXABVQDate@@@Z
?setSelectedSection@QDateTimeEdit@@QAEXW4Section@1@@Z
?setSelection@QColumnView@@MAEXABVQRect@@V?$QFlags@W4SelectionFlag@QItemSelectionModel@@@@@Z
?setSelection@QHeaderView@@MAEXABVQRect@@V?$QFlags@W4SelectionFlag@QItemSelectionModel@@@@@Z
?setSelection@QLineEdit@@QAEXHH@Z
?setSelection@QListView@@MAEXABVQRect@@V?$QFlags@W4SelectionFlag@QItemSelectionModel@@@@@Z
?setSelection@QTableView@@MAEXABVQRect@@V?$QFlags@W4SelectionFlag@QItemSelectionModel@@@@@Z
?setSelection@QTreeView@@MAEXABVQRect@@V?$QFlags@W4SelectionFlag@QItemSelectionModel@@@@@Z
?setSelectionArea@QGraphicsScene@@QAEXABVQPainterPath@@@Z
?setSelectionArea@QGraphicsScene@@QAEXABVQPainterPath@@W4ItemSelectionMode@Qt@@@Z
?setSelectionBehavior@QAbstractItemView@@QAEXW4SelectionBehavior@1@@Z
?setSelectionMode@QAbstractItemView@@QAEXW4SelectionMode@1@@Z
?setSelectionMode@QCalendarWidget@@QAEXW4SelectionMode@1@@Z
?setSelectionModel@QAbstractItemView@@UAEXPAVQItemSelectionModel@@@Z
?setSelectionModel@QColumnView@@UAEXPAVQItemSelectionModel@@@Z
?setSelectionModel@QTableView@@UAEXPAVQItemSelectionModel@@@Z
?setSelectionModel@QTreeView@@UAEXPAVQItemSelectionModel@@@Z
?setSelectionRectVisible@QListView@@QAEX_N@Z
?setSeparator@QAction@@QAEX_N@Z
?setSeparator@QMenuBar@@QAEXW4Separator@1@@Z
?setSeparatorsCollapsible@QMenu@@QAEX_N@Z
?setSerialNumber@QPixmapData@@IAEXH@Z
?setShape@QCursor@@QAEXW4CursorShape@Qt@@@Z
?setShape@QTabBar@@QAEXW4Shape@1@@Z
?setShapeMode@QGraphicsPixmapItem@@QAEXW4ShapeMode@1@@Z
?setSharable@?$QList@VQItemSelectionRange@@@@QAEX_N@Z
?setShearAt@QGraphicsItemAnimation@@QAEXNNN@Z
?setShortcut@QAbstractButton@@QAEXABVQKeySequence@@@Z
?setShortcut@QAction@@QAEXABVQKeySequence@@@Z
?setShortcutAutoRepeat@QWidget@@QAEXH_N@Z
?setShortcutContext@QAction@@QAEXW4ShortcutContext@Qt@@@Z
?setShortcutEnabled@QWidget@@QAEXH_N@Z
?setShortcuts@QAction@@QAEXABV?$QList@VQKeySequence@@@@@Z
?setShortcuts@QAction@@QAEXW4StandardKey@QKeySequence@@@Z
?setShowGrid@QTableView@@QAEX_N@Z
?setShown@QWidget@@QAEX_N@Z
?setSidebarUrls@QFileDialog@@QAEXABV?$QList@VQUrl@@@@@Z
?setSignalValue@QMenuItem@@AAEXH@Z
?setSinglePageViewMode@QPrintPreviewWidget@@QAEXXZ
?setSingleStep@QAbstractSlider@@QAEXH@Z
?setSingleStep@QDoubleSpinBox@@QAEXN@Z
?setSingleStep@QSpinBox@@QAEXH@Z
?setSizeAdjustPolicy@QComboBox@@QAEXW4SizeAdjustPolicy@1@@Z
?setSizeConstraint@QLayout@@QAEXW4SizeConstraint@1@@Z
?setSizeGripEnabled@QDialog@@QAEX_N@Z
?setSizeGripEnabled@QStatusBar@@QAEX_N@Z
?setSizeHint@QListWidgetItem@@QAEXABVQSize@@@Z
?setSizeHint@QStandardItem@@QAEXABVQSize@@@Z
?setSizeHint@QTableWidgetItem@@QAEXABVQSize@@@Z
?setSizeHint@QTreeWidgetItem@@QAEXHABVQSize@@@Z
?setSizeIncrement@QWidget@@QAEXABVQSize@@@Z
?setSizeIncrement@QWidget@@QAEXHH@Z
?setSizePolicy@QGraphicsLayoutItem@@QAEXABVQSizePolicy@@@Z
?setSizePolicy@QGraphicsLayoutItem@@QAEXW4Policy@QSizePolicy@@0W4ControlType@3@@Z
?setSizePolicy@QWidget@@QAEXVQSizePolicy@@@Z
?setSizePolicy@QWidget@@QAEXW4Policy@QSizePolicy@@0@Z
?setSizePolicy@QWidget@@QAEXW4Policy@QSizePolicy@@0_N@Z
?setSizeProtection@QWidgetResizeHandler@@QAEX_N@Z
?setSizes@QSplitter@@QAEXABV?$QList@H@@@Z
?setSliderDown@QAbstractSlider@@QAEX_N@Z
?setSliderPosition@QAbstractSlider@@QAEXH@Z
?setSmallDecimalPoint@QLCDNumber@@QAEX_N@Z
?setSortCaseSensitivity@QSortFilterProxyModel@@QAEXW4CaseSensitivity@Qt@@@Z
?setSortIndicator@QHeaderView@@QAEXHW4SortOrder@Qt@@@Z
?setSortIndicatorShown@QHeaderView@@QAEX_N@Z
?setSortLocaleAware@QSortFilterProxyModel@@QAEX_N@Z
?setSortRole@QSortFilterProxyModel@@QAEXH@Z
?setSortRole@QStandardItemModel@@QAEXH@Z
?setSorting@QDirModel@@QAEXV?$QFlags@W4SortFlag@QDir@@@@@Z
?setSortingEnabled@QListWidget@@QAEX_N@Z
?setSortingEnabled@QTableView@@QAEX_N@Z
?setSortingEnabled@QTableWidget@@QAEX_N@Z
?setSortingEnabled@QTreeView@@QAEX_N@Z
?setSortingEnabled@QTreeWidget@@QAEX_N@Z
?setSource@QGraphicsSceneDragDropEvent@@QAEXPAVQWidget@@@Z
?setSource@QTextBrowser@@UAEXABVQUrl@@@Z
?setSourceModel@QAbstractProxyModel@@UAEXPAVQAbstractItemModel@@@Z
?setSourceModel@QProxyModel@@IBE?AVQModelIndex@@ABV2@@Z
?setSourceModel@QSortFilterProxyModel@@UAEXPAVQAbstractItemModel@@@Z
?setSpacing@QBoxLayout@@QAEXH@Z
?setSpacing@QFormLayout@@QAEXH@Z
?setSpacing@QGraphicsGridLayout@@QAEXN@Z
?setSpacing@QGraphicsLinearLayout@@QAEXN@Z
?setSpacing@QGridLayout@@QAEXH@Z
?setSpacing@QLayout@@QAEXH@Z
?setSpacing@QListView@@QAEXH@Z
?setSpan@QTableView@@QAEXHHHH@Z
?setSpanAngle@QGraphicsEllipseItem@@QAEXH@Z
?setSpecialValueText@QAbstractSpinBox@@QAEXABVQString@@@Z
?setSpeed@QMovie@@QAEXH@Z
?setSpread@QGradient@@QAEXW4Spread@1@@Z
?setStack@QUndoView@@QAEXPAVQUndoStack@@@Z
?setStackingMode@QStackedLayout@@QAEXW4StackingMode@1@@Z
?setStandardButtons@QDialogButtonBox@@QAEXV?$QFlags@W4StandardButton@QDialogButtonBox@@@@@Z
?setStandardButtons@QMessageBox@@QAEXV?$QFlags@W4StandardButton@QMessageBox@@@@@Z
?setStandardColor@QColorDialog@@SAXHI@Z
?setStart@QLinearGradient@@QAEXABVQPointF@@@Z
?setStart@QLinearGradient@@QAEXNN@Z
?setStartAngle@QGraphicsEllipseItem@@QAEXH@Z
?setStartDragDistance@QApplication@@SAXH@Z
?setStartDragTime@QApplication@@SAXH@Z
?setStartId@QWizard@@QAEXH@Z
?setState@QAbstractItemView@@IAEXW4State@1@@Z
?setState@QCheckBox@@QAEXW4ToggleState@1@@Z
?setStatus@QPictureIO@@QAEXH@Z
?setStatusBar@QMainWindow@@QAEXPAVQStatusBar@@@Z
?setStatusTip@QAction@@QAEXABVQString@@@Z
?setStatusTip@QListWidgetItem@@QAEXABVQString@@@Z
?setStatusTip@QStandardItem@@QAEXABVQString@@@Z
?setStatusTip@QTableWidgetItem@@QAEXABVQString@@@Z
?setStatusTip@QTreeWidgetItem@@QAEXHABVQString@@@Z
?setStatusTip@QWidget@@QAEXABVQString@@@Z
?setStep@QGraphicsItemAnimation@@QAEXN@Z
?setSteps@QAbstractSlider@@QAEXHH@Z
?setStops@QGradient@@QAEXABV?$QVector@U?$QPair@NVQColor@@@@@@@Z
?setStretch@QFont@@QAEXH@Z
?setStretchFactor@QBoxLayout@@QAE_NPAVQLayout@@H@Z
?setStretchFactor@QBoxLayout@@QAE_NPAVQWidget@@H@Z
?setStretchFactor@QGraphicsLinearLayout@@QAEXPAVQGraphicsLayoutItem@@H@Z
?setStretchFactor@QSplitter@@QAEXHH@Z
?setStretchLastSection@QHeaderView@@QAEX_N@Z
?setStrikeOut@QFont@@QAEX_N@Z
?setStringList@QStringListModel@@QAEXABVQStringList@@@Z
?setStrokeWidth@QStroker@@QAEXN@Z
?setStyle@QApplication@@SAPAVQStyle@@ABVQString@@@Z
?setStyle@QApplication@@SAXPAVQStyle@@@Z
?setStyle@QBrush@@QAEXW4BrushStyle@Qt@@@Z
?setStyle@QFont@@QAEXW4Style@1@@Z
?setStyle@QGraphicsScene@@QAEXPAVQStyle@@@Z
?setStyle@QGraphicsWidget@@QAEXPAVQStyle@@@Z
?setStyle@QPen@@QAEXW4PenStyle@Qt@@@Z
?setStyle@QTextListFormat@@QAEXW4Style@1@@Z
?setStyle@QWidget@@QAEPAVQStyle@@ABVQString@@@Z
?setStyle@QWidget@@QAEXPAVQStyle@@@Z
?setStyleHint@QFont@@QAEXW4StyleHint@1@W4StyleStrategy@1@@Z
?setStyleSheet@QApplication@@QAEXABVQString@@@Z
?setStyleSheet@QWidget@@QAEXABVQString@@@Z
?setStyleStrategy@QFont@@QAEXW4StyleStrategy@1@@Z
?setStyle_helper@QWidgetPrivate@@QAEXPAVQStyle@@_N1@Z
?setSubTitle@QWizardPage@@QAEXABVQString@@@Z
?setSubTitleFormat@QWizard@@QAEXW4TextFormat@Qt@@@Z
?setSubmitPolicy@QDataWidgetMapper@@QAEXW4SubmitPolicy@1@@Z
?setSuffix@QDoubleSpinBox@@QAEXABVQString@@@Z
?setSuffix@QSpinBox@@QAEXABVQString@@@Z
?setSystemClip@QPaintEngine@@QAEXABVQRegion@@@Z
?setSystemFont@QApplicationPrivate@@SAXABVQFont@@@Z
?setSystemMenu@QMdiSubWindow@@QAEXPAVQMenu@@@Z
?setSystemPalette@QApplicationPrivate@@SAXABVQPalette@@@Z
?setSystemRect@QPaintEngine@@QAEXABVQRect@@@Z
?setTabArray@QTextOption@@QAEXV?$QList@N@@@Z
?setTabBar@QTabWidget@@IAEXPAVQTabBar@@@Z
?setTabChangesFocus@QPlainTextEdit@@QAEX_N@Z
?setTabChangesFocus@QTextEdit@@QAEX_N@Z
?setTabData@QTabBar@@QAEXHABVQVariant@@@Z
?setTabEnabled@QTabBar@@QAEXH_N@Z
?setTabEnabled@QTabWidget@@QAEXH_N@Z
?setTabEnabled@QTabWidget@@QAEXPAVQWidget@@_N@Z
?setTabIcon@QTabBar@@QAEXHABVQIcon@@@Z
?setTabIcon@QTabWidget@@QAEXHABVQIcon@@@Z
?setTabIconSet@QTabWidget@@QAEXPAVQWidget@@ABVQIcon@@@Z
?setTabKeyNavigation@QAbstractItemView@@QAEX_N@Z
?setTabLabel@QTabWidget@@QAEXPAVQWidget@@ABVQString@@@Z
?setTabOrder@QGraphicsWidget@@SAXPAV1@0@Z
?setTabOrder@QWidget@@SAXPAV1@0@Z
?setTabPosition@QMdiArea@@QAEXW4TabPosition@QTabWidget@@@Z
?setTabPosition@QTabWidget@@QAEXW4TabPosition@1@@Z
?setTabPositions@QTextBlockFormat@@QAEXABV?$QList@UTab@QTextOption@@@@@Z
?setTabShape@QMdiArea@@QAEXW4TabShape@QTabWidget@@@Z
?setTabShape@QTabWidget@@QAEXW4TabShape@1@@Z
?setTabStop@QTextOption@@QAEXN@Z
?setTabStopWidth@QPlainTextEdit@@QAEXH@Z
?setTabStopWidth@QTextEdit@@QAEXH@Z
?setTabText@QTabBar@@QAEXHABVQString@@@Z
?setTabText@QTabWidget@@QAEXHABVQString@@@Z
?setTabTextColor@QTabBar@@QAEXHABVQColor@@@Z
?setTabToolTip@QTabBar@@QAEXHABVQString@@@Z
?setTabToolTip@QTabWidget@@QAEXHABVQString@@@Z
?setTabToolTip@QTabWidget@@QAEXPAVQWidget@@ABVQString@@@Z
?setTabWhatsThis@QTabBar@@QAEXHABVQString@@@Z
?setTabWhatsThis@QTabWidget@@QAEXHABVQString@@@Z
?setTableCellColumnSpan@QTextCharFormat@@QAEXH@Z
?setTableCellRowSpan@QTextCharFormat@@QAEXH@Z
?setTabs@QTextOption@@QAEXV?$QList@UTab@QTextOption@@@@@Z
?setTearOffEnabled@QMenu@@QAEX_N@Z
?setText@QAbstractButton@@QAEXABVQString@@@Z
?setText@QAccessibleObject@@UAEXW4Text@QAccessible@@HABVQString@@@Z
?setText@QAccessibleObjectEx@@UAEXW4Text@QAccessible@@HABVQString@@@Z
?setText@QAction@@QAEXABVQString@@@Z
?setText@QClipboard@@QAEXABVQString@@W4Mode@1@@Z
?setText@QGraphicsSimpleTextItem@@QAEXABVQString@@@Z
?setText@QImage@@QAEXABVQString@@0@Z
?setText@QImage@@QAEXPBD0ABVQString@@@Z
?setText@QImageWriter@@QAEXABVQString@@0@Z
?setText@QLabel@@QAEXABVQString@@@Z
?setText@QLineEdit@@QAEXABVQString@@@Z
?setText@QListWidgetItem@@QAEXABVQString@@@Z
?setText@QMessageBox@@QAEXABVQString@@@Z
?setText@QStandardItem@@QAEXABVQString@@@Z
?setText@QTableWidgetItem@@QAEXABVQString@@@Z
?setText@QTextEdit@@QAEXABVQString@@@Z
?setText@QTextLayout@@QAEXABVQString@@@Z
?setText@QTreeWidgetItem@@QAEXHABVQString@@@Z
?setText@QUndoCommand@@QAEXABVQString@@@Z
?setTextAlignment@QListWidgetItem@@QAEXH@Z
?setTextAlignment@QStandardItem@@QAEXV?$QFlags@W4AlignmentFlag@Qt@@@@@Z
?setTextAlignment@QTableWidgetItem@@QAEXH@Z
?setTextAlignment@QTreeWidgetItem@@QAEXHH@Z
?setTextBackgroundColor@QTextEdit@@QAEXABVQColor@@@Z
?setTextColor@QListWidgetItem@@QAEXABVQColor@@@Z
?setTextColor@QTableWidgetItem@@QAEXABVQColor@@@Z
?setTextColor@QTextEdit@@QAEXABVQColor@@@Z
?setTextColor@QTreeWidgetItem@@QAEXHABVQColor@@@Z
?setTextCursor@QGraphicsTextItem@@QAEXABVQTextCursor@@@Z
?setTextCursor@QPlainTextEdit@@QAEXABVQTextCursor@@@Z
?setTextCursor@QTextControl@@QAEXABVQTextCursor@@@Z
?setTextCursor@QTextEdit@@QAEXABVQTextCursor@@@Z
?setTextDirection@QProgressBar@@QAEXW4Direction@1@@Z
?setTextDirection@QTextOption@@QAEXW4LayoutDirection@Qt@@@Z
?setTextElideMode@QAbstractItemView@@QAEXW4TextElideMode@Qt@@@Z
?setTextFormat@QLabel@@QAEXW4TextFormat@Qt@@@Z
?setTextFormat@QMessageBox@@QAEXW4TextFormat@Qt@@@Z
?setTextFormat@QTextEdit@@QAEXW4TextFormat@Qt@@@Z
?setTextIndent@QTextBlockFormat@@QAEXN@Z
?setTextInteractionFlags@QGraphicsTextItem@@QAEXV?$QFlags@W4TextInteractionFlag@Qt@@@@@Z
?setTextInteractionFlags@QLabel@@QAEXV?$QFlags@W4TextInteractionFlag@Qt@@@@@Z
?setTextInteractionFlags@QPlainTextEdit@@QAEXV?$QFlags@W4TextInteractionFlag@Qt@@@@@Z
?setTextInteractionFlags@QTextControl@@QAEXV?$QFlags@W4TextInteractionFlag@Qt@@@@@Z
?setTextInteractionFlags@QTextEdit@@QAEXV?$QFlags@W4TextInteractionFlag@Qt@@@@@Z
?setTextLabel@QToolButton@@QAEXABVQString@@_N@Z
?setTextOption@QTextLayout@@QAEXABVQTextOption@@@Z
?setTextOutline@QTextCharFormat@@QAEXABVQPen@@@Z
?setTextPosition@QToolButton@@QAEXW4TextPosition@1@@Z
?setTextVisible@QProgressBar@@QAEX_N@Z
?setTextWidth@QGraphicsTextItem@@QAEXN@Z
?setTextWidth@QPlainTextDocumentLayout@@AAEXN@Z
?setTextWidth@QTextControl@@QAEXN@Z
?setTextWidth@QTextDocument@@QAEXN@Z
?setTexture@QBrush@@QAEXABVQPixmap@@@Z
?setTextureImage@QBrush@@QAEXABVQImage@@@Z
?setTickInterval@QSlider@@QAEXH@Z
?setTickPosition@QSlider@@QAEXW4TickPosition@1@@Z
?setTickmarks@QSlider@@QAEXW4TickPosition@1@@Z
?setTime@QDateTimeEdit@@QAEXABVQTime@@@Z
?setTimeLine@QGraphicsItemAnimation@@QAEXPAVQTimeLine@@@Z
?setTimeRange@QDateTimeEdit@@QAEXABVQTime@@0@Z
?setTimeSpec@QDateTimeEdit@@QAEXW4TimeSpec@Qt@@@Z
?setTitle@QGroupBox@@QAEXABVQString@@@Z
?setTitle@QMenu@@QAEXABVQString@@@Z
?setTitle@QWizardPage@@QAEXABVQString@@@Z
?setTitleBarWidget@QDockWidget@@QAEXPAVQWidget@@@Z
?setTitleFormat@QWizard@@QAEXW4TextFormat@Qt@@@Z
?setToggleAction@QAction@@QAEX_N@Z
?setToggleButton@QAbstractButton@@QAEX_N@Z
?setToolButtonStyle@QMainWindow@@QAEXW4ToolButtonStyle@Qt@@@Z
?setToolButtonStyle@QToolBar@@QAEXW4ToolButtonStyle@Qt@@@Z
?setToolButtonStyle@QToolButton@@QAEXW4ToolButtonStyle@Qt@@@Z
?setToolTip@QAction@@QAEXABVQString@@@Z
?setToolTip@QGraphicsItem@@QAEXABVQString@@@Z
?setToolTip@QListWidgetItem@@QAEXABVQString@@@Z
?setToolTip@QStandardItem@@QAEXABVQString@@@Z
?setToolTip@QSystemTrayIcon@@QAEXABVQString@@@Z
?setToolTip@QTableWidgetItem@@QAEXABVQString@@@Z
?setToolTip@QTextCharFormat@@QAEXABVQString@@@Z
?setToolTip@QTreeWidgetItem@@QAEXHABVQString@@@Z
