Microsoft (R) COFF/PE Dumper Version 9.00.21022.08
Copyright (C) Microsoft Corporation.  All rights reserved.


Dump of file QtGui4.dll

File Type: DLL

  Section contains the following exports for QtGui4.dll

    00000000 characteristics
    4995C07A time date stamp Fri Feb 13 13:48:26 2009
        0.00 version
           1 ordinal base
       13143 number of functions
       13143 number of names

    ordinal hint RVA      name

          1    0 001FB210 ??0?$QList@VQItemSelectionRange@@@@QAE@ABV0@@Z
          2    1 001F50C0 ??0?$QList@VQItemSelectionRange@@@@QAE@XZ
          3    2 0000CB20 ??0AttributeSelector@QCss@@QAE@ABU01@@Z
          4    3 0000CA60 ??0AttributeSelector@QCss@@QAE@XZ
          5    4 00012D40 ??0BasicSelector@QCss@@QAE@ABU01@@Z
          6    5 000121F0 ??0BasicSelector@QCss@@QAE@XZ
          7    6 000116A0 ??0Declaration@QCss@@QAE@ABU01@@Z
          8    7 00010C20 ??0Declaration@QCss@@QAE@XZ
          9    8 00012F80 ??0ImportRule@QCss@@QAE@ABU01@@Z
         10    9 00012410 ??0ImportRule@QCss@@QAE@XZ
         11    A 0001A850 ??0MediaRule@QCss@@QAE@ABU01@@Z
         12    B 0001A6B0 ??0MediaRule@QCss@@QAE@XZ
         13    C 000148A0 ??0PageRule@QCss@@QAE@ABU01@@Z
         14    D 00012EA0 ??0PageRule@QCss@@QAE@XZ
         15    E 00011840 ??0Parser@QCss@@QAE@ABV01@@Z
         16    F 001CE050 ??0Parser@QCss@@QAE@ABVQString@@_N@Z
         17   10 001CDD60 ??0Parser@QCss@@QAE@XZ
         18   11 0000C9A0 ??0Pseudo@QCss@@QAE@ABU01@@Z
         19   12 0000C8E0 ??0Pseudo@QCss@@QAE@XZ
         20   13 00276270 ??0QAbstractButton@@IAE@AAVQAbstractButtonPrivate@@PAVQWidget@@@Z
         21   14 00044740 ??0QAbstractButton@@QAE@ABV0@@Z
         22   15 002761C0 ??0QAbstractButton@@QAE@PAVQWidget@@@Z
         23   16 00276440 ??0QAbstractButton@@QAE@PAVQWidget@@PBDV?$QFlags@W4WindowType@Qt@@@@@Z
         24   17 00401710 ??0QAbstractGraphicsShapeItem@@IAE@AAVQAbstractGraphicsShapeItemPrivate@@PAVQGraphicsItem@@PAVQGraphicsScene@@@Z
         25   18 0000D860 ??0QAbstractGraphicsShapeItem@@QAE@ABV0@@Z
         26   19 00401690 ??0QAbstractGraphicsShapeItem@@QAE@PAVQGraphicsItem@@PAVQGraphicsScene@@@Z
         27   1A 003AE650 ??0QAbstractItemDelegate@@IAE@AAVQObjectPrivate@@PAVQObject@@@Z
         28   1B 001F2AF0 ??0QAbstractItemDelegate@@QAE@ABV0@@Z
         29   1C 003AE630 ??0QAbstractItemDelegate@@QAE@PAVQObject@@@Z
         30   1D 003802A0 ??0QAbstractItemView@@IAE@AAVQAbstractItemViewPrivate@@PAVQWidget@@@Z
         31   1E 001F5E90 ??0QAbstractItemView@@QAE@ABV0@@Z
         32   1F 00380200 ??0QAbstractItemView@@QAE@PAVQWidget@@@Z
         33   20 00383050 ??0QAbstractItemViewPrivate@@QAE@ABV0@@Z
         34   21 0037FC20 ??0QAbstractItemViewPrivate@@QAE@XZ
         35   22 00339C90 ??0QAbstractPageSetupDialog@@QAE@AAVQAbstractPageSetupDialogPrivate@@PAVQPrinter@@PAVQWidget@@@Z
         36   23 000F3E10 ??0QAbstractPageSetupDialog@@QAE@ABV0@@Z
         37   24 00339B70 ??0QAbstractPageSetupDialog@@QAE@PAVQPrinter@@PAVQWidget@@@Z
         38   25 00339A00 ??0QAbstractPrintDialog@@IAE@AAVQAbstractPrintDialogPrivate@@PAVQPrinter@@PAVQWidget@@@Z
         39   26 000F3DC0 ??0QAbstractPrintDialog@@QAE@ABV0@@Z
         40   27 00339930 ??0QAbstractPrintDialog@@QAE@PAVQPrinter@@PAVQWidget@@@Z
         41   28 003D9110 ??0QAbstractProxyModel@@IAE@AAVQAbstractProxyModelPrivate@@PAVQObject@@@Z
         42   29 003330A0 ??0QAbstractProxyModel@@QAE@ABV0@@Z
         43   2A 003D9060 ??0QAbstractProxyModel@@QAE@PAVQObject@@@Z
         44   2B 00314230 ??0QAbstractScrollArea@@IAE@AAVQAbstractScrollAreaPrivate@@PAVQWidget@@@Z
         45   2C 0004F520 ??0QAbstractScrollArea@@QAE@ABV0@@Z
         46   2D 003142B0 ??0QAbstractScrollArea@@QAE@PAVQWidget@@@Z
         47   2E 00278740 ??0QAbstractSlider@@IAE@AAVQAbstractSliderPrivate@@PAVQWidget@@@Z
         48   2F 00005140 ??0QAbstractSlider@@QAE@ABV0@@Z
         49   30 002786B0 ??0QAbstractSlider@@QAE@PAVQWidget@@@Z
         50   31 0027DB00 ??0QAbstractSpinBox@@IAE@AAVQAbstractSpinBoxPrivate@@PAVQWidget@@@Z
         51   32 000050E0 ??0QAbstractSpinBox@@QAE@ABV0@@Z
         52   33 0027DA50 ??0QAbstractSpinBox@@QAE@PAVQWidget@@@Z
         53   34 001AA150 ??0QAbstractTextDocumentLayout@@IAE@AAVQAbstractTextDocumentLayoutPrivate@@PAVQTextDocument@@@Z
         54   35 000431B0 ??0QAbstractTextDocumentLayout@@QAE@ABV0@@Z
         55   36 001AAA90 ??0QAbstractTextDocumentLayout@@QAE@PAVQTextDocument@@@Z
         56   37 0003C2E0 ??0QAbstractUndoItem@@QAE@ABV0@@Z
         57   38 0003C2D0 ??0QAbstractUndoItem@@QAE@XZ
         58   39 00372F90 ??0QAccessible2Interface@@QAE@ABV0@@Z
         59   3A 00372F80 ??0QAccessible2Interface@@QAE@XZ
         60   3B 00372600 ??0QAccessibleApplication@@QAE@ABV0@@Z
         61   3C 003739F0 ??0QAccessibleApplication@@QAE@XZ
         62   3D 00372FD0 ??0QAccessibleEditableTextInterface@@QAE@ABV0@@Z
         63   3E 00372FC0 ??0QAccessibleEditableTextInterface@@QAE@XZ
         64   3F 0000C1A0 ??0QAccessibleEvent@@QAE@ABV0@@Z
         65   40 0000C2A0 ??0QAccessibleEvent@@QAE@W4Type@QEvent@@H@Z
         66   41 00372380 ??0QAccessibleFactoryInterface@@QAE@ABU0@@Z
         67   42 00372370 ??0QAccessibleFactoryInterface@@QAE@XZ
         68   43 0000C0A0 ??0QAccessibleInterface@@QAE@ABV0@@Z
         69   44 0000C090 ??0QAccessibleInterface@@QAE@XZ
         70   45 0000C0C0 ??0QAccessibleInterfaceEx@@QAE@ABV0@@Z
         71   46 0000C0B0 ??0QAccessibleInterfaceEx@@QAE@XZ
         72   47 003724F0 ??0QAccessibleObject@@QAE@ABV0@@Z
         73   48 00373890 ??0QAccessibleObject@@QAE@PAVQObject@@@Z
         74   49 00372570 ??0QAccessibleObjectEx@@QAE@ABV0@@Z
         75   4A 003737F0 ??0QAccessibleObjectEx@@QAE@PAVQObject@@@Z
         76   4B 00372450 ??0QAccessiblePlugin@@QAE@ABV0@@Z
         77   4C 00377690 ??0QAccessiblePlugin@@QAE@PAVQObject@@@Z
         78   4D 00372FE0 ??0QAccessibleSimpleEditableTextInterface@@QAE@ABV0@@Z
         79   4E 00373110 ??0QAccessibleSimpleEditableTextInterface@@QAE@PAVQAccessibleInterface@@@Z
         80   4F 003730A0 ??0QAccessibleTableInterface@@QAE@ABV0@@Z
         81   50 00373090 ??0QAccessibleTableInterface@@QAE@XZ
         82   51 00372FB0 ??0QAccessibleTextInterface@@QAE@ABV0@@Z
         83   52 00372FA0 ??0QAccessibleTextInterface@@QAE@XZ
         84   53 00373070 ??0QAccessibleValueInterface@@QAE@ABV0@@Z
         85   54 00373060 ??0QAccessibleValueInterface@@QAE@XZ
         86   55 00372680 ??0QAccessibleWidget@@QAE@ABV0@@Z
         87   56 00376080 ??0QAccessibleWidget@@QAE@PAVQWidget@@W4Role@QAccessible@@ABVQString@@@Z
         88   57 00372730 ??0QAccessibleWidgetEx@@QAE@ABV0@@Z
         89   58 00377110 ??0QAccessibleWidgetEx@@QAE@PAVQWidget@@W4Role@QAccessible@@ABVQString@@@Z
         90   59 00008820 ??0QAction@@IAE@AAVQActionPrivate@@PAVQObject@@@Z
         91   5A 000010E0 ??0QAction@@QAE@ABV0@@Z
         92   5B 00009960 ??0QAction@@QAE@ABVQIcon@@ABVQString@@ABVQKeySequence@@PAVQObject@@PBD@Z
         93   5C 00009640 ??0QAction@@QAE@ABVQIcon@@ABVQString@@PAVQObject@@@Z
         94   5D 00009850 ??0QAction@@QAE@ABVQString@@ABVQKeySequence@@PAVQObject@@PBD@Z
         95   5E 00009570 ??0QAction@@QAE@ABVQString@@PAVQObject@@@Z
         96   5F 000094B0 ??0QAction@@QAE@PAVQObject@@@Z
         97   60 00009760 ??0QAction@@QAE@PAVQObject@@PBD@Z
         98   61 0044AEC0 ??0QActionEvent@@QAE@ABV0@@Z
         99   62 00022EA0 ??0QActionEvent@@QAE@HPAVQAction@@0@Z
        100   63 000011F0 ??0QActionGroup@@QAE@ABV0@@Z
        101   64 0000B9B0 ??0QActionGroup@@QAE@PAVQObject@@@Z
        102   65 00019EF0 ??0QApplication@@QAE@AAHPAPAD@Z
        103   66 00019FD0 ??0QApplication@@QAE@AAHPAPADH@Z
        104   67 0001A2A0 ??0QApplication@@QAE@AAHPAPADW4Type@0@@Z
        105   68 0001A380 ??0QApplication@@QAE@AAHPAPADW4Type@0@H@Z
        106   69 0001A0C0 ??0QApplication@@QAE@AAHPAPAD_N@Z
        107   6A 0001A1B0 ??0QApplication@@QAE@AAHPAPAD_NH@Z
        108   6B 0044A4F0 ??0QApplication@@QAE@ABV0@@Z
        109   6C 00010D80 ??0QApplicationPrivate@@QAE@AAHPAPADW4Type@QApplication@@@Z
        110   6D 00009DA0 ??0QApplicationPrivate@@QAE@ABV0@@Z
        111   6E 00040250 ??0QBitmap@@QAE@ABV0@@Z
        112   6F 0044C5E0 ??0QBitmap@@QAE@ABVQImage@@@Z
        113   70 00075F60 ??0QBitmap@@QAE@ABVQPixmap@@@Z
        114   71 00075920 ??0QBitmap@@QAE@ABVQSize@@@Z
        115   72 00075EC0 ??0QBitmap@@QAE@ABVQSize@@PBE_N@Z
        116   73 0044A5C0 ??0QBitmap@@QAE@ABVQSize@@_N@Z
        117   74 00075970 ??0QBitmap@@QAE@ABVQString@@PBD@Z
        118   75 000758E0 ??0QBitmap@@QAE@HH@Z
        119   76 00075E10 ??0QBitmap@@QAE@HHPBE_N@Z
        120   77 0044A530 ??0QBitmap@@QAE@HH_N@Z
        121   78 000758B0 ??0QBitmap@@QAE@XZ
        122   79 0044CCB0 ??0QBoxLayout@@QAE@ABV0@@Z
        123   7A 0001BF90 ??0QBoxLayout@@QAE@PAVQLayout@@W4Direction@0@HPBD@Z
        124   7B 0001BE90 ??0QBoxLayout@@QAE@PAVQWidget@@W4Direction@0@HHPBD@Z
        125   7C 0001C080 ??0QBoxLayout@@QAE@W4Direction@0@HPBD@Z
        126   7D 0001BDF0 ??0QBoxLayout@@QAE@W4Direction@0@PAVQWidget@@@Z
        127   7E 0016B220 ??0QBrush@@QAE@ABV0@@Z
        128   7F 000C1C40 ??0QBrush@@QAE@ABVQColor@@ABVQPixmap@@@Z
        129   80 000C1B70 ??0QBrush@@QAE@ABVQColor@@W4BrushStyle@Qt@@@Z
        130   81 000C1DD0 ??0QBrush@@QAE@ABVQGradient@@@Z
        131   82 000C1A50 ??0QBrush@@QAE@ABVQImage@@@Z
        132   83 000C1980 ??0QBrush@@QAE@ABVQPixmap@@@Z
        133   84 000C1B00 ??0QBrush@@QAE@W4BrushStyle@Qt@@@Z
        134   85 000C1D00 ??0QBrush@@QAE@W4GlobalColor@Qt@@ABVQPixmap@@@Z
        135   86 000C1BD0 ??0QBrush@@QAE@W4GlobalColor@Qt@@W4BrushStyle@2@@Z
        136   87 000C0120 ??0QBrush@@QAE@XZ
        137   88 00275B60 ??0QButtonGroup@@QAE@ABV0@@Z
        138   89 002768F0 ??0QButtonGroup@@QAE@PAVQObject@@@Z
        139   8A 001D9590 ??0QCDEStyle@@QAE@ABV0@@Z
        140   8B 00211C60 ??0QCDEStyle@@QAE@_N@Z
        141   8C 002802A0 ??0QCalendarWidget@@QAE@ABV0@@Z
        142   8D 002842C0 ??0QCalendarWidget@@QAE@PAVQWidget@@@Z
        143   8E 001F5DE0 ??0QCheckBox@@QAE@ABV0@@Z
        144   8F 00285EF0 ??0QCheckBox@@QAE@ABVQString@@PAVQWidget@@@Z
        145   90 00286100 ??0QCheckBox@@QAE@ABVQString@@PAVQWidget@@PBD@Z
        146   91 00285E10 ??0QCheckBox@@QAE@PAVQWidget@@@Z
        147   92 00285FE0 ??0QCheckBox@@QAE@PAVQWidget@@PBD@Z
        148   93 001D9620 ??0QCleanlooksStyle@@QAE@ABV0@@Z
        149   94 00255680 ??0QCleanlooksStyle@@QAE@XZ
        150   95 0001F2E0 ??0QClipboard@@AAE@PAVQObject@@@Z
        151   96 0000C3D0 ??0QClipboard@@QAE@ABV0@@Z
        152   97 0044B0A0 ??0QClipboardEvent@@QAE@ABV0@@Z
        153   98 00023120 ??0QClipboardEvent@@QAE@PAVQEventPrivate@@@Z
        154   99 0044AAD0 ??0QCloseEvent@@QAE@ABV0@@Z
        155   9A 00022AA0 ??0QCloseEvent@@QAE@XZ
        156   9B 000C28D0 ??0QColor@@QAE@ABV0@@Z
        157   9C 004484C0 ??0QColor@@QAE@ABVQString@@@Z
        158   9D 00035E50 ??0QColor@@QAE@HHHH@Z
        159   9E 00448420 ??0QColor@@QAE@HHHW4Spec@0@@Z
        160   9F 000C2A60 ??0QColor@@QAE@I@Z
        161   A0 00368790 ??0QColor@@QAE@PBD@Z
        162   A1 000C4100 ??0QColor@@QAE@W4GlobalColor@Qt@@@Z
        163   A2 000C4140 ??0QColor@@QAE@W4Spec@0@@Z
        164   A3 00004950 ??0QColor@@QAE@XZ
        165   A4 0033E250 ??0QColorDialog@@AAE@PAVQWidget@@_N@Z
        166   A5 0033AD30 ??0QColorDialog@@QAE@ABV0@@Z
        167   A6 00036A10 ??0QColorGroup@@QAE@ABV0@@Z
        168   A7 004493C0 ??0QColorGroup@@QAE@ABVQBrush@@00000000@Z
        169   A8 00449400 ??0QColorGroup@@QAE@ABVQColor@@000000@Z
        170   A9 00036A10 ??0QColorGroup@@QAE@ABVQPalette@@@Z
        171   AA 00040240 ??0QColorGroup@@QAE@XZ
        172   AB 00137DD0 ??0QColormap@@AAE@XZ
        173   AC 0016B220 ??0QColormap@@QAE@ABV0@@Z
        174   AD 003ECEC0 ??0QColumnView@@IAE@AAVQColumnViewPrivate@@PAVQWidget@@@Z
        175   AE 003EC170 ??0QColumnView@@QAE@ABV0@@Z
        176   AF 003ED290 ??0QColumnView@@QAE@PAVQWidget@@@Z
        177   B0 00290190 ??0QComboBox@@IAE@AAVQComboBoxPrivate@@PAVQWidget@@@Z
        178   B1 001F5D40 ??0QComboBox@@QAE@ABV0@@Z
        179   B2 002900E0 ??0QComboBox@@QAE@PAVQWidget@@@Z
        180   B3 00290210 ??0QComboBox@@QAE@PAVQWidget@@PBD@Z
        181   B4 002902F0 ??0QComboBox@@QAE@_NPAVQWidget@@PBD@Z
        182   B5 00213C00 ??0QCommandLinkButton@@QAE@ABV0@@Z
        183   B6 002916D0 ??0QCommandLinkButton@@QAE@ABVQString@@0PAVQWidget@@@Z
        184   B7 00291620 ??0QCommandLinkButton@@QAE@ABVQString@@PAVQWidget@@@Z
        185   B8 00291580 ??0QCommandLinkButton@@QAE@PAVQWidget@@@Z
        186   B9 001DCA10 ??0QCommonStyle@@IAE@AAVQCommonStylePrivate@@@Z
        187   BA 0000ED90 ??0QCommonStyle@@QAE@ABV0@@Z
        188   BB 001DC990 ??0QCommonStyle@@QAE@XZ
        189   BC 002790E0 ??0QCompleter@@QAE@ABV0@@Z
        190   BD 00437CC0 ??0QCompleter@@QAE@ABVQStringList@@PAVQObject@@@Z
        191   BE 00437C20 ??0QCompleter@@QAE@PAVQAbstractItemModel@@PAVQObject@@@Z
        192   BF 00437B80 ??0QCompleter@@QAE@PAVQObject@@@Z
        193   C0 0022FD40 ??0QConicalGradient@@QAE@ABV0@@Z
        194   C1 000C0900 ??0QConicalGradient@@QAE@ABVQPointF@@N@Z
        195   C2 000C0990 ??0QConicalGradient@@QAE@NNN@Z
        196   C3 000C09E0 ??0QConicalGradient@@QAE@XZ
        197   C4 0044CA50 ??0QContextMenuEvent@@QAE@ABV0@@Z
        198   C5 000244B0 ??0QContextMenuEvent@@QAE@W4Reason@0@ABVQPoint@@1@Z
        199   C6 00024550 ??0QContextMenuEvent@@QAE@W4Reason@0@ABVQPoint@@1H@Z
        200   C7 00024500 ??0QContextMenuEvent@@QAE@W4Reason@0@ABVQPoint@@1V?$QFlags@W4KeyboardModifier@Qt@@@@@Z
        201   C8 000245A0 ??0QContextMenuEvent@@QAE@W4Reason@0@ABVQPoint@@@Z
        202   C9 00024630 ??0QContextMenuEvent@@QAE@W4Reason@0@ABVQPoint@@H@Z
        203   CA 0001FBA0 ??0QCursor@@QAE@ABV0@@Z
        204   CB 0001F950 ??0QCursor@@QAE@ABVQBitmap@@0HH@Z
        205   CC 0001FE90 ??0QCursor@@QAE@ABVQPixmap@@HH@Z
        206   CD 00062C40 ??0QCursor@@QAE@PAUHICON__@@@Z
        207   CE 0001FE60 ??0QCursor@@QAE@W4CursorShape@Qt@@@Z
        208   CF 0001FA10 ??0QCursor@@QAE@XZ
        209   D0 0004C920 ??0QDashStroker@@QAE@ABV0@@Z
        210   D1 000F7E70 ??0QDashStroker@@QAE@PAVQStroker@@@Z
        211   D2 003E9400 ??0QDataWidgetMapper@@QAE@ABV0@@Z
        212   D3 003EA220 ??0QDataWidgetMapper@@QAE@PAVQObject@@@Z
        213   D4 0027AC30 ??0QDateEdit@@QAE@ABV0@@Z
        214   D5 00299170 ??0QDateEdit@@QAE@ABVQDate@@PAVQWidget@@@Z
        215   D6 002990D0 ??0QDateEdit@@QAE@PAVQWidget@@@Z
        216   D7 00298EF0 ??0QDateTimeEdit@@IAE@ABVQVariant@@W4Type@1@PAVQWidget@@@Z
        217   D8 0027AB90 ??0QDateTimeEdit@@QAE@ABV0@@Z
        218   D9 00298D10 ??0QDateTimeEdit@@QAE@ABVQDate@@PAVQWidget@@@Z
        219   DA 00298BD0 ??0QDateTimeEdit@@QAE@ABVQDateTime@@PAVQWidget@@@Z
        220   DB 00298E00 ??0QDateTimeEdit@@QAE@ABVQTime@@PAVQWidget@@@Z
        221   DC 00298AC0 ??0QDateTimeEdit@@QAE@PAVQWidget@@@Z
        222   DD 0044A700 ??0QDesktopWidget@@QAE@ABV0@@Z
        223   DE 000645B0 ??0QDesktopWidget@@QAE@XZ
        224   DF 00299730 ??0QDial@@QAE@ABV0@@Z
        225   E0 002994E0 ??0QDial@@QAE@HHHHPAVQWidget@@PBD@Z
        226   E1 00299320 ??0QDial@@QAE@PAVQWidget@@@Z
        227   E2 002993E0 ??0QDial@@QAE@PAVQWidget@@PBD@Z
        228   E3 0033F960 ??0QDialog@@IAE@AAVQDialogPrivate@@PAVQWidget@@V?$QFlags@W4WindowType@Qt@@@@@Z
        229   E4 0000EF70 ??0QDialog@@QAE@ABV0@@Z
        230   E5 0033F820 ??0QDialog@@QAE@PAVQWidget@@PBD_NV?$QFlags@W4WindowType@Qt@@@@@Z
        231   E6 0033F750 ??0QDialog@@QAE@PAVQWidget@@V?$QFlags@W4WindowType@Qt@@@@@Z
        232   E7 001DF9A0 ??0QDialogButtonBox@@QAE@ABV0@@Z
        233   E8 0029A5B0 ??0QDialogButtonBox@@QAE@PAVQWidget@@@Z
        234   E9 0029BD50 ??0QDialogButtonBox@@QAE@V?$QFlags@W4StandardButton@QDialogButtonBox@@@@W4Orientation@Qt@@PAVQWidget@@@Z
        235   EA 0029A660 ??0QDialogButtonBox@@QAE@W4Orientation@Qt@@PAVQWidget@@@Z
        236   EB 003BBD80 ??0QDirModel@@IAE@AAVQDirModelPrivate@@PAVQObject@@@Z
        237   EC 003B8DD0 ??0QDirModel@@QAE@ABV0@@Z
        238   ED 003BB1B0 ??0QDirModel@@QAE@ABVQStringList@@V?$QFlags@W4Filter@QDir@@@@V?$QFlags@W4SortFlag@QDir@@@@PAVQObject@@@Z
        239   EE 003BBCE0 ??0QDirModel@@QAE@PAVQObject@@@Z
        240   EF 001DF920 ??0QDockWidget@@QAE@ABV0@@Z
        241   F0 0029FE80 ??0QDockWidget@@QAE@ABVQString@@PAVQWidget@@V?$QFlags@W4WindowType@Qt@@@@@Z
        242   F1 0029FDD0 ??0QDockWidget@@QAE@PAVQWidget@@V?$QFlags@W4WindowType@Qt@@@@@Z
        243   F2 0029E130 ??0QDockWidgetLayout@@QAE@ABV0@@Z
        244   F3 0029CF50 ??0QDockWidgetLayout@@QAE@PAVQWidget@@@Z
        245   F4 00213A40 ??0QDoubleSpinBox@@QAE@ABV0@@Z
        246   F5 002F2F40 ??0QDoubleSpinBox@@QAE@PAVQWidget@@@Z
        247   F6 00002140 ??0QDoubleValidator@@QAE@ABV0@@Z
        248   F7 003124B0 ??0QDoubleValidator@@QAE@NNHPAVQObject@@@Z
        249   F8 00312640 ??0QDoubleValidator@@QAE@NNHPAVQObject@@PBD@Z
        250   F9 00312400 ??0QDoubleValidator@@QAE@PAVQObject@@@Z
        251   FA 00312550 ??0QDoubleValidator@@QAE@PAVQObject@@PBD@Z
        252   FB 0044A830 ??0QDrag@@QAE@ABV0@@Z
        253   FC 00020880 ??0QDrag@@QAE@PAVQWidget@@@Z
        254   FD 0044D850 ??0QDragEnterEvent@@QAE@ABV0@@Z
        255   FE 000259A0 ??0QDragEnterEvent@@QAE@ABVQPoint@@V?$QFlags@W4DropAction@Qt@@@@PBVQMimeData@@V?$QFlags@W4MouseButton@Qt@@@@V?$QFlags@W4KeyboardModifier@Qt@@@@@Z
        256   FF 0044ACB0 ??0QDragLeaveEvent@@QAE@ABV0@@Z
        257  100 00022C80 ??0QDragLeaveEvent@@QAE@XZ
        258  101 00020F80 ??0QDragManager@@AAE@XZ
        259  102 00003A80 ??0QDragManager@@QAE@ABV0@@Z
        260  103 0044D7E0 ??0QDragMoveEvent@@QAE@ABV0@@Z
        261  104 000257F0 ??0QDragMoveEvent@@QAE@ABVQPoint@@V?$QFlags@W4DropAction@Qt@@@@PBVQMimeData@@V?$QFlags@W4MouseButton@Qt@@@@V?$QFlags@W4KeyboardModifier@Qt@@@@W4Type@QEvent@@@Z
        262  105 0044AC60 ??0QDragResponseEvent@@QAE@ABV0@@Z
        263  106 00022C50 ??0QDragResponseEvent@@QAE@_N@Z
        264  107 0044D690 ??0QDropEvent@@QAE@ABV0@@Z
        265  108 00025530 ??0QDropEvent@@QAE@ABVQPoint@@V?$QFlags@W4DropAction@Qt@@@@PBVQMimeData@@V?$QFlags@W4MouseButton@Qt@@@@V?$QFlags@W4KeyboardModifier@Qt@@@@W4Type@QEvent@@@Z
        266  109 00341060 ??0QErrorMessage@@QAE@ABV0@@Z
        267  10A 003411F0 ??0QErrorMessage@@QAE@PAVQWidget@@@Z
        268  10B 0034DCB0 ??0QFileDialog@@IAE@ABUQFileDialogArgs@@@Z
        269  10C 00334360 ??0QFileDialog@@QAE@ABV0@@Z
        270  10D 0034DBF0 ??0QFileDialog@@QAE@PAVQWidget@@ABVQString@@11@Z
        271  10E 0034DAE0 ??0QFileDialog@@QAE@PAVQWidget@@V?$QFlags@W4WindowType@Qt@@@@@Z
        272  10F 00332F60 ??0QFileIconProvider@@QAE@ABV0@@Z
        273  110 003EB3A0 ??0QFileIconProvider@@QAE@XZ
        274  111 0044AF20 ??0QFileOpenEvent@@QAE@ABV0@@Z
        275  112 00022F40 ??0QFileOpenEvent@@QAE@ABVQString@@@Z
        276  113 00362A70 ??0QFileSystemModel@@IAE@AAVQFileSystemModelPrivate@@PAVQObject@@@Z
        277  114 00332C80 ??0QFileSystemModel@@QAE@ABV0@@Z
        278  115 003629D0 ??0QFileSystemModel@@QAE@PAVQObject@@@Z
        279  116 0044A930 ??0QFocusEvent@@QAE@ABV0@@Z
        280  117 00022720 ??0QFocusEvent@@QAE@W4Type@QEvent@@W4FocusReason@Qt@@@Z
        281  118 00211E40 ??0QFocusFrame@@QAE@ABV0@@Z
        282  119 003168D0 ??0QFocusFrame@@QAE@PAVQWidget@@@Z
        283  11A 0015C4C0 ??0QFont@@AAE@PAVQFontPrivate@@@Z
        284  11B 0015C5D0 ??0QFont@@QAE@ABV0@@Z
        285  11C 0015D430 ??0QFont@@QAE@ABV0@PAVQPaintDevice@@@Z
        286  11D 0015C4E0 ??0QFont@@QAE@ABVQString@@HH_N@Z
        287  11E 0015E130 ??0QFont@@QAE@XZ
        288  11F 002AD640 ??0QFontComboBox@@QAE@ABV0@@Z
        289  120 002AEAD0 ??0QFontComboBox@@QAE@PAVQWidget@@@Z
        290  121 001754F0 ??0QFontDatabase@@QAE@XZ
        291  122 003506E0 ??0QFontDialog@@AAE@PAVQWidget@@_NV?$QFlags@W4WindowType@Qt@@@@@Z
        292  123 0034ECC0 ??0QFontDialog@@QAE@ABV0@@Z
        293  124 000CCA30 ??0QFontEngine@@QAE@ABV0@@Z
        294  125 00162A90 ??0QFontEngine@@QAE@XZ
        295  126 000CCBC0 ??0QFontEngineMulti@@QAE@ABV0@@Z
        296  127 00164AA0 ??0QFontEngineMulti@@QAE@H@Z
        297  128 0016B220 ??0QFontInfo@@QAE@ABV0@@Z
        298  129 0016B220 ??0QFontInfo@@QAE@ABVQFont@@@Z
        299  12A 0016B220 ??0QFontMetrics@@QAE@ABV0@@Z
        300  12B 0016B220 ??0QFontMetrics@@QAE@ABVQFont@@@Z
        301  12C 0016BA30 ??0QFontMetrics@@QAE@ABVQFont@@PAVQPaintDevice@@@Z
        302  12D 0016B220 ??0QFontMetricsF@@QAE@ABV0@@Z
        303  12E 0016B220 ??0QFontMetricsF@@QAE@ABVQFont@@@Z
        304  12F 0016C860 ??0QFontMetricsF@@QAE@ABVQFont@@PAVQPaintDevice@@@Z
        305  130 0016B220 ??0QFontMetricsF@@QAE@ABVQFontMetrics@@@Z
        306  131 0015C180 ??0QFontPrivate@@QAE@ABV0@@Z
        307  132 0015C0A0 ??0QFontPrivate@@QAE@XZ
        308  133 00026990 ??0QFormLayout@@QAE@ABV0@@Z
        309  134 00027070 ??0QFormLayout@@QAE@PAVQWidget@@@Z
        310  135 002AEF10 ??0QFrame@@IAE@AAVQFramePrivate@@PAVQWidget@@V?$QFlags@W4WindowType@Qt@@@@@Z
        311  136 00026530 ??0QFrame@@QAE@ABV0@@Z
        312  137 002AEF90 ??0QFrame@@QAE@PAVQWidget@@PBDV?$QFlags@W4WindowType@Qt@@@@@Z
        313  138 002AEE60 ??0QFrame@@QAE@PAVQWidget@@V?$QFlags@W4WindowType@Qt@@@@@Z
        314  139 00050960 ??0QFramePrivate@@QAE@ABV0@@Z
        315  13A 002AEC70 ??0QFramePrivate@@QAE@XZ
        316  13B 000D1390 ??0QGradient@@QAE@ABV0@@Z
        317  13C 000C0140 ??0QGradient@@QAE@XZ
        318  13D 0000D940 ??0QGraphicsEllipseItem@@QAE@ABV0@@Z
        319  13E 00401AA0 ??0QGraphicsEllipseItem@@QAE@ABVQRectF@@PAVQGraphicsItem@@PAVQGraphicsScene@@@Z
        320  13F 00401B40 ??0QGraphicsEllipseItem@@QAE@NNNNPAVQGraphicsItem@@PAVQGraphicsScene@@@Z
        321  140 00401C10 ??0QGraphicsEllipseItem@@QAE@PAVQGraphicsItem@@PAVQGraphicsScene@@@Z
        322  141 0042F0F0 ??0QGraphicsGridLayout@@QAE@ABV0@@Z
        323  142 0042FCE0 ??0QGraphicsGridLayout@@QAE@PAVQGraphicsLayoutItem@@@Z
        324  143 004012D0 ??0QGraphicsItem@@IAE@AAVQGraphicsItemPrivate@@PAV0@PAVQGraphicsScene@@@Z
        325  144 0000D520 ??0QGraphicsItem@@QAE@ABV0@@Z
        326  145 00401220 ??0QGraphicsItem@@QAE@PAV0@PAVQGraphicsScene@@@Z
        327  146 00402640 ??0QGraphicsItemAnimation@@QAE@ABV0@@Z
        328  147 00402D40 ??0QGraphicsItemAnimation@@QAE@PAVQObject@@@Z
        329  148 0000DDB0 ??0QGraphicsItemGroup@@QAE@ABV0@@Z
        330  149 004024C0 ??0QGraphicsItemGroup@@QAE@PAVQGraphicsItem@@PAVQGraphicsScene@@@Z
        331  14A 00420030 ??0QGraphicsLayout@@IAE@AAVQGraphicsLayoutPrivate@@PAVQGraphicsLayoutItem@@@Z
        332  14B 004044E0 ??0QGraphicsLayout@@QAE@ABV0@@Z
        333  14C 0041FF40 ??0QGraphicsLayout@@QAE@PAVQGraphicsLayoutItem@@@Z
        334  14D 004207E0 ??0QGraphicsLayoutItem@@IAE@AAVQGraphicsLayoutItemPrivate@@@Z
        335  14E 0000D250 ??0QGraphicsLayoutItem@@QAE@ABV0@@Z
        336  14F 00420B70 ??0QGraphicsLayoutItem@@QAE@PAV0@_N@Z
        337  150 0000DA50 ??0QGraphicsLineItem@@QAE@ABV0@@Z
        338  151 00401DC0 ??0QGraphicsLineItem@@QAE@ABVQLineF@@PAVQGraphicsItem@@PAVQGraphicsScene@@@Z
        339  152 00401E90 ??0QGraphicsLineItem@@QAE@NNNNPAVQGraphicsItem@@PAVQGraphicsScene@@@Z
        340  153 00401F50 ??0QGraphicsLineItem@@QAE@PAVQGraphicsItem@@PAVQGraphicsScene@@@Z
        341  154 004213E0 ??0QGraphicsLinearLayout@@QAE@ABV0@@Z
        342  155 00421F70 ??0QGraphicsLinearLayout@@QAE@PAVQGraphicsLayoutItem@@@Z
        343  156 00421EE0 ??0QGraphicsLinearLayout@@QAE@W4Orientation@Qt@@PAVQGraphicsLayoutItem@@@Z
        344  157 0000D890 ??0QGraphicsPathItem@@QAE@ABV0@@Z
        345  158 00401740 ??0QGraphicsPathItem@@QAE@ABVQPainterPath@@PAVQGraphicsItem@@PAVQGraphicsScene@@@Z
        346  159 00401820 ??0QGraphicsPathItem@@QAE@PAVQGraphicsItem@@PAVQGraphicsScene@@@Z
        347  15A 0000DAE0 ??0QGraphicsPixmapItem@@QAE@ABV0@@Z
        348  15B 00401FE0 ??0QGraphicsPixmapItem@@QAE@ABVQPixmap@@PAVQGraphicsItem@@PAVQGraphicsScene@@@Z
        349  15C 004020A0 ??0QGraphicsPixmapItem@@QAE@PAVQGraphicsItem@@PAVQGraphicsScene@@@Z
        350  15D 0000D9D0 ??0QGraphicsPolygonItem@@QAE@ABV0@@Z
        351  15E 00401CA0 ??0QGraphicsPolygonItem@@QAE@ABVQPolygonF@@PAVQGraphicsItem@@PAVQGraphicsScene@@@Z
        352  15F 00401D40 ??0QGraphicsPolygonItem@@QAE@PAVQGraphicsItem@@PAVQGraphicsScene@@@Z
        353  160 0000E190 ??0QGraphicsProxyWidget@@QAE@ABV0@@Z
        354  161 0042E5D0 ??0QGraphicsProxyWidget@@QAE@PAVQGraphicsItem@@V?$QFlags@W4WindowType@Qt@@@@@Z
        355  162 0000D8C0 ??0QGraphicsRectItem@@QAE@ABV0@@Z
        356  163 004018A0 ??0QGraphicsRectItem@@QAE@ABVQRectF@@PAVQGraphicsItem@@PAVQGraphicsScene@@@Z
        357  164 00401940 ??0QGraphicsRectItem@@QAE@NNNNPAVQGraphicsItem@@PAVQGraphicsScene@@@Z
        358  165 00401A10 ??0QGraphicsRectItem@@QAE@PAVQGraphicsItem@@PAVQGraphicsScene@@@Z
        359  166 00046C90 ??0QGraphicsScene@@QAE@ABV0@@Z
        360  167 00410A90 ??0QGraphicsScene@@QAE@ABVQRectF@@PAVQObject@@@Z
        361  168 00410B40 ??0QGraphicsScene@@QAE@NNNNPAVQObject@@@Z
        362  169 0040A990 ??0QGraphicsScene@@QAE@PAVQObject@@@Z
        363  16A 00177A40 ??0QGraphicsSceneContextMenuEvent@@QAE@ABV0@@Z
        364  16B 00415660 ??0QGraphicsSceneContextMenuEvent@@QAE@W4Type@QEvent@@@Z
        365  16C 00177C20 ??0QGraphicsSceneDragDropEvent@@QAE@ABV0@@Z
        366  16D 004158B0 ??0QGraphicsSceneDragDropEvent@@QAE@W4Type@QEvent@@@Z
        367  16E 00414E20 ??0QGraphicsSceneEvent@@IAE@AAVQGraphicsSceneEventPrivate@@W4Type@QEvent@@@Z
        368  16F 00177870 ??0QGraphicsSceneEvent@@QAE@ABV0@@Z
        369  170 00414D90 ??0QGraphicsSceneEvent@@QAE@W4Type@QEvent@@@Z
        370  171 00177B80 ??0QGraphicsSceneHelpEvent@@QAE@ABV0@@Z
        371  172 00415790 ??0QGraphicsSceneHelpEvent@@QAE@W4Type@QEvent@@@Z
        372  173 00177AE0 ??0QGraphicsSceneHoverEvent@@QAE@ABV0@@Z
        373  174 00415980 ??0QGraphicsSceneHoverEvent@@QAE@W4Type@QEvent@@@Z
        374  175 00177900 ??0QGraphicsSceneMouseEvent@@QAE@ABV0@@Z
        375  176 00415BC0 ??0QGraphicsSceneMouseEvent@@QAE@W4Type@QEvent@@@Z
        376  177 00177D50 ??0QGraphicsSceneMoveEvent@@QAE@ABV0@@Z
        377  178 00415410 ??0QGraphicsSceneMoveEvent@@QAE@XZ
        378  179 00177CC0 ??0QGraphicsSceneResizeEvent@@QAE@ABV0@@Z
        379  17A 00415320 ??0QGraphicsSceneResizeEvent@@QAE@XZ
        380  17B 001779A0 ??0QGraphicsSceneWheelEvent@@QAE@ABV0@@Z
        381  17C 00415560 ??0QGraphicsSceneWheelEvent@@QAE@W4Type@QEvent@@@Z
        382  17D 0000DD80 ??0QGraphicsSimpleTextItem@@QAE@ABV0@@Z
        383  17E 00402400 ??0QGraphicsSimpleTextItem@@QAE@ABVQString@@PAVQGraphicsItem@@PAVQGraphicsScene@@@Z
        384  17F 00402370 ??0QGraphicsSimpleTextItem@@QAE@PAVQGraphicsItem@@PAVQGraphicsScene@@@Z
        385  180 0000DC80 ??0QGraphicsTextItem@@QAE@ABV0@@Z
        386  181 00402130 ??0QGraphicsTextItem@@QAE@ABVQString@@PAVQGraphicsItem@@PAVQGraphicsScene@@@Z
        387  182 00402220 ??0QGraphicsTextItem@@QAE@PAVQGraphicsItem@@PAVQGraphicsScene@@@Z
        388  183 0026D9F0 ??0QGraphicsView@@QAE@ABV0@@Z
        389  184 0041BDF0 ??0QGraphicsView@@QAE@PAVQGraphicsScene@@PAVQWidget@@@Z
        390  185 004196F0 ??0QGraphicsView@@QAE@PAVQWidget@@@Z
        391  186 00422D50 ??0QGraphicsWidget@@IAE@AAVQGraphicsWidgetPrivate@@PAVQGraphicsItem@@PAVQGraphicsScene@@V?$QFlags@W4WindowType@Qt@@@@@Z
        392  187 0000DF70 ??0QGraphicsWidget@@QAE@ABV0@@Z
        393  188 00423AF0 ??0QGraphicsWidget@@QAE@PAVQGraphicsItem@@V?$QFlags@W4WindowType@Qt@@@@@Z
        394  189 0044CF80 ??0QGridLayout@@QAE@ABV0@@Z
        395  18A 0002D560 ??0QGridLayout@@QAE@HHHPBD@Z
        396  18B 0002D440 ??0QGridLayout@@QAE@PAVQLayout@@HHHPBD@Z
        397  18C 0002D170 ??0QGridLayout@@QAE@PAVQWidget@@@Z
        398  18D 0002D310 ??0QGridLayout@@QAE@PAVQWidget@@HHHHPBD@Z
        399  18E 0002D240 ??0QGridLayout@@QAE@XZ
        400  18F 001DFA00 ??0QGroupBox@@QAE@ABV0@@Z
        401  190 002B0730 ??0QGroupBox@@QAE@ABVQString@@PAVQWidget@@@Z
        402  191 002B0590 ??0QGroupBox@@QAE@ABVQString@@PAVQWidget@@PBD@Z
        403  192 002B0680 ??0QGroupBox@@QAE@PAVQWidget@@@Z
        404  193 002B04B0 ??0QGroupBox@@QAE@PAVQWidget@@PBD@Z
        405  194 0044CCF0 ??0QHBoxLayout@@QAE@ABV0@@Z
        406  195 0001DD50 ??0QHBoxLayout@@QAE@HPBD@Z
        407  196 0001DC80 ??0QHBoxLayout@@QAE@PAVQLayout@@HPBD@Z
        408  197 0001DB70 ??0QHBoxLayout@@QAE@PAVQWidget@@@Z
        409  198 0001DBC0 ??0QHBoxLayout@@QAE@PAVQWidget@@HHPBD@Z
        410  199 0001DBA0 ??0QHBoxLayout@@QAE@XZ
        411  19A 00386AF0 ??0QHeaderView@@IAE@AAVQHeaderViewPrivate@@W4Orientation@Qt@@PAVQWidget@@@Z
        412  19B 001F5EC0 ??0QHeaderView@@QAE@ABV0@@Z
        413  19C 00387EF0 ??0QHeaderView@@QAE@W4Orientation@Qt@@PAVQWidget@@@Z
        414  19D 0044AD10 ??0QHelpEvent@@QAE@ABV0@@Z
        415  19E 00022CB0 ??0QHelpEvent@@QAE@W4Type@QEvent@@ABVQPoint@@1@Z
        416  19F 0044AB30 ??0QHideEvent@@QAE@ABV0@@Z
        417  1A0 00022EE0 ??0QHideEvent@@QAE@XZ
        418  1A1 0044A850 ??0QHoverEvent@@QAE@ABV0@@Z
        419  1A2 00022620 ??0QHoverEvent@@QAE@W4Type@QEvent@@ABVQPoint@@1@Z
        420  1A3 000DB230 ??0QIcon@@QAE@ABV0@@Z
        421  1A4 00078440 ??0QIcon@@QAE@ABVQPixmap@@@Z
        422  1A5 00078460 ??0QIcon@@QAE@ABVQString@@@Z
        423  1A6 00076750 ??0QIcon@@QAE@PAVQIconEngine@@@Z
        424  1A7 000767F0 ??0QIcon@@QAE@PAVQIconEngineV2@@@Z
        425  1A8 00076740 ??0QIcon@@QAE@XZ
        426  1A9 0044AAF0 ??0QIconDragEvent@@QAE@ABV0@@Z
        427  1AA 00022AD0 ??0QIconDragEvent@@QAE@XZ
        428  1AB 000760A0 ??0QIconEngine@@QAE@ABV0@@Z
        429  1AC 00076090 ??0QIconEngine@@QAE@XZ
        430  1AD 000761B0 ??0QIconEngineFactoryInterface@@QAE@ABU0@@Z
        431  1AE 000761A0 ??0QIconEngineFactoryInterface@@QAE@XZ
        432  1AF 00076390 ??0QIconEngineFactoryInterfaceV2@@QAE@ABU0@@Z
        433  1B0 00076380 ??0QIconEngineFactoryInterfaceV2@@QAE@XZ
        434  1B1 000762E0 ??0QIconEnginePlugin@@QAE@ABV0@@Z
        435  1B2 0009A930 ??0QIconEnginePlugin@@QAE@PAVQObject@@@Z
        436  1B3 00076460 ??0QIconEnginePluginV2@@QAE@ABV0@@Z
        437  1B4 0009A980 ??0QIconEnginePluginV2@@QAE@PAVQObject@@@Z
        438  1B5 00076130 ??0QIconEngineV2@@QAE@ABV0@@Z
        439  1B6 00076110 ??0QIconEngineV2@@QAE@XZ
        440  1B7 00079530 ??0QImage@@QAE@ABV0@@Z
        441  1B8 00449060 ??0QImage@@QAE@ABVQByteArray@@@Z
        442  1B9 000831F0 ??0QImage@@QAE@ABVQSize@@HHW4Endian@0@@Z
        443  1BA 00082FF0 ??0QImage@@QAE@ABVQSize@@W4Format@0@@Z
        444  1BB 00083060 ??0QImage@@QAE@ABVQString@@PBD@Z
        445  1BC 00083160 ??0QImage@@QAE@HHHHW4Endian@0@@Z
        446  1BD 00082F70 ??0QImage@@QAE@HHW4Format@0@@Z
        447  1BE 000873A0 ??0QImage@@QAE@PAEHHHPBIHW4Endian@0@@Z
        448  1BF 000808B0 ??0QImage@@QAE@PAEHHHW4Format@0@@Z
        449  1C0 000807B0 ??0QImage@@QAE@PAEHHW4Format@0@@Z
        450  1C1 000830D0 ??0QImage@@QAE@PBD0@Z
        451  1C2 00080930 ??0QImage@@QAE@PBEHHHW4Format@0@@Z
        452  1C3 00080830 ??0QImage@@QAE@PBEHHW4Format@0@@Z
        453  1C4 000794B0 ??0QImage@@QAE@QBQBD@Z
        454  1C5 00079490 ??0QImage@@QAE@XZ
        455  1C6 00089E70 ??0QImageIOHandler@@IAE@AAVQImageIOHandlerPrivate@@@Z
        456  1C7 00020B50 ??0QImageIOHandler@@QAE@ABV0@@Z
        457  1C8 00089DE0 ??0QImageIOHandler@@QAE@XZ
        458  1C9 00020BE0 ??0QImageIOHandlerFactoryInterface@@QAE@ABU0@@Z
        459  1CA 00020BD0 ??0QImageIOHandlerFactoryInterface@@QAE@XZ
        460  1CB 00020CB0 ??0QImageIOPlugin@@QAE@ABV0@@Z
        461  1CC 00089F50 ??0QImageIOPlugin@@QAE@PAVQObject@@@Z
        462  1CD 0008A960 ??0QImageReader@@QAE@ABVQString@@ABVQByteArray@@@Z
        463  1CE 0008A8E0 ??0QImageReader@@QAE@PAVQIODevice@@ABVQByteArray@@@Z
        464  1CF 0008A860 ??0QImageReader@@QAE@XZ
        465  1D0 0007A190 ??0QImageTextKeyLang@@QAE@ABV0@@Z
        466  1D1 00448C80 ??0QImageTextKeyLang@@QAE@PBD0@Z
        467  1D2 0007A0D0 ??0QImageTextKeyLang@@QAE@XZ
        468  1D3 0008D4C0 ??0QImageWriter@@QAE@ABVQString@@ABVQByteArray@@@Z
        469  1D4 0008D440 ??0QImageWriter@@QAE@PAVQIODevice@@ABVQByteArray@@@Z
        470  1D5 0008D3C0 ??0QImageWriter@@QAE@XZ
        471  1D6 003F20B0 ??0QInputContext@@QAE@PAVQObject@@@Z
        472  1D7 003F1910 ??0QInputContextFactoryInterface@@QAE@ABU0@@Z
        473  1D8 003F1900 ??0QInputContextFactoryInterface@@QAE@XZ
        474  1D9 003F19E0 ??0QInputContextPlugin@@QAE@ABV0@@Z
        475  1DA 003F2060 ??0QInputContextPlugin@@QAE@PAVQObject@@@Z
        476  1DB 00352120 ??0QInputDialog@@AAE@ABVQString@@0PAVQWidget@@1V?$QFlags@W4WindowType@Qt@@@@@Z
        477  1DC 00352060 ??0QInputDialog@@AAE@ABVQString@@PAVQWidget@@W4Type@0@V?$QFlags@W4WindowType@Qt@@@@@Z
        478  1DD 00213BD0 ??0QInputDialog@@QAE@ABV0@@Z
        479  1DE 00024830 ??0QInputEvent@@QAE@ABV0@@Z
        480  1DF 00023CC0 ??0QInputEvent@@QAE@W4Type@QEvent@@V?$QFlags@W4KeyboardModifier@Qt@@@@@Z
        481  1E0 00025C40 ??0QInputMethodEvent@@QAE@ABV0@@Z
        482  1E1 00025B90 ??0QInputMethodEvent@@QAE@ABVQString@@ABV?$QList@VAttribute@QInputMethodEvent@@@@@Z
        483  1E2 00025760 ??0QInputMethodEvent@@QAE@XZ
        484  1E3 00001FC0 ??0QIntValidator@@QAE@ABV0@@Z
        485  1E4 00311FF0 ??0QIntValidator@@QAE@HHPAVQObject@@@Z
        486  1E5 003120C0 ??0QIntValidator@@QAE@HHPAVQObject@@PBD@Z
        487  1E6 00311FC0 ??0QIntValidator@@QAE@PAVQObject@@@Z
        488  1E7 00312020 ??0QIntValidator@@QAE@PAVQObject@@PBD@Z
        489  1E8 0027DD00 ??0QItemDelegate@@QAE@ABV0@@Z
        490  1E9 003AF640 ??0QItemDelegate@@QAE@PAVQObject@@@Z
        491  1EA 003AE900 ??0QItemEditorCreatorBase@@QAE@ABV0@@Z
        492  1EB 003AE8F0 ??0QItemEditorCreatorBase@@QAE@XZ
        493  1EC 003B25E0 ??0QItemEditorFactory@@QAE@ABV0@@Z
        494  1ED 003B11B0 ??0QItemEditorFactory@@QAE@XZ
        495  1EE 001FB210 ??0QItemSelection@@QAE@ABV0@@Z
        496  1EF 003B61F0 ??0QItemSelection@@QAE@ABVQModelIndex@@0@Z
        497  1F0 001F50C0 ??0QItemSelection@@QAE@XZ
        498  1F1 003B2CD0 ??0QItemSelectionModel@@IAE@AAVQItemSelectionModelPrivate@@PAVQAbstractItemModel@@@Z
        499  1F2 001F3BE0 ??0QItemSelectionModel@@QAE@ABV0@@Z
        500  1F3 003B3890 ??0QItemSelectionModel@@QAE@PAVQAbstractItemModel@@@Z
        501  1F4 003B39B0 ??0QItemSelectionModel@@QAE@PAVQAbstractItemModel@@PAVQObject@@@Z
        502  1F5 001F34E0 ??0QItemSelectionRange@@QAE@ABV0@@Z
        503  1F6 001F3AA0 ??0QItemSelectionRange@@QAE@ABVQModelIndex@@0@Z
        504  1F7 001F3540 ??0QItemSelectionRange@@QAE@ABVQModelIndex@@@Z
        505  1F8 001F3480 ??0QItemSelectionRange@@QAE@XZ
        506  1F9 0044C9C0 ??0QKeyEvent@@QAE@ABV0@@Z
        507  1FA 0044C8E0 ??0QKeyEvent@@QAE@W4Type@QEvent@@HHHABVQString@@_NG@Z
        508  1FB 00024340 ??0QKeyEvent@@QAE@W4Type@QEvent@@HV?$QFlags@W4KeyboardModifier@Qt@@@@ABVQString@@_NG@Z
        509  1FC 00024430 ??0QKeyEventEx@@QAE@ABV0@@Z
        510  1FD 000243D0 ??0QKeyEventEx@@QAE@W4Type@QEvent@@HV?$QFlags@W4KeyboardModifier@Qt@@@@ABVQString@@_NGIII@Z
        511  1FE 0016B220 ??0QKeySequence@@QAE@ABV0@@Z
        512  1FF 00030A60 ??0QKeySequence@@QAE@ABVQString@@@Z
        513  200 0002DE70 ??0QKeySequence@@QAE@HHHH@Z
        514  201 0002F4F0 ??0QKeySequence@@QAE@W4StandardKey@0@@Z
        515  202 0002DDE0 ??0QKeySequence@@QAE@XZ
        516  203 002B5B70 ??0QLCDNumber@@QAE@ABV0@@Z
        517  204 002B8C80 ??0QLCDNumber@@QAE@IPAVQWidget@@@Z
        518  205 002B8AE0 ??0QLCDNumber@@QAE@IPAVQWidget@@PBD@Z
        519  206 002B8BD0 ??0QLCDNumber@@QAE@PAVQWidget@@@Z
        520  207 002B89F0 ??0QLCDNumber@@QAE@PAVQWidget@@PBD@Z
        521  208 000265D0 ??0QLabel@@QAE@ABV0@@Z
        522  209 002B3780 ??0QLabel@@QAE@ABVQString@@PAVQWidget@@PBDV?$QFlags@W4WindowType@Qt@@@@@Z
        523  20A 002B36C0 ??0QLabel@@QAE@ABVQString@@PAVQWidget@@V?$QFlags@W4WindowType@Qt@@@@@Z
        524  20B 002B3870 ??0QLabel@@QAE@PAVQWidget@@ABVQString@@0PBDV?$QFlags@W4WindowType@Qt@@@@@Z
        525  20C 002B2660 ??0QLabel@@QAE@PAVQWidget@@PBDV?$QFlags@W4WindowType@Qt@@@@@Z
        526  20D 002B25B0 ??0QLabel@@QAE@PAVQWidget@@V?$QFlags@W4WindowType@Qt@@@@@Z
        527  20E 000322F0 ??0QLayout@@IAE@AAVQLayoutPrivate@@PAV0@PAVQWidget@@@Z
        528  20F 00026940 ??0QLayout@@QAE@ABV0@@Z
        529  210 00031EE0 ??0QLayout@@QAE@HPBD@Z
        530  211 00031DF0 ??0QLayout@@QAE@PAV0@HPBD@Z
        531  212 00031C10 ??0QLayout@@QAE@PAVQWidget@@@Z
        532  213 00032490 ??0QLayout@@QAE@PAVQWidget@@HHPBD@Z
        533  214 00031CC0 ??0QLayout@@QAE@XZ
        534  215 00026920 ??0QLayoutItem@@QAE@ABV0@@Z
        535  216 00031AE0 ??0QLayoutItem@@QAE@V?$QFlags@W4AlignmentFlag@Qt@@@@@Z
        536  217 0044B130 ??0QLayoutIterator@@AAE@PAVQLayout@@_N@Z
        537  218 00177DE0 ??0QLayoutIterator@@QAE@ABV0@@Z
        538  219 0044B110 ??0QLayoutIterator@@QAE@PAVQLayout@@@Z
        539  21A 0001B250 ??0QLayoutPrivate@@QAE@ABV0@@Z
        540  21B 00030D80 ??0QLayoutPrivate@@QAE@XZ
        541  21C 0017A050 ??0QLineEdit@@QAE@ABV0@@Z
        542  21D 002C0040 ??0QLineEdit@@QAE@ABVQString@@0PAVQWidget@@PBD@Z
        543  21E 002BDCE0 ??0QLineEdit@@QAE@ABVQString@@PAVQWidget@@@Z
        544  21F 002BDE90 ??0QLineEdit@@QAE@ABVQString@@PAVQWidget@@PBD@Z
        545  220 002BDC10 ??0QLineEdit@@QAE@PAVQWidget@@@Z
        546  221 002BDD90 ??0QLineEdit@@QAE@PAVQWidget@@PBD@Z
        547  222 0022FD40 ??0QLinearGradient@@QAE@ABV0@@Z
        548  223 000C0530 ??0QLinearGradient@@QAE@ABVQPointF@@0@Z
        549  224 000C05D0 ??0QLinearGradient@@QAE@NNNN@Z
        550  225 000C04F0 ??0QLinearGradient@@QAE@XZ
        551  226 003965D0 ??0QListView@@IAE@AAVQListViewPrivate@@PAVQWidget@@@Z
        552  227 00211D80 ??0QListView@@QAE@ABV0@@Z
        553  228 00396510 ??0QListView@@QAE@PAVQWidget@@@Z
        554  229 003343A0 ??0QListWidget@@QAE@ABV0@@Z
        555  22A 003BF920 ??0QListWidget@@QAE@PAVQWidget@@@Z
        556  22B 003C0CD0 ??0QListWidgetItem@@QAE@ABV0@@Z
        557  22C 003C3C10 ??0QListWidgetItem@@QAE@ABVQIcon@@ABVQString@@PAVQListWidget@@H@Z
        558  22D 003C3AD0 ??0QListWidgetItem@@QAE@ABVQString@@PAVQListWidget@@H@Z
        559  22E 003C2890 ??0QListWidgetItem@@QAE@PAVQListWidget@@H@Z
        560  22F 001F5F40 ??0QMainWindow@@QAE@ABV0@@Z
        561  230 002C3020 ??0QMainWindow@@QAE@PAVQWidget@@PBDV?$QFlags@W4WindowType@Qt@@@@@Z
        562  231 002C2F70 ??0QMainWindow@@QAE@PAVQWidget@@V?$QFlags@W4WindowType@Qt@@@@@Z
        563  232 000FE710 ??0QMatrix@@QAE@ABV0@@Z
        564  233 000FDF40 ??0QMatrix@@QAE@NNNNNN@Z
        565  234 000FDF20 ??0QMatrix@@QAE@XZ
        566  235 002CA610 ??0QMdiArea@@QAE@ABV0@@Z
        567  236 002CC310 ??0QMdiArea@@QAE@PAVQWidget@@@Z
        568  237 001F5FC0 ??0QMdiSubWindow@@QAE@ABV0@@Z
        569  238 002D96C0 ??0QMdiSubWindow@@QAE@PAVQWidget@@V?$QFlags@W4WindowType@Qt@@@@@Z
        570  239 002DC9B0 ??0QMenu@@IAE@AAVQMenuPrivate@@PAVQWidget@@@Z
        571  23A 00004DD0 ??0QMenu@@QAE@ABV0@@Z
        572  23B 002DE2E0 ??0QMenu@@QAE@ABVQString@@PAVQWidget@@@Z
        573  23C 002DE230 ??0QMenu@@QAE@PAVQWidget@@@Z
        574  23D 00005080 ??0QMenuBar@@QAE@ABV0@@Z
        575  23E 002E7180 ??0QMenuBar@@QAE@PAVQWidget@@@Z
        576  23F 002E7230 ??0QMenuBar@@QAE@PAVQWidget@@PBD@Z
        577  240 002DBF50 ??0QMenuItem@@QAE@ABV0@@Z
        578  241 002EAE00 ??0QMenuItem@@QAE@XZ
        579  242 0044B0C0 ??0QMenubarUpdatedEvent@@QAE@ABV0@@Z
        580  243 00023170 ??0QMenubarUpdatedEvent@@QAE@QAVQMenuBar@@@Z
        581  244 0000F0B0 ??0QMessageBox@@QAE@ABV0@@Z
        582  245 003552C0 ??0QMessageBox@@QAE@ABVQString@@0W4Icon@0@HHHPAVQWidget@@PBD_NV?$QFlags@W4WindowType@Qt@@@@@Z
        583  246 00354F70 ??0QMessageBox@@QAE@ABVQString@@0W4Icon@0@HHHPAVQWidget@@V?$QFlags@W4WindowType@Qt@@@@@Z
        584  247 00354330 ??0QMessageBox@@QAE@PAVQWidget@@@Z
        585  248 003553F0 ??0QMessageBox@@QAE@PAVQWidget@@PBD@Z
        586  249 00355540 ??0QMessageBox@@QAE@W4Icon@0@ABVQString@@1V?$QFlags@W4StandardButton@QMessageBox@@@@PAVQWidget@@V?$QFlags@W4WindowType@Qt@@@@@Z
        587  24A 0044A750 ??0QMimeSource@@QAE@ABV0@@Z
        588  24B 0001E940 ??0QMimeSource@@QAE@XZ
        589  24C 0026DAD0 ??0QMotifStyle@@IAE@AAVQMotifStylePrivate@@_N@Z
        590  24D 001D9520 ??0QMotifStyle@@QAE@ABV0@@Z
        591  24E 00275730 ??0QMotifStyle@@QAE@_N@Z
        592  24F 00024860 ??0QMouseEvent@@QAE@ABV0@@Z
        593  250 00023E80 ??0QMouseEvent@@QAE@W4Type@QEvent@@ABVQPoint@@1HH@Z
        594  251 00023F50 ??0QMouseEvent@@QAE@W4Type@QEvent@@ABVQPoint@@1W4MouseButton@Qt@@V?$QFlags@W4MouseButton@Qt@@@@V?$QFlags@W4KeyboardModifier@Qt@@@@@Z
        595  252 00023D90 ??0QMouseEvent@@QAE@W4Type@QEvent@@ABVQPoint@@HH@Z
        596  253 00023CF0 ??0QMouseEvent@@QAE@W4Type@QEvent@@ABVQPoint@@W4MouseButton@Qt@@V?$QFlags@W4MouseButton@Qt@@@@V?$QFlags@W4KeyboardModifier@Qt@@@@@Z
        597  254 000249A0 ??0QMouseEventEx@@QAE@ABV0@@Z
        598  255 00023FE0 ??0QMouseEventEx@@QAE@W4Type@QEvent@@ABVQPointF@@ABVQPoint@@W4MouseButton@Qt@@V?$QFlags@W4MouseButton@Qt@@@@V?$QFlags@W4KeyboardModifier@Qt@@@@@Z
        599  256 0044AA50 ??0QMoveEvent@@QAE@ABV0@@Z
        600  257 00022A00 ??0QMoveEvent@@QAE@ABVQPoint@@0@Z
        601  258 0009AA90 ??0QMovie@@QAE@ABV0@@Z
        602  259 0009B820 ??0QMovie@@QAE@ABVQString@@ABVQByteArray@@PAVQObject@@@Z
        603  25A 0009B720 ??0QMovie@@QAE@PAVQIODevice@@ABVQByteArray@@PAVQObject@@@Z
        604  25B 0009B640 ??0QMovie@@QAE@PAVQObject@@@Z
        605  25C 000F3E30 ??0QPageSetupDialog@@QAE@ABV0@@Z
        606  25D 00337890 ??0QPageSetupDialog@@QAE@PAVQPrinter@@PAVQWidget@@@Z
        607  25E 00138500 ??0QPaintDevice@@IAE@XZ
        608  25F 000048B0 ??0QPaintDevice@@QAE@ABV0@@Z
        609  260 000CC6B0 ??0QPaintEngine@@IAE@AAVQPaintEnginePrivate@@V?$QFlags@W4PaintEngineFeature@QPaintEngine@@@@@Z
        610  261 000484E0 ??0QPaintEngine@@QAE@ABV0@@Z
        611  262 000CC630 ??0QPaintEngine@@QAE@V?$QFlags@W4PaintEngineFeature@QPaintEngine@@@@@Z
        612  263 000430C0 ??0QPaintEngineState@@QAE@ABV0@@Z
        613  264 00076740 ??0QPaintEngineState@@QAE@XZ
        614  265 0044A980 ??0QPaintEvent@@QAE@ABV0@@Z
        615  266 000227E0 ??0QPaintEvent@@QAE@ABVQRect@@@Z
        616  267 00022760 ??0QPaintEvent@@QAE@ABVQRegion@@@Z
        617  268 00022860 ??0QPaintEvent@@QAE@ABVQRegion@@ABVQRect@@@Z
        618  269 000D5630 ??0QPainter@@QAE@PAVQPaintDevice@@@Z
        619  26A 000D3000 ??0QPainter@@QAE@XZ
        620  26B 000DB230 ??0QPainterPath@@QAE@ABV0@@Z
        621  26C 000DCE60 ??0QPainterPath@@QAE@ABVQPointF@@@Z
        622  26D 00076740 ??0QPainterPath@@QAE@XZ
        623  26E 000DFB10 ??0QPainterPathStroker@@QAE@XZ
        624  26F 00036A10 ??0QPalette@@QAE@ABV0@@Z
        625  270 00037A40 ??0QPalette@@QAE@ABVQBrush@@00000000@Z
        626  271 00037A90 ??0QPalette@@QAE@ABVQColor@@000000@Z
        627  272 00037C60 ??0QPalette@@QAE@ABVQColor@@0@Z
        628  273 000379F0 ??0QPalette@@QAE@ABVQColor@@@Z
        629  274 00037260 ??0QPalette@@QAE@ABVQColorGroup@@00@Z
        630  275 00037A10 ??0QPalette@@QAE@W4GlobalColor@Qt@@@Z
        631  276 00036C00 ??0QPalette@@QAE@XZ
        632  277 0016B220 ??0QPen@@QAE@ABV0@@Z
        633  278 000E83E0 ??0QPen@@QAE@ABVQBrush@@NW4PenStyle@Qt@@W4PenCapStyle@3@W4PenJoinStyle@3@@Z
        634  279 000E8330 ??0QPen@@QAE@ABVQColor@@@Z
        635  27A 000E91F0 ??0QPen@@QAE@W4PenStyle@Qt@@@Z
        636  27B 000E91D0 ??0QPen@@QAE@XZ
        637  27C 00091720 ??0QPicture@@IAE@AAVQPicturePrivate@@@Z
        638  27D 000916C0 ??0QPicture@@QAE@ABV0@@Z
        639  27E 00094600 ??0QPicture@@QAE@H@Z
        640  27F 00091AD0 ??0QPictureFormatInterface@@QAE@ABU0@@Z
        641  280 00091AB0 ??0QPictureFormatInterface@@QAE@XZ
        642  281 00091BA0 ??0QPictureFormatPlugin@@QAE@ABV0@@Z
        643  282 00096000 ??0QPictureFormatPlugin@@QAE@PAVQObject@@@Z
        644  283 00095AD0 ??0QPictureIO@@QAE@ABVQString@@PBD@Z
        645  284 00095AA0 ??0QPictureIO@@QAE@PAVQIODevice@@PBD@Z
        646  285 00095A90 ??0QPictureIO@@QAE@XZ
        647  286 00090FA0 ??0QPicturePrivate@@QAE@ABV0@@Z
        648  287 00090880 ??0QPicturePrivate@@QAE@XZ
        649  288 000962C0 ??0QPixmap@@AAE@ABVQSize@@H@Z
        650  289 00096850 ??0QPixmap@@AAE@ABVQSize@@W4Type@0@@Z
        651  28A 00097100 ??0QPixmap@@QAE@ABV0@@Z
        652  28B 00097D30 ??0QPixmap@@QAE@ABVQImage@@@Z
        653  28C 00096200 ??0QPixmap@@QAE@ABVQSize@@@Z
        654  28D 00098510 ??0QPixmap@@QAE@ABVQString@@PBDV?$QFlags@W4ImageConversionFlag@Qt@@@@@Z
        655  28E 00097C60 ??0QPixmap@@QAE@ABVQString@@PBDW4ColorMode@0@@Z
        656  28F 00096140 ??0QPixmap@@QAE@HH@Z
        657  290 00096390 ??0QPixmap@@QAE@PAVQPixmapData@@@Z
        658  291 000971E0 ??0QPixmap@@QAE@QBQBD@Z
        659  292 000960B0 ??0QPixmap@@QAE@XZ
        660  293 00075750 ??0QPixmapData@@QAE@ABV0@@Z
        661  294 00099E60 ??0QPixmapData@@QAE@W4PixelType@0@H@Z
        662  295 00075840 ??0QPixmapDataFactory@@QAE@ABV0@@Z
        663  296 00075830 ??0QPixmapDataFactory@@QAE@XZ
        664  297 00329B70 ??0QPlainTextDocumentLayout@@QAE@ABV0@@Z
        665  298 0032F0C0 ??0QPlainTextDocumentLayout@@QAE@PAVQTextDocument@@@Z
        666  299 0032F8A0 ??0QPlainTextEdit@@IAE@AAVQPlainTextEditPrivate@@PAVQWidget@@@Z
        667  29A 0032A460 ??0QPlainTextEdit@@QAE@ABV0@@Z
        668  29B 0032F930 ??0QPlainTextEdit@@QAE@ABVQString@@PAVQWidget@@@Z
        669  29C 0032F7E0 ??0QPlainTextEdit@@QAE@PAVQWidget@@@Z
        670  29D 001D95F0 ??0QPlastiqueStyle@@QAE@ABV0@@Z
        671  29E 0022FE40 ??0QPlastiqueStyle@@QAE@XZ
        672  29F 004164D0 ??0QPolygon@@QAE@ABV0@@Z
        673  2A0 004164D0 ??0QPolygon@@QAE@ABV?$QVector@VQPoint@@@@@Z
        674  2A1 000E98D0 ??0QPolygon@@QAE@ABVQRect@@_N@Z
        675  2A2 000CD190 ??0QPolygon@@QAE@H@Z
        676  2A3 000EAFE0 ??0QPolygon@@QAE@HPBH@Z
        677  2A4 000401D0 ??0QPolygon@@QAE@XZ
        678  2A5 00104A00 ??0QPolygonF@@QAE@ABV0@@Z
        679  2A6 00104A00 ??0QPolygonF@@QAE@ABV?$QVector@VQPointF@@@@@Z
        680  2A7 000E9E70 ??0QPolygonF@@QAE@ABVQPolygon@@@Z
        681  2A8 000E9CE0 ??0QPolygonF@@QAE@ABVQRectF@@@Z
        682  2A9 000FE6C0 ??0QPolygonF@@QAE@H@Z
        683  2AA 0008F190 ??0QPolygonF@@QAE@XZ
        684  2AB 000F3DE0 ??0QPrintDialog@@QAE@ABV0@@Z
        685  2AC 00337B10 ??0QPrintDialog@@QAE@PAVQPrinter@@PAVQWidget@@@Z
        686  2AD 000E2A90 ??0QPrintEngine@@QAE@ABV0@@Z
        687  2AE 000E2A80 ??0QPrintEngine@@QAE@XZ
        688  2AF 00370160 ??0QPrintPreviewDialog@@QAE@ABV0@@Z
        689  2B0 00372210 ??0QPrintPreviewDialog@@QAE@PAVQPrinter@@PAVQWidget@@V?$QFlags@W4WindowType@Qt@@@@@Z
        690  2B1 003722B0 ??0QPrintPreviewDialog@@QAE@PAVQWidget@@V?$QFlags@W4WindowType@Qt@@@@@Z
        691  2B2 003306A0 ??0QPrintPreviewWidget@@QAE@ABV0@@Z
        692  2B3 00331830 ??0QPrintPreviewWidget@@QAE@PAVQPrinter@@PAVQWidget@@V?$QFlags@W4WindowType@Qt@@@@@Z
        693  2B4 003318E0 ??0QPrintPreviewWidget@@QAE@PAVQWidget@@V?$QFlags@W4WindowType@Qt@@@@@Z
        694  2B5 000E3BE0 ??0QPrinter@@QAE@ABV0@@Z
        695  2B6 000F5BE0 ??0QPrinter@@QAE@ABVQPrinterInfo@@W4PrinterMode@0@@Z
        696  2B7 000F5AD0 ??0QPrinter@@QAE@W4PrinterMode@0@@Z
        697  2B8 00140C10 ??0QPrinterInfo@@AAE@ABVQString@@@Z
        698  2B9 00140D40 ??0QPrinterInfo@@QAE@ABV0@@Z
        699  2BA 00141900 ??0QPrinterInfo@@QAE@ABVQPrinter@@@Z
        700  2BB 00140BC0 ??0QPrinterInfo@@QAE@XZ
        701  2BC 001F5EF0 ??0QProgressBar@@QAE@ABV0@@Z
        702  2BD 002EBD20 ??0QProgressBar@@QAE@PAVQWidget@@@Z
        703  2BE 00356BB0 ??0QProgressDialog@@QAE@ABV0@@Z
        704  2BF 00357F90 ??0QProgressDialog@@QAE@ABVQString@@0HHPAVQWidget@@V?$QFlags@W4WindowType@Qt@@@@@Z
        705  2C0 00357E80 ??0QProgressDialog@@QAE@PAVQWidget@@V?$QFlags@W4WindowType@Qt@@@@@Z
        706  2C1 003D88E0 ??0QProxyModel@@IAE@AAVQProxyModelPrivate@@PAVQObject@@@Z
        707  2C2 003D79A0 ??0QProxyModel@@QAE@ABV0@@Z
        708  2C3 003D8820 ??0QProxyModel@@QAE@PAVQObject@@@Z
        709  2C4 002ECE20 ??0QPushButton@@IAE@AAVQPushButtonPrivate@@PAVQWidget@@@Z
        710  2C5 00211D50 ??0QPushButton@@QAE@ABV0@@Z
        711  2C6 002ECD40 ??0QPushButton@@QAE@ABVQIcon@@ABVQString@@PAVQWidget@@@Z
        712  2C7 002ED170 ??0QPushButton@@QAE@ABVQIcon@@ABVQString@@PAVQWidget@@PBD@Z
        713  2C8 002ECC60 ??0QPushButton@@QAE@ABVQString@@PAVQWidget@@@Z
        714  2C9 002ED060 ??0QPushButton@@QAE@ABVQString@@PAVQWidget@@PBD@Z
        715  2CA 002ECB90 ??0QPushButton@@QAE@PAVQWidget@@@Z
        716  2CB 002ECF60 ??0QPushButton@@QAE@PAVQWidget@@PBD@Z
        717  2CC 0022FD40 ??0QRadialGradient@@QAE@ABV0@@Z
        718  2CD 000C0620 ??0QRadialGradient@@QAE@ABVQPointF@@N0@Z
        719  2CE 000C06E0 ??0QRadialGradient@@QAE@ABVQPointF@@N@Z
        720  2CF 000C0870 ??0QRadialGradient@@QAE@NNN@Z
        721  2D0 000C0780 ??0QRadialGradient@@QAE@NNNNN@Z
        722  2D1 000C08C0 ??0QRadialGradient@@QAE@XZ
        723  2D2 001F5DC0 ??0QRadioButton@@QAE@ABV0@@Z
        724  2D3 002ED3A0 ??0QRadioButton@@QAE@ABVQString@@PAVQWidget@@@Z
        725  2D4 002ED5B0 ??0QRadioButton@@QAE@ABVQString@@PAVQWidget@@PBD@Z
        726  2D5 002ED2C0 ??0QRadioButton@@QAE@PAVQWidget@@@Z
        727  2D6 002ED490 ??0QRadioButton@@QAE@PAVQWidget@@PBD@Z
        728  2D7 000022C0 ??0QRegExpValidator@@QAE@ABV0@@Z
        729  2D8 00312830 ??0QRegExpValidator@@QAE@ABVQRegExp@@PAVQObject@@@Z
        730  2D9 00312960 ??0QRegExpValidator@@QAE@ABVQRegExp@@PAVQObject@@PBD@Z
        731  2DA 003127A0 ??0QRegExpValidator@@QAE@PAVQObject@@@Z
        732  2DB 003128A0 ??0QRegExpValidator@@QAE@PAVQObject@@PBD@Z
        733  2DC 0016B220 ??0QRegion@@QAE@ABV0@@Z
        734  2DD 001420B0 ??0QRegion@@QAE@ABVQBitmap@@@Z
        735  2DE 00141D20 ??0QRegion@@QAE@ABVQPolygon@@W4FillRule@Qt@@@Z
        736  2DF 000FD080 ??0QRegion@@QAE@ABVQPolygon@@_N@Z
        737  2E0 00141C30 ??0QRegion@@QAE@ABVQRect@@W4RegionType@0@@Z
        738  2E1 000FCCB0 ??0QRegion@@QAE@HHHHW4RegionType@0@@Z
        739  2E2 00141C10 ??0QRegion@@QAE@XZ
        740  2E3 0044AA90 ??0QResizeEvent@@QAE@ABV0@@Z
        741  2E4 00022A50 ??0QResizeEvent@@QAE@ABVQSize@@0@Z
        742  2E5 00005340 ??0QRubberBand@@QAE@ABV0@@Z
        743  2E6 002EDDC0 ??0QRubberBand@@QAE@W4Shape@0@PAVQWidget@@@Z
        744  2E7 00316D70 ??0QScrollArea@@IAE@AAVQScrollAreaPrivate@@PAVQWidget@@@Z
        745  2E8 0026D9C0 ??0QScrollArea@@QAE@ABV0@@Z
        746  2E9 00316F20 ??0QScrollArea@@QAE@PAVQWidget@@@Z
        747  2EA 0017A020 ??0QScrollBar@@QAE@ABV0@@Z
        748  2EB 002EEB40 ??0QScrollBar@@QAE@HHHHHW4Orientation@Qt@@PAVQWidget@@PBD@Z
        749  2EC 002EE820 ??0QScrollBar@@QAE@PAVQWidget@@@Z
        750  2ED 002EE980 ??0QScrollBar@@QAE@PAVQWidget@@PBD@Z
        751  2EE 002EE8D0 ??0QScrollBar@@QAE@W4Orientation@Qt@@PAVQWidget@@@Z
        752  2EF 002EEA60 ??0QScrollBar@@QAE@W4Orientation@Qt@@PAVQWidget@@PBD@Z
        753  2F0 00012680 ??0QSessionManager@@AAE@PAVQApplication@@AAVQString@@1@Z
        754  2F1 0000C510 ??0QSessionManager@@QAE@ABV0@@Z
        755  2F2 0002DD50 ??0QShortcut@@QAE@ABV0@@Z
        756  2F3 000389B0 ??0QShortcut@@QAE@ABVQKeySequence@@PAVQWidget@@PBD2W4ShortcutContext@Qt@@@Z
        757  2F4 000388D0 ??0QShortcut@@QAE@PAVQWidget@@@Z
        758  2F5 0044B000 ??0QShortcutEvent@@QAE@ABV0@@Z
        759  2F6 00023050 ??0QShortcutEvent@@QAE@ABVQKeySequence@@H_N@Z
        760  2F7 0044AB10 ??0QShowEvent@@QAE@ABV0@@Z
        761  2F8 00022F10 ??0QShowEvent@@QAE@XZ
        762  2F9 00031350 ??0QSizeGrip@@QAE@ABV0@@Z
        763  2FA 002F03B0 ??0QSizeGrip@@QAE@PAVQWidget@@@Z
        764  2FB 002F0460 ??0QSizeGrip@@QAE@PAVQWidget@@PBD@Z
        765  2FC 004498D0 ??0QSizePolicy@@AAE@H@Z
        766  2FD 00031180 ??0QSizePolicy@@QAE@W4Policy@0@0@Z
        767  2FE 00449860 ??0QSizePolicy@@QAE@W4Policy@0@0EE_N@Z
        768  2FF 00276100 ??0QSizePolicy@@QAE@W4Policy@0@0W4ControlType@0@@Z
        769  300 00449830 ??0QSizePolicy@@QAE@W4Policy@0@0_N@Z
        770  301 00076740 ??0QSizePolicy@@QAE@XZ
        771  302 000051A0 ??0QSlider@@QAE@ABV0@@Z
        772  303 002F1C90 ??0QSlider@@QAE@HHHHW4Orientation@Qt@@PAVQWidget@@PBD@Z
        773  304 002F1970 ??0QSlider@@QAE@PAVQWidget@@@Z
        774  305 002F1AD0 ??0QSlider@@QAE@PAVQWidget@@PBD@Z
        775  306 002F1A20 ??0QSlider@@QAE@W4Orientation@Qt@@PAVQWidget@@@Z
        776  307 002F1BB0 ??0QSlider@@QAE@W4Orientation@Qt@@PAVQWidget@@PBD@Z
        777  308 003D95B0 ??0QSortFilterProxyModel@@QAE@ABV0@@Z
        778  309 003DCB60 ??0QSortFilterProxyModel@@QAE@PAVQObject@@@Z
        779  30A 0003AD30 ??0QSound@@QAE@ABV0@@Z
        780  30B 0003B0F0 ??0QSound@@QAE@ABVQString@@PAVQObject@@@Z
        781  30C 0003B1C0 ??0QSound@@QAE@ABVQString@@PAVQObject@@PBD@Z
        782  30D 0044CB10 ??0QSpacerItem@@QAE@ABV0@@Z
        783  30E 00031B00 ??0QSpacerItem@@QAE@HHW4Policy@QSizePolicy@@0@Z
        784  30F 00213A20 ??0QSpinBox@@QAE@ABV0@@Z
        785  310 002F2D10 ??0QSpinBox@@QAE@HHHPAVQWidget@@PBD@Z
        786  311 002F2B90 ??0QSpinBox@@QAE@PAVQWidget@@@Z
        787  312 002F2C30 ??0QSpinBox@@QAE@PAVQWidget@@PBD@Z
        788  313 002F4D60 ??0QSplashScreen@@QAE@ABV0@@Z
        789  314 002F55B0 ??0QSplashScreen@@QAE@ABVQPixmap@@V?$QFlags@W4WindowType@Qt@@@@@Z
        790  315 002F5680 ??0QSplashScreen@@QAE@PAVQWidget@@ABVQPixmap@@V?$QFlags@W4WindowType@Qt@@@@@Z
        791  316 00211DB0 ??0QSplitter@@QAE@ABV0@@Z
        792  317 002F7910 ??0QSplitter@@QAE@PAVQWidget@@@Z
        793  318 002F7700 ??0QSplitter@@QAE@PAVQWidget@@PBD@Z
        794  319 002F79E0 ??0QSplitter@@QAE@W4Orientation@Qt@@PAVQWidget@@@Z
        795  31A 002F7800 ??0QSplitter@@QAE@W4Orientation@Qt@@PAVQWidget@@PBD@Z
        796  31B 00211DE0 ??0QSplitterHandle@@QAE@ABV0@@Z
        797  31C 002F5960 ??0QSplitterHandle@@QAE@W4Orientation@Qt@@PAVQSplitter@@@Z
        798  31D 0003B620 ??0QStackedLayout@@QAE@ABV0@@Z
        799  31E 0003BC70 ??0QStackedLayout@@QAE@PAVQLayout@@@Z
        800  31F 0003BBE0 ??0QStackedLayout@@QAE@PAVQWidget@@@Z
        801  320 0003BB60 ??0QStackedLayout@@QAE@XZ
        802  321 0021D110 ??0QStackedWidget@@QAE@ABV0@@Z
        803  322 002F9940 ??0QStackedWidget@@QAE@PAVQWidget@@@Z
        804  323 003E17A0 ??0QStandardItem@@IAE@AAVQStandardItemPrivate@@@Z
        805  324 003E5450 ??0QStandardItem@@IAE@ABV0@@Z
        806  325 003E3A40 ??0QStandardItem@@QAE@ABVQIcon@@ABVQString@@@Z
        807  326 003E39C0 ??0QStandardItem@@QAE@ABVQString@@@Z
        808  327 003E7100 ??0QStandardItem@@QAE@HH@Z
        809  328 003E3950 ??0QStandardItem@@QAE@XZ
        810  329 003E1860 ??0QStandardItemModel@@IAE@AAVQStandardItemModelPrivate@@PAVQObject@@@Z
        811  32A 00286E30 ??0QStandardItemModel@@QAE@ABV0@@Z
        812  32B 003E5BB0 ??0QStandardItemModel@@QAE@HHPAVQObject@@@Z
        813  32C 003E4900 ??0QStandardItemModel@@QAE@PAVQObject@@@Z
        814  32D 001F5E10 ??0QStatusBar@@QAE@ABV0@@Z
        815  32E 002FA8D0 ??0QStatusBar@@QAE@PAVQWidget@@@Z
        816  32F 002FA7D0 ??0QStatusBar@@QAE@PAVQWidget@@PBD@Z
        817  330 0044AD80 ??0QStatusTipEvent@@QAE@ABV0@@Z
        818  331 00022D00 ??0QStatusTipEvent@@QAE@ABVQString@@@Z
        819  332 002ADBE0 ??0QStringListModel@@QAE@ABV0@@Z
        820  333 003E7E60 ??0QStringListModel@@QAE@ABVQStringList@@PAVQObject@@@Z
        821  334 003E7D10 ??0QStringListModel@@QAE@PAVQObject@@@Z
        822  335 00048610 ??0QStroker@@QAE@ABV0@@Z
        823  336 000F6490 ??0QStroker@@QAE@XZ
        824  337 000485C0 ??0QStrokerOps@@QAE@ABV0@@Z
        825  338 000F63B0 ??0QStrokerOps@@QAE@XZ
        826  339 001D7D70 ??0QStyle@@IAE@AAVQStylePrivate@@@Z
        827  33A 0000EC10 ??0QStyle@@QAE@ABV0@@Z
        828  33B 001D7CE0 ??0QStyle@@QAE@XZ
        829  33C 001D8CB0 ??0QStyleFactoryInterface@@QAE@ABU0@@Z
        830  33D 001D8CA0 ??0QStyleFactoryInterface@@QAE@XZ
        831  33E 001D9F90 ??0QStyleHintReturn@@QAE@HH@Z
        832  33F 00003830 ??0QStyleHintReturnMask@@QAE@ABV0@@Z
        833  340 001D9FB0 ??0QStyleHintReturnMask@@QAE@XZ
        834  341 00003920 ??0QStyleHintReturnVariant@@QAE@ABV0@@Z
        835  342 001D9FD0 ??0QStyleHintReturnVariant@@QAE@XZ
        836  343 001DA150 ??0QStyleOption@@QAE@ABV0@@Z
        837  344 001DA0B0 ??0QStyleOption@@QAE@HH@Z
        838  345 001DA510 ??0QStyleOptionButton@@IAE@H@Z
        839  346 00006790 ??0QStyleOptionButton@@QAE@ABV0@@Z
        840  347 001DA490 ??0QStyleOptionButton@@QAE@XZ
        841  348 001DAEC0 ??0QStyleOptionComboBox@@IAE@H@Z
        842  349 00006F60 ??0QStyleOptionComboBox@@QAE@ABV0@@Z
        843  34A 001DAE30 ??0QStyleOptionComboBox@@QAE@XZ
        844  34B 00006D70 ??0QStyleOptionComplex@@QAE@ABV0@@Z
        845  34C 001DAA10 ??0QStyleOptionComplex@@QAE@HH@Z
        846  34D 001DAC40 ??0QStyleOptionDockWidget@@IAE@H@Z
        847  34E 000059F0 ??0QStyleOptionDockWidget@@QAE@ABV0@@Z
        848  34F 001DABE0 ??0QStyleOptionDockWidget@@QAE@XZ
        849  350 001DACD0 ??0QStyleOptionDockWidgetV2@@IAE@H@Z
        850  351 00005A80 ??0QStyleOptionDockWidgetV2@@QAE@ABV0@@Z
        851  352 001DC190 ??0QStyleOptionDockWidgetV2@@QAE@ABVQStyleOptionDockWidget@@@Z
        852  353 001DACB0 ??0QStyleOptionDockWidgetV2@@QAE@XZ
        853  354 001DA2A0 ??0QStyleOptionFocusRect@@IAE@H@Z
        854  355 000053F0 ??0QStyleOptionFocusRect@@QAE@ABV0@@Z
        855  356 001DA240 ??0QStyleOptionFocusRect@@QAE@XZ
        856  357 001DA320 ??0QStyleOptionFrame@@IAE@H@Z
        857  358 00005470 ??0QStyleOptionFrame@@QAE@ABV0@@Z
        858  359 001DA300 ??0QStyleOptionFrame@@QAE@XZ
        859  35A 001DA360 ??0QStyleOptionFrameV2@@IAE@H@Z
        860  35B 00006690 ??0QStyleOptionFrameV2@@QAE@ABV0@@Z
        861  35C 001DB700 ??0QStyleOptionFrameV2@@QAE@ABVQStyleOptionFrame@@@Z
        862  35D 001DA340 ??0QStyleOptionFrameV2@@QAE@XZ
        863  35E 001DB540 ??0QStyleOptionGraphicsItem@@IAE@H@Z
        864  35F 00006070 ??0QStyleOptionGraphicsItem@@QAE@ABV0@@Z
        865  360 001DB4D0 ??0QStyleOptionGraphicsItem@@QAE@XZ
        866  361 001DBBC0 ??0QStyleOptionGroupBox@@IAE@H@Z
        867  362 000070B0 ??0QStyleOptionGroupBox@@QAE@ABV0@@Z
        868  363 001DBB40 ??0QStyleOptionGroupBox@@QAE@XZ
        869  364 001DA400 ??0QStyleOptionHeader@@IAE@H@Z
        870  365 00006700 ??0QStyleOptionHeader@@QAE@ABV0@@Z
        871  366 001DA380 ??0QStyleOptionHeader@@QAE@XZ
        872  367 001DA980 ??0QStyleOptionMenuItem@@IAE@H@Z
        873  368 000058B0 ??0QStyleOptionMenuItem@@QAE@ABV0@@Z
        874  369 001DA8F0 ??0QStyleOptionMenuItem@@QAE@XZ
        875  36A 001DA830 ??0QStyleOptionProgressBar@@IAE@H@Z
        876  36B 00006A10 ??0QStyleOptionProgressBar@@QAE@ABV0@@Z
        877  36C 001DA7C0 ??0QStyleOptionProgressBar@@QAE@XZ
        878  36D 001DA8C0 ??0QStyleOptionProgressBarV2@@IAE@H@Z
        879  36E 001DBDE0 ??0QStyleOptionProgressBarV2@@QAE@ABV0@@Z
        880  36F 001DBD50 ??0QStyleOptionProgressBarV2@@QAE@ABVQStyleOptionProgressBar@@@Z
        881  370 001DA8A0 ??0QStyleOptionProgressBarV2@@QAE@XZ
        882  371 001DABC0 ??0QStyleOptionQ3DockWindow@@IAE@H@Z
        883  372 00005980 ??0QStyleOptionQ3DockWindow@@QAE@ABV0@@Z
        884  373 001DABA0 ??0QStyleOptionQ3DockWindow@@QAE@XZ
        885  374 001DC2A0 ??0QStyleOptionQ3ListView@@IAE@H@Z
        886  375 0000A0D0 ??0QStyleOptionQ3ListView@@QAE@ABV0@@Z
        887  376 001DC210 ??0QStyleOptionQ3ListView@@QAE@XZ
        888  377 001DAB70 ??0QStyleOptionQ3ListViewItem@@IAE@H@Z
        889  378 00006AB0 ??0QStyleOptionQ3ListViewItem@@QAE@ABV0@@Z
        890  379 001DAB40 ??0QStyleOptionQ3ListViewItem@@QAE@XZ
        891  37A 001DB090 ??0QStyleOptionRubberBand@@IAE@H@Z
        892  37B 00005D90 ??0QStyleOptionRubberBand@@QAE@ABV0@@Z
        893  37C 001DB070 ??0QStyleOptionRubberBand@@QAE@XZ
        894  37D 001DB4A0 ??0QStyleOptionSizeGrip@@IAE@H@Z
        895  37E 00007140 ??0QStyleOptionSizeGrip@@QAE@ABV0@@Z
        896  37F 001DB470 ??0QStyleOptionSizeGrip@@QAE@XZ
        897  380 001DAA90 ??0QStyleOptionSlider@@IAE@H@Z
        898  381 00006DE0 ??0QStyleOptionSlider@@QAE@ABV0@@Z
        899  382 001DAA40 ??0QStyleOptionSlider@@QAE@XZ
        900  383 001DAB10 ??0QStyleOptionSpinBox@@IAE@H@Z
        901  384 00006E40 ??0QStyleOptionSpinBox@@QAE@ABV0@@Z
        902  385 001DAAE0 ??0QStyleOptionSpinBox@@QAE@XZ
        903  386 001DA680 ??0QStyleOptionTab@@IAE@H@Z
        904  387 00006850 ??0QStyleOptionTab@@QAE@ABV0@@Z
        905  388 001DA600 ??0QStyleOptionTab@@QAE@XZ
        906  389 001DB400 ??0QStyleOptionTabBarBase@@IAE@H@Z
        907  38A 000055D0 ??0QStyleOptionTabBarBase@@QAE@ABV0@@Z
        908  38B 001DB3A0 ??0QStyleOptionTabBarBase@@QAE@XZ
        909  38C 001DA760 ??0QStyleOptionTabV2@@IAE@H@Z
        910  38D 00006910 ??0QStyleOptionTabV2@@QAE@ABV0@@Z
        911  38E 001DBC50 ??0QStyleOptionTabV2@@QAE@ABVQStyleOptionTab@@@Z
        912  38F 001DA700 ??0QStyleOptionTabV2@@QAE@XZ
        913  390 001DB320 ??0QStyleOptionTabWidgetFrame@@IAE@H@Z
        914  391 00005510 ??0QStyleOptionTabWidgetFrame@@QAE@ABV0@@Z
        915  392 001DB2B0 ??0QStyleOptionTabWidgetFrame@@QAE@XZ
        916  393 001DB130 ??0QStyleOptionTitleBar@@IAE@H@Z
        917  394 00006FF0 ??0QStyleOptionTitleBar@@QAE@ABV0@@Z
        918  395 001DB0B0 ??0QStyleOptionTitleBar@@QAE@XZ
        919  396 001DA5C0 ??0QStyleOptionToolBar@@IAE@H@Z
        920  397 00006980 ??0QStyleOptionToolBar@@QAE@ABV0@@Z
        921  398 001DA590 ??0QStyleOptionToolBar@@QAE@XZ
        922  399 001DAFC0 ??0QStyleOptionToolBox@@IAE@H@Z
        923  39A 00005C70 ??0QStyleOptionToolBox@@QAE@ABV0@@Z
        924  39B 001DAF50 ??0QStyleOptionToolBox@@QAE@XZ
        925  39C 001DB050 ??0QStyleOptionToolBoxV2@@IAE@H@Z
        926  39D 00005D10 ??0QStyleOptionToolBoxV2@@QAE@ABV0@@Z
        927  39E 001DBF00 ??0QStyleOptionToolBoxV2@@QAE@ABVQStyleOptionToolBox@@@Z
        928  39F 001DB030 ??0QStyleOptionToolBoxV2@@QAE@XZ
        929  3A0 001DAD90 ??0QStyleOptionToolButton@@IAE@H@Z
        930  3A1 00006EC0 ??0QStyleOptionToolButton@@QAE@ABV0@@Z
        931  3A2 001DACF0 ??0QStyleOptionToolButton@@QAE@XZ
        932  3A3 001DB230 ??0QStyleOptionViewItem@@IAE@H@Z
        933  3A4 00006B30 ??0QStyleOptionViewItem@@QAE@ABV0@@Z
        934  3A5 001DB1B0 ??0QStyleOptionViewItem@@QAE@XZ
        935  3A6 001DB800 ??0QStyleOptionViewItemV2@@IAE@H@Z
        936  3A7 00006BF0 ??0QStyleOptionViewItemV2@@QAE@ABV0@@Z
        937  3A8 001DBFF0 ??0QStyleOptionViewItemV2@@QAE@ABVQStyleOptionViewItem@@@Z
        938  3A9 001DB7E0 ??0QStyleOptionViewItemV2@@QAE@XZ
        939  3AA 001DB950 ??0QStyleOptionViewItemV3@@IAE@H@Z
        940  3AB 00006C50 ??0QStyleOptionViewItemV3@@QAE@ABV0@@Z
        941  3AC 001DC080 ??0QStyleOptionViewItemV3@@QAE@ABVQStyleOptionViewItem@@@Z
        942  3AD 001DB870 ??0QStyleOptionViewItemV3@@QAE@XZ
        943  3AE 001DBAB0 ??0QStyleOptionViewItemV4@@IAE@H@Z
        944  3AF 00006CD0 ??0QStyleOptionViewItemV4@@QAE@ABV0@@Z
        945  3B0 001DC0F0 ??0QStyleOptionViewItemV4@@QAE@ABVQStyleOptionViewItem@@@Z
        946  3B1 001DB9B0 ??0QStyleOptionViewItemV4@@QAE@XZ
        947  3B2 001D8D80 ??0QStylePlugin@@QAE@ABV0@@Z
        948  3B3 001DC330 ??0QStylePlugin@@QAE@PAVQObject@@@Z
        949  3B4 0037A2C0 ??0QStyledItemDelegate@@QAE@ABV0@@Z
        950  3B5 003F00E0 ??0QStyledItemDelegate@@QAE@PAVQObject@@@Z
        951  3B6 001C6070 ??0QSyntaxHighlighter@@QAE@ABV0@@Z
        952  3B7 001C6770 ??0QSyntaxHighlighter@@QAE@PAVQObject@@@Z
        953  3B8 001C67F0 ??0QSyntaxHighlighter@@QAE@PAVQTextDocument@@@Z
        954  3B9 001C6890 ??0QSyntaxHighlighter@@QAE@PAVQTextEdit@@@Z
        955  3BA 0042FE70 ??0QSystemTrayIcon@@QAE@ABV0@@Z
        956  3BB 00430300 ??0QSystemTrayIcon@@QAE@ABVQIcon@@PAVQObject@@@Z
        957  3BC 00430280 ??0QSystemTrayIcon@@QAE@PAVQObject@@@Z
        958  3BD 000051D0 ??0QTabBar@@QAE@ABV0@@Z
        959  3BE 002FC0C0 ??0QTabBar@@QAE@PAVQWidget@@@Z
        960  3BF 00005230 ??0QTabWidget@@QAE@ABV0@@Z
        961  3C0 003010E0 ??0QTabWidget@@QAE@PAVQWidget@@@Z
        962  3C1 00301190 ??0QTabWidget@@QAE@PAVQWidget@@PBDV?$QFlags@W4WindowType@Qt@@@@@Z
        963  3C2 0039B860 ??0QTableView@@IAE@AAVQTableViewPrivate@@PAVQWidget@@@Z
        964  3C3 00280350 ??0QTableView@@QAE@ABV0@@Z
        965  3C4 0039E0B0 ??0QTableView@@QAE@PAVQWidget@@@Z
        966  3C5 003C5400 ??0QTableWidget@@QAE@ABV0@@Z
        967  3C6 003C8D20 ??0QTableWidget@@QAE@HHPAVQWidget@@@Z
        968  3C7 003C8C40 ??0QTableWidget@@QAE@PAVQWidget@@@Z
        969  3C8 003C8B30 ??0QTableWidgetItem@@QAE@ABV0@@Z
        970  3C9 003CAFD0 ??0QTableWidgetItem@@QAE@ABVQIcon@@ABVQString@@H@Z
        971  3CA 003CAF10 ??0QTableWidgetItem@@QAE@ABVQString@@H@Z
        972  3CB 003C6640 ??0QTableWidgetItem@@QAE@H@Z
        973  3CC 003C4AE0 ??0QTableWidgetSelectionRange@@QAE@ABV0@@Z
        974  3CD 000438D0 ??0QTableWidgetSelectionRange@@QAE@HHHH@Z
        975  3CE 003C4AC0 ??0QTableWidgetSelectionRange@@QAE@XZ
        976  3CF 0044C7B0 ??0QTabletEvent@@QAE@ABV0@@Z
        977  3D0 000246F0 ??0QTabletEvent@@QAE@W4Type@QEvent@@ABVQPoint@@1ABVQPointF@@HHNHHNNHV?$QFlags@W4KeyboardModifier@Qt@@@@_J@Z
        978  3D1 000F97C0 ??0QTessellator@@QAE@ABV0@@Z
        979  3D2 000FBDC0 ??0QTessellator@@QAE@XZ
        980  3D3 00177DE0 ??0QTextBlock@@QAE@ABV0@@Z
        981  3D4 001D9F90 ??0QTextBlock@@QAE@PAVQTextDocumentPrivate@@H@Z
        982  3D5 00043870 ??0QTextBlock@@QAE@XZ
        983  3D6 00192020 ??0QTextBlockFormat@@IAE@ABVQTextFormat@@@Z
        984  3D7 0003E880 ??0QTextBlockFormat@@QAE@ABV0@@Z
        985  3D8 001918A0 ??0QTextBlockFormat@@QAE@XZ
        986  3D9 00193870 ??0QTextBlockGroup@@IAE@AAVQTextBlockGroupPrivate@@PAVQTextDocument@@@Z
        987  3DA 00195460 ??0QTextBlockGroup@@IAE@PAVQTextDocument@@@Z
        988  3DB 000434C0 ??0QTextBlockGroup@@QAE@ABV0@@Z
        989  3DC 00043800 ??0QTextBlockUserData@@QAE@ABV0@@Z
        990  3DD 000437F0 ??0QTextBlockUserData@@QAE@XZ
        991  3DE 001C1430 ??0QTextBrowser@@QAE@ABV0@@Z
        992  3DF 00307B50 ??0QTextBrowser@@QAE@PAVQWidget@@@Z
        993  3E0 00307BF0 ??0QTextBrowser@@QAE@PAVQWidget@@PBD@Z
        994  3E1 00192020 ??0QTextCharFormat@@IAE@ABVQTextFormat@@@Z
        995  3E2 0003E880 ??0QTextCharFormat@@QAE@ABV0@@Z
        996  3E3 001917A0 ??0QTextCharFormat@@QAE@XZ
        997  3E4 00177440 ??0QTextControl@@QAE@ABV0@@Z
        998  3E5 0017C670 ??0QTextControl@@QAE@ABVQString@@PAVQObject@@@Z
        999  3E6 0017C590 ??0QTextControl@@QAE@PAVQObject@@@Z
       1000  3E7 0017C740 ??0QTextControl@@QAE@PAVQTextDocument@@PAVQObject@@@Z
       1001  3E8 001B9B70 ??0QTextCursor@@QAE@ABV0@@Z
       1002  3E9 001B9D80 ??0QTextCursor@@QAE@ABVQTextBlock@@@Z
       1003  3EA 001B9AF0 ??0QTextCursor@@QAE@PAVQTextCursorPrivate@@@Z
       1004  3EB 001B9A60 ??0QTextCursor@@QAE@PAVQTextDocument@@@Z
       1005  3EC 001B9E80 ??0QTextCursor@@QAE@PAVQTextDocumentPrivate@@H@Z
       1006  3ED 001B9C70 ??0QTextCursor@@QAE@PAVQTextFrame@@@Z
       1007  3EE 00076740 ??0QTextCursor@@QAE@XZ
       1008  3EF 00198020 ??0QTextDocument@@IAE@AAVQTextDocumentPrivate@@PAVQObject@@@Z
       1009  3F0 0003C3C0 ??0QTextDocument@@QAE@ABV0@@Z
       1010  3F1 00197F60 ??0QTextDocument@@QAE@ABVQString@@PAVQObject@@@Z
       1011  3F2 00197EC0 ??0QTextDocument@@QAE@PAVQObject@@@Z
       1012  3F3 000DB230 ??0QTextDocumentFragment@@QAE@ABV0@@Z
       1013  3F4 001BE520 ??0QTextDocumentFragment@@QAE@ABVQTextCursor@@@Z
       1014  3F5 001BE470 ??0QTextDocumentFragment@@QAE@PBVQTextDocument@@@Z
       1015  3F6 00076740 ??0QTextDocumentFragment@@QAE@XZ
       1016  3F7 00302630 ??0QTextEdit@@IAE@AAVQTextEditPrivate@@PAVQWidget@@@Z
       1017  3F8 00179EC0 ??0QTextEdit@@QAE@ABV0@@Z
       1018  3F9 003026C0 ??0QTextEdit@@QAE@ABVQString@@PAVQWidget@@@Z
       1019  3FA 00302570 ??0QTextEdit@@QAE@PAVQWidget@@@Z
       1020  3FB 00302760 ??0QTextEdit@@QAE@PAVQWidget@@PBD@Z
       1021  3FC 00090A90 ??0QTextEngine@@QAE@ABV0@@Z
       1022  3FD 00183B20 ??0QTextEngine@@QAE@ABVQString@@ABVQFont@@@Z
       1023  3FE 00183A70 ??0QTextEngine@@QAE@XZ
       1024  3FF 00192020 ??0QTextFormat@@QAE@ABV0@@Z
       1025  400 00191640 ??0QTextFormat@@QAE@H@Z
       1026  401 00191630 ??0QTextFormat@@QAE@XZ
       1027  402 00192E10 ??0QTextFormatCollection@@QAE@ABV0@@Z
       1028  403 00090A00 ??0QTextFormatCollection@@QAE@XZ
       1029  404 000439E0 ??0QTextFragment@@QAE@ABV0@@Z
       1030  405 000439B0 ??0QTextFragment@@QAE@PBVQTextDocumentPrivate@@HH@Z
       1031  406 000439D0 ??0QTextFragment@@QAE@XZ
       1032  407 00193920 ??0QTextFrame@@IAE@AAVQTextFramePrivate@@PAVQTextDocument@@@Z
       1033  408 00043760 ??0QTextFrame@@QAE@ABV0@@Z
       1034  409 00195570 ??0QTextFrame@@QAE@PAVQTextDocument@@@Z
       1035  40A 00192020 ??0QTextFrameFormat@@IAE@ABVQTextFormat@@@Z
       1036  40B 0003E880 ??0QTextFrameFormat@@QAE@ABV0@@Z
       1037  40C 00193190 ??0QTextFrameFormat@@QAE@XZ
       1038  40D 000434F0 ??0QTextFrameLayoutData@@QAE@ABV0@@Z
       1039  40E 000434E0 ??0QTextFrameLayoutData@@QAE@XZ
       1040  40F 00192020 ??0QTextImageFormat@@IAE@ABVQTextFormat@@@Z
       1041  410 0003E880 ??0QTextImageFormat@@QAE@ABV0@@Z
       1042  411 001932A0 ??0QTextImageFormat@@QAE@XZ
       1043  412 0019FBC0 ??0QTextImageHandler@@QAE@ABV0@@Z
       1044  413 001C1400 ??0QTextImageHandler@@QAE@PAVQObject@@@Z
       1045  414 001D9F90 ??0QTextInlineObject@@QAE@HPAVQTextEngine@@@Z
       1046  415 00043870 ??0QTextInlineObject@@QAE@XZ
       1047  416 004498D0 ??0QTextLayout@@AAE@PAVQTextEngine@@@Z
       1048  417 00188F90 ??0QTextLayout@@QAE@ABVQString@@@Z
       1049  418 00189010 ??0QTextLayout@@QAE@ABVQString@@ABVQFont@@PAVQPaintDevice@@@Z
       1050  419 00189170 ??0QTextLayout@@QAE@ABVQTextBlock@@@Z
       1051  41A 00188F10 ??0QTextLayout@@QAE@XZ
       1052  41B 0003D540 ??0QTextLength@@QAE@W4Type@0@N@Z
       1053  41C 0003D4F0 ??0QTextLength@@QAE@XZ
       1054  41D 001D9F90 ??0QTextLine@@AAE@HPAVQTextEngine@@@Z
       1055  41E 00043870 ??0QTextLine@@QAE@XZ
       1056  41F 001777E0 ??0QTextList@@QAE@ABV0@@Z
       1057  420 001C5F20 ??0QTextList@@QAE@PAVQTextDocument@@@Z
       1058  421 00192020 ??0QTextListFormat@@IAE@ABVQTextFormat@@@Z
       1059  422 0003E880 ??0QTextListFormat@@QAE@ABV0@@Z
       1060  423 00193130 ??0QTextListFormat@@QAE@XZ
       1061  424 00193780 ??0QTextObject@@IAE@AAVQTextObjectPrivate@@PAVQTextDocument@@@Z
       1062  425 00193B90 ??0QTextObject@@IAE@PAVQTextDocument@@@Z
       1063  426 00043380 ??0QTextObject@@QAE@ABV0@@Z
       1064  427 00043250 ??0QTextObjectInterface@@QAE@ABV0@@Z
       1065  428 00043240 ??0QTextObjectInterface@@QAE@XZ
       1066  429 00195EF0 ??0QTextOption@@QAE@ABV0@@Z
       1067  42A 00195A00 ??0QTextOption@@QAE@V?$QFlags@W4AlignmentFlag@Qt@@@@@Z
       1068  42B 001959B0 ??0QTextOption@@QAE@XZ
       1069  42C 00177F90 ??0QTextTable@@QAE@ABV0@@Z
       1070  42D 001C3100 ??0QTextTable@@QAE@PAVQTextDocument@@@Z
       1071  42E 001D9F90 ??0QTextTableCell@@AAE@PBVQTextTable@@H@Z
       1072  42F 00177DE0 ??0QTextTableCell@@QAE@ABV0@@Z
       1073  430 00076740 ??0QTextTableCell@@QAE@XZ
       1074  431 00192020 ??0QTextTableCellFormat@@IAE@ABVQTextFormat@@@Z
       1075  432 0003E880 ??0QTextTableCellFormat@@QAE@ABV0@@Z
       1076  433 00193300 ??0QTextTableCellFormat@@QAE@XZ
       1077  434 00192020 ??0QTextTableFormat@@IAE@ABVQTextFormat@@@Z
       1078  435 0003E880 ??0QTextTableFormat@@QAE@ABV0@@Z
       1079  436 00193220 ??0QTextTableFormat@@QAE@XZ
       1080  437 0027ABB0 ??0QTimeEdit@@QAE@ABV0@@Z
       1081  438 00299040 ??0QTimeEdit@@QAE@ABVQTime@@PAVQWidget@@@Z
       1082  439 00298FA0 ??0QTimeEdit@@QAE@PAVQWidget@@@Z
       1083  43A 000312F0 ??0QToolBar@@QAE@ABV0@@Z
       1084  43B 00309760 ??0QToolBar@@QAE@ABVQString@@PAVQWidget@@@Z
       1085  43C 003096B0 ??0QToolBar@@QAE@PAVQWidget@@@Z
       1086  43D 00309820 ??0QToolBar@@QAE@PAVQWidget@@PBD@Z
       1087  43E 0044AFA0 ??0QToolBarChangeEvent@@QAE@ABV0@@Z
       1088  43F 00023010 ??0QToolBarChangeEvent@@QAE@_N@Z
       1089  440 002C5150 ??0QToolBarItem@@QAE@ABV0@@Z
       1090  441 0030B210 ??0QToolBarItem@@QAE@PAVQWidget@@@Z
       1091  442 002C5730 ??0QToolBarLayout@@QAE@ABV0@@Z
       1092  443 0030B2B0 ??0QToolBarLayout@@QAE@PAVQWidget@@@Z
       1093  444 0022C550 ??0QToolBox@@QAE@ABV0@@Z
       1094  445 0030EBF0 ??0QToolBox@@QAE@PAVQWidget@@PBDV?$QFlags@W4WindowType@Qt@@@@@Z
       1095  446 0030ED10 ??0QToolBox@@QAE@PAVQWidget@@V?$QFlags@W4WindowType@Qt@@@@@Z
       1096  447 00310C50 ??0QToolButton@@IAE@AAVQToolButtonPrivate@@PAVQWidget@@@Z
       1097  448 000447A0 ??0QToolButton@@QAE@ABV0@@Z
       1098  449 00310E50 ??0QToolButton@@QAE@ABVQIcon@@ABVQString@@1PAVQObject@@PBDPAVQWidget@@3@Z
       1099  44A 00310CC0 ??0QToolButton@@QAE@PAVQWidget@@@Z
       1100  44B 00310D80 ??0QToolButton@@QAE@PAVQWidget@@PBD@Z
       1101  44C 00310F90 ??0QToolButton@@QAE@W4ArrowType@Qt@@PAVQWidget@@PBD@Z
       1102  44D 000401F0 ??0QTransform@@QAE@ABV0@@Z
       1103  44E 00104640 ??0QTransform@@QAE@ABVQMatrix@@@Z
       1104  44F 001045E0 ??0QTransform@@QAE@NNNNNN@Z
       1105  450 00104570 ??0QTransform@@QAE@NNNNNNNNN@Z
       1106  451 00104550 ??0QTransform@@QAE@XZ
       1107  452 003A4150 ??0QTreeView@@IAE@AAVQTreeViewPrivate@@PAVQWidget@@@Z
       1108  453 00213A70 ??0QTreeView@@QAE@ABV0@@Z
       1109  454 003A40B0 ??0QTreeView@@QAE@PAVQWidget@@@Z
       1110  455 003CDF00 ??0QTreeWidget@@QAE@ABV0@@Z
       1111  456 003D76D0 ??0QTreeWidget@@QAE@PAVQWidget@@@Z
       1112  457 003D3130 ??0QTreeWidgetItem@@QAE@ABV0@@Z
       1113  458 003D1BC0 ??0QTreeWidgetItem@@QAE@ABVQStringList@@H@Z
       1114  459 003D1AF0 ??0QTreeWidgetItem@@QAE@H@Z
       1115  45A 003D5B00 ??0QTreeWidgetItem@@QAE@PAV0@0H@Z
       1116  45B 003D75A0 ??0QTreeWidgetItem@@QAE@PAV0@ABVQStringList@@H@Z
       1117  45C 003D74B0 ??0QTreeWidgetItem@@QAE@PAV0@H@Z
       1118  45D 003D7340 ??0QTreeWidgetItem@@QAE@PAVQTreeWidget@@ABVQStringList@@H@Z
       1119  45E 003D7200 ??0QTreeWidgetItem@@QAE@PAVQTreeWidget@@H@Z
       1120  45F 003D59D0 ??0QTreeWidgetItem@@QAE@PAVQTreeWidget@@PAV0@H@Z
       1121  460 003E88E0 ??0QTreeWidgetItemIterator@@QAE@ABV0@@Z
       1122  461 003E8D50 ??0QTreeWidgetItemIterator@@QAE@PAVQTreeWidget@@V?$QFlags@W4IteratorFlag@QTreeWidgetItemIterator@@@@@Z
       1123  462 003E8E70 ??0QTreeWidgetItemIterator@@QAE@PAVQTreeWidgetItem@@V?$QFlags@W4IteratorFlag@QTreeWidgetItemIterator@@@@@Z
       1124  463 00439F50 ??0QUndoCommand@@QAE@ABV0@@Z
       1125  464 0043BA70 ??0QUndoCommand@@QAE@ABVQString@@PAV0@@Z
       1126  465 0043BB20 ??0QUndoCommand@@QAE@PAV0@@Z
       1127  466 00439ED0 ??0QUndoGroup@@QAE@ABV0@@Z
       1128  467 0043A980 ??0QUndoGroup@@QAE@PAVQObject@@@Z
       1129  468 0043A0A0 ??0QUndoStack@@QAE@ABV0@@Z
       1130  469 0043B910 ??0QUndoStack@@QAE@PAVQObject@@@Z
       1131  46A 0043CC30 ??0QUndoView@@QAE@ABV0@@Z
       1132  46B 0043D1B0 ??0QUndoView@@QAE@PAVQUndoGroup@@PAVQWidget@@@Z
       1133  46C 0043D280 ??0QUndoView@@QAE@PAVQUndoStack@@PAVQWidget@@@Z
       1134  46D 0043CE60 ??0QUndoView@@QAE@PAVQWidget@@@Z
       1135  46E 0044CD30 ??0QVBoxLayout@@QAE@ABV0@@Z
       1136  46F 0001E000 ??0QVBoxLayout@@QAE@HPBD@Z
       1137  470 0001DF30 ??0QVBoxLayout@@QAE@PAVQLayout@@HPBD@Z
       1138  471 0001DE20 ??0QVBoxLayout@@QAE@PAVQWidget@@@Z
       1139  472 0001DE70 ??0QVBoxLayout@@QAE@PAVQWidget@@HHPBD@Z
       1140  473 0001DE50 ??0QVBoxLayout@@QAE@XZ
       1141  474 003123D0 ??0QValidator@@IAE@AAVQObjectPrivate@@PAVQObject@@@Z
       1142  475 003123D0 ??0QValidator@@IAE@AAVQValidatorPrivate@@PAVQObject@@@Z
       1143  476 00001E80 ??0QValidator@@QAE@ABV0@@Z
       1144  477 00311E40 ??0QValidator@@QAE@PAVQObject@@@Z
       1145  478 00311EC0 ??0QValidator@@QAE@PAVQObject@@PBD@Z
       1146  479 00373080 ??0QWhatsThis@@AAE@XZ
       1147  47A 0044AE20 ??0QWhatsThisClickedEvent@@QAE@ABV0@@Z
       1148  47B 00022DD0 ??0QWhatsThisClickedEvent@@QAE@ABVQString@@@Z
       1149  47C 0044C700 ??0QWheelEvent@@QAE@ABV0@@Z
       1150  47D 00024270 ??0QWheelEvent@@QAE@ABVQPoint@@0HHW4Orientation@Qt@@@Z
       1151  47E 00024210 ??0QWheelEvent@@QAE@ABVQPoint@@0HV?$QFlags@W4MouseButton@Qt@@@@V?$QFlags@W4KeyboardModifier@Qt@@@@W4Orientation@Qt@@@Z
       1152  47F 00024120 ??0QWheelEvent@@QAE@ABVQPoint@@HHW4Orientation@Qt@@@Z
       1153  480 00024070 ??0QWheelEvent@@QAE@ABVQPoint@@HV?$QFlags@W4MouseButton@Qt@@@@V?$QFlags@W4KeyboardModifier@Qt@@@@W4Orientation@Qt@@@Z
       1154  481 000573B0 ??0QWidget@@IAE@AAVQWidgetPrivate@@PAV0@V?$QFlags@W4WindowType@Qt@@@@@Z
       1155  482 00004960 ??0QWidget@@QAE@ABV0@@Z
       1156  483 000572C0 ??0QWidget@@QAE@PAV0@PBDV?$QFlags@W4WindowType@Qt@@@@@Z
       1157  484 00057200 ??0QWidget@@QAE@PAV0@V?$QFlags@W4WindowType@Qt@@@@@Z
       1158  485 000589F0 ??0QWidgetAction@@QAE@ABV0@@Z
       1159  486 00058C80 ??0QWidgetAction@@QAE@PAVQObject@@@Z
       1160  487 002C5120 ??0QWidgetItem@@QAE@ABV0@@Z
       1161  488 000355B0 ??0QWidgetItem@@QAE@PAVQWidget@@@Z
       1162  489 0044CBA0 ??0QWidgetItemV2@@QAE@ABV0@@Z
       1163  48A 00035B20 ??0QWidgetItemV2@@QAE@PAVQWidget@@@Z
       1164  48B 00008C70 ??0QWidgetPrivate@@QAE@ABV0@@Z
       1165  48C 0004B590 ??0QWidgetPrivate@@QAE@H@Z
       1166  48D 0029C310 ??0QWidgetResizeHandler@@QAE@ABV0@@Z
       1167  48E 00315160 ??0QWidgetResizeHandler@@QAE@PAVQWidget@@0@Z
       1168  48F 0044CAE0 ??0QWindowStateChangeEvent@@QAE@ABV0@@Z
       1169  490 000247E0 ??0QWindowStateChangeEvent@@QAE@V?$QFlags@W4WindowState@Qt@@@@@Z
       1170  491 00024800 ??0QWindowStateChangeEvent@@QAE@V?$QFlags@W4WindowState@Qt@@@@_N@Z
       1171  492 00046290 ??0QWindowSurface@@QAE@ABV0@@Z
       1172  493 0015B1B0 ??0QWindowSurface@@QAE@PAVQWidget@@@Z
       1173  494 0044A760 ??0QWindowsMime@@QAE@ABV0@@Z
       1174  495 0006C1D0 ??0QWindowsMime@@QAE@XZ
       1175  496 002625A0 ??0QWindowsStyle@@IAE@AAVQWindowsStylePrivate@@@Z
       1176  497 0000EDB0 ??0QWindowsStyle@@QAE@ABV0@@Z
       1177  498 00264660 ??0QWindowsStyle@@QAE@XZ
       1178  499 001D9680 ??0QWindowsVistaStyle@@QAE@ABV0@@Z
       1179  49A 00216400 ??0QWindowsVistaStyle@@QAE@XZ
       1180  49B 0021CF20 ??0QWindowsXPStyle@@QAE@AAVQWindowsXPStylePrivate@@@Z
       1181  49C 001D9650 ??0QWindowsXPStyle@@QAE@ABV0@@Z
       1182  49D 0021F620 ??0QWindowsXPStyle@@QAE@XZ
       1183  49E 001DFA60 ??0QWizard@@QAE@ABV0@@Z
       1184  49F 0036F020 ??0QWizard@@QAE@PAVQWidget@@V?$QFlags@W4WindowType@Qt@@@@@Z
       1185  4A0 001DFAB0 ??0QWizardPage@@QAE@ABV0@@Z
       1186  4A1 0036B9D0 ??0QWizardPage@@QAE@PAVQWidget@@@Z
       1187  4A2 0022C5A0 ??0QWorkspace@@QAE@ABV0@@Z
       1188  4A3 00323550 ??0QWorkspace@@QAE@PAVQWidget@@@Z
       1189  4A4 00323600 ??0QWorkspace@@QAE@PAVQWidget@@PBD@Z
       1190  4A5 00018790 ??0Selector@QCss@@QAE@ABU01@@Z
       1191  4A6 003CED00 ??0Selector@QCss@@QAE@XZ
       1192  4A7 00019DF0 ??0StyleRule@QCss@@QAE@ABU01@@Z
       1193  4A8 00019CA0 ??0StyleRule@QCss@@QAE@XZ
       1194  4A9 0001B160 ??0StyleSelector@QCss@@QAE@ABV01@@Z
       1195  4AA 0001B0F0 ??0StyleSelector@QCss@@QAE@XZ
       1196  4AB 0001AD50 ??0StyleSheet@QCss@@QAE@ABU01@@Z
       1197  4AC 0001AB70 ??0StyleSheet@QCss@@QAE@XZ
       1198  4AD 0000CC40 ??0Symbol@QCss@@QAE@ABU01@@Z
       1199  4AE 0000CC20 ??0Symbol@QCss@@QAE@XZ
       1200  4AF 0018EF30 ??0Tab@QTextOption@@QAE@XZ
       1201  4B0 003BE530 ??0Value@QCss@@QAE@ABU01@@Z
       1202  4B1 0000C870 ??0Value@QCss@@QAE@XZ
       1203  4B2 000147C0 ??0ValueExtractor@QCss@@QAE@ABU01@@Z
       1204  4B3 001CF2C0 ??0ValueExtractor@QCss@@QAE@ABV?$QVector@UDeclaration@QCss@@@@ABVQPalette@@@Z
       1205  4B4 000438D0 ??0iterator@QTextBlock@@AAE@PBVQTextDocumentPrivate@@HHH@Z
       1206  4B5 003C4AE0 ??0iterator@QTextBlock@@QAE@ABV01@@Z
       1207  4B6 000438F0 ??0iterator@QTextBlock@@QAE@XZ
       1208  4B7 00193AB0 ??0iterator@QTextFrame@@AAE@PAV1@HHH@Z
       1209  4B8 00193AE0 ??0iterator@QTextFrame@@QAE@ABV01@@Z
       1210  4B9 00193A90 ??0iterator@QTextFrame@@QAE@XZ
       1211  4BA 001F8DF0 ??1?$QList@VQItemSelectionRange@@@@QAE@XZ
       1212  4BB 0000CAC0 ??1AttributeSelector@QCss@@QAE@XZ
       1213  4BC 00012280 ??1BasicSelector@QCss@@QAE@XZ
       1214  4BD 00010C90 ??1Declaration@QCss@@QAE@XZ
       1215  4BE 00012470 ??1ImportRule@QCss@@QAE@XZ
       1216  4BF 0001A720 ??1MediaRule@QCss@@QAE@XZ
       1217  4C0 00012F00 ??1PageRule@QCss@@QAE@XZ
       1218  4C1 00010D10 ??1Parser@QCss@@QAE@XZ
       1219  4C2 0000C940 ??1Pseudo@QCss@@QAE@XZ
       1220  4C3 00277D00 ??1QAbstractButton@@UAE@XZ
       1221  4C4 004024B0 ??1QAbstractGraphicsShapeItem@@UAE@XZ
       1222  4C5 003AE680 ??1QAbstractItemDelegate@@UAE@XZ
       1223  4C6 0037A5E0 ??1QAbstractItemView@@UAE@XZ
       1224  4C7 0037FEB0 ??1QAbstractItemViewPrivate@@UAE@XZ
       1225  4C8 000F2B70 ??1QAbstractPageSetupDialog@@UAE@XZ
       1226  4C9 000F2B70 ??1QAbstractPrintDialog@@UAE@XZ
       1227  4CA 003D8B60 ??1QAbstractProxyModel@@UAE@XZ
       1228  4CB 00312ED0 ??1QAbstractScrollArea@@UAE@XZ
       1229  4CC 00278500 ??1QAbstractSlider@@UAE@XZ
       1230  4CD 002793E0 ??1QAbstractSpinBox@@UAE@XZ
       1231  4CE 001AA1D0 ??1QAbstractTextDocumentLayout@@UAE@XZ
       1232  4CF 0003C2F0 ??1QAbstractUndoItem@@UAE@XZ
       1233  4D0 00372F70 ??1QAccessible2Interface@@UAE@XZ
       1234  4D1 003725F0 ??1QAccessibleApplication@@UAE@XZ
       1235  4D2 00372F70 ??1QAccessibleEditableTextInterface@@UAE@XZ
       1236  4D3 0000C140 ??1QAccessibleEvent@@UAE@XZ
       1237  4D4 00091AC0 ??1QAccessibleFactoryInterface@@UAE@XZ
       1238  4D5 0000C040 ??1QAccessibleInterface@@UAE@XZ
       1239  4D6 0000C040 ??1QAccessibleInterfaceEx@@UAE@XZ
       1240  4D7 00373980 ??1QAccessibleObject@@MAE@XZ
       1241  4D8 00373910 ??1QAccessibleObjectEx@@MAE@XZ
       1242  4D9 003776C0 ??1QAccessiblePlugin@@UAE@XZ
       1243  4DA 00372F70 ??1QAccessibleSimpleEditableTextInterface@@UAE@XZ
       1244  4DB 00372F70 ??1QAccessibleTableInterface@@UAE@XZ
       1245  4DC 00372F70 ??1QAccessibleTextInterface@@UAE@XZ
       1246  4DD 00372F70 ??1QAccessibleValueInterface@@UAE@XZ
       1247  4DE 00377370 ??1QAccessibleWidget@@MAE@XZ
       1248  4DF 003772F0 ??1QAccessibleWidgetEx@@MAE@XZ
       1249  4E0 0000AB00 ??1QAction@@UAE@XZ
       1250  4E1 00022ED0 ??1QActionEvent@@UAE@XZ
       1251  4E2 0000B510 ??1QActionGroup@@UAE@XZ
       1252  4E3 00015090 ??1QApplication@@UAE@XZ
       1253  4E4 00010EB0 ??1QApplicationPrivate@@UAE@XZ
       1254  4E5 00075940 ??1QBitmap@@UAE@XZ
       1255  4E6 0001DB00 ??1QBoxLayout@@UAE@XZ
       1256  4E7 000C1E30 ??1QBrush@@QAE@XZ
       1257  4E8 00276520 ??1QButtonGroup@@UAE@XZ
       1258  4E9 00211C80 ??1QCDEStyle@@UAE@XZ
       1259  4EA 0027F9F0 ??1QCalendarWidget@@UAE@XZ
       1260  4EB 001F3180 ??1QCheckBox@@UAE@XZ
       1261  4EC 0024A8C0 ??1QCleanlooksStyle@@UAE@XZ
       1262  4ED 00062930 ??1QClipboard@@EAE@XZ
       1263  4EE 00023140 ??1QClipboardEvent@@UAE@XZ
       1264  4EF 00022AC0 ??1QCloseEvent@@UAE@XZ
       1265  4F0 0033A6A0 ??1QColorDialog@@EAE@XZ
       1266  4F1 00036560 ??1QColorGroup@@QAE@XZ
       1267  4F2 001380E0 ??1QColormap@@QAE@XZ
       1268  4F3 003EC090 ??1QColumnView@@UAE@XZ
       1269  4F4 00287190 ??1QComboBox@@UAE@XZ
       1270  4F5 00212F30 ??1QCommandLinkButton@@UAE@XZ
       1271  4F6 001DCA30 ??1QCommonStyle@@UAE@XZ
       1272  4F7 00431870 ??1QCompleter@@UAE@XZ
       1273  4F8 000C0470 ??1QConicalGradient@@QAE@XZ
       1274  4F9 00022B40 ??1QContextMenuEvent@@UAE@XZ
       1275  4FA 0001FBD0 ??1QCursor@@QAE@XZ
       1276  4FB 00049650 ??1QDashStroker@@UAE@XZ
       1277  4FC 003E94E0 ??1QDataWidgetMapper@@UAE@XZ
       1278  4FD 002793E0 ??1QDateEdit@@UAE@XZ
       1279  4FE 002793E0 ??1QDateTimeEdit@@UAE@XZ
       1280  4FF 00063940 ??1QDesktopWidget@@UAE@XZ
       1281  500 00299600 ??1QDial@@UAE@XZ
       1282  501 0033EF00 ??1QDialog@@UAE@XZ
       1283  502 00299F40 ??1QDialogButtonBox@@UAE@XZ
       1284  503 003B8E10 ??1QDirModel@@UAE@XZ
       1285  504 0029C6C0 ??1QDockWidget@@UAE@XZ
       1286  505 0029CD70 ??1QDockWidgetLayout@@UAE@XZ
       1287  506 00212AD0 ??1QDoubleSpinBox@@UAE@XZ
       1288  507 00311F80 ??1QDoubleValidator@@UAE@XZ
       1289  508 00020390 ??1QDrag@@UAE@XZ
       1290  509 000258A0 ??1QDragEnterEvent@@UAE@XZ
       1291  50A 00022CA0 ??1QDragLeaveEvent@@UAE@XZ
       1292  50B 00020D50 ??1QDragManager@@EAE@XZ
       1293  50C 000258A0 ??1QDragMoveEvent@@UAE@XZ
       1294  50D 00022C70 ??1QDragResponseEvent@@UAE@XZ
       1295  50E 00025610 ??1QDropEvent@@UAE@XZ
       1296  50F 00341B30 ??1QErrorMessage@@UAE@XZ
       1297  510 00349EE0 ??1QFileDialog@@UAE@XZ
       1298  511 003EBF30 ??1QFileIconProvider@@UAE@XZ
       1299  512 00022FB0 ??1QFileOpenEvent@@UAE@XZ
       1300  513 0035B320 ??1QFileSystemModel@@UAE@XZ
       1301  514 00022750 ??1QFocusEvent@@UAE@XZ
       1302  515 00316730 ??1QFocusFrame@@UAE@XZ
       1303  516 0016BAE0 ??1QFont@@QAE@XZ
       1304  517 002AD4D0 ??1QFontComboBox@@UAE@XZ
       1305  518 0034E970 ??1QFontDialog@@EAE@XZ
       1306  519 00162B80 ??1QFontEngine@@UAE@XZ
       1307  51A 00163850 ??1QFontEngineMulti@@UAE@XZ
       1308  51B 0016BAE0 ??1QFontInfo@@QAE@XZ
       1309  51C 0016BAE0 ??1QFontMetrics@@QAE@XZ
       1310  51D 0016BAE0 ??1QFontMetricsF@@QAE@XZ
       1311  51E 0015C290 ??1QFontPrivate@@QAE@XZ
       1312  51F 000272F0 ??1QFormLayout@@UAE@XZ
       1313  520 002AED30 ??1QFrame@@UAE@XZ
       1314  521 002CA310 ??1QFramePrivate@@UAE@XZ
       1315  522 000C0470 ??1QGradient@@QAE@XZ
       1316  523 004024B0 ??1QGraphicsEllipseItem@@UAE@XZ
       1317  524 0042F110 ??1QGraphicsGridLayout@@UAE@XZ
       1318  525 00401330 ??1QGraphicsItem@@UAE@XZ
       1319  526 00403460 ??1QGraphicsItemAnimation@@UAE@XZ
       1320  527 00402570 ??1QGraphicsItemGroup@@UAE@XZ
       1321  528 004200C0 ??1QGraphicsLayout@@UAE@XZ
       1322  529 00420800 ??1QGraphicsLayoutItem@@UAE@XZ
       1323  52A 00401FD0 ??1QGraphicsLineItem@@UAE@XZ
       1324  52B 00421400 ??1QGraphicsLinearLayout@@UAE@XZ
       1325  52C 004024B0 ??1QGraphicsPathItem@@UAE@XZ
       1326  52D 00402120 ??1QGraphicsPixmapItem@@UAE@XZ
       1327  52E 004024B0 ??1QGraphicsPolygonItem@@UAE@XZ
       1328  52F 0042CB90 ??1QGraphicsProxyWidget@@UAE@XZ
       1329  530 004024B0 ??1QGraphicsRectItem@@UAE@XZ
       1330  531 00409680 ??1QGraphicsScene@@UAE@XZ
       1331  532 00415090 ??1QGraphicsSceneContextMenuEvent@@UAE@XZ
       1332  533 00415210 ??1QGraphicsSceneDragDropEvent@@UAE@XZ
       1333  534 00414E50 ??1QGraphicsSceneEvent@@UAE@XZ
       1334  535 004151C0 ??1QGraphicsSceneHelpEvent@@UAE@XZ
       1335  536 004150B0 ??1QGraphicsSceneHoverEvent@@UAE@XZ
       1336  537 00414EE0 ??1QGraphicsSceneMouseEvent@@UAE@XZ
       1337  538 00415490 ??1QGraphicsSceneMoveEvent@@UAE@XZ
       1338  539 004153A0 ??1QGraphicsSceneResizeEvent@@UAE@XZ
       1339  53A 00414FF0 ??1QGraphicsSceneWheelEvent@@UAE@XZ
       1340  53B 004024B0 ??1QGraphicsSimpleTextItem@@UAE@XZ
       1341  53C 004022F0 ??1QGraphicsTextItem@@UAE@XZ
       1342  53D 0041A6E0 ??1QGraphicsView@@UAE@XZ
       1343  53E 00422130 ??1QGraphicsWidget@@UAE@XZ
       1344  53F 0002C800 ??1QGridLayout@@UAE@XZ
       1345  540 002AFB70 ??1QGroupBox@@UAE@XZ
       1346  541 0001DE00 ??1QHBoxLayout@@UAE@XZ
       1347  542 00385A20 ??1QHeaderView@@UAE@XZ
       1348  543 00022CF0 ??1QHelpEvent@@UAE@XZ
       1349  544 00022F00 ??1QHideEvent@@UAE@XZ
       1350  545 00022660 ??1QHoverEvent@@UAE@XZ
       1351  546 00077130 ??1QIcon@@QAE@XZ
       1352  547 00022B30 ??1QIconDragEvent@@UAE@XZ
       1353  548 0009A850 ??1QIconEngine@@UAE@XZ
       1354  549 00091AC0 ??1QIconEngineFactoryInterface@@UAE@XZ
       1355  54A 00091AC0 ??1QIconEngineFactoryInterfaceV2@@UAE@XZ
       1356  54B 0009A960 ??1QIconEnginePlugin@@UAE@XZ
       1357  54C 0009A9B0 ??1QIconEnginePluginV2@@UAE@XZ
       1358  54D 00076120 ??1QIconEngineV2@@UAE@XZ
       1359  54E 00081AA0 ??1QImage@@UAE@XZ
       1360  54F 00089E90 ??1QImageIOHandler@@UAE@XZ
       1361  550 00091AC0 ??1QImageIOHandlerFactoryInterface@@UAE@XZ
       1362  551 00089F80 ??1QImageIOPlugin@@UAE@XZ
       1363  552 0008AC30 ??1QImageReader@@QAE@XZ
       1364  553 0007A130 ??1QImageTextKeyLang@@QAE@XZ
       1365  554 0008D900 ??1QImageWriter@@QAE@XZ
       1366  555 003F2150 ??1QInputContext@@UAE@XZ
       1367  556 00091AC0 ??1QInputContextFactoryInterface@@UAE@XZ
       1368  557 003F2090 ??1QInputContextPlugin@@UAE@XZ
       1369  558 003519F0 ??1QInputDialog@@EAE@XZ
       1370  559 00022B40 ??1QInputEvent@@UAE@XZ
       1371  55A 00025A00 ??1QInputMethodEvent@@UAE@XZ
       1372  55B 00311F80 ??1QIntValidator@@UAE@XZ
       1373  55C 003AEAE0 ??1QItemDelegate@@UAE@XZ
       1374  55D 003AE8E0 ??1QItemEditorCreatorBase@@UAE@XZ
       1375  55E 003E1420 ??1QItemEditorFactory@@UAE@XZ
       1376  55F 001F8DF0 ??1QItemSelection@@QAE@XZ
       1377  560 003B2DC0 ??1QItemSelectionModel@@UAE@XZ
       1378  561 001F3A10 ??1QItemSelectionRange@@QAE@XZ
       1379  562 00022670 ??1QKeyEvent@@UAE@XZ
       1380  563 00022710 ??1QKeyEventEx@@UAE@XZ
       1381  564 0002DF10 ??1QKeySequence@@QAE@XZ
       1382  565 002B5590 ??1QLCDNumber@@UAE@XZ
       1383  566 002B2740 ??1QLabel@@UAE@XZ
       1384  567 00031600 ??1QLayout@@UAE@XZ
       1385  568 00034AF0 ??1QLayoutItem@@UAE@XZ
       1386  569 001D7CD0 ??1QLayoutPrivate@@UAE@XZ
       1387  56A 002B8F60 ??1QLineEdit@@UAE@XZ
       1388  56B 000C0470 ??1QLinearGradient@@QAE@XZ
       1389  56C 0038F5F0 ??1QListView@@UAE@XZ
       1390  56D 003BE290 ??1QListWidget@@UAE@XZ
       1391  56E 003C2990 ??1QListWidgetItem@@UAE@XZ
       1392  56F 002C2450 ??1QMainWindow@@UAE@XZ
       1393  570 002CA350 ??1QMdiArea@@UAE@XZ
       1394  571 002D9900 ??1QMdiSubWindow@@UAE@XZ
       1395  572 002DFE70 ??1QMenu@@UAE@XZ
       1396  573 002E5A50 ??1QMenuBar@@UAE@XZ
       1397  574 002DBF40 ??1QMenuItem@@UAE@XZ
       1398  575 00023B90 ??1QMenubarUpdatedEvent@@UAE@XZ
       1399  576 00352A50 ??1QMessageBox@@UAE@XZ
       1400  577 00035BE0 ??1QMimeSource@@UAE@XZ
       1401  578 0026DB70 ??1QMotifStyle@@UAE@XZ
       1402  579 00022B40 ??1QMouseEvent@@UAE@XZ
       1403  57A 00022B40 ??1QMouseEventEx@@UAE@XZ
       1404  57B 00022A40 ??1QMoveEvent@@UAE@XZ
       1405  57C 0009AB30 ??1QMovie@@UAE@XZ
       1406  57D 000F2B70 ??1QPageSetupDialog@@UAE@XZ
       1407  57E 00138530 ??1QPaintDevice@@UAE@XZ
       1408  57F 000CB840 ??1QPaintEngine@@UAE@XZ
       1409  580 000228E0 ??1QPaintEvent@@UAE@XZ
       1410  581 000D4980 ??1QPainter@@QAE@XZ
       1411  582 000DD0A0 ??1QPainterPath@@QAE@XZ
       1412  583 000DD0F0 ??1QPainterPathStroker@@QAE@XZ
       1413  584 00036560 ??1QPalette@@QAE@XZ
       1414  585 000E85B0 ??1QPen@@QAE@XZ
       1415  586 000948D0 ??1QPicture@@UAE@XZ
       1416  587 00091AC0 ??1QPictureFormatInterface@@UAE@XZ
       1417  588 00096030 ??1QPictureFormatPlugin@@UAE@XZ
       1418  589 00095B00 ??1QPictureIO@@QAE@XZ
       1419  58A 00090940 ??1QPicturePrivate@@QAE@XZ
       1420  58B 00096920 ??1QPixmap@@UAE@XZ
       1421  58C 00099EA0 ??1QPixmapData@@UAE@XZ
       1422  58D 0009A770 ??1QPixmapDataFactory@@UAE@XZ
       1423  58E 00329B90 ??1QPlainTextDocumentLayout@@UAE@XZ
       1424  58F 0032A820 ??1QPlainTextEdit@@UAE@XZ
       1425  590 00229300 ??1QPlastiqueStyle@@UAE@XZ
       1426  591 000401E0 ??1QPolygon@@QAE@XZ
       1427  592 004171A0 ??1QPolygonF@@QAE@XZ
       1428  593 00337940 ??1QPrintDialog@@UAE@XZ
       1429  594 000E2A70 ??1QPrintEngine@@UAE@XZ
       1430  595 0036FF30 ??1QPrintPreviewDialog@@UAE@XZ
       1431  596 00331DB0 ??1QPrintPreviewWidget@@UAE@XZ
       1432  597 000F43D0 ??1QPrinter@@UAE@XZ
       1433  598 00140D60 ??1QPrinterInfo@@QAE@XZ
       1434  599 001F4010 ??1QProgressBar@@UAE@XZ
       1435  59A 00356A40 ??1QProgressDialog@@UAE@XZ
       1436  59B 003D7AF0 ??1QProxyModel@@UAE@XZ
       1437  59C 002EBE00 ??1QPushButton@@UAE@XZ
       1438  59D 000C0470 ??1QRadialGradient@@QAE@XZ
       1439  59E 001F3180 ??1QRadioButton@@UAE@XZ
       1440  59F 00312A00 ??1QRegExpValidator@@UAE@XZ
       1441  5A0 00142130 ??1QRegion@@QAE@XZ
       1442  5A1 00022A90 ??1QResizeEvent@@UAE@XZ
       1443  5A2 002EDC60 ??1QRubberBand@@UAE@XZ
       1444  5A3 00316E10 ??1QScrollArea@@UAE@XZ
       1445  5A4 002EE0D0 ??1QScrollBar@@UAE@XZ
       1446  5A5 0000E690 ??1QSessionManager@@EAE@XZ
       1447  5A6 00038AC0 ??1QShortcut@@UAE@XZ
       1448  5A7 000230C0 ??1QShortcutEvent@@UAE@XZ
       1449  5A8 00022F30 ??1QShowEvent@@UAE@XZ
       1450  5A9 002EF9C0 ??1QSizeGrip@@UAE@XZ
       1451  5AA 002F0980 ??1QSlider@@UAE@XZ
       1452  5AB 003DD350 ??1QSortFilterProxyModel@@UAE@XZ
       1453  5AC 0003B3B0 ??1QSound@@UAE@XZ
       1454  5AD 00031280 ??1QSpacerItem@@UAE@XZ
       1455  5AE 00212AD0 ??1QSpinBox@@UAE@XZ
       1456  5AF 002F4D00 ??1QSplashScreen@@UAE@XZ
       1457  5B0 002F8A80 ??1QSplitter@@UAE@XZ
       1458  5B1 001F4010 ??1QSplitterHandle@@UAE@XZ
       1459  5B2 0003BD00 ??1QStackedLayout@@UAE@XZ
       1460  5B3 002F9850 ??1QStackedWidget@@UAE@XZ
       1461  5B4 003E17C0 ??1QStandardItem@@UAE@XZ
       1462  5B5 003E18E0 ??1QStandardItemModel@@UAE@XZ
       1463  5B6 002FAE80 ??1QStatusBar@@UAE@XZ
       1464  5B7 00022D70 ??1QStatusTipEvent@@UAE@XZ
       1465  5B8 002ADA70 ??1QStringListModel@@UAE@XZ
       1466  5B9 000F6430 ??1QStroker@@UAE@XZ
       1467  5BA 000F6430 ??1QStrokerOps@@UAE@XZ
       1468  5BB 001D7D90 ??1QStyle@@UAE@XZ
       1469  5BC 00091AC0 ??1QStyleFactoryInterface@@UAE@XZ
       1470  5BD 00276040 ??1QStyleHintReturn@@QAE@XZ
       1471  5BE 000037D0 ??1QStyleHintReturnMask@@QAE@XZ
       1472  5BF 000038C0 ??1QStyleHintReturnVariant@@QAE@XZ
       1473  5C0 001D9F30 ??1QStyleOption@@QAE@XZ
       1474  5C1 00003020 ??1QStyleOptionButton@@QAE@XZ
       1475  5C2 00003640 ??1QStyleOptionComboBox@@QAE@XZ
       1476  5C3 00002F50 ??1QStyleOptionComplex@@QAE@XZ
       1477  5C4 000032B0 ??1QStyleOptionDockWidget@@QAE@XZ
       1478  5C5 00003350 ??1QStyleOptionDockWidgetV2@@QAE@XZ
       1479  5C6 00002F50 ??1QStyleOptionFocusRect@@QAE@XZ
       1480  5C7 00002F50 ??1QStyleOptionFrame@@QAE@XZ
       1481  5C8 00002F50 ??1QStyleOptionFrameV2@@QAE@XZ
       1482  5C9 00002F50 ??1QStyleOptionGraphicsItem@@QAE@XZ
       1483  5CA 00003720 ??1QStyleOptionGroupBox@@QAE@XZ
       1484  5CB 00002FB0 ??1QStyleOptionHeader@@QAE@XZ
       1485  5CC 00003180 ??1QStyleOptionMenuItem@@QAE@XZ
       1486  5CD 00003110 ??1QStyleOptionProgressBar@@QAE@XZ
       1487  5CE 00003170 ??1QStyleOptionProgressBarV2@@QAE@XZ
       1488  5CF 00002F50 ??1QStyleOptionQ3DockWindow@@QAE@XZ
       1489  5D0 00008BC0 ??1QStyleOptionQ3ListView@@QAE@XZ
       1490  5D1 00002F50 ??1QStyleOptionQ3ListViewItem@@QAE@XZ
       1491  5D2 00002F50 ??1QStyleOptionRubberBand@@QAE@XZ
       1492  5D3 00002F50 ??1QStyleOptionSizeGrip@@QAE@XZ
       1493  5D4 00002F50 ??1QStyleOptionSlider@@QAE@XZ
       1494  5D5 00002F50 ??1QStyleOptionSpinBox@@QAE@XZ
       1495  5D6 00003090 ??1QStyleOptionTab@@QAE@XZ
       1496  5D7 00002F50 ??1QStyleOptionTabBarBase@@QAE@XZ
       1497  5D8 00003100 ??1QStyleOptionTabV2@@QAE@XZ
       1498  5D9 00002F50 ??1QStyleOptionTabWidgetFrame@@QAE@XZ
       1499  5DA 000036B0 ??1QStyleOptionTitleBar@@QAE@XZ
       1500  5DB 00002F50 ??1QStyleOptionToolBar@@QAE@XZ
       1501  5DC 00003490 ??1QStyleOptionToolBox@@QAE@XZ
       1502  5DD 00003530 ??1QStyleOptionToolBoxV2@@QAE@XZ
       1503  5DE 000035C0 ??1QStyleOptionToolButton@@QAE@XZ
       1504  5DF 000033A0 ??1QStyleOptionViewItem@@QAE@XZ
       1505  5E0 00003400 ??1QStyleOptionViewItemV2@@QAE@XZ
       1506  5E1 00003400 ??1QStyleOptionViewItemV3@@QAE@XZ
       1507  5E2 00003410 ??1QStyleOptionViewItemV4@@QAE@XZ
       1508  5E3 001DC360 ??1QStylePlugin@@UAE@XZ
       1509  5E4 003F0170 ??1QStyledItemDelegate@@UAE@XZ
       1510  5E5 001C6540 ??1QSyntaxHighlighter@@UAE@XZ
       1511  5E6 0042FE90 ??1QSystemTrayIcon@@UAE@XZ
       1512  5E7 002FB100 ??1QTabBar@@UAE@XZ
       1513  5E8 002FF9A0 ??1QTabWidget@@UAE@XZ
       1514  5E9 00399690 ??1QTableView@@UAE@XZ
       1515  5EA 003C4C30 ??1QTableWidget@@UAE@XZ
       1516  5EB 003C8A80 ??1QTableWidgetItem@@UAE@XZ
       1517  5EC 00276040 ??1QTableWidgetSelectionRange@@QAE@XZ
       1518  5ED 00022B40 ??1QTabletEvent@@UAE@XZ
       1519  5EE 000FCA90 ??1QTessellator@@UAE@XZ
       1520  5EF 0003E7D0 ??1QTextBlockFormat@@QAE@XZ
       1521  5F0 001937B0 ??1QTextBlockGroup@@MAE@XZ
       1522  5F1 00193B50 ??1QTextBlockUserData@@UAE@XZ
       1523  5F2 00305F20 ??1QTextBrowser@@UAE@XZ
       1524  5F3 0003E7D0 ??1QTextCharFormat@@QAE@XZ
       1525  5F4 00178420 ??1QTextControl@@UAE@XZ
       1526  5F5 001B9C30 ??1QTextCursor@@QAE@XZ
       1527  5F6 00198090 ??1QTextDocument@@UAE@XZ
       1528  5F7 001BC970 ??1QTextDocumentFragment@@QAE@XZ
       1529  5F8 00301440 ??1QTextEdit@@UAE@XZ
       1530  5F9 00186200 ??1QTextEngine@@QAE@XZ
       1531  5FA 001916C0 ??1QTextFormat@@QAE@XZ
       1532  5FB 001928C0 ??1QTextFormatCollection@@QAE@XZ
       1533  5FC 001938B0 ??1QTextFrame@@UAE@XZ
       1534  5FD 0003E7D0 ??1QTextFrameFormat@@QAE@XZ
       1535  5FE 001938A0 ??1QTextFrameLayoutData@@UAE@XZ
       1536  5FF 0003E7D0 ??1QTextImageFormat@@QAE@XZ
       1537  600 0019FBA0 ??1QTextImageHandler@@UAE@XZ
       1538  601 00189A00 ??1QTextLayout@@QAE@XZ
       1539  602 001C5A20 ??1QTextList@@UAE@XZ
       1540  603 0003E7D0 ??1QTextListFormat@@QAE@XZ
       1541  604 001937B0 ??1QTextObject@@MAE@XZ
       1542  605 00043230 ??1QTextObjectInterface@@UAE@XZ
       1543  606 00195EC0 ??1QTextOption@@QAE@XZ
       1544  607 001C2360 ??1QTextTable@@UAE@XZ
       1545  608 00276040 ??1QTextTableCell@@QAE@XZ
       1546  609 0003E7D0 ??1QTextTableCellFormat@@QAE@XZ
       1547  60A 0003E7D0 ??1QTextTableFormat@@QAE@XZ
       1548  60B 002793E0 ??1QTimeEdit@@UAE@XZ
       1549  60C 0030A0D0 ??1QToolBar@@UAE@XZ
       1550  60D 00023040 ??1QToolBarChangeEvent@@UAE@XZ
       1551  60E 00031280 ??1QToolBarItem@@UAE@XZ
       1552  60F 0030B870 ??1QToolBarLayout@@UAE@XZ
       1553  610 0030DE60 ??1QToolBox@@UAE@XZ
       1554  611 0030FBD0 ??1QToolButton@@UAE@XZ
       1555  612 003A0DB0 ??1QTreeView@@UAE@XZ
       1556  613 003CDB50 ??1QTreeWidget@@UAE@XZ
       1557  614 003D1CD0 ??1QTreeWidgetItem@@UAE@XZ
       1558  615 003E89C0 ??1QTreeWidgetItemIterator@@QAE@XZ
       1559  616 0043BCD0 ??1QUndoCommand@@UAE@XZ
       1560  617 00439EC0 ??1QUndoGroup@@UAE@XZ
       1561  618 0043BD00 ??1QUndoStack@@UAE@XZ
       1562  619 0043CB30 ??1QUndoView@@UAE@XZ
       1563  61A 0001E0B0 ??1QVBoxLayout@@UAE@XZ
       1564  61B 00311F80 ??1QValidator@@UAE@XZ
       1565  61C 00022E40 ??1QWhatsThisClickedEvent@@UAE@XZ
       1566  61D 00022B40 ??1QWheelEvent@@UAE@XZ
       1567  61E 0004ECC0 ??1QWidget@@UAE@XZ
       1568  61F 00058E30 ??1QWidgetAction@@UAE@XZ
       1569  620 00034AF0 ??1QWidgetItem@@UAE@XZ
       1570  621 00035340 ??1QWidgetItemV2@@UAE@XZ
       1571  622 0004F550 ??1QWidgetPrivate@@UAE@XZ
       1572  623 00439EC0 ??1QWidgetResizeHandler@@UAE@XZ
       1573  624 00023160 ??1QWindowStateChangeEvent@@UAE@XZ
       1574  625 0015B260 ??1QWindowSurface@@UAE@XZ
       1575  626 0006CC40 ??1QWindowsMime@@UAE@XZ
       1576  627 002625E0 ??1QWindowsStyle@@UAE@XZ
       1577  628 001D94A0 ??1QWindowsVistaStyle@@UAE@XZ
       1578  629 0021CEE0 ??1QWindowsXPStyle@@UAE@XZ
       1579  62A 003682F0 ??1QWizard@@UAE@XZ
       1580  62B 001F4010 ??1QWizardPage@@UAE@XZ
       1581  62C 00317E70 ??1QWorkspace@@UAE@XZ
       1582  62D 000182A0 ??1Selector@QCss@@QAE@XZ
       1583  62E 00019D10 ??1StyleRule@QCss@@QAE@XZ
       1584  62F 001D3A90 ??1StyleSelector@QCss@@UAE@XZ
       1585  630 0001AC10 ??1StyleSheet@QCss@@QAE@XZ
       1586  631 0002E0A0 ??1Symbol@QCss@@QAE@XZ
       1587  632 0000C890 ??1Value@QCss@@QAE@XZ
       1588  633 00012E20 ??1ValueExtractor@QCss@@QAE@XZ
       1589  634 001FA480 ??4?$QList@VQItemSelectionRange@@@@QAEAAV0@ABV0@@Z
       1590  635 0000CB90 ??4AttributeSelector@QCss@@QAEAAU01@ABU01@@Z
       1591  636 00012340 ??4BasicSelector@QCss@@QAEAAU01@ABU01@@Z
       1592  637 00011730 ??4Declaration@QCss@@QAEAAU01@ABU01@@Z
       1593  638 000117E0 ??4ImportRule@QCss@@QAEAAU01@ABU01@@Z
       1594  639 0001A8E0 ??4MediaRule@QCss@@QAEAAU01@ABU01@@Z
       1595  63A 00014920 ??4PageRule@QCss@@QAEAAU01@ABU01@@Z
       1596  63B 000118D0 ??4Parser@QCss@@QAEAAV01@ABV01@@Z
       1597  63C 0000CA20 ??4Pseudo@QCss@@QAEAAU01@ABU01@@Z
       1598  63D 00299750 ??4QAbstractButton@@QAEAAV0@ABV0@@Z
       1599  63E 0000DB00 ??4QAbstractGraphicsShapeItem@@QAEAAV0@ABV0@@Z
       1600  63F 0003C3E0 ??4QAbstractItemDelegate@@QAEAAV0@ABV0@@Z
       1601  640 00299750 ??4QAbstractItemView@@QAEAAV0@ABV0@@Z
       1602  641 00381890 ??4QAbstractItemViewPrivate@@QAEAAV0@ABV0@@Z
       1603  642 00299750 ??4QAbstractPageSetupDialog@@QAEAAV0@ABV0@@Z
       1604  643 00299750 ??4QAbstractPrintDialog@@QAEAAV0@ABV0@@Z
       1605  644 003B8DF0 ??4QAbstractProxyModel@@QAEAAV0@ABV0@@Z
       1606  645 00299750 ??4QAbstractScrollArea@@QAEAAV0@ABV0@@Z
       1607  646 00299750 ??4QAbstractSlider@@QAEAAV0@ABV0@@Z
       1608  647 00299750 ??4QAbstractSpinBox@@QAEAAV0@ABV0@@Z
       1609  648 0003C3E0 ??4QAbstractTextDocumentLayout@@QAEAAV0@ABV0@@Z
       1610  649 0000C030 ??4QAbstractUndoItem@@QAEAAV0@ABV0@@Z
       1611  64A 0000C030 ??4QAccessible2Interface@@QAEAAV0@ABV0@@Z
       1612  64B 0000C030 ??4QAccessible@@QAEAAV0@ABV0@@Z
       1613  64C 0000DB00 ??4QAccessibleApplication@@QAEAAV0@ABV0@@Z
       1614  64D 0000C030 ??4QAccessibleEditableTextInterface@@QAEAAV0@ABV0@@Z
       1615  64E 0000C210 ??4QAccessibleEvent@@QAEAAV0@ABV0@@Z
       1616  64F 0000C030 ??4QAccessibleFactoryInterface@@QAEAAU0@ABU0@@Z
       1617  650 0000C030 ??4QAccessibleInterface@@QAEAAV0@ABV0@@Z
       1618  651 0000C030 ??4QAccessibleInterfaceEx@@QAEAAV0@ABV0@@Z
       1619  652 0000DB00 ??4QAccessibleObject@@QAEAAV0@ABV0@@Z
       1620  653 0000DB00 ??4QAccessibleObjectEx@@QAEAAV0@ABV0@@Z
       1621  654 0003C3E0 ??4QAccessiblePlugin@@QAEAAV0@ABV0@@Z
       1622  655 0000DB00 ??4QAccessibleSimpleEditableTextInterface@@QAEAAV0@ABV0@@Z
       1623  656 0000C030 ??4QAccessibleTableInterface@@QAEAAV0@ABV0@@Z
       1624  657 0000C030 ??4QAccessibleTextInterface@@QAEAAV0@ABV0@@Z
       1625  658 0000C030 ??4QAccessibleValueInterface@@QAEAAV0@ABV0@@Z
       1626  659 003726B0 ??4QAccessibleWidget@@QAEAAV0@ABV0@@Z
       1627  65A 003726B0 ??4QAccessibleWidgetEx@@QAEAAV0@ABV0@@Z
       1628  65B 0003C3E0 ??4QAction@@QAEAAV0@ABV0@@Z
       1629  65C 0044AEF0 ??4QActionEvent@@QAEAAV0@ABV0@@Z
       1630  65D 0003C3E0 ??4QActionGroup@@QAEAAV0@ABV0@@Z
       1631  65E 0044A510 ??4QApplication@@QAEAAV0@ABV0@@Z
       1632  65F 000BA280 ??4QBezier@@QAEAAV0@ABV0@@Z
       1633  660 0001FC80 ??4QBitmap@@QAEAAV0@ABV0@@Z
       1634  661 0044C670 ??4QBitmap@@QAEAAV0@ABVQImage@@@Z
       1635  662 00075CC0 ??4QBitmap@@QAEAAV0@ABVQPixmap@@@Z
       1636  663 000269D0 ??4QBoxLayout@@QAEAAV0@ABV0@@Z
       1637  664 000C1060 ??4QBrush@@QAEAAV0@ABV0@@Z
       1638  665 0003C3E0 ??4QButtonGroup@@QAEAAV0@ABV0@@Z
       1639  666 001D95B0 ??4QCDEStyle@@QAEAAV0@ABV0@@Z
       1640  667 00299750 ??4QCalendarWidget@@QAEAAV0@ABV0@@Z
       1641  668 00299750 ??4QCheckBox@@QAEAAV0@ABV0@@Z
       1642  669 00402670 ??4QCleanlooksStyle@@QAEAAV0@ABV0@@Z
       1643  66A 0003C3E0 ??4QClipboard@@QAEAAV0@ABV0@@Z
       1644  66B 0044AB50 ??4QClipboardEvent@@QAEAAV0@ABV0@@Z
       1645  66C 0044AB50 ??4QCloseEvent@@QAEAAV0@ABV0@@Z
       1646  66D 000C28D0 ??4QColor@@QAEAAV0@ABV0@@Z
       1647  66E 000C4E80 ??4QColor@@QAEAAV0@W4GlobalColor@Qt@@@Z
       1648  66F 00299750 ??4QColorDialog@@QAEAAV0@ABV0@@Z
       1649  670 00036540 ??4QColorGroup@@QAEAAV0@ABV0@@Z
       1650  671 00138250 ??4QColormap@@QAEAAV0@ABV0@@Z
       1651  672 00299750 ??4QColumnView@@QAEAAV0@ABV0@@Z
       1652  673 00299750 ??4QComboBox@@QAEAAV0@ABV0@@Z
       1653  674 00299750 ??4QCommandLinkButton@@QAEAAV0@ABV0@@Z
       1654  675 0003C3E0 ??4QCommonStyle@@QAEAAV0@ABV0@@Z
       1655  676 0003C3E0 ??4QCompleter@@QAEAAV0@ABV0@@Z
       1656  677 0044D670 ??4QConicalGradient@@QAEAAV0@ABV0@@Z
       1657  678 0044CAA0 ??4QContextMenuEvent@@QAEAAV0@ABV0@@Z
       1658  679 0001FC00 ??4QCursor@@QAEAAV0@ABV0@@Z
       1659  67A 0004C9F0 ??4QDashStroker@@QAEAAV0@ABV0@@Z
       1660  67B 0003C3E0 ??4QDataWidgetMapper@@QAEAAV0@ABV0@@Z
       1661  67C 00299750 ??4QDateEdit@@QAEAAV0@ABV0@@Z
       1662  67D 00299750 ??4QDateTimeEdit@@QAEAAV0@ABV0@@Z
       1663  67E 0000C030 ??4QDesktopServices@@QAEAAV0@ABV0@@Z
       1664  67F 00299750 ??4QDesktopWidget@@QAEAAV0@ABV0@@Z
       1665  680 00299750 ??4QDial@@QAEAAV0@ABV0@@Z
       1666  681 00299750 ??4QDialog@@QAEAAV0@ABV0@@Z
       1667  682 00299750 ??4QDialogButtonBox@@QAEAAV0@ABV0@@Z
       1668  683 003B8DF0 ??4QDirModel@@QAEAAV0@ABV0@@Z
       1669  684 00299750 ??4QDockWidget@@QAEAAV0@ABV0@@Z
       1670  685 0029E1F0 ??4QDockWidgetLayout@@QAEAAV0@ABV0@@Z
       1671  686 00299750 ??4QDoubleSpinBox@@QAEAAV0@ABV0@@Z
       1672  687 00002170 ??4QDoubleValidator@@QAEAAV0@ABV0@@Z
       1673  688 0003C3E0 ??4QDrag@@QAEAAV0@ABV0@@Z
       1674  689 0044D820 ??4QDragEnterEvent@@QAEAAV0@ABV0@@Z
       1675  68A 0044AB50 ??4QDragLeaveEvent@@QAEAAV0@ABV0@@Z
       1676  68B 00003AE0 ??4QDragManager@@QAEAAV0@ABV0@@Z
       1677  68C 0044D820 ??4QDragMoveEvent@@QAEAAV0@ABV0@@Z
       1678  68D 0044AC90 ??4QDragResponseEvent@@QAEAAV0@ABV0@@Z
       1679  68E 0044D750 ??4QDropEvent@@QAEAAV0@ABV0@@Z
       1680  68F 00299750 ??4QErrorMessage@@QAEAAV0@ABV0@@Z
       1681  690 00299750 ??4QFileDialog@@QAEAAV0@ABV0@@Z
       1682  691 0000DB00 ??4QFileIconProvider@@QAEAAV0@ABV0@@Z
       1683  692 0044AE90 ??4QFileOpenEvent@@QAEAAV0@ABV0@@Z
       1684  693 003B8DF0 ??4QFileSystemModel@@QAEAAV0@ABV0@@Z
       1685  694 0044B0F0 ??4QFocusEvent@@QAEAAV0@ABV0@@Z
       1686  695 00299750 ??4QFocusFrame@@QAEAAV0@ABV0@@Z
       1687  696 0015D570 ??4QFont@@QAEAAV0@ABV0@@Z
       1688  697 00299750 ??4QFontComboBox@@QAEAAV0@ABV0@@Z
       1689  698 000430C0 ??4QFontDatabase@@QAEAAV0@ABV0@@Z
       1690  699 00299750 ??4QFontDialog@@QAEAAV0@ABV0@@Z
       1691  69A 000CCB10 ??4QFontEngine@@QAEAAV0@ABV0@@Z
       1692  69B 000CCC40 ??4QFontEngineMulti@@QAEAAV0@ABV0@@Z
       1693  69C 0016C810 ??4QFontInfo@@QAEAAV0@ABV0@@Z
       1694  69D 0016C810 ??4QFontMetrics@@QAEAAV0@ABV0@@Z
       1695  69E 0016C810 ??4QFontMetricsF@@QAEAAV0@ABV0@@Z
       1696  69F 0016C810 ??4QFontMetricsF@@QAEAAV0@ABVQFontMetrics@@@Z
       1697  6A0 0000C030 ??4QFontPrivate@@AAEAAV0@ABV0@@Z
       1698  6A1 000269D0 ??4QFormLayout@@QAEAAV0@ABV0@@Z
       1699  6A2 00299750 ??4QFrame@@QAEAAV0@ABV0@@Z
       1700  6A3 0004CA90 ??4QFramePrivate@@QAEAAV0@ABV0@@Z
       1701  6A4 000C0DB0 ??4QGradient@@QAEAAV0@ABV0@@Z
       1702  6A5 0000DB00 ??4QGraphicsEllipseItem@@QAEAAV0@ABV0@@Z
       1703  6A6 0000DB00 ??4QGraphicsGridLayout@@QAEAAV0@ABV0@@Z
       1704  6A7 0000DB00 ??4QGraphicsItem@@QAEAAV0@ABV0@@Z
       1705  6A8 00402670 ??4QGraphicsItemAnimation@@QAEAAV0@ABV0@@Z
       1706  6A9 0000DB00 ??4QGraphicsItemGroup@@QAEAAV0@ABV0@@Z
       1707  6AA 0000DB00 ??4QGraphicsLayout@@QAEAAV0@ABV0@@Z
       1708  6AB 0000DB00 ??4QGraphicsLayoutItem@@QAEAAV0@ABV0@@Z
       1709  6AC 0000DB00 ??4QGraphicsLineItem@@QAEAAV0@ABV0@@Z
       1710  6AD 0000DB00 ??4QGraphicsLinearLayout@@QAEAAV0@ABV0@@Z
       1711  6AE 0000DB00 ??4QGraphicsPathItem@@QAEAAV0@ABV0@@Z
       1712  6AF 0000DB00 ??4QGraphicsPixmapItem@@QAEAAV0@ABV0@@Z
       1713  6B0 0000DB00 ??4QGraphicsPolygonItem@@QAEAAV0@ABV0@@Z
       1714  6B1 0000DFD0 ??4QGraphicsProxyWidget@@QAEAAV0@ABV0@@Z
       1715  6B2 0000DB00 ??4QGraphicsRectItem@@QAEAAV0@ABV0@@Z
       1716  6B3 0003C3E0 ??4QGraphicsScene@@QAEAAV0@ABV0@@Z
       1717  6B4 0044B0F0 ??4QGraphicsSceneContextMenuEvent@@QAEAAV0@ABV0@@Z
       1718  6B5 0044B0F0 ??4QGraphicsSceneDragDropEvent@@QAEAAV0@ABV0@@Z
       1719  6B6 0044B0F0 ??4QGraphicsSceneEvent@@QAEAAV0@ABV0@@Z
       1720  6B7 0044B0F0 ??4QGraphicsSceneHelpEvent@@QAEAAV0@ABV0@@Z
       1721  6B8 0044B0F0 ??4QGraphicsSceneHoverEvent@@QAEAAV0@ABV0@@Z
       1722  6B9 0044B0F0 ??4QGraphicsSceneMouseEvent@@QAEAAV0@ABV0@@Z
       1723  6BA 0044B0F0 ??4QGraphicsSceneMoveEvent@@QAEAAV0@ABV0@@Z
       1724  6BB 0044B0F0 ??4QGraphicsSceneResizeEvent@@QAEAAV0@ABV0@@Z
       1725  6BC 0044B0F0 ??4QGraphicsSceneWheelEvent@@QAEAAV0@ABV0@@Z
       1726  6BD 0000DB00 ??4QGraphicsSimpleTextItem@@QAEAAV0@ABV0@@Z
       1727  6BE 0000DCD0 ??4QGraphicsTextItem@@QAEAAV0@ABV0@@Z
       1728  6BF 00299750 ??4QGraphicsView@@QAEAAV0@ABV0@@Z
       1729  6C0 0000DFD0 ??4QGraphicsWidget@@QAEAAV0@ABV0@@Z
       1730  6C1 000269D0 ??4QGridLayout@@QAEAAV0@ABV0@@Z
       1731  6C2 00299750 ??4QGroupBox@@QAEAAV0@ABV0@@Z
       1732  6C3 000269D0 ??4QHBoxLayout@@QAEAAV0@ABV0@@Z
       1733  6C4 00299750 ??4QHeaderView@@QAEAAV0@ABV0@@Z
       1734  6C5 0044AD50 ??4QHelpEvent@@QAEAAV0@ABV0@@Z
       1735  6C6 0044AB50 ??4QHideEvent@@QAEAAV0@ABV0@@Z
       1736  6C7 0044AD50 ??4QHoverEvent@@QAEAAV0@ABV0@@Z
       1737  6C8 00076890 ??4QIcon@@QAEAAV0@ABV0@@Z
       1738  6C9 0044AB50 ??4QIconDragEvent@@QAEAAV0@ABV0@@Z
       1739  6CA 0000C030 ??4QIconEngine@@QAEAAV0@ABV0@@Z
       1740  6CB 0000C030 ??4QIconEngineFactoryInterface@@QAEAAU0@ABU0@@Z
       1741  6CC 0000C030 ??4QIconEngineFactoryInterfaceV2@@QAEAAU0@ABU0@@Z
       1742  6CD 0003C3E0 ??4QIconEnginePlugin@@QAEAAV0@ABV0@@Z
       1743  6CE 0003C3E0 ??4QIconEnginePluginV2@@QAEAAV0@ABV0@@Z
       1744  6CF 0000C030 ??4QIconEngineV2@@QAEAAV0@ABV0@@Z
       1745  6D0 00081B20 ??4QImage@@QAEAAV0@ABV0@@Z
       1746  6D1 0000DB00 ??4QImageIOHandler@@QAEAAV0@ABV0@@Z
       1747  6D2 0000C030 ??4QImageIOHandlerFactoryInterface@@QAEAAU0@ABU0@@Z
       1748  6D3 0003C3E0 ??4QImageIOPlugin@@QAEAAV0@ABV0@@Z
       1749  6D4 000430C0 ??4QImageReader@@QAEAAV0@ABV0@@Z
       1750  6D5 0007A1F0 ??4QImageTextKeyLang@@QAEAAV0@ABV0@@Z
       1751  6D6 000430C0 ??4QImageWriter@@QAEAAV0@ABV0@@Z
       1752  6D7 0000C030 ??4QInputContextFactory@@QAEAAV0@ABV0@@Z
       1753  6D8 0000C030 ??4QInputContextFactoryInterface@@QAEAAU0@ABU0@@Z
       1754  6D9 0003C3E0 ??4QInputContextPlugin@@QAEAAV0@ABV0@@Z
       1755  6DA 00299750 ??4QInputDialog@@QAEAAV0@ABV0@@Z
       1756  6DB 0044B0F0 ??4QInputEvent@@QAEAAV0@ABV0@@Z
       1757  6DC 000143A0 ??4QInputMethodEvent@@QAEAAV0@ABV0@@Z
       1758  6DD 00001FF0 ??4QIntValidator@@QAEAAV0@ABV0@@Z
       1759  6DE 0003C3E0 ??4QItemDelegate@@QAEAAV0@ABV0@@Z
       1760  6DF 0000C030 ??4QItemEditorCreatorBase@@QAEAAV0@ABV0@@Z
       1761  6E0 003B1ED0 ??4QItemEditorFactory@@QAEAAV0@ABV0@@Z
       1762  6E1 001FB240 ??4QItemSelection@@QAEAAV0@ABV0@@Z
       1763  6E2 0003C3E0 ??4QItemSelectionModel@@QAEAAV0@ABV0@@Z
       1764  6E3 001F3A70 ??4QItemSelectionRange@@QAEAAV0@ABV0@@Z
       1765  6E4 000248F0 ??4QKeyEvent@@QAEAAV0@ABV0@@Z
       1766  6E5 00024940 ??4QKeyEventEx@@QAEAAV0@ABV0@@Z
       1767  6E6 0002E4B0 ??4QKeySequence@@QAEAAV0@ABV0@@Z
       1768  6E7 00299750 ??4QLCDNumber@@QAEAAV0@ABV0@@Z
       1769  6E8 00299750 ??4QLabel@@QAEAAV0@ABV0@@Z
       1770  6E9 000269D0 ??4QLayout@@QAEAAV0@ABV0@@Z
       1771  6EA 0000DB00 ??4QLayoutItem@@QAEAAV0@ABV0@@Z
       1772  6EB 00177DE0 ??4QLayoutIterator@@QAEAAV0@ABV0@@Z
       1773  6EC 0001B2F0 ??4QLayoutPrivate@@QAEAAV0@ABV0@@Z
       1774  6ED 00299750 ??4QLineEdit@@QAEAAV0@ABV0@@Z
       1775  6EE 0044D670 ??4QLinearGradient@@QAEAAV0@ABV0@@Z
       1776  6EF 00299750 ??4QListView@@QAEAAV0@ABV0@@Z
       1777  6F0 00299750 ??4QListWidget@@QAEAAV0@ABV0@@Z
       1778  6F1 003C0DD0 ??4QListWidgetItem@@QAEAAV0@ABV0@@Z
       1779  6F2 00299750 ??4QMainWindow@@QAEAAV0@ABV0@@Z
       1780  6F3 000FE710 ??4QMatrix@@QAEAAV0@ABV0@@Z
       1781  6F4 00299750 ??4QMdiArea@@QAEAAV0@ABV0@@Z
       1782  6F5 00299750 ??4QMdiSubWindow@@QAEAAV0@ABV0@@Z
       1783  6F6 00299750 ??4QMenu@@QAEAAV0@ABV0@@Z
       1784  6F7 00299750 ??4QMenuBar@@QAEAAV0@ABV0@@Z
       1785  6F8 0003C3E0 ??4QMenuItem@@QAEAAV0@ABV0@@Z
       1786  6F9 0044B0F0 ??4QMenubarUpdatedEvent@@QAEAAV0@ABV0@@Z
       1787  6FA 00299750 ??4QMessageBox@@QAEAAV0@ABV0@@Z
       1788  6FB 0000C030 ??4QMimeSource@@QAEAAV0@ABV0@@Z
       1789  6FC 001D95B0 ??4QMotifStyle@@QAEAAV0@ABV0@@Z
       1790  6FD 000248B0 ??4QMouseEvent@@QAEAAV0@ABV0@@Z
       1791  6FE 00024A10 ??4QMouseEventEx@@QAEAAV0@ABV0@@Z
       1792  6FF 0044AD50 ??4QMoveEvent@@QAEAAV0@ABV0@@Z
       1793  700 0003C3E0 ??4QMovie@@QAEAAV0@ABV0@@Z
       1794  701 00299750 ??4QPageSetupDialog@@QAEAAV0@ABV0@@Z
       1795  702 000048D0 ??4QPaintDevice@@QAEAAV0@ABV0@@Z
       1796  703 00048520 ??4QPaintEngine@@QAEAAV0@ABV0@@Z
       1797  704 000430C0 ??4QPaintEngineState@@QAEAAV0@ABV0@@Z
       1798  705 0044AA10 ??4QPaintEvent@@QAEAAV0@ABV0@@Z
       1799  706 000430C0 ??4QPainter@@QAEAAV0@ABV0@@Z
       1800  707 000DBFE0 ??4QPainterPath@@QAEAAV0@ABV0@@Z
       1801  708 000430C0 ??4QPainterPathStroker@@QAEAAV0@ABV0@@Z
       1802  709 00036170 ??4QPalette@@QAEAAV0@ABV0@@Z
       1803  70A 000E86D0 ??4QPen@@QAEAAV0@ABV0@@Z
       1804  70B 000949D0 ??4QPicture@@QAEAAV0@ABV0@@Z
       1805  70C 0000C030 ??4QPictureFormatInterface@@QAEAAU0@ABU0@@Z
       1806  70D 0003C3E0 ??4QPictureFormatPlugin@@QAEAAV0@ABV0@@Z
       1807  70E 000430C0 ??4QPictureIO@@QAEAAV0@ABV0@@Z
       1808  70F 000910D0 ??4QPicturePrivate@@QAEAAV0@ABV0@@Z
       1809  710 00096A50 ??4QPixmap@@QAEAAV0@ABV0@@Z
       1810  711 00097E50 ??4QPixmap@@QAEAAV0@ABVQImage@@@Z
       1811  712 0000C030 ??4QPixmapCache@@QAEAAV0@ABV0@@Z
       1812  713 00075790 ??4QPixmapData@@QAEAAV0@ABV0@@Z
       1813  714 0000C030 ??4QPixmapDataFactory@@QAEAAV0@ABV0@@Z
       1814  715 0003C3E0 ??4QPlainTextDocumentLayout@@QAEAAV0@ABV0@@Z
       1815  716 00299750 ??4QPlainTextEdit@@QAEAAV0@ABV0@@Z
       1816  717 00001FF0 ??4QPlastiqueStyle@@QAEAAV0@ABV0@@Z
       1817  718 0026D620 ??4QPolygon@@QAEAAV0@ABV0@@Z
       1818  719 0007A000 ??4QPolygonF@@QAEAAV0@ABV0@@Z
       1819  71A 00299750 ??4QPrintDialog@@QAEAAV0@ABV0@@Z
       1820  71B 0000C030 ??4QPrintEngine@@QAEAAV0@ABV0@@Z
       1821  71C 00370190 ??4QPrintPreviewDialog@@QAEAAV0@ABV0@@Z
       1822  71D 00370190 ??4QPrintPreviewWidget@@QAEAAV0@ABV0@@Z
       1823  71E 000E3C10 ??4QPrinter@@QAEAAV0@ABV0@@Z
       1824  71F 00140C90 ??4QPrinterInfo@@QAEAAV0@ABV0@@Z
       1825  720 00299750 ??4QProgressBar@@QAEAAV0@ABV0@@Z
       1826  721 00299750 ??4QProgressDialog@@QAEAAV0@ABV0@@Z
       1827  722 003B8DF0 ??4QProxyModel@@QAEAAV0@ABV0@@Z
       1828  723 00299750 ??4QPushButton@@QAEAAV0@ABV0@@Z
       1829  724 0044D670 ??4QRadialGradient@@QAEAAV0@ABV0@@Z
       1830  725 00299750 ??4QRadioButton@@QAEAAV0@ABV0@@Z
       1831  726 00002330 ??4QRegExpValidator@@QAEAAV0@ABV0@@Z
       1832  727 00142160 ??4QRegion@@QAEAAV0@ABV0@@Z
       1833  728 0044AD50 ??4QResizeEvent@@QAEAAV0@ABV0@@Z
       1834  729 00299750 ??4QRubberBand@@QAEAAV0@ABV0@@Z
       1835  72A 00299750 ??4QScrollArea@@QAEAAV0@ABV0@@Z
       1836  72B 00299750 ??4QScrollBar@@QAEAAV0@ABV0@@Z
       1837  72C 0003C3E0 ??4QSessionManager@@QAEAAV0@ABV0@@Z
       1838  72D 0003C3E0 ??4QShortcut@@QAEAAV0@ABV0@@Z
       1839  72E 0044B070 ??4QShortcutEvent@@QAEAAV0@ABV0@@Z
       1840  72F 0044AB50 ??4QShowEvent@@QAEAAV0@ABV0@@Z
       1841  730 00299750 ??4QSizeGrip@@QAEAAV0@ABV0@@Z
       1842  731 000430C0 ??4QSizePolicy@@QAEAAV0@ABV0@@Z
       1843  732 00299750 ??4QSlider@@QAEAAV0@ABV0@@Z
       1844  733 003B8DF0 ??4QSortFilterProxyModel@@QAEAAV0@ABV0@@Z
       1845  734 0003C3E0 ??4QSound@@QAEAAV0@ABV0@@Z
       1846  735 0044CB60 ??4QSpacerItem@@QAEAAV0@ABV0@@Z
       1847  736 00299750 ??4QSpinBox@@QAEAAV0@ABV0@@Z
       1848  737 00299750 ??4QSplashScreen@@QAEAAV0@ABV0@@Z
       1849  738 00299750 ??4QSplitter@@QAEAAV0@ABV0@@Z
       1850  739 00299750 ??4QSplitterHandle@@QAEAAV0@ABV0@@Z
       1851  73A 000269D0 ??4QStackedLayout@@QAEAAV0@ABV0@@Z
       1852  73B 00299750 ??4QStackedWidget@@QAEAAV0@ABV0@@Z
       1853  73C 003E4620 ??4QStandardItem@@IAEAAV0@ABV0@@Z
       1854  73D 003B8DF0 ??4QStandardItemModel@@QAEAAV0@ABV0@@Z
       1855  73E 00299750 ??4QStatusBar@@QAEAAV0@ABV0@@Z
       1856  73F 0044AE90 ??4QStatusTipEvent@@QAEAAV0@ABV0@@Z
       1857  740 002ADAF0 ??4QStringListModel@@QAEAAV0@ABV0@@Z
       1858  741 00046600 ??4QStroker@@QAEAAV0@ABV0@@Z
       1859  742 000464A0 ??4QStrokerOps@@QAEAAV0@ABV0@@Z
       1860  743 0003C3E0 ??4QStyle@@QAEAAV0@ABV0@@Z
       1861  744 0000C030 ??4QStyleFactory@@QAEAAV0@ABV0@@Z
       1862  745 0000C030 ??4QStyleFactoryInterface@@QAEAAU0@ABU0@@Z
       1863  746 00177DE0 ??4QStyleHintReturn@@QAEAAV0@ABV0@@Z
       1864  747 00003890 ??4QStyleHintReturnMask@@QAEAAV0@ABV0@@Z
       1865  748 00003980 ??4QStyleHintReturnVariant@@QAEAAV0@ABV0@@Z
       1866  749 001DA1F0 ??4QStyleOption@@QAEAAV0@ABV0@@Z
       1867  74A 000056E0 ??4QStyleOptionButton@@QAEAAV0@ABV0@@Z
       1868  74B 00005F50 ??4QStyleOptionComboBox@@QAEAAV0@ABV0@@Z
       1869  74C 00005E00 ??4QStyleOptionComplex@@QAEAAV0@ABV0@@Z
       1870  74D 00003310 ??4QStyleOptionDockWidget@@QAEAAV0@ABV0@@Z
       1871  74E 00003360 ??4QStyleOptionDockWidgetV2@@QAEAAV0@ABV0@@Z
       1872  74F 001DBEC0 ??4QStyleOptionDockWidgetV2@@QAEAAV0@ABVQStyleOptionDockWidget@@@Z
       1873  750 00002ED0 ??4QStyleOptionFocusRect@@QAEAAV0@ABV0@@Z
       1874  751 00005E00 ??4QStyleOptionFrame@@QAEAAV0@ABV0@@Z
       1875  752 000054E0 ??4QStyleOptionFrameV2@@QAEAAV0@ABV0@@Z
       1876  753 001DB790 ??4QStyleOptionFrameV2@@QAEAAV0@ABVQStyleOptionFrame@@@Z
       1877  754 00003780 ??4QStyleOptionGraphicsItem@@QAEAAV0@ABV0@@Z
       1878  755 00006010 ??4QStyleOptionGroupBox@@QAEAAV0@ABV0@@Z
       1879  756 00005680 ??4QStyleOptionHeader@@QAEAAV0@ABV0@@Z
       1880  757 00003200 ??4QStyleOptionMenuItem@@QAEAAV0@ABV0@@Z
       1881  758 00005810 ??4QStyleOptionProgressBar@@QAEAAV0@ABV0@@Z
       1882  759 00005850 ??4QStyleOptionProgressBarV2@@QAEAAV0@ABV0@@Z
       1883  75A 001DBE60 ??4QStyleOptionProgressBarV2@@QAEAAV0@ABVQStyleOptionProgressBar@@@Z
       1884  75B 00003280 ??4QStyleOptionQ3DockWindow@@QAEAAV0@ABV0@@Z
       1885  75C 00009F10 ??4QStyleOptionQ3ListView@@QAEAAV0@ABV0@@Z
       1886  75D 00005940 ??4QStyleOptionQ3ListViewItem@@QAEAAV0@ABV0@@Z
       1887  75E 00003580 ??4QStyleOptionRubberBand@@QAEAAV0@ABV0@@Z
       1888  75F 000054E0 ??4QStyleOptionSizeGrip@@QAEAAV0@ABV0@@Z
       1889  760 00005E30 ??4QStyleOptionSlider@@QAEAAV0@ABV0@@Z
       1890  761 00005EA0 ??4QStyleOptionSpinBox@@QAEAAV0@ABV0@@Z
       1891  762 00005720 ??4QStyleOptionTab@@QAEAAV0@ABV0@@Z
       1892  763 00002F60 ??4QStyleOptionTabBarBase@@QAEAAV0@ABV0@@Z
       1893  764 00005770 ??4QStyleOptionTabV2@@QAEAAV0@ABV0@@Z
       1894  765 001DBCF0 ??4QStyleOptionTabV2@@QAEAAV0@ABVQStyleOptionTab@@@Z
       1895  766 00002F00 ??4QStyleOptionTabWidgetFrame@@QAEAAV0@ABV0@@Z
       1896  767 00005FC0 ??4QStyleOptionTitleBar@@QAEAAV0@ABV0@@Z
       1897  768 000057D0 ??4QStyleOptionToolBar@@QAEAAV0@ABV0@@Z
       1898  769 00003500 ??4QStyleOptionToolBox@@QAEAAV0@ABV0@@Z
       1899  76A 00003540 ??4QStyleOptionToolBoxV2@@QAEAAV0@ABV0@@Z
       1900  76B 001DBF90 ??4QStyleOptionToolBoxV2@@QAEAAV0@ABVQStyleOptionToolBox@@@Z
       1901  76C 00005EE0 ??4QStyleOptionToolButton@@QAEAAV0@ABV0@@Z
       1902  76D 00005B10 ??4QStyleOptionViewItem@@QAEAAV0@ABV0@@Z
       1903  76E 00005B60 ??4QStyleOptionViewItemV2@@QAEAAV0@ABV0@@Z
       1904  76F 001DB820 ??4QStyleOptionViewItemV2@@QAEAAV0@ABVQStyleOptionViewItem@@@Z
       1905  770 00005BC0 ??4QStyleOptionViewItemV3@@QAEAAV0@ABV0@@Z
       1906  771 001DB8D0 ??4QStyleOptionViewItemV3@@QAEAAV0@ABVQStyleOptionViewItem@@@Z
       1907  772 00005BF0 ??4QStyleOptionViewItemV4@@QAEAAV0@ABV0@@Z
       1908  773 001DBA40 ??4QStyleOptionViewItemV4@@QAEAAV0@ABVQStyleOptionViewItem@@@Z
       1909  774 0003C3E0 ??4QStylePlugin@@QAEAAV0@ABV0@@Z
       1910  775 0003C3E0 ??4QStyledItemDelegate@@QAEAAV0@ABV0@@Z
       1911  776 0003C3E0 ??4QSyntaxHighlighter@@QAEAAV0@ABV0@@Z
       1912  777 0003C3E0 ??4QSystemTrayIcon@@QAEAAV0@ABV0@@Z
       1913  778 00299750 ??4QTabBar@@QAEAAV0@ABV0@@Z
       1914  779 00299750 ??4QTabWidget@@QAEAAV0@ABV0@@Z
       1915  77A 00299750 ??4QTableView@@QAEAAV0@ABV0@@Z
       1916  77B 00299750 ??4QTableWidget@@QAEAAV0@ABV0@@Z
       1917  77C 003C8BE0 ??4QTableWidgetItem@@QAEAAV0@ABV0@@Z
       1918  77D 003C4AE0 ??4QTableWidgetSelectionRange@@QAEAAV0@ABV0@@Z
       1919  77E 0044C850 ??4QTabletEvent@@QAEAAV0@ABV0@@Z
       1920  77F 0000DB00 ??4QTessellator@@QAEAAV0@ABV0@@Z
       1921  780 00177DE0 ??4QTextBlock@@QAEAAV0@ABV0@@Z
       1922  781 0003F560 ??4QTextBlockFormat@@QAEAAV0@ABV0@@Z
       1923  782 0003C3E0 ??4QTextBlockGroup@@QAEAAV0@ABV0@@Z
       1924  783 0000C030 ??4QTextBlockUserData@@QAEAAV0@ABV0@@Z
       1925  784 00299750 ??4QTextBrowser@@QAEAAV0@ABV0@@Z
       1926  785 0003F560 ??4QTextCharFormat@@QAEAAV0@ABV0@@Z
       1927  786 0003C3E0 ??4QTextControl@@QAEAAV0@ABV0@@Z
       1928  787 001B9BF0 ??4QTextCursor@@QAEAAV0@ABV0@@Z
       1929  788 0003C3E0 ??4QTextDocument@@QAEAAV0@ABV0@@Z
       1930  789 001BCAB0 ??4QTextDocumentFragment@@QAEAAV0@ABV0@@Z
       1931  78A 00299750 ??4QTextEdit@@QAEAAV0@ABV0@@Z
       1932  78B 00090BB0 ??4QTextEngine@@QAEAAV0@ABV0@@Z
       1933  78C 00191660 ??4QTextFormat@@QAEAAV0@ABV0@@Z
       1934  78D 00192F20 ??4QTextFormatCollection@@QAEAAV0@ABV0@@Z
       1935  78E 000439E0 ??4QTextFragment@@QAEAAV0@ABV0@@Z
       1936  78F 0003C3E0 ??4QTextFrame@@QAEAAV0@ABV0@@Z
       1937  790 0003F560 ??4QTextFrameFormat@@QAEAAV0@ABV0@@Z
       1938  791 0000C030 ??4QTextFrameLayoutData@@QAEAAV0@ABV0@@Z
       1939  792 0003F560 ??4QTextImageFormat@@QAEAAV0@ABV0@@Z
       1940  793 0003C3E0 ??4QTextImageHandler@@QAEAAV0@ABV0@@Z
       1941  794 00177DE0 ??4QTextInlineObject@@QAEAAV0@ABV0@@Z
       1942  795 0000C030 ??4QTextItem@@QAEAAV0@ABV0@@Z
       1943  796 000430C0 ??4QTextLayout@@QAEAAV0@ABV0@@Z
       1944  797 003C4AE0 ??4QTextLength@@QAEAAV0@ABV0@@Z
       1945  798 00177DE0 ??4QTextLine@@QAEAAV0@ABV0@@Z
       1946  799 0003C3E0 ??4QTextList@@QAEAAV0@ABV0@@Z
       1947  79A 0003F560 ??4QTextListFormat@@QAEAAV0@ABV0@@Z
       1948  79B 0003C3E0 ??4QTextObject@@QAEAAV0@ABV0@@Z
       1949  79C 0000C030 ??4QTextObjectInterface@@QAEAAV0@ABV0@@Z
       1950  79D 00195AD0 ??4QTextOption@@QAEAAV0@ABV0@@Z
       1951  79E 0003C3E0 ??4QTextTable@@QAEAAV0@ABV0@@Z
       1952  79F 00177DE0 ??4QTextTableCell@@QAEAAV0@ABV0@@Z
       1953  7A0 0003F560 ??4QTextTableCellFormat@@QAEAAV0@ABV0@@Z
       1954  7A1 0003F560 ??4QTextTableFormat@@QAEAAV0@ABV0@@Z
       1955  7A2 00299750 ??4QTimeEdit@@QAEAAV0@ABV0@@Z
       1956  7A3 00299750 ??4QToolBar@@QAEAAV0@ABV0@@Z
       1957  7A4 0044AFD0 ??4QToolBarChangeEvent@@QAEAAV0@ABV0@@Z
       1958  7A5 002C5190 ??4QToolBarItem@@QAEAAV0@ABV0@@Z
       1959  7A6 002C5870 ??4QToolBarLayout@@QAEAAV0@ABV0@@Z
       1960  7A7 00299750 ??4QToolBox@@QAEAAV0@ABV0@@Z
       1961  7A8 00299750 ??4QToolButton@@QAEAAV0@ABV0@@Z
       1962  7A9 0000C030 ??4QToolTip@@QAEAAV0@ABV0@@Z
       1963  7AA 001048C0 ??4QTransform@@QAEAAV0@ABV0@@Z
       1964  7AB 00299750 ??4QTreeView@@QAEAAV0@ABV0@@Z
       1965  7AC 00299750 ??4QTreeWidget@@QAEAAV0@ABV0@@Z
       1966  7AD 003D3230 ??4QTreeWidgetItem@@QAEAAV0@ABV0@@Z
       1967  7AE 003E8A10 ??4QTreeWidgetItemIterator@@QAEAAV0@ABV0@@Z
       1968  7AF 0000DB00 ??4QUndoCommand@@QAEAAV0@ABV0@@Z
       1969  7B0 0003C3E0 ??4QUndoGroup@@QAEAAV0@ABV0@@Z
       1970  7B1 0003C3E0 ??4QUndoStack@@QAEAAV0@ABV0@@Z
       1971  7B2 00299750 ??4QUndoView@@QAEAAV0@ABV0@@Z
       1972  7B3 000269D0 ??4QVBoxLayout@@QAEAAV0@ABV0@@Z
       1973  7B4 0003C3E0 ??4QValidator@@QAEAAV0@ABV0@@Z
       1974  7B5 0000C030 ??4QWhatsThis@@QAEAAV0@ABV0@@Z
       1975  7B6 0044AE90 ??4QWhatsThisClickedEvent@@QAEAAV0@ABV0@@Z
       1976  7B7 0044C760 ??4QWheelEvent@@QAEAAV0@ABV0@@Z
       1977  7B8 00299750 ??4QWidget@@QAEAAV0@ABV0@@Z
       1978  7B9 0003C3E0 ??4QWidgetAction@@QAEAAV0@ABV0@@Z
       1979  7BA 003726B0 ??4QWidgetItem@@QAEAAV0@ABV0@@Z
       1980  7BB 0044CC30 ??4QWidgetItemV2@@QAEAAV0@ABV0@@Z
       1981  7BC 00008F40 ??4QWidgetPrivate@@QAEAAV0@ABV0@@Z
       1982  7BD 0029C3C0 ??4QWidgetResizeHandler@@QAEAAV0@ABV0@@Z
       1983  7BE 0044B0F0 ??4QWindowStateChangeEvent@@QAEAAV0@ABV0@@Z
       1984  7BF 0000DB00 ??4QWindowSurface@@QAEAAV0@ABV0@@Z
       1985  7C0 0000C030 ??4QWindowsMime@@QAEAAV0@ABV0@@Z
       1986  7C1 00402670 ??4QWindowsStyle@@QAEAAV0@ABV0@@Z
       1987  7C2 00001FF0 ??4QWindowsVistaStyle@@QAEAAV0@ABV0@@Z
       1988  7C3 00001FF0 ??4QWindowsXPStyle@@QAEAAV0@ABV0@@Z
       1989  7C4 00299750 ??4QWizard@@QAEAAV0@ABV0@@Z
       1990  7C5 00299750 ??4QWizardPage@@QAEAAV0@ABV0@@Z
       1991  7C6 00299750 ??4QWorkspace@@QAEAAV0@ABV0@@Z
       1992  7C7 000187C0 ??4Selector@QCss@@QAEAAU01@ABU01@@Z
       1993  7C8 00019E90 ??4StyleRule@QCss@@QAEAAU01@ABU01@@Z
       1994  7C9 0001B1F0 ??4StyleSelector@QCss@@QAEAAV01@ABV01@@Z
       1995  7CA 0001AE50 ??4StyleSheet@QCss@@QAEAAU01@ABU01@@Z
       1996  7CB 0000CC70 ??4Symbol@QCss@@QAEAAU01@ABU01@@Z
       1997  7CC 003C4AE0 ??4Tab@QTextOption@@QAEAAU01@ABU01@@Z
       1998  7CD 0000C8A0 ??4Value@QCss@@QAEAAU01@ABU01@@Z
       1999  7CE 00014860 ??4ValueExtractor@QCss@@QAEAAU01@ABU01@@Z
       2000  7CF 003C4AE0 ??4iterator@QTextBlock@@QAEAAV01@ABV01@@Z
       2001  7D0 00193AE0 ??4iterator@QTextFrame@@QAEAAV01@ABV01@@Z
       2002  7D1 000C2020 ??5@YAAAVQDataStream@@AAV0@AAVQBrush@@@Z
       2003  7D2 000C3FD0 ??5@YAAAVQDataStream@@AAV0@AAVQColor@@@Z
       2004  7D3 000386A0 ??5@YAAAVQDataStream@@AAV0@AAVQColorGroup@@@Z
       2005  7D4 00020150 ??5@YAAAVQDataStream@@AAV0@AAVQCursor@@@Z
       2006  7D5 0015CFB0 ??5@YAAAVQDataStream@@AAV0@AAVQFont@@@Z
       2007  7D6 00077DB0 ??5@YAAAVQDataStream@@AAV0@AAVQIcon@@@Z
       2008  7D7 00082A50 ??5@YAAAVQDataStream@@AAV0@AAVQImage@@@Z
       2009  7D8 0002F390 ??5@YAAAVQDataStream@@AAV0@AAVQKeySequence@@@Z
       2010  7D9 003CDB30 ??5@YAAAVQDataStream@@AAV0@AAVQListWidgetItem@@@Z
       2011  7DA 000FE5C0 ??5@YAAAVQDataStream@@AAV0@AAVQMatrix@@@Z
       2012  7DB 000DD710 ??5@YAAAVQDataStream@@AAV0@AAVQPainterPath@@@Z
       2013  7DC 00036CC0 ??5@YAAAVQDataStream@@AAV0@AAVQPalette@@@Z
       2014  7DD 000E9430 ??5@YAAAVQDataStream@@AAV0@AAVQPen@@@Z
       2015  7DE 000919B0 ??5@YAAAVQDataStream@@AAV0@AAVQPicture@@@Z
       2016  7DF 000980D0 ??5@YAAAVQDataStream@@AAV0@AAVQPixmap@@@Z
       2017  7E0 000EA800 ??5@YAAAVQDataStream@@AAV0@AAVQPolygon@@@Z
       2018  7E1 000EA120 ??5@YAAAVQDataStream@@AAV0@AAVQPolygonF@@@Z
       2019  7E2 000FD600 ??5@YAAAVQDataStream@@AAV0@AAVQRegion@@@Z
       2020  7E3 00031140 ??5@YAAAVQDataStream@@AAV0@AAVQSizePolicy@@@Z
       2021  7E4 003E1840 ??5@YAAAVQDataStream@@AAV0@AAVQStandardItem@@@Z
       2022  7E5 003E1840 ??5@YAAAVQDataStream@@AAV0@AAVQTableWidgetItem@@@Z
       2023  7E6 001923D0 ??5@YAAAVQDataStream@@AAV0@AAVQTextFormat@@@Z
       2024  7E7 0018EEC0 ??5@YAAAVQDataStream@@AAV0@AAVQTextLength@@@Z
       2025  7E8 00104EB0 ??5@YAAAVQDataStream@@AAV0@AAVQTransform@@@Z
       2026  7E9 003E1840 ??5@YAAAVQDataStream@@AAV0@AAVQTreeWidgetItem@@@Z
       2027  7EA 002F96F0 ??5@YAAAVQTextStream@@AAV0@AAVQSplitter@@@Z
       2028  7EB 001FAB70 ??6?$QList@VQItemSelectionRange@@@@QAEAAV0@ABV0@@Z
       2029  7EC 001FB880 ??6?$QList@VQItemSelectionRange@@@@QAEAAV0@ABVQItemSelectionRange@@@Z
       2030  7ED 000BFB00 ??6@YA?AVQDebug@@V0@ABVQBrush@@@Z
       2031  7EE 000C4EF0 ??6@YA?AVQDebug@@V0@ABVQColor@@@Z
       2032  7EF 0015D2C0 ??6@YA?AVQDebug@@V0@ABVQFont@@@Z
       2033  7F0 003B27E0 ??6@YA?AVQDebug@@V0@ABVQItemSelectionRange@@@Z
       2034  7F1 0002EDB0 ??6@YA?AVQDebug@@V0@ABVQKeySequence@@@Z
       2035  7F2 000FFA00 ??6@YA?AVQDebug@@V0@ABVQMatrix@@@Z
       2036  7F3 000DC750 ??6@YA?AVQDebug@@V0@ABVQPainterPath@@@Z
       2037  7F4 000E96A0 ??6@YA?AVQDebug@@V0@ABVQPen@@@Z
       2038  7F5 000E9BE0 ??6@YA?AVQDebug@@V0@ABVQPolygon@@@Z
       2039  7F6 000EA1A0 ??6@YA?AVQDebug@@V0@ABVQPolygonF@@@Z
       2040  7F7 000FD960 ??6@YA?AVQDebug@@V0@ABVQRegion@@@Z
       2041  7F8 00104F70 ??6@YA?AVQDebug@@V0@ABVQTransform@@@Z
       2042  7F9 003FB020 ??6@YA?AVQDebug@@V0@PAVQGraphicsItem@@@Z
       2043  7FA 00024D60 ??6@YA?AVQDebug@@V0@PBVQEvent@@@Z
       2044  7FB 003F5D30 ??6@YA?AVQDebug@@V0@W4GraphicsItemChange@QGraphicsItem@@@Z
       2045  7FC 000C1440 ??6@YAAAVQDataStream@@AAV0@ABVQBrush@@@Z
       2046  7FD 000C5150 ??6@YAAAVQDataStream@@AAV0@ABVQColor@@@Z
       2047  7FE 00036160 ??6@YAAAVQDataStream@@AAV0@ABVQColorGroup@@@Z
       2048  7FF 0001FCA0 ??6@YAAAVQDataStream@@AAV0@ABVQCursor@@@Z
       2049  800 0015FD00 ??6@YAAAVQDataStream@@AAV0@ABVQFont@@@Z
       2050  801 00077200 ??6@YAAAVQDataStream@@AAV0@ABVQIcon@@@Z
       2051  802 00079A80 ??6@YAAAVQDataStream@@AAV0@ABVQImage@@@Z
       2052  803 0002F7C0 ??6@YAAAVQDataStream@@AAV0@ABVQKeySequence@@@Z
       2053  804 003BE270 ??6@YAAAVQDataStream@@AAV0@ABVQListWidgetItem@@@Z
       2054  805 000FF910 ??6@YAAAVQDataStream@@AAV0@ABVQMatrix@@@Z
       2055  806 000DF8E0 ??6@YAAAVQDataStream@@AAV0@ABVQPainterPath@@@Z
       2056  807 00036470 ??6@YAAAVQDataStream@@AAV0@ABVQPalette@@@Z
       2057  808 000E8CA0 ??6@YAAAVQDataStream@@AAV0@ABVQPen@@@Z
       2058  809 00091950 ??6@YAAAVQDataStream@@AAV0@ABVQPicture@@@Z
       2059  80A 00096EC0 ??6@YAAAVQDataStream@@AAV0@ABVQPixmap@@@Z
       2060  80B 000EA7F0 ??6@YAAAVQDataStream@@AAV0@ABVQPolygon@@@Z
       2061  80C 000EA0D0 ??6@YAAAVQDataStream@@AAV0@ABVQPolygonF@@@Z
       2062  80D 000FDDB0 ??6@YAAAVQDataStream@@AAV0@ABVQRegion@@@Z
       2063  80E 00031120 ??6@YAAAVQDataStream@@AAV0@ABVQSizePolicy@@@Z
       2064  80F 003CDB30 ??6@YAAAVQDataStream@@AAV0@ABVQStandardItem@@@Z
       2065  810 003CDB30 ??6@YAAAVQDataStream@@AAV0@ABVQTableWidgetItem@@@Z
       2066  811 00191C30 ??6@YAAAVQDataStream@@AAV0@ABVQTextFormat@@@Z
       2067  812 0018EE90 ??6@YAAAVQDataStream@@AAV0@ABVQTextLength@@@Z
       2068  813 00104E10 ??6@YAAAVQDataStream@@AAV0@ABVQTransform@@@Z
       2069  814 003CDB30 ??6@YAAAVQDataStream@@AAV0@ABVQTreeWidgetItem@@@Z
       2070  815 002F7F50 ??6@YAAAVQTextStream@@AAV0@ABVQSplitter@@@Z
       2071  816 002B1780 ??7QPixmap@@QBE_NXZ
       2072  817 001F52E0 ??8?$QList@VQItemSelectionRange@@@@QBE_NABV0@@Z
       2073  818 000C1380 ??8QBrush@@QBE_NABV0@@Z
       2074  819 000C2900 ??8QColor@@QBE_NABV0@@Z
       2075  81A 00036350 ??8QColorGroup@@QBE_NABV0@@Z
       2076  81B 0015C770 ??8QFont@@QBE_NABV0@@Z
       2077  81C 00035E30 ??8QFontMetrics@@QAE_NABV0@@Z
       2078  81D 00035E30 ??8QFontMetrics@@QBE_NABV0@@Z
       2079  81E 00035E30 ??8QFontMetricsF@@QAE_NABV0@@Z
       2080  81F 00035E30 ??8QFontMetricsF@@QBE_NABV0@@Z
       2081  820 000C0CF0 ??8QGradient@@QAE_NABV0@@Z
       2082  821 000C0B90 ??8QGradient@@QBE_NABV0@@Z
       2083  822 0007F560 ??8QImage@@QBE_NABV0@@Z
       2084  823 00448D30 ??8QImageTextKeyLang@@QBE_NABV0@@Z
       2085  824 001F3880 ??8QItemSelectionRange@@QBE_NABV0@@Z
       2086  825 0002E1E0 ??8QKeySequence@@QBE_NABV0@@Z
       2087  826 000FE460 ??8QMatrix@@QBE_NABV0@@Z
       2088  827 000DC560 ??8QPainterPath@@QBE_NABV0@@Z
       2089  828 000362E0 ??8QPalette@@QBE_NABV0@@Z
       2090  829 000E8B00 ??8QPen@@QBE_NABV0@@Z
       2091  82A 00142A00 ??8QRegion@@QBE_NABV0@@Z
       2092  82B 00035E30 ??8QSizePolicy@@QBE_NABV0@@Z
       2093  82C 00043880 ??8QTextBlock@@QBE_NABV0@@Z
       2094  82D 001B7810 ??8QTextCursor@@QBE_NABV0@@Z
       2095  82E 00191150 ??8QTextFormat@@QBE_NABV0@@Z
       2096  82F 00043880 ??8QTextFragment@@QBE_NABV0@@Z
       2097  830 000402F0 ??8QTextLength@@QBE_NABV0@@Z
       2098  831 00043880 ??8QTextTableCell@@QBE_NABV0@@Z
       2099  832 00104C70 ??8QTransform@@QBE_NABV0@@Z
       2100  833 0044CFC0 ??8Tab@QTextOption@@QBE_NABU01@@Z
       2101  834 00043910 ??8iterator@QTextBlock@@QBE_NABV01@@Z
       2102  835 000436C0 ??8iterator@QTextFrame@@QBE_NABV01@@Z
       2103  836 001F6870 ??9?$QList@VQItemSelectionRange@@@@QBE_NABV0@@Z
       2104  837 00035EC0 ??9QBrush@@QBE_NABV0@@Z
       2105  838 000C2950 ??9QColor@@QBE_NABV0@@Z
       2106  839 00449440 ??9QColorGroup@@QBE_NABV0@@Z
       2107  83A 0015C950 ??9QFont@@QBE_NABV0@@Z
       2108  83B 00449600 ??9QFontMetrics@@QAE_NABV0@@Z
       2109  83C 00449600 ??9QFontMetrics@@QBE_NABV0@@Z
       2110  83D 00449600 ??9QFontMetricsF@@QAE_NABV0@@Z
       2111  83E 00449600 ??9QFontMetricsF@@QBE_NABV0@@Z
       2112  83F 004492D0 ??9QGradient@@QBE_NABV0@@Z
       2113  840 0007F880 ??9QImage@@QBE_NABV0@@Z
       2114  841 00448D70 ??9QImageTextKeyLang@@QBE_NABV0@@Z
       2115  842 001F38C0 ??9QItemSelectionRange@@QBE_NABV0@@Z
       2116  843 000390B0 ??9QKeySequence@@QBE_NABV0@@Z
       2117  844 000FE4C0 ??9QMatrix@@QBE_NABV0@@Z
       2118  845 000DC6B0 ??9QPainterPath@@QBE_NABV0@@Z
       2119  846 004493A0 ??9QPalette@@QBE_NABV0@@Z
       2120  847 00112790 ??9QPen@@QBE_NABV0@@Z
       2121  848 00448560 ??9QRegion@@QBE_NABV0@@Z
       2122  849 002B1790 ??9QSizePolicy@@QBE_NABV0@@Z
       2123  84A 00043A20 ??9QTextBlock@@QBE_NABV0@@Z
       2124  84B 001B7CE0 ??9QTextCursor@@QBE_NABV0@@Z
       2125  84C 0003D600 ??9QTextFormat@@QBE_NABV0@@Z
       2126  84D 00043A20 ??9QTextFragment@@QBE_NABV0@@Z
       2127  84E 00040330 ??9QTextLength@@QBE_NABV0@@Z
       2128  84F 00177E10 ??9QTextTableCell@@QBE_NABV0@@Z
       2129  850 00104D90 ??9QTransform@@QBE_NABV0@@Z
       2130  851 0044D030 ??9Tab@QTextOption@@QBE_NABU01@@Z
       2131  852 00043930 ??9iterator@QTextBlock@@QBE_NABV01@@Z
       2132  853 000436F0 ??9iterator@QTextFrame@@QBE_NABV01@@Z
       2133  854 001FA5A0 ??A?$QList@VQItemSelectionRange@@@@QAEAAVQItemSelectionRange@@H@Z
       2134  855 001F5390 ??A?$QList@VQItemSelectionRange@@@@QBEABVQItemSelectionRange@@H@Z
       2135  856 0002E1D0 ??AQKeySequence@@QBEHI@Z
       2136  857 00075950 ??BQBitmap@@QBE?AVQVariant@@XZ
       2137  858 000BF650 ??BQBrush@@QBE?AVQVariant@@XZ
       2138  859 00035EE0 ??BQBrush@@QBEABVQColor@@XZ
       2139  85A 000C29B0 ??BQColor@@QBE?AVQVariant@@XZ
       2140  85B 00035DD0 ??BQColorGroup@@QBE?AVQVariant@@XZ
       2141  85C 0001FC60 ??BQCursor@@QBE?AVQVariant@@XZ
       2142  85D 0015C970 ??BQFont@@QBE?AVQVariant@@XZ
       2143  85E 000768E0 ??BQIcon@@QBE?AVQVariant@@XZ
       2144  85F 000795A0 ??BQImage@@QBE?AVQVariant@@XZ
       2145  860 0002EEA0 ??BQKeySequence@@QBE?AVQString@@XZ
       2146  861 0002E1A0 ??BQKeySequence@@QBE?AVQVariant@@XZ
       2147  862 0002E1C0 ??BQKeySequence@@QBEHXZ
       2148  863 000FE5A0 ??BQMatrix@@QBE?AVQVariant@@XZ
       2149  864 00035D40 ??BQPalette@@QBE?AVQVariant@@XZ
       2150  865 000E8020 ??BQPen@@QBE?AVQVariant@@XZ
       2151  866 004491E0 ??BQPixmap@@QBE?AVQImage@@XZ
       2152  867 000963F0 ??BQPixmap@@QBE?AVQVariant@@XZ
       2153  868 000EA0B0 ??BQPolygon@@QBE?AVQVariant@@XZ
       2154  869 000FCEA0 ??BQRegion@@QBE?AVQVariant@@XZ
       2155  86A 00034980 ??BQSizePolicy@@QBE?AVQVariant@@XZ
       2156  86B 0018EF00 ??BQTextFormat@@QBE?AVQVariant@@XZ
       2157  86C 0018EE70 ??BQTextLength@@QBE?AVQVariant@@XZ
       2158  86D 001049E0 ??BQTransform@@QBE?AVQVariant@@XZ
       2159  86E 00448600 ??D@YA?AVQLine@@ABV0@ABVQMatrix@@@Z
       2160  86F 00111CE0 ??D@YA?AVQLine@@ABV0@ABVQTransform@@@Z
       2161  870 004485E0 ??D@YA?AVQLineF@@ABV0@ABVQMatrix@@@Z
       2162  871 00111CC0 ??D@YA?AVQLineF@@ABV0@ABVQTransform@@@Z
       2163  872 00100050 ??D@YA?AVQPainterPath@@ABV0@ABVQMatrix@@@Z
       2164  873 000CD430 ??D@YA?AVQPainterPath@@ABV0@ABVQTransform@@@Z
       2165  874 000CD1B0 ??D@YA?AVQPoint@@ABV0@ABVQMatrix@@@Z
       2166  875 00111CA0 ??D@YA?AVQPoint@@ABV0@ABVQTransform@@@Z
       2167  876 004485C0 ??D@YA?AVQPointF@@ABV0@ABVQMatrix@@@Z
       2168  877 000DAE50 ??D@YA?AVQPointF@@ABV0@ABVQTransform@@@Z
       2169  878 000CD1D0 ??D@YA?AVQPolygon@@ABV0@ABVQMatrix@@@Z
       2170  879 00448A70 ??D@YA?AVQPolygon@@ABV0@ABVQTransform@@@Z
       2171  87A 00448620 ??D@YA?AVQPolygonF@@ABV0@ABVQMatrix@@@Z
       2172  87B 00139990 ??D@YA?AVQPolygonF@@ABV0@ABVQTransform@@@Z
       2173  87C 00448650 ??D@YA?AVQRegion@@ABV0@ABVQMatrix@@@Z
       2174  87D 000CD400 ??D@YA?AVQRegion@@ABV0@ABVQTransform@@@Z
       2175  87E 00448AA0 ??D@YA?AVQTransform@@ABV0@N@Z
       2176  87F 000FF8D0 ??DQMatrix@@QBE?AV0@ABV0@@Z
       2177  880 00104DB0 ??DQTransform@@QBE?AV0@ABV0@@Z
       2178  881 002C9FF0 ??DQTreeWidgetItemIterator@@QBEPAVQTreeWidgetItem@@XZ
       2179  882 0044B280 ??EQLayoutIterator@@QAEPAVQLayoutItem@@XZ
       2180  883 003CCD50 ??EQTreeWidgetItemIterator@@QAE?BV0@H@Z
       2181  884 003E8CD0 ??EQTreeWidgetItemIterator@@QAEAAV0@XZ
       2182  885 00043950 ??Eiterator@QTextBlock@@QAE?AV01@H@Z
       2183  886 001944B0 ??Eiterator@QTextBlock@@QAEAAV01@XZ
       2184  887 00043720 ??Eiterator@QTextFrame@@QAE?AV01@H@Z
       2185  888 00194DC0 ??Eiterator@QTextFrame@@QAEAAV01@XZ
       2186  889 003CCDC0 ??FQTreeWidgetItemIterator@@QAE?BV0@H@Z
       2187  88A 003E8D10 ??FQTreeWidgetItemIterator@@QAEAAV0@XZ
       2188  88B 00043980 ??Fiterator@QTextBlock@@QAE?AV01@H@Z
       2189  88C 00194510 ??Fiterator@QTextBlock@@QAEAAV01@XZ
       2190  88D 00043740 ??Fiterator@QTextFrame@@QAE?AV01@H@Z
       2191  88E 00194FF0 ??Fiterator@QTextFrame@@QAEAAV01@XZ
       2192  88F 00448BE0 ??G@YA?AVQTransform@@ABV0@N@Z
       2193  890 000FD710 ??GQRegion@@QBE?BV0@ABV0@@Z
       2194  891 001FB7D0 ??H?$QList@VQItemSelectionRange@@@@QBE?AV0@ABV0@@Z
       2195  892 00448B40 ??H@YA?AVQTransform@@ABV0@N@Z
       2196  893 000FD690 ??HQRegion@@QBE?BV0@ABV0@@Z
       2197  894 000FD6B0 ??HQRegion@@QBE?BV0@ABVQRect@@@Z
       2198  895 000FD6D0 ??IQRegion@@QBE?BV0@ABV0@@Z
       2199  896 000FD6F0 ??IQRegion@@QBE?BV0@ABVQRect@@@Z
       2200  897 00104AF0 ??K@YA?AVQTransform@@ABV0@N@Z
       2201  898 0015C7E0 ??MQFont@@QBE_NABV0@@Z
       2202  899 00448CE0 ??MQImageTextKeyLang@@QBE_NABV0@@Z
       2203  89A 0002E220 ??MQKeySequence@@QBE_NABV0@@Z
       2204  89B 003BE1D0 ??MQListWidgetItem@@UBE_NABV0@@Z
       2205  89C 003E1E20 ??MQStandardItem@@UBE_NABV0@@Z
       2206  89D 003C4B00 ??MQTableWidgetItem@@UBE_NABV0@@Z
       2207  89E 000438A0 ??MQTextBlock@@QBE_NABV0@@Z
       2208  89F 001B77A0 ??MQTextCursor@@QBE_NABV0@@Z
       2209  8A0 00043A40 ??MQTextFragment@@QBE_NABV0@@Z
       2210  8A1 003CE440 ??MQTreeWidgetItem@@UBE_NABV0@@Z
       2211  8A2 004498F0 ??NQKeySequence@@QBE_NABV0@@Z
       2212  8A3 001B77E0 ??NQTextCursor@@QBE_NABV0@@Z
       2213  8A4 004498E0 ??OQKeySequence@@QBE_NABV0@@Z
       2214  8A5 001B7880 ??OQTextCursor@@QBE_NABV0@@Z
       2215  8A6 00449910 ??PQKeySequence@@QBE_NABV0@@Z
       2216  8A7 001B7850 ??PQTextCursor@@QBE_NABV0@@Z
       2217  8A8 000FD730 ??TQRegion@@QBE?BV0@ABV0@@Z
       2218  8A9 000FD690 ??UQRegion@@QBE?BV0@ABV0@@Z
       2219  8AA 000FE520 ??XQMatrix@@QAEAAV0@ABV0@@Z
       2220  8AB 001047A0 ??XQTransform@@QAEAAV0@ABV0@@Z
       2221  8AC 00104A30 ??XQTransform@@QAEAAV0@N@Z
       2222  8AD 001FAB70 ??Y?$QList@VQItemSelectionRange@@@@QAEAAV0@ABV0@@Z
       2223  8AE 001FB880 ??Y?$QList@VQItemSelectionRange@@@@QAEAAV0@ABVQItemSelectionRange@@@Z
       2224  8AF 00142A60 ??YQRegion@@QAEAAV0@ABV0@@Z
       2225  8B0 000FCDC0 ??YQRegion@@QAEAAV0@ABVQRect@@@Z
       2226  8B1 004489B0 ??YQTransform@@QAEAAV0@N@Z
       2227  8B2 003CCE30 ??YQTreeWidgetItemIterator@@QAEAAV0@H@Z
       2228  8B3 00142B40 ??ZQRegion@@QAEAAV0@ABV0@@Z
       2229  8B4 00448A10 ??ZQTransform@@QAEAAV0@N@Z
       2230  8B5 003CCEA0 ??ZQTreeWidgetItemIterator@@QAEAAV0@H@Z
       2231  8B6 00104A90 ??_0QTransform@@QAEAAV0@N@Z
       2232  8B7 00142C20 ??_4QRegion@@QAEAAV0@ABV0@@Z
       2233  8B8 000FCE30 ??_4QRegion@@QAEAAV0@ABVQRect@@@Z
       2234  8B9 000FD750 ??_5QRegion@@QAEAAV0@ABV0@@Z
       2235  8BA 000FD7C0 ??_6QRegion@@QAEAAV0@ABV0@@Z
       2236  8BB 004C2C6C ??_7QAbstractButton@@6BQObject@@@
       2237  8BC 004C2C4C ??_7QAbstractButton@@6BQPaintDevice@@@
       2238  8BD 004BE584 ??_7QAbstractGraphicsShapeItem@@6B@
       2239  8BE 004DEB64 ??_7QAbstractItemDelegate@@6B@
       2240  8BF 004DF004 ??_7QAbstractItemView@@6BQObject@@@
       2241  8C0 004DEFE8 ??_7QAbstractItemView@@6BQPaintDevice@@@
       2242  8C1 004FCDEC ??_7QAbstractItemViewPrivate@@6B@
       2243  8C2 004D14EC ??_7QAbstractPageSetupDialog@@6BQObject@@@
       2244  8C3 004D14D0 ??_7QAbstractPageSetupDialog@@6BQPaintDevice@@@
       2245  8C4 004D12FC ??_7QAbstractPrintDialog@@6BQObject@@@
       2246  8C5 004D12DC ??_7QAbstractPrintDialog@@6BQPaintDevice@@@
       2247  8C6 004F16D4 ??_7QAbstractProxyModel@@6B@
       2248  8C7 004C3D44 ??_7QAbstractScrollArea@@6BQObject@@@
       2249  8C8 004C3D24 ??_7QAbstractScrollArea@@6BQPaintDevice@@@
       2250  8C9 004BD7CC ??_7QAbstractSlider@@6BQObject@@@
       2251  8CA 004BD7AC ??_7QAbstractSlider@@6BQPaintDevice@@@
       2252  8CB 004BD6CC ??_7QAbstractSpinBox@@6BQObject@@@
       2253  8CC 004BD6B0 ??_7QAbstractSpinBox@@6BQPaintDevice@@@
       2254  8CD 004C29CC ??_7QAbstractTextDocumentLayout@@6B@
       2255  8CE 004C23A4 ??_7QAbstractUndoItem@@6B@
       2256  8CF 004FB6F8 ??_7QAccessible2Interface@@6B@
       2257  8D0 004FB60C ??_7QAccessibleApplication@@6B@
       2258  8D1 004FB74C ??_7QAccessibleEditableTextInterface@@6B@
       2259  8D2 004BE44C ??_7QAccessibleEvent@@6B@
       2260  8D3 004FB4F4 ??_7QAccessibleFactoryInterface@@6B@
       2261  8D4 004BE3B4 ??_7QAccessibleInterface@@6B@
       2262  8D5 004BE3FC ??_7QAccessibleInterfaceEx@@6B@
       2263  8D6 004FB574 ??_7QAccessibleObject@@6B@
       2264  8D7 004FB5BC ??_7QAccessibleObjectEx@@6B@
       2265  8D8 004FB534 ??_7QAccessiblePlugin@@6BQAccessibleFactoryInterface@@@
       2266  8D9 004FB544 ??_7QAccessiblePlugin@@6BQObject@@@
       2267  8DA 004FB770 ??_7QAccessibleSimpleEditableTextInterface@@6B@
       2268  8DB 004FB7AC ??_7QAccessibleTableInterface@@6B@
       2269  8DC 004FB704 ??_7QAccessibleTextInterface@@6B@
       2270  8DD 004FB794 ??_7QAccessibleValueInterface@@6B@
       2271  8DE 004FB654 ??_7QAccessibleWidget@@6B@
       2272  8DF 004FB69C ??_7QAccessibleWidgetEx@@6B@
       2273  8E0 004BD238 ??_7QAction@@6B@
       2274  8E1 004C0200 ??_7QActionEvent@@6B@
       2275  8E2 004BD268 ??_7QActionGroup@@6B@
       2276  8E3 004BF3E4 ??_7QApplication@@6B@
       2277  8E4 004BDCE8 ??_7QApplicationPrivate@@6B@
       2278  8E5 004C26AC ??_7QBitmap@@6B@
       2279  8E6 004BF54C ??_7QBoxLayout@@6BQLayoutItem@@@
       2280  8E7 004BF58C ??_7QBoxLayout@@6BQObject@@@
       2281  8E8 004E4F64 ??_7QButtonGroup@@6B@
       2282  8E9 004DB134 ??_7QCDEStyle@@6B@
       2283  8EA 004E6604 ??_7QCalendarWidget@@6BQObject@@@
       2284  8EB 004E65E8 ??_7QCalendarWidget@@6BQPaintDevice@@@
       2285  8EC 004DEE24 ??_7QCheckBox@@6BQObject@@@
       2286  8ED 004DEE04 ??_7QCheckBox@@6BQPaintDevice@@@
       2287  8EE 004DB244 ??_7QCleanlooksStyle@@6B@
       2288  8EF 004BE454 ??_7QClipboard@@6B@
       2289  8F0 004C0230 ??_7QClipboardEvent@@6B@
       2290  8F1 004C01C8 ??_7QCloseEvent@@6B@
       2291  8F2 004F26F4 ??_7QColorDialog@@6BQObject@@@
       2292  8F3 004F26D4 ??_7QColorDialog@@6BQPaintDevice@@@
       2293  8F4 005027A4 ??_7QColumnView@@6BQObject@@@
       2294  8F5 00502788 ??_7QColumnView@@6BQPaintDevice@@@
       2295  8F6 004DEC3C ??_7QComboBox@@6BQObject@@@
       2296  8F7 004DEC20 ??_7QComboBox@@6BQPaintDevice@@@
       2297  8F8 004E059C ??_7QCommandLinkButton@@6BQObject@@@
       2298  8F9 004E057C ??_7QCommandLinkButton@@6BQPaintDevice@@@
       2299  8FA 004BEF0C ??_7QCommonStyle@@6B@
       2300  8FB 004E52E4 ??_7QCompleter@@6B@
       2301  8FC 004C0260 ??_7QContextMenuEvent@@6B@
       2302  8FD 004C3B10 ??_7QDashStroker@@6B@
       2303  8FE 00502340 ??_7QDataWidgetMapper@@6B@
       2304  8FF 004E566C ??_7QDateEdit@@6BQObject@@@
       2305  900 004E564C ??_7QDateEdit@@6BQPaintDevice@@@
       2306  901 004E545C ??_7QDateTimeEdit@@6BQObject@@@
       2307  902 004E543C ??_7QDateTimeEdit@@6BQPaintDevice@@@
       2308  903 004C4CC4 ??_7QDesktopWidget@@6BQObject@@@
       2309  904 004C4CA4 ??_7QDesktopWidget@@6BQPaintDevice@@@
       2310  905 004E8624 ??_7QDial@@6BQObject@@@
       2311  906 004E8608 ??_7QDial@@6BQPaintDevice@@@
       2312  907 004BF034 ??_7QDialog@@6BQObject@@@
       2313  908 004BF018 ??_7QDialog@@6BQPaintDevice@@@
       2314  909 004DD42C ??_7QDialogButtonBox@@6BQObject@@@
       2315  90A 004DD410 ??_7QDialogButtonBox@@6BQPaintDevice@@@
       2316  90B 004FEEEC ??_7QDirModel@@6B@
       2317  90C 004DD344 ??_7QDockWidget@@6BQObject@@@
       2318  90D 004DD328 ??_7QDockWidget@@6BQPaintDevice@@@
       2319  90E 004E927C ??_7QDockWidgetLayout@@6BQLayoutItem@@@
       2320  90F 004E92BC ??_7QDockWidgetLayout@@6BQObject@@@
       2321  910 004E020C ??_7QDoubleSpinBox@@6BQObject@@@
       2322  911 004E01EC ??_7QDoubleSpinBox@@6BQPaintDevice@@@
       2323  912 004BD32C ??_7QDoubleValidator@@6B@
       2324  913 004BF7C0 ??_7QDrag@@6B@
       2325  914 004C0798 ??_7QDragEnterEvent@@6BQEvent@@@
       2326  915 004C0784 ??_7QDragEnterEvent@@6BQMimeSource@@@
       2327  916 004C01E0 ??_7QDragLeaveEvent@@6B@
       2328  917 004BD3A0 ??_7QDragManager@@6B@
       2329  918 004C077C ??_7QDragMoveEvent@@6BQEvent@@@
       2330  919 004C0768 ??_7QDragMoveEvent@@6BQMimeSource@@@
       2331  91A 004C01D8 ??_7QDragResponseEvent@@6B@
       2332  91B 004C0758 ??_7QDropEvent@@6BQEvent@@@
       2333  91C 004C0744 ??_7QDropEvent@@6BQMimeSource@@@
       2334  91D 004F2ED4 ??_7QErrorMessage@@6BQObject@@@
       2335  91E 004F2EB4 ??_7QErrorMessage@@6BQPaintDevice@@@
       2336  91F 004F17D4 ??_7QFileDialog@@6BQObject@@@
       2337  920 004F17B4 ??_7QFileDialog@@6BQPaintDevice@@@
       2338  921 004F16BC ??_7QFileIconProvider@@6B@
       2339  922 004C0218 ??_7QFileOpenEvent@@6B@
       2340  923 004F161C ??_7QFileSystemModel@@6B@
       2341  924 004C01A0 ??_7QFocusEvent@@6B@
       2342  925 004DFD44 ??_7QFocusFrame@@6BQObject@@@
       2343  926 004DFD28 ??_7QFocusFrame@@6BQPaintDevice@@@
       2344  927 004E99C4 ??_7QFontComboBox@@6BQObject@@@
       2345  928 004E99A8 ??_7QFontComboBox@@6BQPaintDevice@@@
       2346  929 004F470C ??_7QFontDialog@@6BQObject@@@
       2347  92A 004F46F0 ??_7QFontDialog@@6BQPaintDevice@@@
       2348  92B 004CDE6C ??_7QFontEngine@@6B@
       2349  92C 004CDF1C ??_7QFontEngineMulti@@6B@
       2350  92D 004C0A44 ??_7QFormLayout@@6BQLayoutItem@@@
       2351  92E 004C0A84 ??_7QFormLayout@@6BQObject@@@
       2352  92F 004C07C4 ??_7QFrame@@6BQObject@@@
       2353  930 004C07A4 ??_7QFrame@@6BQPaintDevice@@@
       2354  931 004C4044 ??_7QFramePrivate@@6B@
       2355  932 004BE74C ??_7QGraphicsEllipseItem@@6B@
       2356  933 00504E1C ??_7QGraphicsGridLayout@@6B@
       2357  934 004BE4EC ??_7QGraphicsItem@@6B@
       2358  935 00503714 ??_7QGraphicsItemAnimation@@6B@
       2359  936 004BEB0C ??_7QGraphicsItemGroup@@6B@
       2360  937 00503E08 ??_7QGraphicsLayout@@6B@
       2361  938 004BE4D0 ??_7QGraphicsLayoutItem@@6B@
       2362  939 004BE87C ??_7QGraphicsLineItem@@6B@
       2363  93A 00504954 ??_7QGraphicsLinearLayout@@6B@
       2364  93B 004BE61C ??_7QGraphicsPathItem@@6B@
       2365  93C 004BE914 ??_7QGraphicsPixmapItem@@6B@
       2366  93D 004BE7E4 ??_7QGraphicsPolygonItem@@6B@
       2367  93E 004BECE4 ??_7QGraphicsProxyWidget@@6BQGraphicsItem@@@
       2368  93F 004BECC8 ??_7QGraphicsProxyWidget@@6BQGraphicsLayoutItem@@@
       2369  940 004BED7C ??_7QGraphicsProxyWidget@@6BQObject@@@
       2370  941 004BE6B4 ??_7QGraphicsRectItem@@6B@
       2371  942 004C38F4 ??_7QGraphicsScene@@6B@
       2372  943 004D67F8 ??_7QGraphicsSceneContextMenuEvent@@6B@
       2373  944 004D6810 ??_7QGraphicsSceneDragDropEvent@@6B@
       2374  945 004D67E0 ??_7QGraphicsSceneEvent@@6B@
       2375  946 004D6808 ??_7QGraphicsSceneHelpEvent@@6B@
       2376  947 004D6800 ??_7QGraphicsSceneHoverEvent@@6B@
       2377  948 004D67E8 ??_7QGraphicsSceneMouseEvent@@6B@
       2378  949 004D6820 ??_7QGraphicsSceneMoveEvent@@6B@
       2379  94A 004D6818 ??_7QGraphicsSceneResizeEvent@@6B@
       2380  94B 004D67F0 ??_7QGraphicsSceneWheelEvent@@6B@
       2381  94C 004BEA74 ??_7QGraphicsSimpleTextItem@@6B@
       2382  94D 004BE9AC ??_7QGraphicsTextItem@@6BQGraphicsItem@@@
       2383  94E 004BEA40 ??_7QGraphicsTextItem@@6BQObject@@@
       2384  94F 004E4E7C ??_7QGraphicsView@@6BQObject@@@
       2385  950 004E4E60 ??_7QGraphicsView@@6BQPaintDevice@@@
       2386  951 004BEBBC ??_7QGraphicsWidget@@6BQGraphicsItem@@@
       2387  952 004BEBA0 ??_7QGraphicsWidget@@6BQGraphicsLayoutItem@@@
       2388  953 004BEC54 ??_7QGraphicsWidget@@6BQObject@@@
       2389  954 004C0BA4 ??_7QGridLayout@@6BQLayoutItem@@@
       2390  955 004C0BE4 ??_7QGridLayout@@6BQObject@@@
       2391  956 004DD514 ??_7QGroupBox@@6BQObject@@@
       2392  957 004DD4F8 ??_7QGroupBox@@6BQPaintDevice@@@
       2393  958 004BF5D4 ??_7QHBoxLayout@@6BQLayoutItem@@@
       2394  959 004BF614 ??_7QHBoxLayout@@6BQObject@@@
       2395  95A 004DF18C ??_7QHeaderView@@6BQObject@@@
       2396  95B 004DF170 ??_7QHeaderView@@6BQPaintDevice@@@
       2397  95C 004C01E8 ??_7QHelpEvent@@6B@
       2398  95D 004C0208 ??_7QHideEvent@@6B@
       2399  95E 004C0188 ??_7QHoverEvent@@6B@
       2400  95F 004C01D0 ??_7QIconDragEvent@@6B@
       2401  960 004C5844 ??_7QIconEngine@@6B@
       2402  961 004C5890 ??_7QIconEngineFactoryInterface@@6B@
       2403  962 004C5910 ??_7QIconEngineFactoryInterfaceV2@@6B@
       2404  963 004C58D0 ??_7QIconEnginePlugin@@6BQIconEngineFactoryInterface@@@
       2405  964 004C58E0 ??_7QIconEnginePlugin@@6BQObject@@@
       2406  965 004C5950 ??_7QIconEnginePluginV2@@6BQIconEngineFactoryInterfaceV2@@@
       2407  966 004C5960 ??_7QIconEnginePluginV2@@6BQObject@@@
       2408  967 004C5860 ??_7QIconEngineV2@@6B@
       2409  968 004C63B4 ??_7QImage@@6B@
       2410  969 004C000C ??_7QImageIOHandler@@6B@
       2411  96A 004C004C ??_7QImageIOHandlerFactoryInterface@@6B@
       2412  96B 004C005C ??_7QImageIOPlugin@@6BQImageIOHandlerFactoryInterface@@@
       2413  96C 004C006C ??_7QImageIOPlugin@@6BQObject@@@
       2414  96D 00502C94 ??_7QInputContext@@6B@
       2415  96E 00502BC8 ??_7QInputContextFactoryInterface@@6B@
       2416  96F 00502C14 ??_7QInputContextPlugin@@6BQInputContextFactoryInterface@@@
       2417  970 00502C30 ??_7QInputContextPlugin@@6BQObject@@@
       2418  971 004E04A4 ??_7QInputDialog@@6BQObject@@@
       2419  972 004E0488 ??_7QInputDialog@@6BQPaintDevice@@@
       2420  973 004C0180 ??_7QInputEvent@@6B@
       2421  974 004C0760 ??_7QInputMethodEvent@@6B@
       2422  975 004BD2F0 ??_7QIntValidator@@6B@
       2423  976 004E60AC ??_7QItemDelegate@@6B@
       2424  977 004FE788 ??_7QItemEditorCreatorBase@@6B@
       2425  978 004FE7C8 ??_7QItemEditorFactory@@6B@
       2426  979 004DEBB4 ??_7QItemSelectionModel@@6B@
       2427  97A 004C0190 ??_7QKeyEvent@@6B@
       2428  97B 004C0198 ??_7QKeyEventEx@@6B@
       2429  97C 004EA284 ??_7QLCDNumber@@6BQObject@@@
       2430  97D 004EA264 ??_7QLCDNumber@@6BQPaintDevice@@@
       2431  97E 004C08AC ??_7QLabel@@6BQObject@@@
       2432  97F 004C0890 ??_7QLabel@@6BQPaintDevice@@@
       2433  980 004C09BC ??_7QLayout@@6BQLayoutItem@@@
       2434  981 004C09FC ??_7QLayout@@6BQObject@@@
       2435  982 004C097C ??_7QLayoutItem@@6B@
       2436  983 004BF50C ??_7QLayoutPrivate@@6B@
       2437  984 004D6C54 ??_7QLineEdit@@6BQObject@@@
       2438  985 004D6C34 ??_7QLineEdit@@6BQPaintDevice@@@
       2439  986 004DF9E4 ??_7QListView@@6BQObject@@@
       2440  987 004DF9C4 ??_7QListView@@6BQPaintDevice@@@
       2441  988 004F18CC ??_7QListWidget@@6BQObject@@@
       2442  989 004F18AC ??_7QListWidget@@6BQPaintDevice@@@
       2443  98A 004FF7FC ??_7QListWidgetItem@@6B@
       2444  98B 004DF40C ??_7QMainWindow@@6BQObject@@@
       2445  98C 004DF3EC ??_7QMainWindow@@6BQPaintDevice@@@
       2446  98D 004EB3FC ??_7QMdiArea@@6BQObject@@@
       2447  98E 004EB3E0 ??_7QMdiArea@@6BQPaintDevice@@@
       2448  98F 004DF4FC ??_7QMdiSubWindow@@6BQObject@@@
       2449  990 004DF4DC ??_7QMdiSubWindow@@6BQPaintDevice@@@
       2450  991 004BD4FC ??_7QMenu@@6BQObject@@@
       2451  992 004BD4E0 ??_7QMenu@@6BQPaintDevice@@@
       2452  993 004BD5E4 ??_7QMenuBar@@6BQObject@@@
       2453  994 004BD5C8 ??_7QMenuBar@@6BQPaintDevice@@@
       2454  995 004EC5D8 ??_7QMenuItem@@6B@
       2455  996 004C0240 ??_7QMenubarUpdatedEvent@@6B@
       2456  997 004BF12C ??_7QMessageBox@@6BQObject@@@
       2457  998 004BF10C ??_7QMessageBox@@6BQPaintDevice@@@
       2458  999 004BF758 ??_7QMimeSource@@6B@
       2459  99A 004DB0AC ??_7QMotifStyle@@6B@
       2460  99B 004C0248 ??_7QMouseEvent@@6B@
       2461  99C 004C0250 ??_7QMouseEventEx@@6B@
       2462  99D 004C01B8 ??_7QMoveEvent@@6B@
       2463  99E 004C734C ??_7QMovie@@6B@
       2464  99F 004D15E4 ??_7QPageSetupDialog@@6BQObject@@@
       2465  9A0 004D15C8 ??_7QPageSetupDialog@@6BQPaintDevice@@@
       2466  9A1 004BD3D8 ??_7QPaintDevice@@6B@
       2467  9A2 004C398C ??_7QPaintEngine@@6B@
       2468  9A3 004C01A8 ??_7QPaintEvent@@6B@
       2469  9A4 004C6984 ??_7QPicture@@6B@
       2470  9A5 004C69C0 ??_7QPictureFormatInterface@@6B@
       2471  9A6 004C6A1C ??_7QPictureFormatPlugin@@6BQObject@@@
       2472  9A7 004C6A04 ??_7QPictureFormatPlugin@@6BQPictureFormatInterface@@@
       2473  9A8 004C6D38 ??_7QPixmap@@6B@
       2474  9A9 004C57F4 ??_7QPixmapData@@6B@
       2475  9AA 004C5838 ??_7QPixmapDataFactory@@6B@
       2476  9AB 004F0C84 ??_7QPlainTextDocumentLayout@@6B@
       2477  9AC 004F0D4C ??_7QPlainTextEdit@@6BQObject@@@
       2478  9AD 004F0D30 ??_7QPlainTextEdit@@6BQPaintDevice@@@
       2479  9AE 004DB1BC ??_7QPlastiqueStyle@@6B@
       2480  9AF 004D13F4 ??_7QPrintDialog@@6BQObject@@@
       2481  9B0 004D13D8 ??_7QPrintDialog@@6BQPaintDevice@@@
       2482  9B1 004CED38 ??_7QPrintEngine@@6B@
       2483  9B2 004FB094 ??_7QPrintPreviewDialog@@6BQObject@@@
       2484  9B3 004FB078 ??_7QPrintPreviewDialog@@6BQPaintDevice@@@
       2485  9B4 004F147C ??_7QPrintPreviewWidget@@6BQObject@@@
       2486  9B5 004F145C ??_7QPrintPreviewWidget@@6BQPaintDevice@@@
       2487  9B6 004CEDBC ??_7QPrinter@@6B@
       2488  9B7 004DF31C ??_7QProgressBar@@6BQObject@@@
       2489  9B8 004DF300 ??_7QProgressBar@@6BQPaintDevice@@@
       2490  9B9 004F945C ??_7QProgressDialog@@6BQObject@@@
       2491  9BA 004F943C ??_7QProgressDialog@@6BQPaintDevice@@@
       2492  9BB 00500EC4 ??_7QProxyModel@@6B@
       2493  9BC 004DF8EC ??_7QPushButton@@6BQObject@@@
       2494  9BD 004DF8D0 ??_7QPushButton@@6BQPaintDevice@@@
       2495  9BE 004DED2C ??_7QRadioButton@@6BQObject@@@
       2496  9BF 004DED10 ??_7QRadioButton@@6BQPaintDevice@@@
       2497  9C0 004BD368 ??_7QRegExpValidator@@6B@
       2498  9C1 004C01C0 ??_7QResizeEvent@@6B@
       2499  9C2 004BDB94 ??_7QRubberBand@@6BQObject@@@
       2500  9C3 004BDB78 ??_7QRubberBand@@6BQPaintDevice@@@
       2501  9C4 004E4D8C ??_7QScrollArea@@6BQObject@@@
       2502  9C5 004E4D6C ??_7QScrollArea@@6BQPaintDevice@@@
       2503  9C6 004D6B64 ??_7QScrollBar@@6BQObject@@@
       2504  9C7 004D6B48 ??_7QScrollBar@@6BQPaintDevice@@@
       2505  9C8 004BE484 ??_7QSessionManager@@6B@
       2506  9C9 004C1B40 ??_7QShortcut@@6B@
       2507  9CA 004C0228 ??_7QShortcutEvent@@6B@
       2508  9CB 004C0210 ??_7QShowEvent@@6B@
       2509  9CC 004C1CCC ??_7QSizeGrip@@6BQObject@@@
       2510  9CD 004C1CB0 ??_7QSizeGrip@@6BQPaintDevice@@@
       2511  9CE 004BD8BC ??_7QSlider@@6BQObject@@@
       2512  9CF 004BD89C ??_7QSlider@@6BQPaintDevice@@@
       2513  9D0 0050182C ??_7QSortFilterProxyModel@@6B@
       2514  9D1 004C21D0 ??_7QSound@@6B@
       2515  9D2 004C1D9C ??_7QSpacerItem@@6B@
       2516  9D3 004E0104 ??_7QSpinBox@@6BQObject@@@
       2517  9D4 004E00E8 ??_7QSpinBox@@6BQPaintDevice@@@
       2518  9D5 004ECE04 ??_7QSplashScreen@@6BQObject@@@
       2519  9D6 004ECDE4 ??_7QSplashScreen@@6BQPaintDevice@@@
       2520  9D7 004DFB6C ??_7QSplitter@@6BQObject@@@
       2521  9D8 004DFB50 ??_7QSplitter@@6BQPaintDevice@@@
       2522  9D9 004DFC5C ??_7QSplitterHandle@@6BQObject@@@
       2523  9DA 004DFC3C ??_7QSplitterHandle@@6BQPaintDevice@@@
       2524  9DB 004C2254 ??_7QStackedLayout@@6BQLayoutItem@@@
       2525  9DC 004C2294 ??_7QStackedLayout@@6BQObject@@@
       2526  9DD 004E0904 ??_7QStackedWidget@@6BQObject@@@
       2527  9DE 004E08E4 ??_7QStackedWidget@@6BQPaintDevice@@@
       2528  9DF 00501E38 ??_7QStandardItem@@6B@
       2529  9E0 004E72BC ??_7QStandardItemModel@@6B@
       2530  9E1 004DEF1C ??_7QStatusBar@@6BQObject@@@
       2531  9E2 004DEEFC ??_7QStatusBar@@6BQPaintDevice@@@
       2532  9E3 004C01F0 ??_7QStatusTipEvent@@6B@
       2533  9E4 004E9AA4 ??_7QStringListModel@@6B@
       2534  9E5 004C3A00 ??_7QStroker@@6B@
       2535  9E6 004C39EC ??_7QStrokerOps@@6B@
       2536  9E7 004BEE84 ??_7QStyle@@6B@
       2537  9E8 004DB030 ??_7QStyleFactoryInterface@@6B@
       2538  9E9 004DB078 ??_7QStylePlugin@@6BQObject@@@
       2539  9EA 004DB068 ??_7QStylePlugin@@6BQStyleFactoryInterface@@@
       2540  9EB 004FC99C ??_7QStyledItemDelegate@@6B@
       2541  9EC 004D9294 ??_7QSyntaxHighlighter@@6B@
       2542  9ED 00504F8C ??_7QSystemTrayIcon@@6B@
       2543  9EE 004BD9AC ??_7QTabBar@@6BQObject@@@
       2544  9EF 004BD98C ??_7QTabBar@@6BQPaintDevice@@@
       2545  9F0 004BDAA4 ??_7QTabWidget@@6BQObject@@@
       2546  9F1 004BDA88 ??_7QTabWidget@@6BQPaintDevice@@@
       2547  9F2 004E66F4 ??_7QTableView@@6BQObject@@@
       2548  9F3 004E66D4 ??_7QTableView@@6BQPaintDevice@@@
       2549  9F4 004FFF84 ??_7QTableWidget@@6BQObject@@@
       2550  9F5 004FFF68 ??_7QTableWidget@@6BQPaintDevice@@@
       2551  9F6 00500114 ??_7QTableWidgetItem@@6B@
       2552  9F7 004C0268 ??_7QTabletEvent@@6B@
       2553  9F8 004D19B4 ??_7QTessellator@@6B@
       2554  9F9 004C2A64 ??_7QTextBlockGroup@@6B@
       2555  9FA 004C2AD8 ??_7QTextBlockUserData@@6B@
       2556  9FB 004D9064 ??_7QTextBrowser@@6BQObject@@@
       2557  9FC 004D9044 ??_7QTextBrowser@@6BQPaintDevice@@@
       2558  9FD 004D6714 ??_7QTextControl@@6B@
       2559  9FE 004C23B4 ??_7QTextDocument@@6B@
       2560  9FF 004D6A64 ??_7QTextEdit@@6BQObject@@@
       2561  A00 004D6A44 ??_7QTextEdit@@6BQPaintDevice@@@
       2562  A01 004C2AA8 ??_7QTextFrame@@6B@
       2563  A02 004C2AA0 ??_7QTextFrameLayoutData@@6B@
       2564  A03 004D7764 ??_7QTextImageHandler@@6BQObject@@@
       2565  A04 004D7754 ??_7QTextImageHandler@@6BQTextObjectInterface@@@
       2566  A05 004D67A4 ??_7QTextList@@6B@
       2567  A06 004C2A34 ??_7QTextObject@@6B@
       2568  A07 004C2A24 ??_7QTextObjectInterface@@6B@
       2569  A08 004D6828 ??_7QTextTable@@6B@
       2570  A09 004E5564 ??_7QTimeEdit@@6BQObject@@@
       2571  A0A 004E5544 ??_7QTimeEdit@@6BQPaintDevice@@@
       2572  A0B 004C1BE4 ??_7QToolBar@@6BQObject@@@
       2573  A0C 004C1BC8 ??_7QToolBar@@6BQPaintDevice@@@
       2574  A0D 004C0220 ??_7QToolBarChangeEvent@@6B@
       2575  A0E 004EAC7C ??_7QToolBarItem@@6B@
       2576  A0F 004EACBC ??_7QToolBarLayout@@6BQLayoutItem@@@
       2577  A10 004EACFC ??_7QToolBarLayout@@6BQObject@@@
       2578  A11 004E188C ??_7QToolBox@@6BQObject@@@
       2579  A12 004E1870 ??_7QToolBox@@6BQPaintDevice@@@
       2580  A13 004C2D64 ??_7QToolButton@@6BQObject@@@
       2581  A14 004C2D44 ??_7QToolButton@@6BQPaintDevice@@@
       2582  A15 004E0314 ??_7QTreeView@@6BQObject@@@
       2583  A16 004E02F4 ??_7QTreeView@@6BQPaintDevice@@@
       2584  A17 00500914 ??_7QTreeWidget@@6BQObject@@@
       2585  A18 005008F4 ??_7QTreeWidget@@6BQPaintDevice@@@
       2586  A19 00500B4C ??_7QTreeWidgetItem@@6B@
       2587  A1A 005057FC ??_7QUndoCommand@@6B@
       2588  A1B 005057CC ??_7QUndoGroup@@6B@
       2589  A1C 00505814 ??_7QUndoStack@@6B@
       2590  A1D 00505CC4 ??_7QUndoView@@6BQObject@@@
       2591  A1E 00505CA4 ??_7QUndoView@@6BQPaintDevice@@@
       2592  A1F 004BF65C ??_7QVBoxLayout@@6BQLayoutItem@@@
       2593  A20 004BF69C ??_7QVBoxLayout@@6BQObject@@@
       2594  A21 004BD2B8 ??_7QValidator@@6B@
       2595  A22 004C01F8 ??_7QWhatsThisClickedEvent@@6B@
       2596  A23 004C0258 ??_7QWheelEvent@@6B@
       2597  A24 004BD414 ??_7QWidget@@6BQObject@@@
       2598  A25 004BD3F4 ??_7QWidget@@6BQPaintDevice@@@
       2599  A26 004C42C4 ??_7QWidgetAction@@6B@
       2600  A27 004C1F34 ??_7QWidgetItem@@6B@
       2601  A28 004C1EF4 ??_7QWidgetItemV2@@6B@
       2602  A29 004BDCD8 ??_7QWidgetPrivate@@6B@
       2603  A2A 004E9108 ??_7QWidgetResizeHandler@@6B@
       2604  A2B 004C0238 ??_7QWindowStateChangeEvent@@6B@
       2605  A2C 004C38C4 ??_7QWindowSurface@@6B@
       2606  A2D 004C4FC0 ??_7QWindowsMime@@6B@
       2607  A2E 004BEF94 ??_7QWindowsStyle@@6B@
       2608  A2F 004DB354 ??_7QWindowsVistaStyle@@6B@
       2609  A30 004DB2CC ??_7QWindowsXPStyle@@6B@
       2610  A31 004DD5FC ??_7QWizard@@6BQObject@@@
       2611  A32 004DD5E0 ??_7QWizard@@6BQPaintDevice@@@
       2612  A33 004DD704 ??_7QWizardPage@@6BQObject@@@
       2613  A34 004DD6E4 ??_7QWizardPage@@6BQPaintDevice@@@
       2614  A35 004E197C ??_7QWorkspace@@6BQObject@@@
       2615  A36 004E1960 ??_7QWorkspace@@6BQPaintDevice@@@
       2616  A37 004BF4DC ??_7StyleSelector@QCss@@6B@
       2617  A38 00043C30 ??_FQAbstractButton@@QAEXXZ
       2618  A39 0000D880 ??_FQAbstractGraphicsShapeItem@@QAEXXZ
       2619  A3A 001F2B10 ??_FQAbstractItemDelegate@@QAEXXZ
       2620  A3B 001F3D20 ??_FQAbstractItemView@@QAEXXZ
       2621  A3C 003330C0 ??_FQAbstractProxyModel@@QAEXXZ
       2622  A3D 00046E20 ??_FQAbstractScrollArea@@QAEXXZ
       2623  A3E 00002660 ??_FQAbstractSlider@@QAEXXZ
       2624  A3F 00002480 ??_FQAbstractSpinBox@@QAEXXZ
       2625  A40 00372480 ??_FQAccessiblePlugin@@QAEXXZ
       2626  A41 00277100 ??_FQButtonGroup@@QAEXXZ
       2627  A42 001D9010 ??_FQCDEStyle@@QAEXXZ
       2628  A43 00284E70 ??_FQCalendarWidget@@QAEXXZ
       2629  A44 001F3290 ??_FQCheckBox@@QAEXXZ
       2630  A45 0033E810 ??_FQColorDialog@@QAEXXZ
       2631  A46 003ED750 ??_FQColumnView@@QAEXXZ
       2632  A47 001F2FB0 ??_FQComboBox@@QAEXXZ
       2633  A48 00212F40 ??_FQCommandLinkButton@@QAEXXZ
       2634  A49 00279100 ??_FQCompleter@@QAEXXZ
       2635  A4A 003EA2E0 ??_FQDataWidgetMapper@@QAEXXZ
       2636  A4B 002793D0 ??_FQDateEdit@@QAEXXZ
       2637  A4C 00279230 ??_FQDateTimeEdit@@QAEXXZ
       2638  A4D 00299780 ??_FQDial@@QAEXXZ
       2639  A4E 0000EFD0 ??_FQDialog@@QAEXXZ
       2640  A4F 001DC5E0 ??_FQDialogButtonBox@@QAEXXZ
       2641  A50 003BC1B0 ??_FQDirModel@@QAEXXZ
       2642  A51 001DF980 ??_FQDockWidget@@QAEXXZ
       2643  A52 0029E280 ??_FQDockWidgetLayout@@QAEXXZ
       2644  A53 00212BB0 ??_FQDoubleSpinBox@@QAEXXZ
       2645  A54 003414F0 ??_FQErrorMessage@@QAEXXZ
       2646  A55 00332A40 ??_FQFileDialog@@QAEXXZ
       2647  A56 00332CA0 ??_FQFileSystemModel@@QAEXXZ
       2648  A57 00211BF0 ??_FQFocusFrame@@QAEXXZ
       2649  A58 002AEC60 ??_FQFontComboBox@@QAEXXZ
       2650  A59 00351340 ??_FQFontDialog@@QAEXXZ
       2651  A5A 00027100 ??_FQFormLayout@@QAEXXZ
       2652  A5B 00026590 ??_FQFrame@@QAEXXZ
       2653  A5C 0000D960 ??_FQGraphicsEllipseItem@@QAEXXZ
       2654  A5D 0042FDA0 ??_FQGraphicsGridLayout@@QAEXXZ
       2655  A5E 0000D540 ??_FQGraphicsItem@@QAEXXZ
       2656  A5F 00403090 ??_FQGraphicsItemAnimation@@QAEXXZ
       2657  A60 0000DDD0 ??_FQGraphicsItemGroup@@QAEXXZ
       2658  A61 00404500 ??_FQGraphicsLayout@@QAEXXZ
       2659  A62 0000D270 ??_FQGraphicsLayoutItem@@QAEXXZ
       2660  A63 0000DA70 ??_FQGraphicsLineItem@@QAEXXZ
       2661  A64 00421FF0 ??_FQGraphicsLinearLayout@@QAEXXZ
       2662  A65 0000D8B0 ??_FQGraphicsPathItem@@QAEXXZ
       2663  A66 0000DB10 ??_FQGraphicsPixmapItem@@QAEXXZ
       2664  A67 0000D9F0 ??_FQGraphicsPolygonItem@@QAEXXZ
       2665  A68 0000F3A0 ??_FQGraphicsProxyWidget@@QAEXXZ
       2666  A69 0000D8E0 ??_FQGraphicsRectItem@@QAEXXZ
       2667  A6A 00046CB0 ??_FQGraphicsScene@@QAEXXZ
       2668  A6B 00177A70 ??_FQGraphicsSceneContextMenuEvent@@QAEXXZ
       2669  A6C 00177C50 ??_FQGraphicsSceneDragDropEvent@@QAEXXZ
       2670  A6D 00177BB0 ??_FQGraphicsSceneHelpEvent@@QAEXXZ
       2671  A6E 00177B10 ??_FQGraphicsSceneHoverEvent@@QAEXXZ
       2672  A6F 00177930 ??_FQGraphicsSceneMouseEvent@@QAEXXZ
       2673  A70 001779D0 ??_FQGraphicsSceneWheelEvent@@QAEXXZ
       2674  A71 0000DDA0 ??_FQGraphicsSimpleTextItem@@QAEXXZ
       2675  A72 0000DD10 ??_FQGraphicsTextItem@@QAEXXZ
       2676  A73 0026D390 ??_FQGraphicsView@@QAEXXZ
       2677  A74 0000F380 ??_FQGraphicsWidget@@QAEXXZ
       2678  A75 001DC710 ??_FQGroupBox@@QAEXXZ
       2679  A76 00076310 ??_FQIconEnginePlugin@@QAEXXZ
       2680  A77 00076490 ??_FQIconEnginePluginV2@@QAEXXZ
       2681  A78 00020CE0 ??_FQImageIOPlugin@@QAEXXZ
       2682  A79 0000E2E0 ??_FQInputContext@@QAEXXZ
       2683  A7A 003F1A10 ??_FQInputContextPlugin@@QAEXXZ
       2684  A7B 0027DD20 ??_FQItemDelegate@@QAEXXZ
       2685  A7C 002B8DE0 ??_FQLCDNumber@@QAEXXZ
       2686  A7D 00026600 ??_FQLabel@@QAEXXZ
       2687  A7E 0044D640 ??_FQLayoutItem@@QAEXXZ
       2688  A7F 00178180 ??_FQLineEdit@@QAEXXZ
       2689  A80 00211830 ??_FQListView@@QAEXXZ
       2690  A81 00333BA0 ??_FQListWidget@@QAEXXZ
       2691  A82 00333790 ??_FQListWidgetItem@@QAEXXZ
       2692  A83 001F5FA0 ??_FQMainWindow@@QAEXXZ
       2693  A84 002CC860 ??_FQMdiArea@@QAEXXZ
       2694  A85 001F6020 ??_FQMdiSubWindow@@QAEXXZ
       2695  A86 000017A0 ??_FQMenu@@QAEXXZ
       2696  A87 00001D50 ??_FQMenuBar@@QAEXXZ
       2697  A88 0000D1E0 ??_FQMessageBox@@QAEXXZ
       2698  A89 001D8EE0 ??_FQMotifStyle@@QAEXXZ
       2699  A8A 0009BA70 ??_FQMovie@@QAEXXZ
       2700  A8B 00048560 ??_FQPaintEngine@@QAEXXZ
       2701  A8C 0008E8F0 ??_FQPicture@@QAEXXZ
       2702  A8D 00091BD0 ??_FQPictureFormatPlugin@@QAEXXZ
       2703  A8E 003303B0 ??_FQPlainTextEdit@@QAEXXZ
       2704  A8F 00372350 ??_FQPrintPreviewDialog@@QAEXXZ
       2705  A90 00331A70 ??_FQPrintPreviewWidget@@QAEXXZ
       2706  A91 000E28E0 ??_FQPrinter@@QAEXXZ
       2707  A92 001F4020 ??_FQProgressBar@@QAEXXZ
       2708  A93 00358050 ??_FQProgressDialog@@QAEXXZ
       2709  A94 003D8980 ??_FQProxyModel@@QAEXXZ
       2710  A95 00211700 ??_FQPushButton@@QAEXXZ
       2711  A96 001F3190 ??_FQRadioButton@@QAEXXZ
       2712  A97 0026D260 ??_FQScrollArea@@QAEXXZ
       2713  A98 00177620 ??_FQScrollBar@@QAEXXZ
       2714  A99 000027C0 ??_FQSlider@@QAEXXZ
       2715  A9A 003DCF30 ??_FQSortFilterProxyModel@@QAEXXZ
       2716  A9B 00212AE0 ??_FQSpinBox@@QAEXXZ
       2717  A9C 002F5750 ??_FQSplashScreen@@QAEXXZ
       2718  A9D 002119A0 ??_FQSplitter@@QAEXXZ
       2719  A9E 0021C990 ??_FQStackedWidget@@QAEXXZ
       2720  A9F 00286E50 ??_FQStandardItemModel@@QAEXXZ
       2721  AA0 001F3410 ??_FQStatusBar@@QAEXXZ
       2722  AA1 002AD1F0 ??_FQStringListModel@@QAEXXZ
       2723  AA2 000037C0 ??_FQStyleHintReturn@@QAEXXZ
       2724  AA3 00002EC0 ??_FQStyleOption@@QAEXXZ
       2725  AA4 000035B0 ??_FQStyleOptionComplex@@QAEXXZ
       2726  AA5 001D8DB0 ??_FQStylePlugin@@QAEXXZ
       2727  AA6 0037A2E0 ??_FQStyledItemDelegate@@QAEXXZ
       2728  AA7 004314C0 ??_FQSystemTrayIcon@@QAEXXZ
       2729  AA8 00002900 ??_FQTabBar@@QAEXXZ
       2730  AA9 00002CE0 ??_FQTabWidget@@QAEXXZ
       2731  AAA 0027DE50 ??_FQTableView@@QAEXXZ
       2732  AAB 003C93C0 ??_FQTableWidget@@QAEXXZ
       2733  AAC 003C7EB0 ??_FQTableWidgetItem@@QAEXXZ
       2734  AAD 001C1390 ??_FQTextBrowser@@QAEXXZ
       2735  AAE 0017E0F0 ??_FQTextControl@@QAEXXZ
       2736  AAF 0003C400 ??_FQTextDocument@@QAEXXZ
       2737  AB0 00177310 ??_FQTextEdit@@QAEXXZ
       2738  AB1 0019FBF0 ??_FQTextImageHandler@@QAEXXZ
       2739  AB2 00279300 ??_FQTimeEdit@@QAEXXZ
       2740  AB3 00030BC0 ??_FQToolBar@@QAEXXZ
       2741  AB4 002C4370 ??_FQToolBarLayout@@QAEXXZ
       2742  AB5 0022C580 ??_FQToolBox@@QAEXXZ
       2743  AB6 00043F40 ??_FQToolButton@@QAEXXZ
       2744  AB7 00212CE0 ??_FQTreeView@@QAEXXZ
       2745  AB8 003D78D0 ??_FQTreeWidget@@QAEXXZ
       2746  AB9 003D2250 ??_FQTreeWidgetItem@@QAEXXZ
       2747  ABA 00439F70 ??_FQUndoCommand@@QAEXXZ
       2748  ABB 0043AA80 ??_FQUndoGroup@@QAEXXZ
       2749  ABC 0043A0C0 ??_FQUndoStack@@QAEXXZ
       2750  ABD 0043CF70 ??_FQUndoView@@QAEXXZ
       2751  ABE 0044C590 ??_FQWidget@@QAEXXZ
       2752  ABF 00003C90 ??_FQWidgetPrivate@@QAEXXZ
       2753  AC0 001DFA90 ??_FQWizard@@QAEXXZ
       2754  AC1 001DC960 ??_FQWizardPage@@QAEXXZ
       2755  AC2 00228E80 ??_FQWorkspace@@QAEXXZ
       2756  AC3 00383DC0 ?_q_columnsAboutToBeRemoved@QAbstractItemViewPrivate@@QAEXABVQModelIndex@@HH@Z
       2757  AC4 0037BD80 ?_q_columnsRemoved@QAbstractItemViewPrivate@@QAEXABVQModelIndex@@HH@Z
       2758  AC5 0037C010 ?_q_fetchMore@QAbstractItemViewPrivate@@QAEXXZ
       2759  AC6 0037BDA0 ?_q_layoutChanged@QAbstractItemViewPrivate@@QAEXXZ
       2760  AC7 0037AF90 ?_q_modelDestroyed@QAbstractItemViewPrivate@@QAEXXZ
       2761  AC8 0037BD80 ?_q_rowsRemoved@QAbstractItemViewPrivate@@QAEXABVQModelIndex@@HH@Z
       2762  AC9 0004AC00 ?_q_showIfNotHidden@QWidgetPrivate@@QAEXXZ
       2763  ACA 000F3BA0 ?abort@QPrinter@@QAE_NXZ
       2764  ACB 000E2860 ?aborted@QPrinter@@QAE_NXZ
       2765  ACC 00355630 ?about@QMessageBox@@SAXPAVQWidget@@ABVQString@@1@Z
       2766  ACD 0000E510 ?aboutQt@QApplication@@SAXXZ
       2767  ACE 00354B50 ?aboutQt@QMessageBox@@SAXPAVQWidget@@ABVQString@@@Z
       2768  ACF 002D28F0 ?aboutToActivate@QMdiSubWindow@@IAEXXZ
       2769  AD0 002DC650 ?aboutToHide@QMenu@@IAEXXZ
       2770  AD1 002DC630 ?aboutToShow@QMenu@@IAEXXZ
       2771  AD2 00043C00 ?accel@QAbstractButton@@QBE?AVQKeySequence@@XZ
       2772  AD3 00004AE0 ?accel@QAction@@QBE?AVQKeySequence@@XZ
       2773  AD4 00004B00 ?accel@QMenu@@QBE?AVQKeySequence@@H@Z
       2774  AD5 00004E30 ?accel@QMenuBar@@QBE?AVQKeySequence@@H@Z
       2775  AD6 0033EDA0 ?accept@QDialog@@UAEXXZ
       2776  AD7 0044ABF0 ?accept@QDragMoveEvent@@QAEXABVQRect@@@Z
       2777  AD8 00064E60 ?accept@QDragMoveEvent@@QAEXXZ
       2778  AD9 0044AB70 ?accept@QDragMoveEvent@@QAEX_N@Z
       2779  ADA 00064E60 ?accept@QDropEvent@@QAEXXZ
       2780  ADB 0044AB70 ?accept@QDropEvent@@QAEX_N@Z
       2781  ADC 0034A450 ?accept@QFileDialog@@MAEXXZ
       2782  ADD 0044ABB0 ?acceptAction@QDropEvent@@QAEX_N@Z
       2783  ADE 003F4150 ?acceptDrops@QGraphicsItem@@QBE_NXZ
       2784  ADF 00048B30 ?acceptDrops@QWidget@@QBE_NXZ
       2785  AE0 003F4180 ?acceptHoverEvents@QGraphicsItem@@QBE_NXZ
       2786  AE1 002B9E00 ?acceptMode@QFileDialog@@QBE?AW4AcceptMode@1@XZ
       2787  AE2 0017B130 ?acceptProposedAction@QDropEvent@@QAEXXZ
       2788  AE3 00415250 ?acceptProposedAction@QGraphicsSceneDragDropEvent@@QAEXXZ
       2789  AE4 00178CE0 ?acceptRichText@QTextControl@@QBE_NXZ
       2790  AE5 00301950 ?acceptRichText@QTextEdit@@QBE_NXZ
       2791  AE6 0033EEC0 ?accepted@QDialog@@IAEXXZ
       2792  AE7 0029A010 ?accepted@QDialogButtonBox@@IAEXXZ
       2793  AE8 003F6290 ?acceptedMouseButtons@QGraphicsItem@@QBE?AV?$QFlags@W4MouseButton@Qt@@@@XZ
       2794  AE9 003F4180 ?acceptsHoverEvents@QGraphicsItem@@QBE_NXZ
       2795  AEA 00289310 ?accessibleDescription@QStandardItem@@QBE?AVQString@@XZ
       2796  AEB 00048120 ?accessibleDescription@QWidget@@QBE?AVQString@@XZ
       2797  AEC 000480E0 ?accessibleName@QWidget@@QBE?AVQString@@XZ
       2798  AED 00289290 ?accessibleText@QStandardItem@@QBE?AVQString@@XZ
       2799  AEE 00177860 ?action@QActionEvent@@QBEPAVQAction@@XZ
       2800  AEF 00022C20 ?action@QDropEvent@@QBE?AW4Action@1@XZ
       2801  AF0 002E01C0 ?actionAt@QMenu@@QBEPAVQAction@@ABVQPoint@@@Z
       2802  AF1 002E8310 ?actionAt@QMenuBar@@QBEPAVQAction@@ABVQPoint@@@Z
       2803  AF2 00308F00 ?actionAt@QToolBar@@QBEPAVQAction@@ABVQPoint@@@Z
       2804  AF3 00030C30 ?actionAt@QToolBar@@QBEPAVQAction@@HH@Z
       2805  AF4 0043ED90 ?actionChanged@QDrag@@IAEXW4DropAction@Qt@@@Z
       2806  AF5 002E2D70 ?actionEvent@QMenu@@MAEXPAVQActionEvent@@@Z
       2807  AF6 002EA1B0 ?actionEvent@QMenuBar@@MAEXPAVQActionEvent@@@Z
       2808  AF7 0030A380 ?actionEvent@QToolBar@@MAEXPAVQActionEvent@@@Z
       2809  AF8 00311080 ?actionEvent@QToolButton@@MAEXPAVQActionEvent@@@Z
       2810  AF9 0030DEA0 ?actionEvent@QWidget@@MAEXPAVQActionEvent@@@Z
       2811  AFA 002DE630 ?actionGeometry@QMenu@@QBE?AVQRect@@PAVQAction@@@Z
       2812  AFB 002E7900 ?actionGeometry@QMenuBar@@QBE?AVQRect@@PAVQAction@@@Z
       2813  AFC 00309400 ?actionGeometry@QToolBar@@QBE?AVQRect@@PAVQAction@@@Z
       2814  AFD 003B3140 ?actionGroup@QAction@@QBEPAVQActionGroup@@XZ
       2815  AFE 00373720 ?actionText@QAccessibleApplication@@UBE?AVQString@@HW4Text@QAccessible@@H@Z
       2816  AFF 00373560 ?actionText@QAccessibleObject@@UBE?AVQString@@HW4Text@QAccessible@@H@Z
       2817  B00 003736D0 ?actionText@QAccessibleObjectEx@@UBE?AVQString@@HW4Text@QAccessible@@H@Z
       2818  B01 00374E20 ?actionText@QAccessibleWidget@@UBE?AVQString@@HW4Text@QAccessible@@H@Z
       2819  B02 003751C0 ?actionText@QAccessibleWidgetEx@@UBE?AVQString@@HW4Text@QAccessible@@H@Z
       2820  B03 00442080 ?actionTriggered@QAbstractSlider@@IAEXH@Z
       2821  B04 00309020 ?actionTriggered@QToolBar@@IAEXPAVQAction@@@Z
       2822  B05 00277180 ?actions@QActionGroup@@QBE?AV?$QList@PAVQAction@@@@XZ
       2823  B06 003F2420 ?actions@QInputContext@@UAE?AV?$QList@PAVQAction@@@@XZ
       2824  B07 00009720 ?actions@QWidget@@QBE?AV?$QList@PAVQAction@@@@XZ
       2825  B08 00007640 ?activate@QAction@@QAEXW4ActionEvent@1@@Z
       2826  B09 004201C0 ?activate@QGraphicsLayout@@QAEXXZ
       2827  B0A 00032F20 ?activate@QLayout@@QAE_NXZ
       2828  B0B 00445840 ?activate@QWidgetResizeHandler@@IAEXXZ
       2829  B0C 00053C40 ?activateChildLayoutsRecursively@QWidgetPrivate@@QAEXXZ
       2830  B0D 00007F50 ?activateItemAt@QMenu@@QAEXH@Z
       2831  B0E 00008690 ?activateItemAt@QMenuBar@@QAEXH@Z
       2832  B0F 002D07F0 ?activateNextSubWindow@QMdiArea@@QAEXXZ
       2833  B10 0031F770 ?activateNextWindow@QWorkspace@@QAEXXZ
       2834  B11 002D0830 ?activatePreviousSubWindow@QMdiArea@@QAEXXZ
       2835  B12 0031F880 ?activatePreviousWindow@QWorkspace@@QAEXXZ
       2836  B13 000316F0 ?activateRecursiveHelper@QLayout@@CAXPAVQLayoutItem@@@Z
       2837  B14 0006E480 ?activateWindow@QWidget@@QAEXXZ
       2838  B15 0037B3B0 ?activated@QAbstractItemView@@IAEXABVQModelIndex@@@Z
       2839  B16 000045F0 ?activated@QAction@@IAEXH@Z
       2840  B17 00280100 ?activated@QCalendarWidget@@IAEXABVQDate@@@Z
       2841  B18 00287BE0 ?activated@QComboBox@@IAEXABVQString@@@Z
       2842  B19 00287BB0 ?activated@QComboBox@@IAEXH@Z
       2843  B1A 004319C0 ?activated@QCompleter@@IAEXABVQModelIndex@@@Z
       2844  B1B 00431990 ?activated@QCompleter@@IAEXABVQString@@@Z
       2845  B1C 002DC6D0 ?activated@QMenu@@IAEXH@Z
       2846  B1D 002E5F40 ?activated@QMenuBar@@IAEXH@Z
       2847  B1E 0043F540 ?activated@QShortcut@@IAEXXZ
       2848  B1F 00447730 ?activated@QSystemTrayIcon@@IAEXW4ActivationReason@1@@Z
       2849  B20 0043F560 ?activatedAmbiguously@QShortcut@@IAEXXZ
       2850  B21 002CA450 ?activationOrder@QMdiArea@@QBE?AW4WindowOrder@1@XZ
       2851  B22 004495A0 ?active@QPalette@@QBE?AVQColorGroup@@XZ
       2852  B23 002DC4D0 ?activeAction@QMenu@@QBEPAVQAction@@XZ
       2853  B24 002EB2B0 ?activeAction@QMenuBar@@QBEPAVQAction@@XZ
       2854  B25 00013040 ?activeModalWidget@QApplication@@SAPAVQWidget@@XZ
       2855  B26 00013000 ?activePopupWidget@QApplication@@SAPAVQWidget@@XZ
       2856  B27 003B3140 ?activeStack@QUndoGroup@@QBEPAVQUndoStack@@XZ
       2857  B28 00447AE0 ?activeStackChanged@QUndoGroup@@IAEXPAVQUndoStack@@@Z
       2858  B29 002CAC80 ?activeSubWindow@QMdiArea@@QBEPAVQMdiSubWindow@@XZ
       2859  B2A 0000E500 ?activeWindow@QApplication@@SAPAVQWidget@@XZ
       2860  B2B 0030FBF0 ?activeWindow@QGraphicsScene@@QBEPAVQGraphicsWidget@@XZ
       2861  B2C 00319990 ?activeWindow@QWorkspace@@QBEPAVQWidget@@XZ
       2862  B2D 006A1488 ?active_window@QApplicationPrivate@@2PAVQWidget@@A
       2863  B2E 00076990 ?actualSize@QIcon@@QBE?AVQSize@@ABV2@W4Mode@1@W4State@1@@Z
       2864  B2F 0009A830 ?actualSize@QIconEngine@@UAE?AVQSize@@ABV2@W4Mode@QIcon@@W4State@4@@Z
       2865  B30 000011C0 ?add@QActionGroup@@QAEXPAVQAction@@@Z
       2866  B31 0044B250 ?add@QLayout@@QAEXPAVQWidget@@@Z
       2867  B32 001C5B00 ?add@QTextList@@QAEXABVQTextBlock@@@Z
       2868  B33 0003C260 ?add@QToolTip@@SAXPAVQWidget@@ABVQRect@@ABVQString@@@Z
       2869  B34 0003C250 ?add@QToolTip@@SAXPAVQWidget@@ABVQString@@@Z
       2870  B35 00044100 ?add@QWhatsThis@@SAXPAVQWidget@@ABVQString@@@Z
       2871  B36 0000B5A0 ?addAction@QActionGroup@@QAEPAVQAction@@ABVQIcon@@ABVQString@@@Z
       2872  B37 0000B520 ?addAction@QActionGroup@@QAEPAVQAction@@ABVQString@@@Z
       2873  B38 0000BA50 ?addAction@QActionGroup@@QAEPAVQAction@@PAV2@@Z
       2874  B39 002DC1C0 ?addAction@QMenu@@QAEPAVQAction@@ABVQIcon@@ABVQString@@@Z
       2875  B3A 002DC2E0 ?addAction@QMenu@@QAEPAVQAction@@ABVQIcon@@ABVQString@@PBVQObject@@PBDABVQKeySequence@@@Z
       2876  B3B 002DC140 ?addAction@QMenu@@QAEPAVQAction@@ABVQString@@@Z
       2877  B3C 002DC240 ?addAction@QMenu@@QAEPAVQAction@@ABVQString@@PBVQObject@@PBDABVQKeySequence@@@Z
       2878  B3D 002E5A70 ?addAction@QMenuBar@@QAEPAVQAction@@ABVQString@@@Z
       2879  B3E 002E5AF0 ?addAction@QMenuBar@@QAEPAVQAction@@ABVQString@@PBVQObject@@PBD@Z
       2880  B3F 00308B30 ?addAction@QToolBar@@QAEPAVQAction@@ABVQIcon@@ABVQString@@@Z
       2881  B40 00308C40 ?addAction@QToolBar@@QAEPAVQAction@@ABVQIcon@@ABVQString@@PBVQObject@@PBD@Z
       2882  B41 00308AB0 ?addAction@QToolBar@@QAEPAVQAction@@ABVQString@@@Z
       2883  B42 00308BB0 ?addAction@QToolBar@@QAEPAVQAction@@ABVQString@@PBVQObject@@PBD@Z
       2884  B43 0004FAA0 ?addAction@QWidget@@QAEXPAVQAction@@@Z
       2885  B44 0004FAB0 ?addActions@QWidget@@QAEXV?$QList@PAVQAction@@@@@Z
       2886  B45 00176C70 ?addApplicationFont@QFontDatabase@@SAHABVQString@@@Z
       2887  B46 00176DF0 ?addApplicationFontFromData@QFontDatabase@@SAHABVQByteArray@@@Z
       2888  B47 00162030 ?addBitmapFontToPath@QFontEngine@@QAEXNNPBUQGlyphLayout@@HPAVQPainterPath@@V?$QFlags@W4RenderFlag@QTextItem@@@@@Z
       2889  B48 00278350 ?addButton@QButtonGroup@@QAEXPAVQAbstractButton@@@Z
       2890  B49 002782C0 ?addButton@QButtonGroup@@QAEXPAVQAbstractButton@@H@Z
       2891  B4A 0029BA30 ?addButton@QDialogButtonBox@@QAEPAVQPushButton@@ABVQString@@W4ButtonRole@1@@Z
       2892  B4B 0029BE40 ?addButton@QDialogButtonBox@@QAEPAVQPushButton@@W4StandardButton@1@@Z
       2893  B4C 0029B9E0 ?addButton@QDialogButtonBox@@QAEXPAVQAbstractButton@@W4ButtonRole@1@@Z
       2894  B4D 00356590 ?addButton@QMessageBox@@QAEPAVQPushButton@@ABVQString@@W4ButtonRole@1@@Z
       2895  B4E 00352A70 ?addButton@QMessageBox@@QAEPAVQPushButton@@W4StandardButton@1@@Z
       2896  B4F 00356530 ?addButton@QMessageBox@@QAEXPAVQAbstractButton@@W4ButtonRole@1@@Z
       2897  B50 003D66C0 ?addChild@QTreeWidgetItem@@QAEXPAV1@@Z
       2898  B51 00032BD0 ?addChildLayout@QLayout@@IAEXPAV1@@Z
       2899  B52 00032CB0 ?addChildWidget@QLayout@@IAEXPAVQWidget@@@Z
       2900  B53 003D6750 ?addChildren@QTreeWidgetItem@@QAEXABV?$QList@PAVQTreeWidgetItem@@@@@Z
       2901  B54 0044CE00 ?addColSpacing@QGridLayout@@QAEXHH@Z
       2902  B55 003771C0 ?addControllingSignal@QAccessibleWidget@@IAEXABVQString@@@Z
       2903  B56 00377360 ?addControllingSignal@QAccessibleWidgetEx@@IAEXABVQString@@@Z
       2904  B57 002C2CA0 ?addDockWidget@QMainWindow@@QAEXW4DockWidgetArea@Qt@@PAVQDockWidget@@@Z
       2905  B58 002C26A0 ?addDockWidget@QMainWindow@@QAEXW4DockWidgetArea@Qt@@PAVQDockWidget@@W4Orientation@3@@Z
       2906  B59 00382970 ?addEditor@QAbstractItemViewPrivate@@QAEXABVQModelIndex@@PAVQWidget@@@Z
       2907  B5A 0040B980 ?addEllipse@QGraphicsScene@@QAEPAVQGraphicsEllipseItem@@ABVQRectF@@ABVQPen@@ABVQBrush@@@Z
       2908  B5B 00046B50 ?addEllipse@QGraphicsScene@@QAEPAVQGraphicsEllipseItem@@NNNNABVQPen@@ABVQBrush@@@Z
       2909  B5C 00448720 ?addEllipse@QPainterPath@@QAEXABVQPointF@@NN@Z
       2910  B5D 000DE1B0 ?addEllipse@QPainterPath@@QAEXABVQRectF@@@Z
       2911  B5E 004486D0 ?addEllipse@QPainterPath@@QAEXNNNN@Z
       2912  B5F 00339A70 ?addEnabledOption@QAbstractPrintDialog@@QAEXW4PrintDialogOption@1@@Z
       2913  B60 00367820 ?addEnabledOption@QPageSetupDialog@@QAEXW4PageSetupDialogOption@1@@Z
       2914  B61 00077BA0 ?addFile@QIcon@@QAEXABVQString@@ABVQSize@@W4Mode@1@W4State@1@@Z
       2915  B62 0009A920 ?addFile@QIconEngine@@UAEXABVQString@@ABVQSize@@W4Mode@QIcon@@W4State@5@@Z
       2916  B63 001622B0 ?addGlyphsToPath@QFontEngine@@UAEXPAIPAUQFixedPoint@@HPAVQPainterPath@@V?$QFlags@W4RenderFlag@QTextItem@@@@@Z
       2917  B64 000BAE30 ?addIfClose@QBezier@@QBEXPANN@Z
       2918  B65 0001D470 ?addItem@QBoxLayout@@UAEXPAVQLayoutItem@@@Z
       2919  B66 001F3020 ?addItem@QComboBox@@QAEXABVQIcon@@ABVQString@@ABVQVariant@@@Z
       2920  B67 001F5DA0 ?addItem@QComboBox@@QAEXABVQString@@ABVQVariant@@@Z
       2921  B68 0029C620 ?addItem@QDockWidgetLayout@@UAEXPAVQLayoutItem@@@Z
       2922  B69 00029380 ?addItem@QFormLayout@@UAEXPAVQLayoutItem@@@Z
       2923  B6A 0042F890 ?addItem@QGraphicsGridLayout@@QAEXPAVQGraphicsLayoutItem@@HHHHV?$QFlags@W4AlignmentFlag@Qt@@@@@Z
       2924  B6B 0042FCB0 ?addItem@QGraphicsGridLayout@@QAEXPAVQGraphicsLayoutItem@@HHV?$QFlags@W4AlignmentFlag@Qt@@@@@Z
       2925  B6C 00421C80 ?addItem@QGraphicsLinearLayout@@QAEXPAVQGraphicsLayoutItem@@@Z
       2926  B6D 0040B0B0 ?addItem@QGraphicsScene@@QAEXPAVQGraphicsItem@@@Z
       2927  B6E 0002DC20 ?addItem@QGridLayout@@MAEXPAVQLayoutItem@@@Z
       2928  B6F 0002D740 ?addItem@QGridLayout@@QAEXPAVQLayoutItem@@HHHHV?$QFlags@W4AlignmentFlag@Qt@@@@@Z
       2929  B70 00333B60 ?addItem@QListWidget@@QAEXABVQString@@@Z
       2930  B71 00333C20 ?addItem@QListWidget@@QAEXPAVQListWidgetItem@@@Z
       2931  B72 0003C1F0 ?addItem@QStackedLayout@@UAEXPAVQLayoutItem@@@Z
       2932  B73 0030B160 ?addItem@QToolBarLayout@@UAEXPAVQLayoutItem@@@Z
       2933  B74 00228D20 ?addItem@QToolBox@@QAEHPAVQWidget@@ABVQIcon@@ABVQString@@@Z
       2934  B75 00228CA0 ?addItem@QToolBox@@QAEHPAVQWidget@@ABVQString@@@Z
       2935  B76 001F2C40 ?addItems@QComboBox@@QAEXABVQStringList@@@Z
       2936  B77 00333B80 ?addItems@QListWidget@@QAEXABVQStringList@@@Z
       2937  B78 0001D940 ?addLayout@QBoxLayout@@QAEXPAVQLayout@@H@Z
       2938  B79 0002DAC0 ?addLayout@QGridLayout@@QAEXPAVQLayout@@HHHHV?$QFlags@W4AlignmentFlag@Qt@@@@@Z
       2939  B7A 0002DA60 ?addLayout@QGridLayout@@QAEXPAVQLayout@@HHV?$QFlags@W4AlignmentFlag@Qt@@@@@Z
       2940  B7B 00002650 ?addLine@QAbstractSlider@@QAEXXZ
       2941  B7C 0040BA10 ?addLine@QGraphicsScene@@QAEPAVQGraphicsLineItem@@ABVQLineF@@ABVQPen@@@Z
       2942  B7D 00046BA0 ?addLine@QGraphicsScene@@QAEPAVQGraphicsLineItem@@NNNNABVQPen@@@Z
       2943  B7E 003EA810 ?addMapping@QDataWidgetMapper@@QAEXPAVQWidget@@H@Z
       2944  B7F 003EA8E0 ?addMapping@QDataWidgetMapper@@QAEXPAVQWidget@@HABVQByteArray@@@Z
       2945  B80 002DE420 ?addMenu@QMenu@@QAEPAV1@ABVQIcon@@ABVQString@@@Z
       2946  B81 002DE3A0 ?addMenu@QMenu@@QAEPAV1@ABVQString@@@Z
       2947  B82 002DC380 ?addMenu@QMenu@@QAEPAVQAction@@PAV1@@Z
       2948  B83 002E5C90 ?addMenu@QMenuBar@@QAEPAVQAction@@PAVQMenu@@@Z
       2949  B84 002E5C00 ?addMenu@QMenuBar@@QAEPAVQMenu@@ABVQIcon@@ABVQString@@@Z
       2950  B85 002E5B80 ?addMenu@QMenuBar@@QAEPAVQMenu@@ABVQString@@@Z
       2951  B86 0044CEE0 ?addMultiCell@QGridLayout@@QAEXPAVQLayoutItem@@HHHHV?$QFlags@W4AlignmentFlag@Qt@@@@@Z
       2952  B87 0044CF30 ?addMultiCellLayout@QGridLayout@@QAEXPAVQLayout@@HHHHV?$QFlags@W4AlignmentFlag@Qt@@@@@Z
       2953  B88 0044CE90 ?addMultiCellWidget@QGridLayout@@QAEXPAVQWidget@@HHHHV?$QFlags@W4AlignmentFlag@Qt@@@@@Z
       2954  B89 001634D0 ?addOutlineToPath@QFontEngine@@UAEXNNPBUQGlyphLayout@@HPAVQPainterPath@@V?$QFlags@W4RenderFlag@QTextItem@@@@@Z
       2955  B8A 00163F90 ?addOutlineToPath@QFontEngineMulti@@UAEXNNPBUQGlyphLayout@@HPAVQPainterPath@@V?$QFlags@W4RenderFlag@QTextItem@@@@@Z
       2956  B8B 00002630 ?addPage@QAbstractSlider@@QAEXXZ
       2957  B8C 0036E690 ?addPage@QWizard@@QAEHPAVQWizardPage@@@Z
       2958  B8D 0040BA90 ?addPath@QGraphicsScene@@QAEPAVQGraphicsPathItem@@ABVQPainterPath@@ABVQPen@@ABVQBrush@@@Z
       2959  B8E 000DE760 ?addPath@QPainterPath@@QAEXABV1@@Z
       2960  B8F 002FB010 ?addPermanentWidget@QStatusBar@@QAEXPAVQWidget@@H@Z
       2961  B90 0040BB20 ?addPixmap@QGraphicsScene@@QAEPAVQGraphicsPixmapItem@@ABVQPixmap@@@Z
       2962  B91 00077AC0 ?addPixmap@QIcon@@QAEXABVQPixmap@@W4Mode@1@W4State@1@@Z
       2963  B92 003AE6A0 ?addPixmap@QIconEngine@@UAEXABVQPixmap@@W4Mode@QIcon@@W4State@4@@Z
       2964  B93 0040BBA0 ?addPolygon@QGraphicsScene@@QAEPAVQGraphicsPolygonItem@@ABVQPolygonF@@ABVQPen@@ABVQBrush@@@Z
       2965  B94 000DE0B0 ?addPolygon@QPainterPath@@QAEXABVQPolygonF@@@Z
       2966  B95 0040BC30 ?addRect@QGraphicsScene@@QAEPAVQGraphicsRectItem@@ABVQRectF@@ABVQPen@@ABVQBrush@@@Z
       2967  B96 00046BF0 ?addRect@QGraphicsScene@@QAEPAVQGraphicsRectItem@@NNNNABVQPen@@ABVQBrush@@@Z
       2968  B97 000DE5B0 ?addRect@QPainterPath@@QAEXABVQRectF@@@Z
       2969  B98 000E1290 ?addRect@QPainterPath@@QAEXNNNN@Z
       2970  B99 000DE9A0 ?addRegion@QPainterPath@@QAEXABVQRegion@@@Z
       2971  B9A 001862D0 ?addRequiredBoundaries@QTextEngine@@ABEXXZ
       2972  B9B 0019DDC0 ?addResource@QTextDocument@@QAEXHABVQUrl@@ABVQVariant@@@Z
       2973  B9C 00448840 ?addRoundRect@QPainterPath@@QAEXABVQRectF@@H@Z
       2974  B9D 000E1A80 ?addRoundRect@QPainterPath@@QAEXABVQRectF@@HH@Z
       2975  B9E 004488E0 ?addRoundRect@QPainterPath@@QAEXNNNNH@Z
       2976  B9F 004487F0 ?addRoundRect@QPainterPath@@QAEXNNNNHH@Z
       2977  BA0 000E1790 ?addRoundedRect@QPainterPath@@QAEXABVQRectF@@NNW4SizeMode@Qt@@@Z
       2978  BA1 00448790 ?addRoundedRect@QPainterPath@@QAEXNNNNNNW4SizeMode@Qt@@@Z
       2979  BA2 00029CA0 ?addRow@QFormLayout@@QAEXABVQString@@PAVQLayout@@@Z
       2980  BA3 00029C80 ?addRow@QFormLayout@@QAEXABVQString@@PAVQWidget@@@Z
       2981  BA4 00029CD0 ?addRow@QFormLayout@@QAEXPAVQLayout@@@Z
       2982  BA5 00029C40 ?addRow@QFormLayout@@QAEXPAVQWidget@@0@Z
       2983  BA6 00029CC0 ?addRow@QFormLayout@@QAEXPAVQWidget@@@Z
       2984  BA7 00029C60 ?addRow@QFormLayout@@QAEXPAVQWidget@@PAVQLayout@@@Z
       2985  BA8 0044CD70 ?addRowSpacing@QGridLayout@@QAEXHH@Z
       2986  BA9 00314D40 ?addScrollBarWidget@QAbstractScrollArea@@QAEXPAVQWidget@@V?$QFlags@W4AlignmentFlag@Qt@@@@@Z
       2987  BAA 00009D10 ?addSeparator@QActionGroup@@QAEXXZ
       2988  BAB 002DC3A0 ?addSeparator@QMenu@@QAEPAVQAction@@XZ
       2989  BAC 002E5CB0 ?addSeparator@QMenuBar@@QAEPAVQAction@@XZ
       2990  BAD 00308CE0 ?addSeparator@QToolBar@@QAEPAVQAction@@XZ
       2991  BAE 0040BD60 ?addSimpleText@QGraphicsScene@@QAEPAVQGraphicsSimpleTextItem@@ABVQString@@ABVQFont@@@Z
       2992  BAF 0001D8B0 ?addSpacerItem@QBoxLayout@@QAEXPAVQSpacerItem@@@Z
       2993  BB0 0001D890 ?addSpacing@QBoxLayout@@QAEXH@Z
       2994  BB1 0043AB30 ?addStack@QUndoGroup@@QAEXPAVQUndoStack@@@Z
       2995  BB2 00002650 ?addStep@QSlider@@QAEXXZ
       2996  BB3 0001D8A0 ?addStretch@QBoxLayout@@QAEXH@Z
       2997  BB4 00421630 ?addStretch@QGraphicsLinearLayout@@QAEXH@Z
       2998  BB5 0001D960 ?addStrut@QBoxLayout@@QAEXH@Z
       2999  BB6 002D0870 ?addSubWindow@QMdiArea@@QAEPAVQMdiSubWindow@@PAVQWidget@@V?$QFlags@W4WindowType@Qt@@@@@Z
       3000  BB7 002FF680 ?addTab@QTabBar@@QAEHABVQIcon@@ABVQString@@@Z
       3001  BB8 002FF710 ?addTab@QTabBar@@QAEHABVQString@@@Z
       3002  BB9 00301270 ?addTab@QTabWidget@@QAEHPAVQWidget@@ABVQIcon@@ABVQString@@@Z
       3003  BBA 00301310 ?addTab@QTabWidget@@QAEHPAVQWidget@@ABVQString@@@Z
       3004  BBB 0040BCC0 ?addText@QGraphicsScene@@QAEPAVQGraphicsTextItem@@ABVQString@@ABVQFont@@@Z
       3005  BBC 000E12E0 ?addText@QPainterPath@@QAEXABVQPointF@@ABVQFont@@ABVQString@@@Z
       3006  BBD 00448930 ?addText@QPainterPath@@QAEXNNABVQFont@@ABVQString@@@Z
       3007  BBE 000010C0 ?addTo@QAction@@QAE_NPAVQWidget@@@Z
       3008  BBF 00007960 ?addTo@QActionGroup@@QAE_NPAVQWidget@@@Z
       3009  BC0 00400E20 ?addToGroup@QGraphicsItemGroup@@QAEXPAVQGraphicsItem@@@Z
       3010  BC1 003F46B0 ?addToIndex@QGraphicsItem@@IAEXXZ
       3011  BC2 000BB7D0 ?addToPolygon@QBezier@@QBEXPAVQPolygonF@@@Z
       3012  BC3 000BC970 ?addToPolygonIterative@QBezier@@QBEXPAVQPolygonF@@@Z
       3013  BC4 000BB930 ?addToPolygonMixed@QBezier@@QBEXPAVQPolygonF@@@Z
       3014  BC5 002C3410 ?addToolBar@QMainWindow@@QAEPAVQToolBar@@ABVQString@@@Z
       3015  BC6 002C3300 ?addToolBar@QMainWindow@@QAEXPAVQToolBar@@@Z
       3016  BC7 002C31B0 ?addToolBar@QMainWindow@@QAEXW4ToolBarArea@Qt@@PAVQToolBar@@@Z
       3017  BC8 002C2570 ?addToolBarBreak@QMainWindow@@QAEXW4ToolBarArea@Qt@@@Z
       3018  BC9 003D3EB0 ?addTopLevelItem@QTreeWidget@@QAEXPAVQTreeWidgetItem@@@Z
       3019  BCA 003D3F50 ?addTopLevelItems@QTreeWidget@@QAEXABV?$QList@PAVQTreeWidgetItem@@@@@Z
       3020  BCB 0001D920 ?addWidget@QBoxLayout@@QAEXPAVQWidget@@HV?$QFlags@W4AlignmentFlag@Qt@@@@@Z
       3021  BCC 0040BDE0 ?addWidget@QGraphicsScene@@QAEPAVQGraphicsProxyWidget@@PAVQWidget@@V?$QFlags@W4WindowType@Qt@@@@@Z
       3022  BCD 0044B250 ?addWidget@QGridLayout@@QAEXPAVQWidget@@@Z
       3023  BCE 0002D960 ?addWidget@QGridLayout@@QAEXPAVQWidget@@HHHHV?$QFlags@W4AlignmentFlag@Qt@@@@@Z
       3024  BCF 0002D7C0 ?addWidget@QGridLayout@@QAEXPAVQWidget@@HHV?$QFlags@W4AlignmentFlag@Qt@@@@@Z
       3025  BD0 000335A0 ?addWidget@QLayout@@QAEXPAVQWidget@@@Z
       3026  BD1 002F9820 ?addWidget@QSplitter@@QAEXPAVQWidget@@@Z
       3027  BD2 0003C1D0 ?addWidget@QStackedLayout@@QAEHPAVQWidget@@@Z
       3028  BD3 002F9870 ?addWidget@QStackedWidget@@QAEHPAVQWidget@@@Z
       3029  BD4 002FAFE0 ?addWidget@QStatusBar@@QAEXPAVQWidget@@H@Z
       3030  BD5 001F33C0 ?addWidget@QStatusBar@@QAEXPAVQWidget@@H_N@Z
       3031  BD6 00308DE0 ?addWidget@QToolBar@@QAEPAVQAction@@PAVQWidget@@@Z
       3032  BD7 003223A0 ?addWindow@QWorkspace@@QAEPAVQWidget@@PAV2@V?$QFlags@W4WindowType@Qt@@@@@Z
       3033  BD8 0018A090 ?additionalFormats@QTextLayout@@QBE?AV?$QList@UFormatRange@QTextLayout@@@@XZ
       3034  BD9 00104680 ?adjoint@QTransform@@QBE?AV1@XZ
       3035  BDA 00048880 ?adjustFlags@QWidgetPrivate@@SAXAAV?$QFlags@W4WindowType@Qt@@@@PAVQWidget@@@Z
       3036  BDB 003401E0 ?adjustPosition@QDialog@@IAEXPAVQWidget@@@Z
       3037  BDC 003F5710 ?adjustSize@QGraphicsTextItem@@QAEXXZ
       3038  BDD 00422740 ?adjustSize@QGraphicsWidget@@QAEXXZ
       3039  BDE 001792B0 ?adjustSize@QTextControl@@QAEXXZ
       3040  BDF 0019A9E0 ?adjustSize@QTextDocument@@QAEXXZ
       3041  BE0 000541A0 ?adjustSize@QWidget@@QAEXXZ
       3042  BE1 0004ACA0 ?adjustedSize@QWidgetPrivate@@QBE?AVQSize@@XZ
       3043  BE2 0030DEA0 ?advance@QGraphicsItem@@UAEXH@Z
       3044  BE3 0040C7F0 ?advance@QGraphicsScene@@QAEXXZ
       3045  BE4 0009E100 ?afterAnimationStep@QGraphicsItemAnimation@@MAEXN@Z
       3046  BE5 0005E350 ?alert@QApplication@@SAXPAVQWidget@@H@Z
       3047  BE6 001D8A90 ?alignedRect@QStyle@@SA?AVQRect@@W4LayoutDirection@Qt@@V?$QFlags@W4AlignmentFlag@Qt@@@@ABVQSize@@ABV2@@Z
       3048  BE7 0027AC80 ?alignment@QAbstractSpinBox@@QBE?AV?$QFlags@W4AlignmentFlag@Qt@@@@XZ
       3049  BE8 0042F5A0 ?alignment@QGraphicsGridLayout@@QBE?AV?$QFlags@W4AlignmentFlag@Qt@@@@PAVQGraphicsLayoutItem@@@Z
       3050  BE9 004215D0 ?alignment@QGraphicsLinearLayout@@QBE?AV?$QFlags@W4AlignmentFlag@Qt@@@@PAVQGraphicsLayoutItem@@@Z
       3051  BEA 00416740 ?alignment@QGraphicsView@@QBE?AV?$QFlags@W4AlignmentFlag@Qt@@@@XZ
       3052  BEB 002AFE50 ?alignment@QGroupBox@@QBE?AV?$QFlags@W4AlignmentFlag@Qt@@@@XZ
       3053  BEC 002B19D0 ?alignment@QLabel@@QBE?AV?$QFlags@W4AlignmentFlag@Qt@@@@XZ
       3054  BED 0001B740 ?alignment@QLayoutItem@@QBE?AV?$QFlags@W4AlignmentFlag@Qt@@@@XZ
       3055  BEE 002BA1B0 ?alignment@QLineEdit@@QBE?AV?$QFlags@W4AlignmentFlag@Qt@@@@XZ
       3056  BEF 002EB8B0 ?alignment@QProgressBar@@QBE?AV?$QFlags@W4AlignmentFlag@Qt@@@@XZ
       3057  BF0 00317D80 ?alignment@QScrollArea@@QBE?AV?$QFlags@W4AlignmentFlag@Qt@@@@XZ
       3058  BF1 00040370 ?alignment@QTextBlockFormat@@QBE?AV?$QFlags@W4AlignmentFlag@Qt@@@@XZ
       3059  BF2 00302A90 ?alignment@QTextEdit@@QBE?AV?$QFlags@W4AlignmentFlag@Qt@@@@XZ
       3060  BF3 000CF8C0 ?alignment@QTextOption@@QBE?AV?$QFlags@W4AlignmentFlag@Qt@@@@XZ
       3061  BF4 00040560 ?alignment@QTextTableFormat@@QBE?AV?$QFlags@W4AlignmentFlag@Qt@@@@XZ
       3062  BF5 000332B0 ?alignmentRect@QLayout@@IBE?AVQRect@@ABV2@@Z
       3063  BF6 001CBF10 ?alignmentValue@Declaration@QCss@@QBE?AV?$QFlags@W4AlignmentFlag@Qt@@@@XZ
       3064  BF7 003A0FD0 ?allColumnsShowFocus@QTreeView@@QBE_NXZ
       3065  BF8 0019DB70 ?allFormats@QTextDocument@@QBE?AV?$QVector@VQTextFormat@@@@XZ
       3066  BF9 0006CED0 ?allFormatsForMime@QWindowsMime@@CA?AV?$QVector@UtagFORMATETC@@@@PBVQMimeData@@@Z
       3067  BFA 0007B0B0 ?allGray@QImage@@QBE_NXZ
       3068  BFB 0006D090 ?allMimesForFormats@QWindowsMime@@CA?AVQStringList@@PAUIDataObject@@@Z
       3069  BFC 00012520 ?allWidgets@QApplication@@SA?AV?$QList@PAVQWidget@@@@XZ
       3070  BFD 0029CA70 ?allowedAreas@QDockWidget@@QBE?AV?$QFlags@W4DockWidgetArea@Qt@@@@XZ
       3071  BFE 003092E0 ?allowedAreas@QToolBar@@QBE?AV?$QFlags@W4ToolBarArea@Qt@@@@XZ
       3072  BFF 0029C830 ?allowedAreasChanged@QDockWidget@@IAEXV?$QFlags@W4DockWidgetArea@Qt@@@@@Z
       3073  C00 00309080 ?allowedAreasChanged@QToolBar@@IAEXV?$QFlags@W4ToolBarArea@Qt@@@@@Z
       3074  C01 0005ACD0 ?allowsErrorInteraction@QSessionManager@@QAE_NXZ
       3075  C02 0005ACD0 ?allowsInteraction@QSessionManager@@QAE_NXZ
       3076  C03 000C26C0 ?alpha@QColor@@QBEHXZ
       3077  C04 00088660 ?alphaChannel@QImage@@QBE?AV1@XZ
       3078  C05 00096F30 ?alphaChannel@QPixmap@@QBE?AV1@XZ
       3079  C06 0009A650 ?alphaChannel@QPixmapData@@UBE?AVQPixmap@@XZ
       3080  C07 000C26D0 ?alphaF@QColor@@QBENXZ
       3081  C08 00164BF0 ?alphaMapForGlyph@QFontEngine@@UAE?AVQImage@@I@Z
       3082  C09 0015C310 ?alterCharForCapitalization@QFontPrivate@@QBEXAAVQChar@@@Z
       3083  C0A 001F4550 ?alternateBase@QPalette@@QBEABVQBrush@@XZ
       3084  C0B 0037AC10 ?alternatingRowColors@QAbstractItemView@@QBE_NXZ
       3085  C0C 001B74A0 ?anchor@QTextCursor@@QBEHXZ
       3086  C0D 001AA7E0 ?anchorAt@QAbstractTextDocumentLayout@@QBE?AVQString@@ABVQPointF@@@Z
       3087  C0E 00178BE0 ?anchorAt@QTextControl@@QBE?AVQString@@ABVQPointF@@@Z
       3088  C0F 00304540 ?anchorAt@QTextEdit@@QBE?AVQString@@ABVQPoint@@@Z
       3089  C10 00178C10 ?anchorAtCursor@QTextControl@@QBE?AVQString@@XZ
       3090  C11 00306300 ?anchorClicked@QTextBrowser@@IAEXABVQUrl@@@Z
       3091  C12 0003E270 ?anchorHref@QTextCharFormat@@QBE?AVQString@@XZ
       3092  C13 001917B0 ?anchorName@QTextCharFormat@@QBE?AVQString@@XZ
       3093  C14 00191D00 ?anchorNames@QTextCharFormat@@QBE?AVQStringList@@XZ
       3094  C15 0017EB40 ?anchorPosition@QTextControl@@QBE?AVQPointF@@ABVQString@@@Z
       3095  C16 000BF890 ?angle@QConicalGradient@@QBENXZ
       3096  C17 000E09F0 ?angleAtPercent@QPainterPath@@QBENN@Z
       3097  C18 00276C60 ?animateClick@QAbstractButton@@QAEXH@Z
       3098  C19 006A148F ?animate_combo@QApplicationPrivate@@2_NA
       3099  C1A 006A148D ?animate_menu@QApplicationPrivate@@2_NA
       3100  C1B 006A1496 ?animate_toolbox@QApplicationPrivate@@2_NA
       3101  C1C 006A1494 ?animate_tooltip@QApplicationPrivate@@2_NA
       3102  C1D 0069B2FF ?animate_ui@QApplicationPrivate@@2_NA
       3103  C1E 00064E40 ?answerRect@QDragMoveEvent@@QBE?AVQRect@@XZ
       3104  C1F 0005A2E0 ?appName@QApplicationPrivate@@UBE?AVQString@@XZ
       3105  C20 0069B2F8 ?app_compile_version@QApplicationPrivate@@2HA
       3106  C21 006A1454 ?app_cspec@QApplicationPrivate@@2HA
       3107  C22 006A146C ?app_font@QApplicationPrivate@@0PAVQFont@@A
       3108  C23 006A1478 ?app_icon@QApplicationPrivate@@2PAVQIcon@@A
       3109  C24 006A1458 ?app_pal@QApplicationPrivate@@2PAVQPalette@@A
       3110  C25 006A14D4 ?app_strut@QApplicationPrivate@@2VQSize@@A
       3111  C26 006A1450 ?app_style@QApplicationPrivate@@2PAVQStyle@@A
       3112  C27 001FB740 ?append@?$QList@VQItemSelectionRange@@@@QAEXABVQItemSelectionRange@@@Z
       3113  C28 00179430 ?append@QTextControl@@QAEXABVQString@@@Z
       3114  C29 003045B0 ?append@QTextEdit@@QAEXABVQString@@@Z
       3115  C2A 00286D50 ?appendColumn@QStandardItem@@QAEXABV?$QList@PAVQStandardItem@@@@@Z
       3116  C2B 003E74E0 ?appendColumn@QStandardItemModel@@QAEXABV?$QList@PAVQStandardItem@@@@@Z
       3117  C2C 0032D970 ?appendHtml@QPlainTextEdit@@QAEXABVQString@@@Z
       3118  C2D 00179450 ?appendHtml@QTextControl@@QAEXABVQString@@@Z
       3119  C2E 0032D950 ?appendPlainText@QPlainTextEdit@@QAEXABVQString@@@Z
       3120  C2F 00179470 ?appendPlainText@QTextControl@@QAEXABVQString@@@Z
       3121  C30 00286D10 ?appendRow@QStandardItem@@QAEXABV?$QList@PAVQStandardItem@@@@@Z
       3122  C31 0028EB80 ?appendRow@QStandardItem@@QAEXPAV1@@Z
       3123  C32 003E74D0 ?appendRow@QStandardItemModel@@QAEXABV?$QList@PAVQStandardItem@@@@@Z
       3124  C33 0028EBA0 ?appendRow@QStandardItemModel@@QAEXPAVQStandardItem@@@Z
       3125  C34 00286D30 ?appendRows@QStandardItem@@QAEXABV?$QList@PAVQStandardItem@@@@@Z
       3126  C35 001981E0 ?appendUndoItem@QTextDocument@@QAEXPAVQAbstractUndoItem@@@Z
       3127  C36 00175420 ?applicationFontFamilies@QFontDatabase@@SA?AVQStringList@@H@Z
       3128  C37 000DDF80 ?arcMoveTo@QPainterPath@@QAEXABVQRectF@@N@Z
       3129  C38 000DE2F0 ?arcMoveTo@QPainterPath@@QAEXNNNNN@Z
       3130  C39 000DE420 ?arcTo@QPainterPath@@QAEXABVQRectF@@NN@Z
       3131  C3A 000CD280 ?arcTo@QPainterPath@@QAEXNNNNNN@Z
       3132  C3B 00320570 ?arrangeIcons@QWorkspace@@QAEXXZ
       3133  C3C 0030FC00 ?arrowType@QToolButton@@QBE?AW4ArrowType@Qt@@XZ
       3134  C3D 001646A0 ?ascent@QFontEngineMulti@@UBE?AUQFixed@@XZ
       3135  C3E 0016A9A0 ?ascent@QFontMetrics@@QBEHXZ
       3136  C3F 0016B240 ?ascent@QFontMetricsF@@QBENXZ
       3137  C40 0018AB20 ?ascent@QTextInlineObject@@QBENXZ
       3138  C41 000CB430 ?ascent@QTextItem@@QBENXZ
       3139  C42 0018A760 ?ascent@QTextLine@@QBENXZ
       3140  C43 0044A8E0 ?ascii@QKeyEvent@@QBEHXZ
       3141  C44 00030800 ?assign@QKeySequence@@AAEHABVQString@@@Z
       3142  C45 00009720 ?associatedWidgets@QAction@@QBE?AV?$QList@PAVQWidget@@@@XZ
       3143  C46 001F5390 ?at@?$QList@VQItemSelectionRange@@@@QBEABVQItemSelectionRange@@H@Z
       3144  C47 001B76B0 ?atBlockEnd@QTextCursor@@QBE_NXZ
       3145  C48 001B7660 ?atBlockStart@QTextCursor@@QBE_NXZ
       3146  C49 001B7750 ?atEnd@QTextCursor@@QBE_NXZ
       3147  C4A 00043900 ?atEnd@iterator@QTextBlock@@QBE_NXZ
       3148  C4B 000436A0 ?atEnd@iterator@QTextFrame@@QBE_NXZ
       3149  C4C 001B7730 ?atStart@QTextCursor@@QBE_NXZ
       3150  C4D 00183120 ?atWordSeparator@QTextEngine@@QBE_NH@Z
       3151  C4E 001CBE10 ?attachmentValue@Declaration@QCss@@QBE?AW4Attachment@2@XZ
       3152  C4F 00179C10 ?attributes@QInputMethodEvent@@QBEABV?$QList@VAttribute@QInputMethodEvent@@@@XZ
       3153  C50 00187950 ?attributes@QTextEngine@@QBEPBUHB_CharAttributes@@XZ
       3154  C51 000313D0 ?autoAdd@QLayout@@QBE_NXZ
       3155  C52 00356BA0 ?autoClose@QProgressDialog@@QBE_NXZ
       3156  C53 00287330 ?autoCompletion@QComboBox@@QBE_NXZ
       3157  C54 002DCA50 ?autoCompletionCaseSensitivity@QComboBox@@QBE?AW4CaseSensitivity@Qt@@XZ
       3158  C55 002EBF60 ?autoDefault@QPushButton@@QBE_NXZ
       3159  C56 00046360 ?autoDestruct@QPaintEngine@@ABE_NXZ
       3160  C57 00276030 ?autoExclusive@QAbstractButton@@QBE_NXZ
       3161  C58 004162D0 ?autoExpandDelay@QTreeView@@QBEHXZ
       3162  C59 00048860 ?autoFillBackground@QWidget@@QBE_NXZ
       3163  C5A 00303BB0 ?autoFormatting@QTextEdit@@QBE?AV?$QFlags@W4AutoFormattingFlag@QTextEdit@@@@XZ
       3164  C5B 003427C0 ?autoGeometry@QMenuBar@@QBE_NXZ
       3165  C5C 0030FDA0 ?autoRaise@QToolButton@@QBE_NXZ
       3166  C5D 00275FD0 ?autoRepeat@QAbstractButton@@QBE_NXZ
       3167  C5E 000040C0 ?autoRepeat@QAction@@QBE_NXZ
       3168  C5F 00038970 ?autoRepeat@QShortcut@@QBE_NXZ
       3169  C60 00275FF0 ?autoRepeatDelay@QAbstractButton@@QBEHXZ
       3170  C61 002DC4D0 ?autoRepeatInterval@QAbstractButton@@QBEHXZ
       3171  C62 00356B80 ?autoReset@QProgressDialog@@QBE_NXZ
       3172  C63 0037AAB0 ?autoScrollMargin@QAbstractItemView@@QBEHXZ
       3173  C64 0003B370 ?available@QSound@@SA_NXZ
       3174  C65 00293560 ?availableGeometry@QDesktopWidget@@QBE?BVQRect@@ABVQPoint@@@Z
       3175  C66 000639F0 ?availableGeometry@QDesktopWidget@@QBE?BVQRect@@H@Z
       3176  C67 002EFBF0 ?availableGeometry@QDesktopWidget@@QBE?BVQRect@@PBVQWidget@@@Z
       3177  C68 001414E0 ?availablePrinters@QPrinterInfo@@SA?AV?$QList@VQPrinterInfo@@@@XZ
       3178  C69 00161970 ?averageCharWidth@QFontEngine@@UBE?AUQFixed@@XZ
       3179  C6A 00164720 ?averageCharWidth@QFontEngineMulti@@UBE?AUQFixed@@XZ
       3180  C6B 0016AC60 ?averageCharWidth@QFontMetrics@@QBEHXZ
       3181  C6C 0016B440 ?averageCharWidth@QFontMetricsF@@QBENXZ
       3182  C6D 001FA1E0 ?back@?$QList@VQItemSelectionRange@@@@QAEAAVQItemSelectionRange@@XZ
       3183  C6E 001F7770 ?back@?$QList@VQItemSelectionRange@@@@QBEABVQItemSelectionRange@@XZ
       3184  C6F 0036EAE0 ?back@QWizard@@QAEXXZ
       3185  C70 004494D0 ?background@QColorGroup@@QBEABVQColor@@XZ
       3186  C71 00335410 ?background@QListWidgetItem@@QBE?AVQBrush@@XZ
       3187  C72 002CA420 ?background@QMdiArea@@QBE?AVQBrush@@XZ
       3188  C73 000CE920 ?background@QPainter@@QBEABVQBrush@@XZ
       3189  C74 00046D20 ?background@QPalette@@QBEABVQBrush@@XZ
       3190  C75 002890F0 ?background@QStandardItem@@QBE?AVQBrush@@XZ
       3191  C76 003C5C00 ?background@QTableWidgetItem@@QBE?AVQBrush@@XZ
       3192  C77 0003D730 ?background@QTextFormat@@QBE?AVQBrush@@XZ
       3193  C78 003CE970 ?background@QTreeWidgetItem@@QBE?AVQBrush@@H@Z
       3194  C79 00319900 ?background@QWorkspace@@QBE?AVQBrush@@XZ
       3195  C7A 004048A0 ?backgroundBrush@QGraphicsScene@@QBE?AVQBrush@@XZ
       3196  C7B 00416430 ?backgroundBrush@QGraphicsView@@QBE?AVQBrush@@XZ
       3197  C7C 000CD730 ?backgroundBrush@QPaintEngineState@@QBE?AVQBrush@@XZ
       3198  C7D 00449D30 ?backgroundBrush@QWidget@@QBEABVQBrush@@XZ
       3199  C7E 000115C0 ?backgroundColor@QAccessibleInterface@@QAE?AVQColor@@XZ
       3200  C7F 0008CA90 ?backgroundColor@QImageReader@@QBE?AVQColor@@XZ
       3201  C80 003353A0 ?backgroundColor@QListWidgetItem@@QBE?AVQColor@@XZ
       3202  C81 0009AC40 ?backgroundColor@QMovie@@QBE?AVQColor@@XZ
       3203  C82 0044B720 ?backgroundColor@QPainter@@QBEABVQColor@@XZ
       3204  C83 003C5B90 ?backgroundColor@QTableWidgetItem@@QBE?AVQColor@@XZ
       3205  C84 003CE8F0 ?backgroundColor@QTreeWidgetItem@@QBE?AVQColor@@H@Z
       3206  C85 00449E90 ?backgroundColor@QWidget@@QBEABVQColor@@XZ
       3207  C86 000CD750 ?backgroundMode@QPaintEngineState@@QBE?AW4BGMode@Qt@@XZ
       3208  C87 000CF150 ?backgroundMode@QPainter@@QBE?AW4BGMode@Qt@@XZ
       3209  C88 0004A1F0 ?backgroundMode@QWidget@@QBE?AW4BackgroundMode@Qt@@XZ
       3210  C89 000CBA10 ?backgroundOffset@QWidget@@QBE?AVQPoint@@XZ
       3211  C8A 00001D20 ?backgroundOrigin@QWidget@@QBE?AW4BackgroundOrigin@1@XZ
       3212  C8B 002CA4A0 ?backgroundPixmap@QWidget@@QBEPBVQPixmap@@XZ
       3213  C8C 00048C70 ?backgroundRole@QWidget@@QBE?AW4ColorRole@QPalette@@XZ
       3214  C8D 00329F20 ?backgroundVisible@QPlainTextEdit@@QBE_NXZ
       3215  C8E 002C0420 ?backspace@QLineEdit@@QAEXXZ
       3216  C8F 00307F10 ?backward@QTextBrowser@@UAEXXZ
       3217  C90 003061F0 ?backwardAvailable@QTextBrowser@@IAEX_N@Z
       3218  C91 003069C0 ?backwardHistoryCount@QTextBrowser@@QBEHXZ
       3219  C92 004494C0 ?base@QColorGroup@@QBEABVQColor@@XZ
       3220  C93 0005AD70 ?base@QPalette@@QBEABVQBrush@@XZ
       3221  C94 00047250 ?baseSize@QWidget@@QBE?AVQSize@@XZ
       3222  C95 001CE110 ?basicSelectorMatches@StyleSelector@QCss@@AAE_NABUBasicSelector@2@TNodePtr@12@@Z
       3223  C96 0038F750 ?batchSize@QListView@@QBEHXZ
       3224  C97 0005A190 ?beep@QApplication@@SAXXZ
       3225  C98 002DC7C0 ?before@QActionEvent@@QBEPAVQAction@@XZ
       3226  C99 0009E100 ?beforeAnimationStep@QGraphicsItemAnimation@@MAEXN@Z
       3227  C9A 001FA150 ?begin@?$QList@VQItemSelectionRange@@@@QAE?AViterator@1@XZ
       3228  C9B 001F6890 ?begin@?$QList@VQItemSelectionRange@@@@QBE?AVconst_iterator@1@XZ
       3229  C9C 000468F0 ?begin@QDashStroker@@UAEXPAX@Z
       3230  C9D 000D49F0 ?begin@QPainter@@QAE_NPAVQPaintDevice@@@Z
       3231  C9E 0044B970 ?begin@QPainter@@QAE_NPAVQPaintDevice@@PBVQWidget@@@Z
       3232  C9F 000F6450 ?begin@QStrokerOps@@UAEXPAX@Z
       3233  CA0 001942A0 ?begin@QTextBlock@@QBE?AViterator@1@XZ
       3234  CA1 0019A270 ?begin@QTextDocument@@QBE?AVQTextBlock@@XZ
       3235  CA2 00193C90 ?begin@QTextFrame@@QBE?AViterator@1@XZ
       3236  CA3 001C2B00 ?begin@QTextTableCell@@QBE?AViterator@QTextFrame@@XZ
       3237  CA4 001BBA40 ?beginEditBlock@QTextCursor@@QAEXXZ
       3238  CA5 00189390 ?beginLayout@QTextLayout@@QAEXXZ
       3239  CA6 0043C1C0 ?beginMacro@QUndoStack@@QAEXABVQString@@@Z
       3240  CA7 0030DEA0 ?beginPaint@QWindowSurface@@UAEXABVQRegion@@@Z
       3241  CA8 0004FCC0 ?beginSharedPainter@QWidgetPrivate@@QAEPAVQPainter@@XZ
       3242  CA9 000BAFF0 ?bezierOnInterval@QBezier@@QBE?AV1@NN@Z
       3243  CAA 00182EE0 ?bidiReorder@QTextEngine@@SAXHPBEPAH@Z
       3244  CAB 0007F4A0 ?bitBlt@@YAXPAVQImage@@HHPBV1@HHHHV?$QFlags@W4ImageConversionFlag@Qt@@@@@Z
       3245  CAC 000DA620 ?bitBlt@@YAXPAVQPaintDevice@@ABVQPoint@@PBV1@ABVQRect@@_N@Z
       3246  CAD 000DA5D0 ?bitBlt@@YAXPAVQPaintDevice@@HHPBV1@HHHH_N@Z
       3247  CAE 000DA640 ?bitBlt@@YAXPAVQPaintDevice@@HHPBVQImage@@HHHHH@Z
       3248  CAF 00448DC0 ?bitOrder@QImage@@QBE?AW4Endian@1@XZ
       3249  CB0 0001FAF0 ?bitmap@QCursor@@QBEPBVQBitmap@@XZ
       3250  CB1 00086120 ?bits@QImage@@QAEPAEXZ
       3251  CB2 00079750 ?bits@QImage@@QBEPBEXZ
       3252  CB3 000C4C40 ?black@QColor@@QBEHXZ
       3253  CB4 000C4D30 ?blackF@QColor@@QBENXZ
       3254  CB5 001B7550 ?block@QTextCursor@@QBE?AVQTextBlock@@XZ
       3255  CB6 00329FA0 ?blockBoundingGeometry@QPlainTextEdit@@IBE?AVQRectF@@ABVQTextBlock@@@Z
       3256  CB7 0032B5B0 ?blockBoundingRect@QPlainTextDocumentLayout@@UBE?AVQRectF@@ABVQTextBlock@@@Z
       3257  CB8 0032C930 ?blockBoundingRect@QPlainTextEdit@@IBE?AVQRectF@@ABVQTextBlock@@@Z
       3258  CB9 001795F0 ?blockBoundingRect@QTextControl@@UBE?AVQRectF@@ABVQTextBlock@@@Z
       3259  CBA 001B7600 ?blockCharFormat@QTextCursor@@QBE?AVQTextCharFormat@@XZ
       3260  CBB 00329FD0 ?blockCount@QPlainTextEdit@@QBEHXZ
       3261  CBC 00198F40 ?blockCount@QTextDocument@@QBEHXZ
       3262  CBD 0032A190 ?blockCountChanged@QPlainTextEdit@@IAEXH@Z
       3263  CBE 00179A60 ?blockCountChanged@QTextControl@@IAEXH@Z
       3264  CBF 00440210 ?blockCountChanged@QTextDocument@@IAEXH@Z
       3265  CC0 00193F50 ?blockFormat@QTextBlock@@QBE?AVQTextBlockFormat@@XZ
       3266  CC1 001B75A0 ?blockFormat@QTextCursor@@QBE?AVQTextBlockFormat@@XZ
       3267  CC2 0008E910 ?blockFormat@QTextFormatCollection@@QBE?AVQTextBlockFormat@@H@Z
       3268  CC3 0030DEA0 ?blockFormatChanged@QTextBlockGroup@@MAEXABVQTextBlock@@@Z
       3269  CC4 00194000 ?blockFormatIndex@QTextBlock@@QBEHXZ
       3270  CC5 001957E0 ?blockInserted@QTextBlockGroup@@MAEXABVQTextBlock@@@Z
       3271  CC6 00195530 ?blockList@QTextBlockGroup@@IBE?AV?$QList@VQTextBlock@@@@XZ
       3272  CC7 00194280 ?blockNumber@QTextBlock@@QBEHXZ
       3273  CC8 001B78B0 ?blockNumber@QTextCursor@@QBEHXZ
       3274  CC9 001954E0 ?blockRemoved@QTextBlockGroup@@MAEXABVQTextBlock@@@Z
       3275  CCA 0032A5B0 ?blockWidth@QPlainTextDocumentLayout@@AAENABVQTextBlock@@@Z
       3276  CCB 000C46F0 ?blue@QColor@@QBEHXZ
       3277  CCC 000C4870 ?blueF@QColor@@QBENXZ
       3278  CCD 004495F0 ?bold@QFont@@QBE_NXZ
       3279  CCE 00175010 ?bold@QFontDatabase@@QBE_NABVQString@@0@Z
       3280  CCF 004497E0 ?bold@QFontInfo@@QBE_NXZ
       3281  CD0 00177120 ?bold@QTextEdit@@QBE_NXZ
       3282  CD1 0018F3B0 ?boolProperty@QTextFormat@@QBE_NH@Z
       3283  CD2 0003EBF0 ?border@QTextFrameFormat@@QBENXZ
       3284  CD3 0003EC80 ?borderBrush@QTextFrameFormat@@QBE?AVQBrush@@XZ
       3285  CD4 001CBF50 ?borderImageValue@Declaration@QCss@@QBEXPAVQString@@PAHPAW4TileMode@2@2@Z
       3286  CD5 0003ED20 ?borderStyle@QTextFrameFormat@@QBE?AW4BorderStyle@1@XZ
       3287  CD6 001D0AE0 ?borderValue@ValueExtractor@QCss@@AAEXABUDeclaration@2@PAHPAW4BorderStyle@2@PAVQBrush@@@Z
       3288  CD7 000FE6E0 ?bottom@QDoubleValidator@@QBENXZ
       3289  CD8 0008E870 ?bottom@QIntValidator@@QBEHXZ
       3290  CD9 001F35E0 ?bottom@QItemSelectionRange@@QBEHXZ
       3291  CDA 0003E570 ?bottomMargin@QTextBlockFormat@@QBENXZ
       3292  CDB 00190100 ?bottomMargin@QTextFrameFormat@@QBENXZ
       3293  CDC 0003F690 ?bottomPadding@QTextTableCellFormat@@QBENXZ
       3294  CDD 001F3670 ?bottomRight@QItemSelectionRange@@QBE?AVQModelIndex@@XZ
       3295  CDE 0008E870 ?bottomRow@QTableWidgetSelectionRange@@QBEHXZ
       3296  CDF 00164670 ?boundingBox@QFontEngineMulti@@UAE?AUglyph_metrics_t@@I@Z
       3297  CE0 00163CE0 ?boundingBox@QFontEngineMulti@@UAE?AUglyph_metrics_t@@PBUQGlyphLayout@@H@Z
       3298  CE1 00187D10 ?boundingBox@QTextEngine@@QBE?AUglyph_metrics_t@@HH@Z
       3299  CE2 0016AEF0 ?boundingRect@QFontMetrics@@QBE?AVQRect@@ABV2@HABVQString@@HPAH@Z
       3300  CE3 0016ADD0 ?boundingRect@QFontMetrics@@QBE?AVQRect@@ABVQString@@@Z
       3301  CE4 00449620 ?boundingRect@QFontMetrics@@QBE?AVQRect@@ABVQString@@H@Z
       3302  CE5 004496A0 ?boundingRect@QFontMetrics@@QBE?AVQRect@@HHHHHABVQString@@HHPAH@Z
       3303  CE6 00044540 ?boundingRect@QFontMetrics@@QBE?AVQRect@@HHHHHABVQString@@HPAH@Z
       3304  CE7 0016C490 ?boundingRect@QFontMetrics@@QBE?AVQRect@@VQChar@@@Z
       3305  CE8 0016B650 ?boundingRect@QFontMetricsF@@QBE?AVQRectF@@ABV2@HABVQString@@HPAH@Z
       3306  CE9 0016B530 ?boundingRect@QFontMetricsF@@QBE?AVQRectF@@ABVQString@@@Z
       3307  CEA 0016D060 ?boundingRect@QFontMetricsF@@QBE?AVQRectF@@VQChar@@@Z
       3308  CEB 003F4B90 ?boundingRect@QGraphicsEllipseItem@@UBE?AVQRectF@@XZ
       3309  CEC 003F4FB0 ?boundingRect@QGraphicsItemGroup@@UBE?AVQRectF@@XZ
       3310  CED 003F6820 ?boundingRect@QGraphicsLineItem@@UBE?AVQRectF@@XZ
       3311  CEE 003F48A0 ?boundingRect@QGraphicsPathItem@@UBE?AVQRectF@@XZ
       3312  CEF 003F5360 ?boundingRect@QGraphicsPixmapItem@@UBE?AVQRectF@@XZ
       3313  CF0 003F4E20 ?boundingRect@QGraphicsPolygonItem@@UBE?AVQRectF@@XZ
       3314  CF1 003F49D0 ?boundingRect@QGraphicsRectItem@@UBE?AVQRectF@@XZ
       3315  CF2 003F5C40 ?boundingRect@QGraphicsSimpleTextItem@@UBE?AVQRectF@@XZ
       3316  CF3 003F5600 ?boundingRect@QGraphicsTextItem@@UBE?AVQRectF@@XZ
       3317  CF4 00423380 ?boundingRect@QGraphicsWidget@@UBE?AVQRectF@@XZ
       3318  CF5 000D5290 ?boundingRect@QPainter@@QAE?AVQRect@@ABV2@HABVQString@@@Z
       3319  CF6 0044B850 ?boundingRect@QPainter@@QAE?AVQRect@@ABV2@HABVQString@@H@Z
       3320  CF7 0044C090 ?boundingRect@QPainter@@QAE?AVQRect@@HHHHHABVQString@@@Z
       3321  CF8 0044B8D0 ?boundingRect@QPainter@@QAE?AVQRect@@HHHHHABVQString@@H@Z
       3322  CF9 000D53D0 ?boundingRect@QPainter@@QAE?AVQRectF@@ABV2@ABVQString@@ABVQTextOption@@@Z
       3323  CFA 000D5330 ?boundingRect@QPainter@@QAE?AVQRectF@@ABV2@HABVQString@@@Z
       3324  CFB 000DC050 ?boundingRect@QPainterPath@@QBE?AVQRectF@@XZ
       3325  CFC 00092600 ?boundingRect@QPicture@@QBE?AVQRect@@XZ
       3326  CFD 000E9AC0 ?boundingRect@QPolygon@@QBE?AVQRect@@XZ
       3327  CFE 000E9F60 ?boundingRect@QPolygonF@@QBE?AVQRectF@@XZ
       3328  CFF 001427E0 ?boundingRect@QRegion@@QBE?AVQRect@@XZ
       3329  D00 0018A3F0 ?boundingRect@QTextLayout@@QBE?AVQRectF@@XZ
       3330  D01 003FD720 ?boundingRegion@QGraphicsItem@@QBE?AVQRegion@@ABVQTransform@@@Z
       3331  D02 003F7AA0 ?boundingRegionGranularity@QGraphicsItem@@QBENXZ
       3332  D03 000BAA00 ?bounds@QBezier@@QBE?AVQRectF@@XZ
       3333  D04 004494F0 ?brightText@QColorGroup@@QBEABVQColor@@XZ
       3334  D05 0005AD90 ?brightText@QPalette@@QBEABVQBrush@@XZ
       3335  D06 003F4800 ?brush@QAbstractGraphicsShapeItem@@QBE?AVQBrush@@XZ
       3336  D07 000CD6F0 ?brush@QPaintEngineState@@QBE?AVQBrush@@XZ
       3337  D08 000CF5B0 ?brush@QPainter@@QBEABVQBrush@@XZ
       3338  D09 00035D60 ?brush@QPalette@@QBEABVQBrush@@W4ColorGroup@1@W4ColorRole@1@@Z
       3339  D0A 00035F70 ?brush@QPalette@@QBEABVQBrush@@W4ColorRole@1@@Z
       3340  D0B 000E80D0 ?brush@QPen@@QBE?AVQBrush@@XZ
       3341  D0C 000CD800 ?brushNeedsResolving@QPaintEngineState@@QBE_NXZ
       3342  D0D 000CD710 ?brushOrigin@QPaintEngineState@@QBE?AVQPointF@@XZ
       3343  D0E 000CE820 ?brushOrigin@QPainter@@QBE?AVQPoint@@XZ
       3344  D0F 001909E0 ?brushProperty@QTextFormat@@QBE?AVQBrush@@H@Z
       3345  D10 001D1200 ?brushValue@Declaration@QCss@@QBE?AVQBrush@@ABVQPalette@@@Z
       3346  D11 001D1260 ?brushValues@Declaration@QCss@@QBEXPAVQBrush@@ABVQPalette@@@Z
       3347  D12 00193840 ?bspTreeDepth@QGraphicsScene@@QBEHXZ
       3348  D13 002D2800 ?buddy@QLabel@@QBEPAVQWidget@@XZ
       3349  D14 003D9C90 ?buddy@QSortFilterProxyModel@@UBE?AVQModelIndex@@ABV2@@Z
       3350  D15 002CA4A0 ?buffer@QPixmapData@@UAEPAVQImage@@XZ
       3351  D16 0015B2D0 ?buffer@QWindowSurface@@UAEPAVQImage@@PBVQWidget@@@Z
       3352  D17 002771C0 ?button@QButtonGroup@@QBEPAVQAbstractButton@@H@Z
       3353  D18 00449470 ?button@QColorGroup@@QBEABVQColor@@XZ
       3354  D19 0029A710 ?button@QDialogButtonBox@@QBEPAVQPushButton@@W4StandardButton@1@@Z
       3355  D1A 00414FD0 ?button@QGraphicsSceneMouseEvent@@QBE?AW4MouseButton@Qt@@XZ
       3356  D1B 00352AB0 ?button@QMessageBox@@QBEPAVQAbstractButton@@W4StandardButton@1@@Z
       3357  D1C 00020DF0 ?button@QMouseEvent@@QBE?AW4MouseButton@Qt@@XZ
       3358  D1D 0005AD20 ?button@QPalette@@QBEABVQBrush@@XZ
       3359  D1E 0036A530 ?button@QWizard@@QBEPAVQAbstractButton@@W4WizardButton@1@@Z
       3360  D1F 004417E0 ?buttonClicked@QButtonGroup@@IAEXH@Z
       3361  D20 004417B0 ?buttonClicked@QButtonGroup@@IAEXPAVQAbstractButton@@@Z
       3362  D21 00415C40 ?buttonDownPos@QGraphicsSceneMouseEvent@@QBE?AVQPointF@@W4MouseButton@Qt@@@Z
       3363  D22 00415C90 ?buttonDownScenePos@QGraphicsSceneMouseEvent@@QBE?AVQPointF@@W4MouseButton@Qt@@@Z
       3364  D23 00415CE0 ?buttonDownScreenPos@QGraphicsSceneMouseEvent@@QBE?AVQPoint@@W4MouseButton@Qt@@@Z
       3365  D24 00441840 ?buttonPressed@QButtonGroup@@IAEXH@Z
       3366  D25 00441810 ?buttonPressed@QButtonGroup@@IAEXPAVQAbstractButton@@@Z
       3367  D26 004418A0 ?buttonReleased@QButtonGroup@@IAEXH@Z
       3368  D27 00441870 ?buttonReleased@QButtonGroup@@IAEXPAVQAbstractButton@@@Z
       3369  D28 0029A100 ?buttonRole@QDialogButtonBox@@QBE?AW4ButtonRole@1@PAVQAbstractButton@@@Z
       3370  D29 002CA490 ?buttonSymbols@QAbstractSpinBox@@QBE?AW4ButtonSymbols@1@XZ
       3371  D2A 00449500 ?buttonText@QColorGroup@@QBEABVQColor@@XZ
       3372  D2B 00355060 ?buttonText@QMessageBox@@QBE?AVQString@@H@Z
       3373  D2C 001DCA40 ?buttonText@QPalette@@QBEABVQBrush@@XZ
       3374  D2D 0036B490 ?buttonText@QWizard@@QBE?AVQString@@W4WizardButton@1@@Z
       3375  D2E 0036BC80 ?buttonText@QWizardPage@@QBE?AVQString@@W4WizardButton@QWizard@@@Z
       3376  D2F 00277180 ?buttons@QButtonGroup@@QBE?AV?$QList@PAVQAbstractButton@@@@XZ
       3377  D30 0029AA50 ?buttons@QDialogButtonBox@@QBE?AV?$QList@PAVQAbstractButton@@@@XZ
       3378  D31 00415930 ?buttons@QGraphicsSceneDragDropEvent@@QBE?AV?$QFlags@W4MouseButton@Qt@@@@XZ
       3379  D32 004154A0 ?buttons@QGraphicsSceneMouseEvent@@QBE?AV?$QFlags@W4MouseButton@Qt@@@@XZ
       3380  D33 00415930 ?buttons@QGraphicsSceneWheelEvent@@QBE?AV?$QFlags@W4MouseButton@Qt@@@@XZ
       3381  D34 0000FA70 ?buttons@QMouseEvent@@QBE?AV?$QFlags@W4MouseButton@Qt@@@@XZ
       3382  D35 0000FA70 ?buttons@QWheelEvent@@QBE?AV?$QFlags@W4MouseButton@Qt@@@@XZ
       3383  D36 000796F0 ?bytesPerLine@QImage@@QBEHXZ
       3384  D37 00189380 ?cacheEnabled@QTextLayout@@QBE_NXZ
       3385  D38 00076910 ?cacheKey@QIcon@@QBE_JXZ
       3386  D39 00079CE0 ?cacheKey@QImage@@QBE_JXZ
       3387  D3A 00035E00 ?cacheKey@QPalette@@QBE_JXZ
       3388  D3B 00096580 ?cacheKey@QPixmap@@QBE_JXZ
       3389  D3C 00098EC0 ?cacheLimit@QPixmapCache@@SAHXZ
       3390  D3D 003F40C0 ?cacheMode@QGraphicsItem@@QBE?AW4CacheMode@1@XZ
       3391  D3E 004167C0 ?cacheMode@QGraphicsView@@QBE?AV?$QFlags@W4CacheModeFlag@QGraphicsView@@@@XZ
       3392  D3F 0009AD70 ?cacheMode@QMovie@@QAE?AW4CacheMode@1@XZ
       3393  D40 0009AD70 ?cacheMode@QMovie@@QBE?AW4CacheMode@1@XZ
       3394  D41 00276040 ?cacheStatistics@QFont@@SAXXZ
       3395  D42 00186F80 ?calculateTabWidth@QTextEngine@@QBE?AUQFixed@@HU2@@Z
       3396  D43 002929F0 ?calendarPopup@QDateTimeEdit@@QBE_NXZ
       3397  D44 00297B50 ?calendarWidget@QDateTimeEdit@@QBEPAVQCalendarWidget@@XZ
       3398  D45 00381780 ?canDecode@QAbstractItemViewPrivate@@QBE_NPAVQDropEvent@@@Z
       3399  D46 0035B950 ?canFetchMore@QFileSystemModel@@UBE_NABVQModelIndex@@@Z
       3400  D47 003D9B30 ?canFetchMore@QSortFilterProxyModel@@UBE_NABVQModelIndex@@@Z
       3401  D48 00329EA0 ?canInsertFromMimeData@QPlainTextEdit@@MBE_NPBVQMimeData@@@Z
       3402  D49 00178FE0 ?canInsertFromMimeData@QTextControl@@UBE_NPBVQMimeData@@@Z
       3403  D4A 00329EA0 ?canInsertFromMimeData@QTextEdit@@MBE_NPBVQMimeData@@@Z
       3404  D4B 00329EE0 ?canPaste@QPlainTextEdit@@QBE_NXZ
       3405  D4C 0017BE60 ?canPaste@QTextControl@@QBE_NXZ
       3406  D4D 00329EE0 ?canPaste@QTextEdit@@QBE_NXZ
       3407  D4E 0008CC00 ?canRead@QImageReader@@QBE_NXZ
       3408  D4F 0043A3D0 ?canRedo@QUndoGroup@@QBE_NXZ
       3409  D50 0043AF60 ?canRedo@QUndoStack@@QBE_NXZ
       3410  D51 00447BA0 ?canRedoChanged@QUndoGroup@@IAEX_N@Z
       3411  D52 00447E90 ?canRedoChanged@QUndoStack@@IAEX_N@Z
       3412  D53 001647B0 ?canRender@QFontEngineMulti@@UAE_NPBVQChar@@H@Z
       3413  D54 0043A3B0 ?canUndo@QUndoGroup@@QBE_NXZ
       3414  D55 0043AF40 ?canUndo@QUndoStack@@QBE_NXZ
       3415  D56 00447B70 ?canUndoChanged@QUndoGroup@@IAEX_N@Z
       3416  D57 00447E60 ?canUndoChanged@QUndoStack@@IAEX_N@Z
       3417  D58 0008E150 ?canWrite@QImageWriter@@QBE_NXZ
       3418  D59 00064D70 ?cancel@QDragManager@@QAEX_N@Z
       3419  D5A 00357100 ?cancel@QProgressDialog@@QAEXXZ
       3420  D5B 0005AD00 ?cancel@QSessionManager@@QAEXXZ
       3421  D5C 00445ED0 ?canceled@QProgressDialog@@IAEXXZ
       3422  D5D 000F5FE0 ?capForJoinMode@QStroker@@KA?AW4PenCapStyle@Qt@@W4LineJoinMode@1@@Z
       3423  D5E 000DBAB0 ?capStyle@QPainterPathStroker@@QBE?AW4PenCapStyle@Qt@@XZ
       3424  D5F 0015C680 ?capStyle@QPen@@QBE?AW4PenCapStyle@Qt@@XZ
       3425  D60 00046580 ?capStyle@QStroker@@QBE?AW4PenCapStyle@Qt@@XZ
       3426  D61 00046590 ?capStyleMode@QStroker@@QBE?AW4LineJoinMode@1@XZ
       3427  D62 0015C760 ?capitalization@QFont@@QBE?AW4Capitalization@1@XZ
       3428  D63 00449BE0 ?caption@QWidget@@QBE?AVQString@@XZ
       3429  D64 0031F9C0 ?cascade@QWorkspace@@QAEXXZ
       3430  D65 002D0FA0 ?cascadeSubWindows@QMdiArea@@QAEXXZ
       3431  D66 00385B50 ?cascadingSectionResizes@QHeaderView@@QBE_NXZ
       3432  D67 004318E0 ?caseSensitivity@QCompleter@@QBE?AW4CaseSensitivity@Qt@@XZ
       3433  D68 00372860 ?cast_helper@QAccessibleInterface@@AAEPAVQAccessible2Interface@@W4InterfaceType@QAccessible2@@@Z
       3434  D69 003C5170 ?cellActivated@QTableWidget@@IAEXHH@Z
       3435  D6A 001C37C0 ?cellAt@QTextTable@@QBE?AVQTextTableCell@@ABVQTextCursor@@@Z
       3436  D6B 001C36F0 ?cellAt@QTextTable@@QBE?AVQTextTableCell@@H@Z
       3437  D6C 001C3690 ?cellAt@QTextTable@@QBE?AVQTextTableCell@@HH@Z
       3438  D6D 003C51F0 ?cellChanged@QTableWidget@@IAEXHH@Z
       3439  D6E 003C50F0 ?cellClicked@QTableWidget@@IAEXHH@Z
       3440  D6F 003C5130 ?cellDoubleClicked@QTableWidget@@IAEXHH@Z
       3441  D70 003C51B0 ?cellEntered@QTableWidget@@IAEXHH@Z
       3442  D71 0044B5F0 ?cellGeometry@QGridLayout@@QBE?AVQRect@@HH@Z
       3443  D72 0003F3C0 ?cellPadding@QTextTableFormat@@QBENXZ
       3444  D73 003C50B0 ?cellPressed@QTableWidget@@IAEXHH@Z
       3445  D74 0002A2B0 ?cellRect@QGridLayout@@QBE?AVQRect@@HH@Z
       3446  D75 0003F330 ?cellSpacing@QTextTableFormat@@QBENXZ
       3447  D76 003C4D40 ?cellWidget@QTableWidget@@QBEPAVQWidget@@HH@Z
       3448  D77 000BA220 ?center@QConicalGradient@@QBE?AVQPointF@@XZ
       3449  D78 000BA220 ?center@QRadialGradient@@QBE?AVQPointF@@XZ
       3450  D79 00299F60 ?centerButtons@QDialogButtonBox@@QBE_NXZ
       3451  D7A 0032DB60 ?centerCursor@QPlainTextEdit@@QAEXXZ
       3452  D7B 00416920 ?centerOn@QGraphicsView@@QAEXABVQPointF@@@Z
       3453  D7C 0026D450 ?centerOn@QGraphicsView@@QAEXNN@Z
       3454  D7D 00416AB0 ?centerOn@QGraphicsView@@QAEXPBVQGraphicsItem@@@Z
       3455  D7E 00329F30 ?centerOnScroll@QPlainTextEdit@@QBE_NXZ
       3456  D7F 002C24D0 ?centralWidget@QMainWindow@@QBEPAVQWidget@@XZ
       3457  D80 00276650 ?changeEvent@QAbstractButton@@MAEXPAVQEvent@@@Z
       3458  D81 00278F80 ?changeEvent@QAbstractSlider@@MAEXPAVQEvent@@@Z
       3459  D82 0027C2F0 ?changeEvent@QAbstractSpinBox@@MAEXPAVQEvent@@@Z
       3460  D83 0033A890 ?changeEvent@QColorDialog@@MAEXPAVQEvent@@@Z
       3461  D84 0028C8D0 ?changeEvent@QComboBox@@MAEXPAVQEvent@@@Z
       3462  D85 0029BF50 ?changeEvent@QDialogButtonBox@@MAEXPAVQEvent@@@Z
       3463  D86 0029DE30 ?changeEvent@QDockWidget@@MAEXPAVQEvent@@@Z
       3464  D87 00341080 ?changeEvent@QErrorMessage@@MAEXPAVQEvent@@@Z
       3465  D88 0034CE10 ?changeEvent@QFileDialog@@MAEXPAVQEvent@@@Z
       3466  D89 0034EB80 ?changeEvent@QFontDialog@@MAEXPAVQEvent@@@Z
       3467  D8A 002AF910 ?changeEvent@QFrame@@MAEXPAVQEvent@@@Z
       3468  D8B 00424B60 ?changeEvent@QGraphicsWidget@@MAEXPAVQEvent@@@Z
       3469  D8C 002B0BB0 ?changeEvent@QGroupBox@@MAEXPAVQEvent@@@Z
       3470  D8D 002B20C0 ?changeEvent@QLabel@@MAEXPAVQEvent@@@Z
       3471  D8E 002BD840 ?changeEvent@QLineEdit@@MAEXPAVQEvent@@@Z
       3472  D8F 002DB360 ?changeEvent@QMdiSubWindow@@MAEXPAVQEvent@@@Z
       3473  D90 002DCCA0 ?changeEvent@QMenu@@MAEXPAVQEvent@@@Z
       3474  D91 002EA320 ?changeEvent@QMenuBar@@MAEXPAVQEvent@@@Z
       3475  D92 00354A90 ?changeEvent@QMessageBox@@MAEXPAVQEvent@@@Z
       3476  D93 0032D570 ?changeEvent@QPlainTextEdit@@MAEXPAVQEvent@@@Z
       3477  D94 00357C80 ?changeEvent@QProgressDialog@@MAEXPAVQEvent@@@Z
       3478  D95 002EDF60 ?changeEvent@QRubberBand@@MAEXPAVQEvent@@@Z
       3479  D96 002F9490 ?changeEvent@QSplitter@@MAEXPAVQEvent@@@Z
       3480  D97 002FDB90 ?changeEvent@QTabBar@@MAEXPAVQEvent@@@Z
       3481  D98 003007D0 ?changeEvent@QTabWidget@@MAEXPAVQEvent@@@Z
       3482  D99 00304390 ?changeEvent@QTextEdit@@MAEXPAVQEvent@@@Z
       3483  D9A 0030A470 ?changeEvent@QToolBar@@MAEXPAVQEvent@@@Z
       3484  D9B 0030E7B0 ?changeEvent@QToolBox@@MAEXPAVQEvent@@@Z
       3485  D9C 00310980 ?changeEvent@QToolButton@@MAEXPAVQEvent@@@Z
       3486  D9D 0004C5A0 ?changeEvent@QWidget@@MAEXPAVQEvent@@@Z
       3487  D9E 0031DDF0 ?changeEvent@QWorkspace@@MAEXPAVQEvent@@@Z
       3488  D9F 001F2F10 ?changeItem@QComboBox@@QAEXABVQPixmap@@ABVQString@@H@Z
       3489  DA0 001F2EA0 ?changeItem@QComboBox@@QAEXABVQPixmap@@H@Z
       3490  DA1 001F2E80 ?changeItem@QComboBox@@QAEXABVQString@@H@Z
       3491  DA2 00007BF0 ?changeItem@QMenu@@QAEXHABVQIcon@@ABVQString@@@Z
       3492  DA3 00007B70 ?changeItem@QMenu@@QAEXHABVQPixmap@@@Z
       3493  DA4 00007B30 ?changeItem@QMenu@@QAEXHABVQString@@@Z
       3494  DA5 00008410 ?changeItem@QMenuBar@@QAEXHABVQIcon@@ABVQString@@@Z
       3495  DA6 00008390 ?changeItem@QMenuBar@@QAEXHABVQPixmap@@@Z
       3496  DA7 00008350 ?changeItem@QMenuBar@@QAEXHABVQString@@@Z
       3497  DA8 000141A0 ?changeOverrideCursor@QApplication@@SAXABVQCursor@@@Z
       3498  DA9 00034B70 ?changeSize@QSpacerItem@@QAEXHHW4Policy@QSizePolicy@@0@Z
       3499  DAA 00002A90 ?changeTab@QTabWidget@@QAEXPAVQWidget@@ABVQIcon@@ABVQString@@@Z
       3500  DAB 00002A70 ?changeTab@QTabWidget@@QAEXPAVQWidget@@ABVQString@@@Z
       3501  DAC 00004540 ?changed@QAction@@IAEXXZ
       3502  DAD 0043EAB0 ?changed@QClipboard@@IAEXW4Mode@1@@Z
       3503  DAE 00404CF0 ?changed@QGraphicsScene@@IAEXABV?$QList@VQRectF@@@@@Z
       3504  DAF 00194030 ?charFormat@QTextBlock@@QBE?AVQTextCharFormat@@XZ
       3505  DB0 001B7B90 ?charFormat@QTextCursor@@QBE?AVQTextCharFormat@@XZ
       3506  DB1 0008E990 ?charFormat@QTextFormatCollection@@QBE?AVQTextCharFormat@@H@Z
       3507  DB2 00194660 ?charFormat@QTextFragment@@QBE?AVQTextCharFormat@@XZ
       3508  DB3 00193B60 ?charFormatIndex@QTextBlock@@QBEHXZ
       3509  DB4 001946C0 ?charFormatIndex@QTextFragment@@QBEHXZ
       3510  DB5 0016C240 ?charWidth@QFontMetrics@@QBEHABVQString@@H@Z
       3511  DB6 002BBA50 ?characterAt@QLineEdit@@QBEHHPAVQChar@@@Z
       3512  DB7 003B00B0 ?check@QItemDelegate@@IBE?AVQRect@@ABVQStyleOptionViewItem@@ABV2@ABVQVariant@@@Z
       3513  DB8 00092230 ?checkFormat@QPicturePrivate@@QAE_NXZ
       3514  DB9 002B55C0 ?checkOverflow@QLCDNumber@@QBE_NH@Z
       3515  DBA 002B5600 ?checkOverflow@QLCDNumber@@QBE_NN@Z
       3516  DBB 00381570 ?checkPersistentEditorFocus@QAbstractItemViewPrivate@@QAEXXZ
       3517  DBC 00285C60 ?checkState@QCheckBox@@QBE?AW4CheckState@Qt@@XZ
       3518  DBD 00333620 ?checkState@QListWidgetItem@@QBE?AW4CheckState@Qt@@XZ
       3519  DBE 002891F0 ?checkState@QStandardItem@@QBE?AW4CheckState@Qt@@XZ
       3520  DBF 003C4570 ?checkState@QTableWidgetItem@@QBE?AW4CheckState@Qt@@XZ
       3521  DC0 003CD3E0 ?checkState@QTreeWidgetItem@@QBE?AW4CheckState@Qt@@H@Z
       3522  DC1 00276040 ?checkStateSet@QAbstractButton@@MAEXXZ
       3523  DC2 00285D10 ?checkStateSet@QCheckBox@@MAEXXZ
       3524  DC3 0030C610 ?checkUsePopupMenu@QToolBarLayout@@QAEXXZ
       3525  DC4 00193840 ?checkedAction@QActionGroup@@QBEPAVQAction@@XZ
       3526  DC5 00193840 ?checkedButton@QButtonGroup@@QBEPAVQAbstractButton@@XZ
       3527  DC6 002769A0 ?checkedId@QButtonGroup@@QBEHXZ
       3528  DC7 00177860 ?child@QAccessibleEvent@@QBEHXZ
       3529  DC8 003E1DE0 ?child@QStandardItem@@QBEPAV1@HH@Z
       3530  DC9 003CDEC0 ?child@QTreeWidgetItem@@QBEPAV1@H@Z
       3531  DCA 0043AEA0 ?child@QUndoCommand@@QBEPBV1@H@Z
       3532  DCB 00373D00 ?childAt@QAccessibleApplication@@UBEHHH@Z
       3533  DCC 003755F0 ?childAt@QAccessibleWidget@@UBEHHH@Z
       3534  DCD 00375F90 ?childAt@QAccessibleWidgetEx@@UBEHHH@Z
       3535  DCE 0004AF20 ?childAt@QWidget@@QBEPAV1@ABVQPoint@@@Z
       3536  DCF 0044C510 ?childAt@QWidget@@QBEPAV1@ABVQPoint@@_N@Z
       3537  DD0 00449C40 ?childAt@QWidget@@QBEPAV1@HH@Z
       3538  DD1 0044C490 ?childAt@QWidget@@QBEPAV1@HH_N@Z
       3539  DD2 00373B90 ?childCount@QAccessibleApplication@@UBEHXZ
       3540  DD3 00375860 ?childCount@QAccessibleWidget@@UBEHXZ
       3541  DD4 00375F70 ?childCount@QAccessibleWidgetEx@@UBEHXZ
       3542  DD5 003CDEF0 ?childCount@QTreeWidgetItem@@QBEHXZ
       3543  DD6 0043AE90 ?childCount@QUndoCommand@@QBEHXZ
       3544  DD7 002B0420 ?childEvent@QGroupBox@@MAEXPAVQChildEvent@@@Z
       3545  DD8 00031580 ?childEvent@QLayout@@MAEXPAVQChildEvent@@@Z
       3546  DD9 002D0A00 ?childEvent@QMdiArea@@MAEXPAVQChildEvent@@@Z
       3547  DDA 002DAE70 ?childEvent@QMdiSubWindow@@MAEXPAVQChildEvent@@@Z
       3548  DDB 002F9200 ?childEvent@QSplitter@@MAEXPAVQChildEvent@@@Z
       3549  DDC 00308F90 ?childEvent@QToolBar@@MAEXPAVQChildEvent@@@Z
       3550  DDD 0031DE60 ?childEvent@QWorkspace@@MAEXPAVQChildEvent@@@Z
       3551  DDE 00195620 ?childFrames@QTextFrame@@QBE?AV?$QList@PAVQTextFrame@@@@XZ
       3552  DDF 003CDB20 ?childIndicatorPolicy@QTreeWidgetItem@@QBE?AW4ChildIndicatorPolicy@1@XZ
       3553  DE0 003F8A40 ?childItems@QGraphicsItem@@QBE?AV?$QList@PAVQGraphicsItem@@@@XZ
       3554  DE1 003F99A0 ?children@QGraphicsItem@@QBE?AV?$QList@PAVQGraphicsItem@@@@XZ
       3555  DE2 003F9F00 ?childrenBoundingRect@QGraphicsItem@@QBE?AVQRectF@@XZ
       3556  DE3 003CE4F0 ?childrenCheckState@QTreeWidgetItem@@ABE?AVQVariant@@H@Z
       3557  DE4 002F5900 ?childrenCollapsible@QSplitter@@QBE_NXZ
       3558  DE5 0004A000 ?childrenRect@QWidget@@QBE?AVQRect@@XZ
       3559  DE6 0004A080 ?childrenRegion@QWidget@@QBE?AVQRegion@@XZ
       3560  DE7 002DC7C0 ?classId@QPixmapData@@QBE?AW4ClassId@1@XZ
       3561  DE8 00447B40 ?cleanChanged@QUndoGroup@@IAEX_N@Z
       3562  DE9 00447E30 ?cleanChanged@QUndoStack@@IAEX_N@Z
       3563  DEA 0043CB90 ?cleanIcon@QUndoView@@QBE?AVQIcon@@XZ
       3564  DEB 00038980 ?cleanIndex@QUndoStack@@QBEHXZ
       3565  DEC 002F2300 ?cleanText@QDoubleSpinBox@@QBE?AVQString@@XZ
       3566  DED 002F1F60 ?cleanText@QSpinBox@@QBE?AVQString@@XZ
       3567  DEE 000C0E20 ?cleanUp@QBrush@@AAEXPAUQBrushData@@@Z
       3568  DEF 00142110 ?cleanUp@QRegion@@CAXPAUQRegionData@1@@Z
       3569  DF0 0006DC50 ?cleanWidget_sys@QWidgetPrivate@@QAEXABVQRegion@@@Z
       3570  DF1 00276040 ?cleanup@QAccessible@@SAXXZ
       3571  DF2 00138180 ?cleanup@QColormap@@SAXXZ
       3572  DF3 001D3B10 ?cleanup@QFont@@SAXXZ
       3573  DF4 0036B8F0 ?cleanupPage@QWizard@@MAEXH@Z
       3574  DF5 0036A690 ?cleanupPage@QWizardPage@@UAEXXZ
       3575  DF6 001FA4F0 ?clear@?$QList@VQItemSelectionRange@@@@QAEXXZ
       3576  DF7 002795D0 ?clear@QAbstractSpinBox@@UAEXXZ
       3577  DF8 00262600 ?clear@QBitmap@@QAEXXZ
       3578  DF9 000626D0 ?clear@QClipboard@@QAEXW4Mode@1@@Z
       3579  DFA 00287880 ?clear@QComboBox@@QAEXXZ
       3580  DFB 00293990 ?clear@QDateTimeEdit@@UAEXXZ
       3581  DFC 0029A960 ?clear@QDialogButtonBox@@QAEXXZ
       3582  DFD 004030A0 ?clear@QGraphicsItemAnimation@@QAEXXZ
       3583  DFE 004073B0 ?clear@QGraphicsScene@@QAEXXZ
       3584  DFF 003B8300 ?clear@QItemSelectionModel@@UAEXXZ
       3585  E00 002B28B0 ?clear@QLabel@@QAEXXZ
       3586  E01 002C0680 ?clear@QLineEdit@@QAEXXZ
       3587  E02 003C13B0 ?clear@QListWidget@@QAEXXZ
       3588  E03 002DFF70 ?clear@QMenu@@QAEXXZ
       3589  E04 002E7FD0 ?clear@QMenuBar@@QAEXXZ
       3590  E05 000999F0 ?clear@QPixmapCache@@SAXXZ
       3591  E06 00329DE0 ?clear@QPlainTextEdit@@QAEXXZ
       3592  E07 003E03A0 ?clear@QSortFilterProxyModel@@QAEXXZ
       3593  E08 002F5570 ?clear@QSplashScreen@@QAEXXZ
       3594  E09 003E49C0 ?clear@QStandardItemModel@@QAEXXZ
       3595  E0A 001F3400 ?clear@QStatusBar@@QAEXXZ
       3596  E0B 002FFBF0 ?clear@QTabWidget@@QAEXXZ
       3597  E0C 003CACA0 ?clear@QTableWidget@@QAEXXZ
       3598  E0D 0017E380 ?clear@QTextControl@@QAEXXZ
       3599  E0E 0019C820 ?clear@QTextDocument@@UAEXXZ
       3600  E0F 00301890 ?clear@QTextEdit@@QAEXXZ
       3601  E10 0030A2C0 ?clear@QToolBar@@QAEXXZ
       3602  E11 003D1030 ?clear@QTreeWidget@@QAEXXZ
       3603  E12 0043BBC0 ?clear@QUndoStack@@QAEXXZ
       3604  E13 0018A270 ?clearAdditionalFormats@QTextLayout@@QAEXXZ
       3605  E14 0003D750 ?clearBackground@QTextFormat@@QAEXXZ
       3606  E15 0003F320 ?clearColumnWidthConstraints@QTextTableFormat@@QAEXXZ
       3607  E16 003C9290 ?clearContents@QTableWidget@@QAEXXZ
       3608  E17 000485B0 ?clearDirty@QPaintEngine@@QAEXV?$QFlags@W4DirtyFlag@QPaintEngine@@@@@Z
       3609  E18 001F2FA0 ?clearEdit@QComboBox@@QAEXXZ
       3610  E19 002878D0 ?clearEditText@QComboBox@@QAEXXZ
       3611  E1A 003F4250 ?clearFocus@QGraphicsItem@@QAEXXZ
       3612  E1B 004076F0 ?clearFocus@QGraphicsScene@@QAEXXZ
       3613  E1C 00048F90 ?clearFocus@QWidget@@QAEXXZ
       3614  E1D 0003D800 ?clearForeground@QTextFormat@@QAEXXZ
       3615  E1E 00308180 ?clearHistory@QTextBrowser@@QAEXXZ
       3616  E1F 00193F20 ?clearLayout@QTextBlock@@QAEXXZ
       3617  E20 001893C0 ?clearLayout@QTextLayout@@QAEXXZ
       3618  E21 00184510 ?clearLineData@QTextEngine@@QAEXXZ
       3619  E22 003EA9B0 ?clearMapping@QDataWidgetMapper@@QAEXXZ
       3620  E23 0006EB30 ?clearMask@QWidget@@QAEXXZ
       3621  E24 002925F0 ?clearMaximumDate@QDateTimeEdit@@QAEXXZ
       3622  E25 002937D0 ?clearMaximumDateTime@QDateTimeEdit@@QAEXXZ
       3623  E26 002927D0 ?clearMaximumTime@QDateTimeEdit@@QAEXXZ
       3624  E27 002F5570 ?clearMessage@QSplashScreen@@QAEXXZ
       3625  E28 002FA760 ?clearMessage@QStatusBar@@QAEXXZ
       3626  E29 00292500 ?clearMinimumDate@QDateTimeEdit@@QAEXXZ
       3627  E2A 00293740 ?clearMinimumDateTime@QDateTimeEdit@@QAEXXZ
       3628  E2B 002926E0 ?clearMinimumTime@QDateTimeEdit@@QAEXXZ
       3629  E2C 001780E0 ?clearModified@QLineEdit@@QAEXXZ
       3630  E2D 00382630 ?clearOrRemove@QAbstractItemViewPrivate@@QAEXXZ
       3631  E2E 00192760 ?clearProperty@QTextFormat@@QAEXH@Z
       3632  E2F 0038F7C0 ?clearPropertyFlags@QListView@@QAEXXZ
       3633  E30 0037B9C0 ?clearSelection@QAbstractItemView@@QAEXXZ
       3634  E31 0040AFA0 ?clearSelection@QGraphicsScene@@QAEXXZ
       3635  E32 003B6820 ?clearSelection@QItemSelectionModel@@QAEXXZ
       3636  E33 001BACC0 ?clearSelection@QTextCursor@@QAEXXZ
       3637  E34 0039EEB0 ?clearSpans@QTableView@@QAEXXZ
       3638  E35 001F2F90 ?clearValidator@QComboBox@@QAEXXZ
       3639  E36 00178120 ?clearValidator@QLineEdit@@QAEXXZ
       3640  E37 00276CE0 ?click@QAbstractButton@@QAEXXZ
       3641  E38 00441AE0 ?clicked@QAbstractButton@@IAEX_N@Z
       3642  E39 0037B350 ?clicked@QAbstractItemView@@IAEXABVQModelIndex@@@Z
       3643  E3A 002800D0 ?clicked@QCalendarWidget@@IAEXABVQDate@@@Z
       3644  E3B 00299FE0 ?clicked@QDialogButtonBox@@IAEXPAVQAbstractButton@@@Z
       3645  E3C 002AFCA0 ?clicked@QGroupBox@@IAEX_N@Z
       3646  E3D 00368370 ?clickedButton@QMessageBox@@QBEPAVQAbstractButton@@XZ
       3647  E3E 0000E9F0 ?clipOperation@QPaintEngineState@@QBE?AW4ClipOperation@Qt@@XZ
       3648  E3F 000CD8F0 ?clipPath@QPaintEngineState@@QBE?AVQPainterPath@@XZ
       3649  E40 000CEF70 ?clipPath@QPainter@@QBE?AVQPainterPath@@XZ
       3650  E41 0008A030 ?clipRect@QImageReader@@QBE?AVQRect@@XZ
       3651  E42 00046460 ?clipRect@QStrokerOps@@QBE?AVQRectF@@XZ
       3652  E43 0004B8D0 ?clipRect@QWidgetPrivate@@QBE?AVQRect@@XZ
       3653  E44 000CD8D0 ?clipRegion@QPaintEngineState@@QBE?AVQRegion@@XZ
       3654  E45 000CE950 ?clipRegion@QPainter@@QBE?AVQRegion@@XZ
       3655  E46 0004BA50 ?clipRegion@QWidgetPrivate@@QBE?AVQRegion@@XZ
       3656  E47 0000E580 ?clipboard@QApplication@@SAPAVQClipboard@@XZ
       3657  E48 002CA4A0 ?clone@QIconEngineV2@@UBEPAV1@XZ
       3658  E49 003C2A60 ?clone@QListWidgetItem@@UBEPAV1@XZ
       3659  E4A 003E5B40 ?clone@QStandardItem@@UBEPAV1@XZ
       3660  E4B 003CA1B0 ?clone@QTableWidgetItem@@UBEPAV1@XZ
       3661  E4C 0019EC90 ?clone@QTextDocument@@QBEPAV1@PAVQObject@@@Z
       3662  E4D 003D5BF0 ?clone@QTreeWidgetItem@@UBEPAV1@XZ
       3663  E4E 00422C80 ?close@QGraphicsWidget@@QAE_NXZ
       3664  E4F 00054190 ?close@QWidget@@QAE_NXZ
       3665  E50 000556C0 ?close@QWidget@@QAE_N_N@Z
       3666  E51 002CAC90 ?closeActiveSubWindow@QMdiArea@@QAEXXZ
       3667  E52 0031F720 ?closeActiveWindow@QWorkspace@@QAEXXZ
       3668  E53 002CF8C0 ?closeAllSubWindows@QMdiArea@@QAEXXZ
       3669  E54 00013300 ?closeAllWindows@QApplication@@SAXXZ
       3670  E55 0031A9C0 ?closeAllWindows@QWorkspace@@QAEXXZ
       3671  E56 00446CA0 ?closeEditor@QAbstractItemDelegate@@IAEXPAVQWidget@@W4EndEditHint@1@@Z
       3672  E57 00385200 ?closeEditor@QAbstractItemView@@MAEXPAVQWidget@@W4EndEditHint@QAbstractItemDelegate@@@Z
       3673  E58 0027B100 ?closeEvent@QAbstractSpinBox@@MAEXPAVQCloseEvent@@@Z
       3674  E59 0033FC40 ?closeEvent@QDialog@@MAEXPAVQCloseEvent@@@Z
       3675  E5A 0029C6E0 ?closeEvent@QDockWidget@@MAEXPAVQCloseEvent@@@Z
       3676  E5B 00422970 ?closeEvent@QGraphicsWidget@@MAEXPAVQCloseEvent@@@Z
       3677  E5C 002DAC60 ?closeEvent@QMdiSubWindow@@MAEXPAVQCloseEvent@@@Z
       3678  E5D 00353980 ?closeEvent@QMessageBox@@MAEXPAVQCloseEvent@@@Z
       3679  E5E 00356B50 ?closeEvent@QProgressDialog@@MAEXPAVQCloseEvent@@@Z
       3680  E5F 00422970 ?closeEvent@QWidget@@MAEXPAVQCloseEvent@@@Z
       3681  E60 003856D0 ?closePersistentEditor@QAbstractItemView@@QAEXABVQModelIndex@@@Z
       3682  E61 003C0030 ?closePersistentEditor@QListWidget@@QAEXPAVQListWidgetItem@@@Z
       3683  E62 003C7410 ?closePersistentEditor@QTableWidget@@QAEXPAVQTableWidgetItem@@@Z
       3684  E63 003CFC90 ?closePersistentEditor@QTreeWidget@@QAEXPAVQTreeWidgetItem@@H@Z
       3685  E64 000617C0 ?closePopup@QApplicationPrivate@@QAEXPAVQWidget@@@Z
       3686  E65 000DE3B0 ?closeSubpath@QPainterPath@@QAEXXZ
       3687  E66 00053EE0 ?close_helper@QWidgetPrivate@@QAE_NW4CloseMode@1@@Z
       3688  E67 00031860 ?closestAcceptableSize@QLayout@@SA?AVQSize@@PBVQWidget@@ABV2@@Z
       3689  E68 002F7110 ?closestLegalPosition@QSplitter@@IAEHHH@Z
       3690  E69 002F7530 ?closestLegalPosition@QSplitterHandle@@IAEHH@Z
       3691  E6A 00197EB0 ?codecForHtml@Qt@@YAPAVQTextCodec@@ABVQByteArray@@@Z
       3692  E6B 000BA6E0 ?coefficients@QBezier@@SAXNAAN000@Z
       3693  E6C 0044B680 ?colSpacing@QGridLayout@@QBEHH@Z
       3694  E6D 0044B660 ?colStretch@QGridLayout@@QBEHH@Z
       3695  E6E 003ACD00 ?collapse@QTreeView@@QAEXABVQModelIndex@@@Z
       3696  E6F 003A5DD0 ?collapseAll@QTreeView@@QAEXXZ
       3697  E70 003D0460 ?collapseItem@QTreeWidget@@QAEXPBVQTreeWidgetItem@@@Z
       3698  E71 003A1370 ?collapsed@QTreeView@@IAEXABVQModelIndex@@@Z
       3699  E72 000F33A0 ?collateCopies@QPrinter@@QBE_NXZ
       3700  E73 000F40B0 ?collateCopiesEnabled@QPrinter@@QBE_NXZ
       3701  E74 003FA210 ?collidesWithItem@QGraphicsItem@@UBE_NPBV1@W4ItemSelectionMode@Qt@@@Z
       3702  E75 003FD4F0 ?collidesWithPath@QGraphicsItem@@UBE_NABVQPainterPath@@W4ItemSelectionMode@Qt@@@Z
       3703  E76 003F7A50 ?collidingItems@QGraphicsItem@@QBE?AV?$QList@PAVQGraphicsItem@@@@W4ItemSelectionMode@Qt@@@Z
       3704  E77 0040F980 ?collidingItems@QGraphicsScene@@QBE?AV?$QList@PAVQGraphicsItem@@@@PBVQGraphicsItem@@W4ItemSelectionMode@Qt@@@Z
       3705  E78 00035EE0 ?color@QBrush@@QBEABVQColor@@XZ
       3706  E79 0033A680 ?color@QColorDialog@@ABE?AVQColor@@XZ
       3707  E7A 0007ADE0 ?color@QImage@@QBEIH@Z
       3708  E7B 00035F00 ?color@QPalette@@QBEABVQColor@@W4ColorGroup@1@W4ColorRole@1@@Z
       3709  E7C 00035F50 ?color@QPalette@@QBEABVQColor@@W4ColorRole@1@@Z
       3710  E7D 000E8180 ?color@QPen@@QBE?AVQColor@@XZ
       3711  E7E 001772A0 ?color@QTextEdit@@QBE?AVQColor@@XZ
       3712  E7F 00137E90 ?colorAt@QColormap@@QBE?BVQColor@@I@Z
       3713  E80 00449C70 ?colorGroup@QWidget@@QBE?AVQColorGroup@@XZ
       3714  E81 0044A2E0 ?colorMode@QApplication@@SAHXZ
       3715  E82 000F32A0 ?colorMode@QPrinter@@QBE?AW4ColorMode@1@XZ
       3716  E83 000C57C0 ?colorNames@QColor@@SA?AVQStringList@@XZ
       3717  E84 00190850 ?colorProperty@QTextFormat@@QBE?AVQColor@@H@Z
       3718  E85 0000E360 ?colorSpec@QApplication@@SAHXZ
       3719  E86 00081B70 ?colorTable@QImage@@QBE?AV?$QVector@I@@XZ
       3720  E87 001D11B0 ?colorValue@Declaration@QCss@@QBE?AVQColor@@ABVQPalette@@@Z
       3721  E88 001D13D0 ?colorValues@Declaration@QCss@@QBEXPAVQColor@@ABVQPalette@@@Z
       3722  E89 00138210 ?colormap@QColormap@@QBE?BV?$QVector@VQColor@@@@XZ
       3723  E8A 003E2C50 ?column@QStandardItem@@QBEHXZ
       3724  E8B 003C7010 ?column@QTableWidget@@QBEHPBVQTableWidgetItem@@@Z
       3725  E8C 003C7F30 ?column@QTableWidgetItem@@QBEHXZ
       3726  E8D 001C3F80 ?column@QTextTableCell@@QBEHXZ
       3727  E8E 0042F570 ?columnAlignment@QGraphicsGridLayout@@QBE?AV?$QFlags@W4AlignmentFlag@Qt@@@@H@Z
       3728  E8F 00399910 ?columnAt@QTableView@@QBEHH@Z
       3729  E90 003A0F00 ?columnAt@QTreeView@@QBEHH@Z
       3730  E91 0035B990 ?columnCount@QDirModel@@UBEHABVQModelIndex@@@Z
       3731  E92 0035B990 ?columnCount@QFileSystemModel@@UBEHABVQModelIndex@@@Z
       3732  E93 0042F5E0 ?columnCount@QGraphicsGridLayout@@QBEHXZ
       3733  E94 0003B5B0 ?columnCount@QGridLayout@@QBEHXZ
       3734  E95 002DC4E0 ?columnCount@QMenu@@IBEHXZ
       3735  E96 003D8450 ?columnCount@QProxyModel@@UBEHABVQModelIndex@@@Z
       3736  E97 003DF3E0 ?columnCount@QSortFilterProxyModel@@UBEHABVQModelIndex@@@Z
       3737  E98 003E1810 ?columnCount@QStandardItem@@QBEHXZ
       3738  E99 003E2D30 ?columnCount@QStandardItemModel@@UBEHABVQModelIndex@@@Z
       3739  E9A 003C6F50 ?columnCount@QTableWidget@@QBEHXZ
       3740  E9B 003C4070 ?columnCount@QTableWidgetSelectionRange@@QBEHXZ
       3741  E9C 003CF630 ?columnCount@QTreeWidget@@QBEHXZ
       3742  E9D 00402690 ?columnCount@QTreeWidgetItem@@QBEHXZ
       3743  E9E 00399850 ?columnCountChanged@QTableView@@IAEXHH@Z
       3744  E9F 003A33F0 ?columnCountChanged@QTreeView@@IAEXHH@Z
       3745  EA0 003B6B60 ?columnIntersectsSelection@QItemSelectionModel@@QBE_NHABVQModelIndex@@@Z
       3746  EA1 0042F4D0 ?columnMaximumWidth@QGraphicsGridLayout@@QBENH@Z
       3747  EA2 0042F410 ?columnMinimumWidth@QGraphicsGridLayout@@QBENH@Z
       3748  EA3 0002A330 ?columnMinimumWidth@QGridLayout@@QBEHH@Z
       3749  EA4 0039D880 ?columnMoved@QTableView@@IAEXHHH@Z
       3750  EA5 003A1020 ?columnMoved@QTreeView@@IAEXXZ
       3751  EA6 001B7900 ?columnNumber@QTextCursor@@QBEHXZ
       3752  EA7 0042F470 ?columnPreferredWidth@QGraphicsGridLayout@@QBENH@Z
       3753  EA8 003A0510 ?columnResized@QTableView@@IAEXHHH@Z
       3754  EA9 003A5DF0 ?columnResized@QTreeView@@IAEXHHH@Z
       3755  EAA 0042F1A0 ?columnSpacing@QGraphicsGridLayout@@QBENH@Z
       3756  EAB 0039EDB0 ?columnSpan@QTableView@@QBEHHH@Z
       3757  EAC 001C27F0 ?columnSpan@QTextTableCell@@QBEHXZ
       3758  EAD 0002A2F0 ?columnStretch@QGridLayout@@QBEHH@Z
       3759  EAE 0042F240 ?columnStretchFactor@QGraphicsGridLayout@@QBEHH@Z
       3760  EAF 00399900 ?columnViewportPosition@QTableView@@QBEHH@Z
       3761  EB0 003A0ED0 ?columnViewportPosition@QTreeView@@QBEHH@Z
       3762  EB1 00399930 ?columnWidth@QTableView@@QBEHH@Z
       3763  EB2 003A0EE0 ?columnWidth@QTreeView@@QBEHH@Z
       3764  EB3 000421C0 ?columnWidthConstraints@QTextTableFormat@@QBE?AV?$QVector@VQTextLength@@@@XZ
       3765  EB4 003ED610 ?columnWidths@QColumnView@@QBE?AV?$QList@H@@XZ
       3766  EB5 00001770 ?columns@QMenu@@IBEHXZ
       3767  EB6 001C3E20 ?columns@QTextTable@@QBEHXZ
       3768  EB7 0003F2E0 ?columns@QTextTableFormat@@QBEHXZ
       3769  EB8 001D89C0 ?combinedLayoutSpacing@QStyle@@QBEHV?$QFlags@W4ControlType@QSizePolicy@@@@0W4Orientation@Qt@@PAVQStyleOption@@PAVQWidget@@@Z
       3770  EB9 000CFD70 ?combinedMatrix@QPainter@@QBE?AVQMatrix@@XZ
       3771  EBA 000CF890 ?combinedTransform@QPainter@@QBE?AVQTransform@@XZ
       3772  EBB 0043B360 ?command@QUndoStack@@QBEPBVQUndoCommand@@H@Z
       3773  EBC 00446C70 ?commitData@QAbstractItemDelegate@@IAEXPAVQWidget@@@Z
       3774  EBD 0037EE40 ?commitData@QAbstractItemView@@MAEXPAVQWidget@@@Z
       3775  EBE 00013E30 ?commitData@QApplication@@UAEXAAVQSessionManager@@@Z
       3776  EBF 0000E860 ?commitDataRequest@QApplication@@IAEXAAVQSessionManager@@@Z
       3777  EC0 00179BE0 ?commitString@QInputMethodEvent@@QBEABVQString@@XZ
       3778  EC1 003F44F0 ?commonAncestorItem@QGraphicsItem@@QBEPAV1@PBV1@@Z
       3779  EC2 00433A70 ?complete@QCompleter@@QAEXABVQRect@@@Z
       3780  EC3 003685E0 ?completeChanged@QWizardPage@@IAEXXZ
       3781  EC4 002874D0 ?completer@QComboBox@@QBEPAVQCompleter@@XZ
       3782  EC5 00301A00 ?completer@QLineEdit@@QBEPAVQCompleter@@XZ
       3783  EC6 003F5460 ?completionColumn@QCompleter@@QBEHXZ
       3784  EC7 00432560 ?completionCount@QCompleter@@QBEHXZ
       3785  EC8 00038980 ?completionMode@QCompleter@@QBE?AW4CompletionMode@1@XZ
       3786  EC9 00193840 ?completionModel@QCompleter@@QBEPAVQAbstractItemModel@@XZ
       3787  ECA 004318F0 ?completionPrefix@QCompleter@@QBE?AVQString@@XZ
       3788  ECB 003D7B00 ?completionRole@QCompleter@@QBEHXZ
       3789  ECC 000CD920 ?compositionMode@QPaintEngineState@@QBE?AW4CompositionMode@QPainter@@XZ
       3790  ECD 000CE910 ?compositionMode@QPainter@@QBE?AW4CompositionMode@1@XZ
       3791  ECE 00015550 ?compressEvent@QApplication@@MAE_NPAVQEvent@@PAVQObject@@PAVQPostEventList@@@Z
       3792  ECF 0008D730 ?compression@QImageWriter@@QBEHXZ
       3793  ED0 000DBBB0 ?computeBoundingRect@QPainterPath@@ABEXXZ
       3794  ED1 000DBE90 ?computeControlPointRect@QPainterPath@@ABEXXZ
       3795  ED2 003427C0 ?confirmOverwrite@QFileDialog@@QBE_NXZ
       3796  ED3 00001670 ?connectItem@QMenu@@QAE_NHPBVQObject@@PBD@Z
       3797  ED4 00001C90 ?connectItem@QMenuBar@@QAE_NHPBVQObject@@PBD@Z
       3798  ED5 00062870 ?connectNotify@QClipboard@@MAEXPBD@Z
       3799  ED6 000DE890 ?connectPath@QPainterPath@@QAEXABV1@@Z
       3800  ED7 003D7C00 ?connectToModel@QProxyModel@@IBEXPBVQAbstractItemModel@@@Z
       3801  ED8 001F6890 ?constBegin@?$QList@VQItemSelectionRange@@@@QBE?AVconst_iterator@1@XZ
       3802  ED9 001F68B0 ?constEnd@?$QList@VQItemSelectionRange@@@@QBE?AVconst_iterator@1@XZ
       3803  EDA 004499E0 ?constPolish@QWidget@@QBEXXZ
       3804  EDB 00019DA0 ?construct@QApplicationPrivate@@QAEXXZ
       3805  EDC 001F5440 ?contains@?$QList@VQItemSelectionRange@@@@QBE?AVQBool@@ABVQItemSelectionRange@@@Z
       3806  EDD 003F4DB0 ?contains@QGraphicsEllipseItem@@UBE_NABVQPointF@@@Z
       3807  EDE 003F4430 ?contains@QGraphicsItem@@UBE_NABVQPointF@@@Z
       3808  EDF 003F4DB0 ?contains@QGraphicsLineItem@@UBE_NABVQPointF@@@Z
       3809  EE0 003F4DB0 ?contains@QGraphicsPathItem@@UBE_NABVQPointF@@@Z
       3810  EE1 003F4DB0 ?contains@QGraphicsPixmapItem@@UBE_NABVQPointF@@@Z
       3811  EE2 003F4DB0 ?contains@QGraphicsPolygonItem@@UBE_NABVQPointF@@@Z
       3812  EE3 003F4DB0 ?contains@QGraphicsRectItem@@UBE_NABVQPointF@@@Z
       3813  EE4 003F5CE0 ?contains@QGraphicsSimpleTextItem@@UBE_NABVQPointF@@@Z
       3814  EE5 003F56E0 ?contains@QGraphicsTextItem@@UBE_NABVQPointF@@@Z
       3815  EE6 003B32A0 ?contains@QItemSelection@@QBE_NABVQModelIndex@@@Z
       3816  EE7 001F36E0 ?contains@QItemSelectionRange@@QBE_NABVQModelIndex@@@Z
       3817  EE8 001F37C0 ?contains@QItemSelectionRange@@QBE_NHHABVQModelIndex@@@Z
       3818  EE9 000E11A0 ?contains@QPainterPath@@QBE_NABV1@@Z
       3819  EEA 000DF140 ?contains@QPainterPath@@QBE_NABVQPointF@@@Z
       3820  EEB 000DF690 ?contains@QPainterPath@@QBE_NABVQRectF@@@Z
       3821  EEC 001422C0 ?contains@QRegion@@QBE_NABVQPoint@@@Z
       3822  EED 00142310 ?contains@QRegion@@QBE_NABVQRect@@@Z
       3823  EEE 00193E20 ?contains@QTextBlock@@QBE_NH@Z
       3824  EEF 00194610 ?contains@QTextFragment@@QBE_NH@Z
       3825  EF0 000EA810 ?containsPoint@QPolygon@@QBE_NABVQPoint@@W4FillRule@Qt@@@Z
       3826  EF1 000EB040 ?containsPoint@QPolygonF@@QBE_NABVQPointF@@W4FillRule@Qt@@@Z
       3827  EF2 0032C8A0 ?contentOffset@QPlainTextEdit@@IBE?AVQPointF@@XZ
       3828  EF3 004400D0 ?contentsChange@QTextDocument@@IAEXHHH@Z
       3829  EF4 00440110 ?contentsChanged@QTextDocument@@IAEXXZ
       3830  EF5 0037A5B0 ?contentsOffset@QAbstractItemViewPrivate@@UBE?AVQPoint@@XZ
       3831  EF6 00420A10 ?contentsRect@QGraphicsLayoutItem@@QBE?AVQRectF@@XZ
       3832  EF7 00033620 ?contentsRect@QLayout@@QBE?AVQRect@@XZ
       3833  EF8 00047AF0 ?contentsRect@QWidget@@QBE?AVQRect@@XZ
       3834  EF9 0038F7E0 ?contentsSize@QListView@@IBE?AVQSize@@XZ
       3835  EFA 00193840 ?context@QShortcut@@QAE?AW4ShortcutContext@Qt@@XZ
       3836  EFB 003B3140 ?contextMenu@QSystemTrayIcon@@QBEPAVQMenu@@XZ
       3837  EFC 00313020 ?contextMenuEvent@QAbstractScrollArea@@MAEXPAVQContextMenuEvent@@@Z
       3838  EFD 0027B2B0 ?contextMenuEvent@QAbstractSpinBox@@MAEXPAVQContextMenuEvent@@@Z
       3839  EFE 00287A20 ?contextMenuEvent@QComboBox@@MAEXPAVQContextMenuEvent@@@Z
       3840  EFF 0033F9D0 ?contextMenuEvent@QDialog@@MAEXPAVQContextMenuEvent@@@Z
       3841  F00 00313020 ?contextMenuEvent@QGraphicsItem@@MAEXPAVQGraphicsSceneContextMenuEvent@@@Z
       3842  F01 0042DDC0 ?contextMenuEvent@QGraphicsProxyWidget@@MAEXPAVQGraphicsSceneContextMenuEvent@@@Z
       3843  F02 00411790 ?contextMenuEvent@QGraphicsScene@@MAEXPAVQGraphicsSceneContextMenuEvent@@@Z
       3844  F03 003F5720 ?contextMenuEvent@QGraphicsTextItem@@MAEXPAVQGraphicsSceneContextMenuEvent@@@Z
       3845  F04 00418820 ?contextMenuEvent@QGraphicsView@@MAEXPAVQContextMenuEvent@@@Z
       3846  F05 002B4120 ?contextMenuEvent@QLabel@@MAEXPAVQContextMenuEvent@@@Z
       3847  F06 002BE470 ?contextMenuEvent@QLineEdit@@MAEXPAVQContextMenuEvent@@@Z
       3848  F07 002C3540 ?contextMenuEvent@QMainWindow@@MAEXPAVQContextMenuEvent@@@Z
       3849  F08 002D8650 ?contextMenuEvent@QMdiSubWindow@@MAEXPAVQContextMenuEvent@@@Z
       3850  F09 0032D540 ?contextMenuEvent@QPlainTextEdit@@MAEXPAVQContextMenuEvent@@@Z
       3851  F0A 002EEC50 ?contextMenuEvent@QScrollBar@@MAEXPAVQContextMenuEvent@@@Z
       3852  F0B 00303660 ?contextMenuEvent@QTextEdit@@MAEXPAVQContextMenuEvent@@@Z
       3853  F0C 00313020 ?contextMenuEvent@QWidget@@MAEXPAVQContextMenuEvent@@@Z
       3854  F0D 00047B70 ?contextMenuPolicy@QWidget@@QBE?AW4ContextMenuPolicy@Qt@@XZ
       3855  F0E 0037D3D0 ?contiguousSelectionCommand@QAbstractItemViewPrivate@@QBE?AV?$QFlags@W4SelectionFlag@QItemSelectionModel@@@@ABVQModelIndex@@PBVQEvent@@@Z
       3856  F0F 000DC090 ?controlPointRect@QPainterPath@@QBE?AVQRectF@@XZ
       3857  F10 00031110 ?controlType@QSizePolicy@@QBE?AW4ControlType@1@XZ
       3858  F11 00034B90 ?controlTypes@QLayoutItem@@QBE?AV?$QFlags@W4ControlType@QSizePolicy@@@@XZ
       3859  F12 00087870 ?convertBitOrder@QImage@@QBE?AV1@W4Endian@1@@Z
       3860  F13 000877D0 ?convertDepth@QImage@@QBE?AV1@HV?$QFlags@W4ImageConversionFlag@Qt@@@@@Z
       3861  F14 00089CC0 ?convertDepthWithPalette@QImage@@QBE?AV1@HPAIHV?$QFlags@W4ImageConversionFlag@Qt@@@@@Z
       3862  F15 0044C340 ?convertFromImage@QPixmap@@QAE_NABVQImage@@V?$QFlags@W4ImageConversionFlag@Qt@@@@@Z
       3863  F16 00097FD0 ?convertFromImage@QPixmap@@QAE_NABVQImage@@W4ColorMode@1@@Z
       3864  F17 001979E0 ?convertFromPlainText@Qt@@YA?AVQString@@ABV2@W4WhiteSpaceMode@1@@Z
       3865  F18 000C3630 ?convertTo@QColor@@QBE?AV1@W4Spec@1@@Z
       3866  F19 000897E0 ?convertToFormat@QImage@@QBE?AV1@W4Format@1@ABV?$QVector@I@@V?$QFlags@W4ImageConversionFlag@Qt@@@@@Z
       3867  F1A 00087600 ?convertToFormat@QImage@@QBE?AV1@W4Format@1@V?$QFlags@W4ImageConversionFlag@Qt@@@@@Z
       3868  F1B 004491E0 ?convertToImage@QPixmap@@QBE?AVQImage@@XZ
       3869  F1C 0006CC70 ?converterFromMime@QWindowsMime@@CAPAV1@ABUtagFORMATETC@@PBVQMimeData@@@Z
       3870  F1D 0006CDA0 ?converterToMime@QWindowsMime@@CAPAV1@ABVQString@@PAUIDataObject@@@Z
       3871  F1E 000BF730 ?coordinateMode@QGradient@@QBE?AW4CoordinateMode@1@XZ
       3872  F1F 000CBA10 ?coordinateOffset@QPaintEngine@@UBE?AVQPoint@@XZ
       3873  F20 00083270 ?copy@QImage@@QBE?AV1@ABVQRect@@@Z
       3874  F21 00449040 ?copy@QImage@@QBE?AV1@ABVQRect@@V?$QFlags@W4ImageConversionFlag@Qt@@@@@Z
       3875  F22 000CBB00 ?copy@QImage@@QBE?AV1@HHHH@Z
       3876  F23 00448FF0 ?copy@QImage@@QBE?AV1@HHHHV?$QFlags@W4ImageConversionFlag@Qt@@@@@Z
       3877  F24 002BA240 ?copy@QLineEdit@@QBEXXZ
       3878  F25 00449300 ?copy@QPalette@@QBE?AV1@XZ
       3879  F26 0008E880 ?copy@QPicture@@IBE?AV1@XZ
       3880  F27 00096980 ?copy@QPixmap@@QBE?AV1@ABVQRect@@@Z
       3881  F28 001399C0 ?copy@QPixmap@@QBE?AV1@HHHH@Z
       3882  F29 00099F90 ?copy@QPixmapData@@UAEXPBV1@ABVQRect@@@Z
       3883  F2A 00301870 ?copy@QPlainTextEdit@@QAEXXZ
       3884  F2B 001421B0 ?copy@QRegion@@ABE?AV1@XZ
       3885  F2C 00178460 ?copy@QTextControl@@QAEXXZ
       3886  F2D 00301870 ?copy@QTextEdit@@QAEXXZ
       3887  F2E 0032A0E0 ?copyAvailable@QPlainTextEdit@@IAEX_N@Z
       3888  F2F 00179990 ?copyAvailable@QTextControl@@IAEX_N@Z
       3889  F30 00301D70 ?copyAvailable@QTextEdit@@IAEX_N@Z
       3890  F31 000981D0 ?copyBlt@@YAXPAVQPixmap@@HHPBV1@HHHH@Z
       3891  F32 003731C0 ?copyText@QAccessibleSimpleEditableTextInterface@@UAEXHH@Z
       3892  F33 002C2560 ?corner@QMainWindow@@QBE?AW4DockWidgetArea@Qt@@W4Corner@3@@Z
       3893  F34 0030FD50 ?cornerWidget@QAbstractScrollArea@@QBEPAVQWidget@@XZ
       3894  F35 002E61B0 ?cornerWidget@QMenuBar@@QBEPAVQWidget@@W4Corner@Qt@@@Z
       3895  F36 002FFA40 ?cornerWidget@QTabWidget@@QBEPAVQWidget@@W4Corner@Qt@@@Z
       3896  F37 002CAC80 ?correctionMode@QAbstractSpinBox@@QBE?AW4CorrectionMode@1@XZ
       3897  F38 001F54B0 ?count@?$QList@VQItemSelectionRange@@@@QBEHABVQItemSelectionRange@@@Z
       3898  F39 001F50E0 ?count@?$QList@VQItemSelectionRange@@@@QBEHXZ
       3899  F3A 0003B600 ?count@QBoxLayout@@UBEHXZ
       3900  F3B 00287240 ?count@QComboBox@@QBEHXZ
       3901  F3C 0029EFE0 ?count@QDockWidgetLayout@@UBEHXZ
       3902  F3D 000267F0 ?count@QFormLayout@@UBEHXZ
       3903  F3E 0042F680 ?count@QGraphicsGridLayout@@UBEHXZ
       3904  F3F 004215F0 ?count@QGraphicsLinearLayout@@UBEHXZ
       3905  F40 0002A2A0 ?count@QGridLayout@@UBEHXZ
       3906  F41 00385A70 ?count@QHeaderView@@QBEHXZ
       3907  F42 000233A0 ?count@QKeyEvent@@QBEHXZ
       3908  F43 0002DF30 ?count@QKeySequence@@QBEIXZ
       3909  F44 003BFB10 ?count@QListWidget@@QBEHXZ
       3910  F45 00007980 ?count@QMenu@@QBEIXZ
       3911  F46 000081A0 ?count@QMenuBar@@QBEIXZ
       3912  F47 002F5D40 ?count@QSplitter@@QBEHXZ
       3913  F48 0003B600 ?count@QStackedLayout@@UBEHXZ
       3914  F49 002F9930 ?count@QStackedWidget@@QBEHXZ
       3915  F4A 002FBCC0 ?count@QTabBar@@QBEHXZ
       3916  F4B 002FFAF0 ?count@QTabWidget@@QBEHXZ
       3917  F4C 001C5B90 ?count@QTextList@@QBEHXZ
       3918  F4D 0030B200 ?count@QToolBarLayout@@UBEHXZ
       3919  F4E 0030E490 ?count@QToolBox@@QBEHXZ
       3920  F4F 0043AF30 ?count@QUndoStack@@QBEHXZ
       3921  F50 000838F0 ?create@QImage@@QAE_NABVQSize@@HHW4Endian@1@@Z
       3922  F51 00083880 ?create@QImage@@QAE_NHHHHW4Endian@1@@Z
       3923  F52 003F1BB0 ?create@QInputContextFactory@@SAPAVQInputContext@@ABVQString@@PAVQObject@@@Z
       3924  F53 001D97E0 ?create@QStyleFactory@@SAPAVQStyle@@ABVQString@@@Z
       3925  F54 0004F6B0 ?create@QWidget@@IAEXPAUHWND__@@_N1@Z
       3926  F55 000442E0 ?createAction@QWhatsThis@@SAPAVQAction@@PAVQObject@@@Z
       3927  F56 000879D0 ?createAlphaMask@QImage@@QBE?AV1@V?$QFlags@W4ImageConversionFlag@Qt@@@@@Z
       3928  F57 00036A50 ?createColorGroup@QPalette@@ABE?AVQColorGroup@@W4ColorGroup@1@@Z
       3929  F58 003EE040 ?createColumn@QColumnView@@MAEPAVQAbstractItemView@@ABVQModelIndex@@@Z
       3930  F59 00175410 ?createDatabase@QFontDatabase@@CAXXZ
       3931  F5A 003AE690 ?createEditor@QAbstractItemDelegate@@UBEPAVQWidget@@PAV2@ABVQStyleOptionViewItem@@ABVQModelIndex@@@Z
       3932  F5B 003AEE10 ?createEditor@QItemDelegate@@UBEPAVQWidget@@PAV2@ABVQStyleOptionViewItem@@ABVQModelIndex@@@Z
       3933  F5C 003E1630 ?createEditor@QItemEditorFactory@@UBEPAVQWidget@@W4Type@QVariant@@PAV2@@Z
       3934  F5D 003F0510 ?createEditor@QStyledItemDelegate@@UBEPAVQWidget@@PAV2@ABVQStyleOptionViewItem@@ABVQModelIndex@@@Z
       3935  F5E 0005A020 ?createEventDispatcher@QApplicationPrivate@@UAEXXZ
       3936  F5F 00024B10 ?createExtendedKeyEvent@QKeyEvent@@SAPAV1@W4Type@QEvent@@HV?$QFlags@W4KeyboardModifier@Qt@@@@IIIABVQString@@_NG@Z
       3937  F60 00024A70 ?createExtendedMouseEvent@QMouseEvent@@SAPAV1@W4Type@QEvent@@ABVQPointF@@ABVQPoint@@W4MouseButton@Qt@@V?$QFlags@W4MouseButton@Qt@@@@V?$QFlags@W4KeyboardModifier@Qt@@@@@Z
       3938  F61 0004DA00 ?createExtra@QWidgetPrivate@@QAEXXZ
       3939  F62 002F5CC0 ?createHandle@QSplitter@@MAEPAVQSplitterHandle@@XZ
       3940  F63 00087AF0 ?createHeuristicMask@QImage@@QBE?AV1@_N@Z
       3941  F64 000985C0 ?createHeuristicMask@QPixmap@@QBE?AVQBitmap@@_N@Z
       3942  F65 0030B530 ?createItem@QToolBarLayout@@AAEPAVQToolBarItem@@PAVQAction@@@Z
       3943  F66 004101B0 ?createItemGroup@QGraphicsScene@@QAEPAVQGraphicsItemGroup@@ABV?$QList@PAVQGraphicsItem@@@@@Z
       3944  F67 0018E5B0 ?createLine@QTextLayout@@QAE?AVQTextLine@@XZ
       3945  F68 001BB2D0 ?createList@QTextCursor@@QAEPAVQTextList@@ABVQTextListFormat@@@Z
       3946  F69 001BB3C0 ?createList@QTextCursor@@QAEPAVQTextList@@W4Style@QTextListFormat@@@Z
       3947  F6A 00086390 ?createMaskFromColor@QImage@@QBE?AV1@IW4MaskMode@Qt@@@Z
       3948  F6B 00096DD0 ?createMaskFromColor@QPixmap@@QBE?AVQBitmap@@ABVQColor@@@Z
       3949  F6C 00096CF0 ?createMaskFromColor@QPixmap@@QBE?AVQBitmap@@ABVQColor@@W4MaskMode@Qt@@@Z
       3950  F6D 00329E90 ?createMimeDataFromSelection@QPlainTextEdit@@MBEPAVQMimeData@@XZ
       3951  F6E 00178F50 ?createMimeDataFromSelection@QTextControl@@UBEPAVQMimeData@@XZ
       3952  F6F 00329E90 ?createMimeDataFromSelection@QTextEdit@@MBEPAVQMimeData@@XZ
       3953  F70 00198660 ?createObject@QTextDocument@@MAEPAVQTextObject@@ABVQTextFormat@@@Z
       3954  F71 00193680 ?createObjectIndex@QTextFormatCollection@@QAEHABVQTextFormat@@@Z
       3955  F72 002C3F30 ?createPopupMenu@QMainWindow@@UAEPAVQMenu@@XZ
       3956  F73 00050A90 ?createRecursively@QWidgetPrivate@@QAEXXZ
       3957  F74 0043A720 ?createRedoAction@QUndoGroup@@QBEPAVQAction@@PAVQObject@@ABVQString@@@Z
       3958  F75 0043B1E0 ?createRedoAction@QUndoStack@@QBEPAVQAction@@PAVQObject@@ABVQString@@@Z
       3959  F76 00031D50 ?createSpacerItem@QLayoutPrivate@@SAPAVQSpacerItem@@PBVQLayout@@HHW4Policy@QSizePolicy@@1@Z
       3960  F77 002BC710 ?createStandardContextMenu@QLineEdit@@QAEPAVQMenu@@XZ
       3961  F78 00329E20 ?createStandardContextMenu@QPlainTextEdit@@QAEPAVQMenu@@XZ
       3962  F79 0017CEC0 ?createStandardContextMenu@QTextControl@@QAEPAVQMenu@@ABVQPointF@@PAVQWidget@@@Z
       3963  F7A 00301900 ?createStandardContextMenu@QTextEdit@@QAEPAVQMenu@@ABVQPoint@@@Z
       3964  F7B 00329E20 ?createStandardContextMenu@QTextEdit@@QAEPAVQMenu@@XZ
       3965  F7C 000DFB90 ?createStroke@QPainterPathStroker@@QBE?AVQPainterPath@@ABV2@@Z
       3966  F7D 0006DC60 ?createSysExtra@QWidgetPrivate@@QAEXXZ
       3967  F7E 0004EFC0 ?createTLExtra@QWidgetPrivate@@QAEXXZ
       3968  F7F 0006DCA0 ?createTLSysExtra@QWidgetPrivate@@QAEXXZ
       3969  F80 0043A5B0 ?createUndoAction@QUndoGroup@@QBEPAVQAction@@PAVQObject@@ABVQString@@@Z
       3970  F81 0043B070 ?createUndoAction@QUndoStack@@QBEPAVQAction@@PAVQObject@@ABVQString@@@Z
       3971  F82 003D79F0 ?createWidget@QWidgetAction@@MAEPAVQWidget@@PAV2@@Z
       3972  F83 00030E10 ?createWidgetItem@QLayoutPrivate@@SAPAVQWidgetItem@@PBVQLayout@@PAVQWidget@@@Z
       3973  F84 00047070 ?createWinId@QWidget@@QAEXXZ
       3974  F85 00050B70 ?createWinId@QWidgetPrivate@@QAEXPAUHWND__@@@Z
       3975  F86 000720F0 ?create_sys@QWidgetPrivate@@QAEXPAUHWND__@@_N1@Z
       3976  F87 00059100 ?createdWidgets@QWidgetAction@@IBE?AV?$QList@PAVQWidget@@@@XZ
       3977  F88 000F3080 ?creator@QPrinter@@QBE?AVQString@@XZ
       3978  F89 00356030 ?critical@QMessageBox@@SA?AW4StandardButton@1@PAVQWidget@@ABVQString@@1V?$QFlags@W4StandardButton@QMessageBox@@@@W421@@Z
       3979  F8A 00356940 ?critical@QMessageBox@@SAHPAVQWidget@@ABVQString@@1111HH@Z
       3980  F8B 003558B0 ?critical@QMessageBox@@SAHPAVQWidget@@ABVQString@@1HHH@Z
       3981  F8C 0000F080 ?critical@QMessageBox@@SAHPAVQWidget@@ABVQString@@1W4StandardButton@1@2@Z
       3982  F8D 000DDC70 ?cubicTo@QPainterPath@@QAEXABVQPointF@@00@Z
       3983  F8E 000DE340 ?cubicTo@QPainterPath@@QAEXNNNNNN@Z
       3984  F8F 00049790 ?cubicTo@QStrokerOps@@QAEXNNNNNN@Z
       3985  F90 0044B2A0 ?current@QLayoutIterator@@QAEPAVQLayoutItem@@XZ
       3986  F91 001C6150 ?currentBlock@QSyntaxHighlighter@@IBE?AVQTextBlock@@XZ
       3987  F92 00193B10 ?currentBlock@iterator@QTextFrame@@QBE?AVQTextBlock@@XZ
       3988  F93 001C60D0 ?currentBlockState@QSyntaxHighlighter@@IBEHXZ
       3989  F94 001C6130 ?currentBlockUserData@QSyntaxHighlighter@@IBEPAVQTextBlockUserData@@XZ
       3990  F95 003C5230 ?currentCellChanged@QTableWidget@@IAEXHHHH@Z
       3991  F96 00381320 ?currentChanged@QAbstractItemView@@MAEXABVQModelIndex@@0@Z
       3992  F97 003EEFE0 ?currentChanged@QColumnView@@MAEXABVQModelIndex@@0@Z
       3993  F98 00343D70 ?currentChanged@QFileDialog@@IAEXABVQString@@@Z
       3994  F99 0038C5D0 ?currentChanged@QHeaderView@@MAEXABVQModelIndex@@0@Z
       3995  F9A 003B29C0 ?currentChanged@QItemSelectionModel@@IAEXABVQModelIndex@@0@Z
       3996  F9B 00395480 ?currentChanged@QListView@@MAEXABVQModelIndex@@0@Z
       3997  F9C 0043F930 ?currentChanged@QStackedLayout@@IAEXH@Z
       3998  F9D 00444D90 ?currentChanged@QStackedWidget@@IAEXH@Z
       3999  F9E 002FB5A0 ?currentChanged@QTabBar@@IAEXH@Z
       4000  F9F 002FFCC0 ?currentChanged@QTabWidget@@IAEXH@Z
       4001  FA0 002FFCF0 ?currentChanged@QTabWidget@@IAEXPAVQWidget@@@Z
       4002  FA1 0039B070 ?currentChanged@QTableView@@MAEXABVQModelIndex@@0@Z
       4003  FA2 0030DF30 ?currentChanged@QToolBox@@IAEXH@Z
       4004  FA3 003ABA90 ?currentChanged@QTreeView@@MAEXABVQModelIndex@@0@Z
       4005  FA4 003019A0 ?currentCharFormat@QPlainTextEdit@@QBE?AVQTextCharFormat@@XZ
       4006  FA5 00179260 ?currentCharFormat@QTextControl@@QBE?AVQTextCharFormat@@XZ
       4007  FA6 003019A0 ?currentCharFormat@QTextEdit@@QBE?AVQTextCharFormat@@XZ
       4008  FA7 00179960 ?currentCharFormatChanged@QTextControl@@IAEXABVQTextCharFormat@@@Z
       4009  FA8 00301D40 ?currentCharFormatChanged@QTextEdit@@IAEXABVQTextCharFormat@@@Z
       4010  FA9 00301E10 ?currentColorChanged@QTextEdit@@IAEXABVQColor@@@Z
       4011  FAA 0024A950 ?currentColorGroup@QPalette@@QBE?AW4ColorGroup@1@XZ
       4012  FAB 003C4C70 ?currentColumn@QTableWidget@@QBEHXZ
       4013  FAC 003C4C70 ?currentColumn@QTreeWidget@@QBEHXZ
       4014  FAD 003B2A40 ?currentColumnChanged@QItemSelectionModel@@IAEXABVQModelIndex@@0@Z
       4015  FAE 004325A0 ?currentCompletion@QCompleter@@QBE?AVQString@@XZ
       4016  FAF 002AD4F0 ?currentFont@QFontComboBox@@QBE?AVQFont@@XZ
       4017  FB0 00301760 ?currentFont@QTextEdit@@QBE?AVQFont@@XZ
       4018  FB1 002AD610 ?currentFontChanged@QFontComboBox@@IAEXABVQFont@@@Z
       4019  FB2 00301DE0 ?currentFontChanged@QTextEdit@@IAEXABVQFont@@@Z
       4020  FB3 001B7780 ?currentFrame@QTextCursor@@QBEPAVQTextFrame@@XZ
       4021  FB4 00177860 ?currentFrame@iterator@QTextFrame@@QBEPAV2@XZ
       4022  FB5 003E1930 ?currentFrameNumber@QMovie@@QBEHXZ
       4023  FB6 00368370 ?currentId@QWizard@@QBEHXZ
       4024  FB7 003684F0 ?currentIdChanged@QWizard@@IAEXH@Z
       4025  FB8 0009ACA0 ?currentImage@QMovie@@QBE?AVQImage@@XZ
       4026  FB9 002CA4A0 ?currentImageNumber@QImageIOHandler@@UBEHXZ
       4027  FBA 0008D1C0 ?currentImageNumber@QImageReader@@QBEHXZ
       4028  FBB 00089F20 ?currentImageRect@QImageIOHandler@@UBE?AVQRect@@XZ
       4029  FBC 0008D1E0 ?currentImageRect@QImageReader@@QBE?AVQRect@@XZ
       4030  FBD 0037B920 ?currentIndex@QAbstractItemView@@QBE?AVQModelIndex@@XZ
       4031  FBE 00287530 ?currentIndex@QComboBox@@QBEHXZ
       4032  FBF 00432570 ?currentIndex@QCompleter@@QBE?AVQModelIndex@@XZ
       4033  FC0 003E9630 ?currentIndex@QDataWidgetMapper@@QBEHXZ
       4034  FC1 003B27A0 ?currentIndex@QItemSelectionModel@@QBE?AVQModelIndex@@XZ
       4035  FC2 0003B5B0 ?currentIndex@QStackedLayout@@QBEHXZ
       4036  FC3 002F98B0 ?currentIndex@QStackedWidget@@QBEHXZ
       4037  FC4 002FBC90 ?currentIndex@QTabBar@@QBEHXZ
       4038  FC5 002FFAA0 ?currentIndex@QTabWidget@@QBEHXZ
       4039  FC6 0030EE00 ?currentIndex@QToolBox@@QBEHXZ
       4040  FC7 00287CA0 ?currentIndexChanged@QComboBox@@IAEXABVQString@@@Z
       4041  FC8 00287C70 ?currentIndexChanged@QComboBox@@IAEXH@Z
       4042  FC9 003E97B0 ?currentIndexChanged@QDataWidgetMapper@@IAEXH@Z
       4043  FCA 001F2C60 ?currentItem@QComboBox@@QBEHXZ
       4044  FCB 003BFB90 ?currentItem@QListWidget@@QBEPAVQListWidgetItem@@XZ
       4045  FCC 003C7110 ?currentItem@QTableWidget@@QBEPAVQTableWidgetItem@@XZ
       4046  FCD 00228B90 ?currentItem@QToolBox@@QBEPAVQWidget@@XZ
       4047  FCE 003CF900 ?currentItem@QTreeWidget@@QBEPAVQTreeWidgetItem@@XZ
       4048  FCF 003BE470 ?currentItemChanged@QListWidget@@IAEXPAVQListWidgetItem@@0@Z
       4049  FD0 003C5050 ?currentItemChanged@QTableWidget@@IAEXPAVQTableWidgetItem@@0@Z
       4050  FD1 003CDE10 ?currentItemChanged@QTreeWidget@@IAEXPAVQTreeWidgetItem@@0@Z
       4051  FD2 001B89E0 ?currentList@QTextCursor@@QBEPAVQTextList@@XZ
       4052  FD3 003683E0 ?currentMessage@QStatusBar@@QBE?AVQString@@XZ
       4053  FD4 00330510 ?currentPage@QPrintPreviewWidget@@QBEHXZ
       4054  FD5 00002C40 ?currentPage@QTabWidget@@QBEPAVQWidget@@XZ
       4055  FD6 0036B250 ?currentPage@QWizard@@QBEPAVQWizardPage@@XZ
       4056  FD7 00280130 ?currentPageChanged@QCalendarWidget@@IAEXHH@Z
       4057  FD8 00002C80 ?currentPageIndex@QTabWidget@@QBEHXZ
       4058  FD9 0009AC70 ?currentPixmap@QMovie@@QBE?AVQPixmap@@XZ
       4059  FDA 00046EC0 ?currentPlatform@QApplicationPrivate@@SAIXZ
       4060  FDB 000DDFE0 ?currentPosition@QPainterPath@@QBE?AVQPointF@@XZ
       4061  FDC 00431890 ?currentRow@QCompleter@@QBEHXZ
       4062  FDD 003C4C50 ?currentRow@QListWidget@@QBEHXZ
       4063  FDE 003C4C50 ?currentRow@QTableWidget@@QBEHXZ
       4064  FDF 003B2A00 ?currentRowChanged@QItemSelectionModel@@IAEXABVQModelIndex@@0@Z
       4065  FE0 003BE4E0 ?currentRowChanged@QListWidget@@IAEXH@Z
       4066  FE1 00293880 ?currentSection@QDateTimeEdit@@QBE?AW4Section@1@XZ
       4067  FE2 002929E0 ?currentSectionIndex@QDateTimeEdit@@QBEHXZ
       4068  FE3 002CAC10 ?currentSubWindow@QMdiArea@@QBEPAVQMdiSubWindow@@XZ
       4069  FE4 001B8A80 ?currentTable@QTextCursor@@QBEPAVQTextTable@@XZ
       4070  FE5 00020DF0 ?currentTarget@QDragManager@@QAEPAVQWidget@@XZ
       4071  FE6 00289A90 ?currentText@QComboBox@@QBE?AVQString@@XZ
       4072  FE7 003BE4B0 ?currentTextChanged@QListWidget@@IAEXABVQString@@@Z
       4073  FE8 0003B6A0 ?currentWidget@QStackedLayout@@QBEPAVQWidget@@XZ
       4074  FE9 002F98C0 ?currentWidget@QStackedWidget@@QBEPAVQWidget@@XZ
       4075  FEA 002FFA90 ?currentWidget@QTabWidget@@QBEPAVQWidget@@XZ
       4076  FEB 0030DE80 ?currentWidget@QToolBox@@QBEPAVQWidget@@XZ
       4077  FEC 003F7800 ?cursor@QGraphicsItem@@QBE?AVQCursor@@XZ
       4078  FED 00048D40 ?cursor@QWidget@@QBE?AVQCursor@@XZ
       4079  FEE 001780F0 ?cursorBackward@QLineEdit@@QAEX_NH@Z
       4080  FEF 0005A920 ?cursorFlashTime@QApplication@@SAHXZ
       4081  FF0 0032D650 ?cursorForPosition@QPlainTextEdit@@QBE?AVQTextCursor@@ABVQPoint@@@Z
       4082  FF1 00178AB0 ?cursorForPosition@QTextControl@@QBE?AVQTextCursor@@ABVQPointF@@@Z
       4083  FF2 003044F0 ?cursorForPosition@QTextEdit@@QBE?AVQTextCursor@@ABVQPoint@@@Z
       4084  FF3 002BDFB0 ?cursorForward@QLineEdit@@QAEX_NH@Z
       4085  FF4 00178DD0 ?cursorIsFocusIndicator@QTextControl@@QBE_NXZ
       4086  FF5 001780F0 ?cursorLeft@QLineEdit@@QAEX_NH@Z
       4087  FF6 002EAEA0 ?cursorPosition@QLineEdit@@QBEHXZ
       4088  FF7 002BBA30 ?cursorPositionAt@QLineEdit@@QAEHABVQPoint@@@Z
       4089  FF8 002B9A60 ?cursorPositionChanged@QLineEdit@@IAEXHH@Z
       4090  FF9 0032A130 ?cursorPositionChanged@QPlainTextEdit@@IAEXXZ
       4091  FFA 001799E0 ?cursorPositionChanged@QTextControl@@IAEXXZ
       4092  FFB 004401E0 ?cursorPositionChanged@QTextDocument@@IAEXABVQTextCursor@@@Z
       4093  FFC 00301DC0 ?cursorPositionChanged@QTextEdit@@IAEXXZ
       4094  FFD 002BBC40 ?cursorRect@QLineEdit@@IBE?AVQRect@@XZ
       4095  FFE 0032C740 ?cursorRect@QPlainTextEdit@@QBE?AVQRect@@ABVQTextCursor@@@Z
       4096  FFF 0032C810 ?cursorRect@QPlainTextEdit@@QBE?AVQRect@@XZ
       4097 1000 00178B40 ?cursorRect@QTextControl@@QBE?AVQRectF@@ABVQTextCursor@@@Z
       4098 1001 00178B90 ?cursorRect@QTextControl@@QBE?AVQRectF@@XZ
       4099 1002 003039C0 ?cursorRect@QTextEdit@@QBE?AVQRect@@ABVQTextCursor@@@Z
       4100 1003 00303A90 ?cursorRect@QTextEdit@@QBE?AVQRect@@XZ
       4101 1004 00178100 ?cursorRight@QLineEdit@@QAEX_NH@Z
       4102 1005 000430D0 ?cursorToX@QTextLine@@QBENHW4Edge@1@@Z
       4103 1006 0018C210 ?cursorToX@QTextLine@@QBENPAHW4Edge@1@@Z
       4104 1007 0003B5B0 ?cursorWidth@QPlainTextDocumentLayout@@QBEHXZ
       4105 1008 00329E60 ?cursorWidth@QPlainTextEdit@@QBEHXZ
       4106 1009 00178C60 ?cursorWidth@QTextControl@@QBEHXZ
       4107 100A 00329E60 ?cursorWidth@QTextEdit@@QBEHXZ
       4108 100B 002BE060 ?cursorWordBackward@QLineEdit@@QAEX_N@Z
       4109 100C 002BE030 ?cursorWordForward@QLineEdit@@QAEX_N@Z
       4110 100D 0069B300 ?cursor_flash_time@QApplicationPrivate@@2HA
       4111 100E 000DBB20 ?curveThreshold@QPainterPathStroker@@QBENXZ
       4112 100F 000465F0 ?curveThreshold@QStroker@@QBENXZ
       4113 1010 00368540 ?customButtonClicked@QWizard@@IAEXH@Z
       4114 1011 0033B4F0 ?customColor@QColorDialog@@SAIH@Z
       4115 1012 00048420 ?customContextMenuRequested@QWidget@@IAEXABVQPoint@@@Z
       4116 1013 00339FF0 ?customCount@QColorDialog@@SAHXZ
       4117 1014 002C0720 ?cut@QLineEdit@@QAEXXZ
       4118 1015 00301860 ?cut@QPlainTextEdit@@QAEXXZ
       4119 1016 0017BC60 ?cut@QTextControl@@QAEXXZ
       4120 1017 00301860 ?cut@QTextEdit@@QAEXXZ
       4121 1018 00373360 ?cutText@QAccessibleSimpleEditableTextInterface@@UAEXHH@Z
       4122 1019 000C4BB0 ?cyan@QColor@@QBEHXZ
       4123 101A 000C4C70 ?cyanF@QColor@@QBENXZ
       4124 101B 002C9FF0 ?d_func@QAbstractButton@@AAEPAVQAbstractButtonPrivate@@XZ
       4125 101C 002C9FF0 ?d_func@QAbstractButton@@ABEPBVQAbstractButtonPrivate@@XZ
       4126 101D 002C9FF0 ?d_func@QAbstractGraphicsShapeItem@@AAEPAVQAbstractGraphicsShapeItemPrivate@@XZ
       4127 101E 002C9FF0 ?d_func@QAbstractGraphicsShapeItem@@ABEPBVQAbstractGraphicsShapeItemPrivate@@XZ
       4128 101F 002C9FF0 ?d_func@QAbstractItemView@@AAEPAVQAbstractItemViewPrivate@@XZ
       4129 1020 002C9FF0 ?d_func@QAbstractItemView@@ABEPBVQAbstractItemViewPrivate@@XZ
       4130 1021 002C9FF0 ?d_func@QAbstractPageSetupDialog@@AAEPAVQAbstractPageSetupDialogPrivate@@XZ
       4131 1022 002C9FF0 ?d_func@QAbstractPageSetupDialog@@ABEPBVQAbstractPageSetupDialogPrivate@@XZ
       4132 1023 002C9FF0 ?d_func@QAbstractPrintDialog@@AAEPAVQAbstractPrintDialogPrivate@@XZ
       4133 1024 002C9FF0 ?d_func@QAbstractPrintDialog@@ABEPBVQAbstractPrintDialogPrivate@@XZ
       4134 1025 002C9FF0 ?d_func@QAbstractProxyModel@@AAEPAVQAbstractProxyModelPrivate@@XZ
       4135 1026 002C9FF0 ?d_func@QAbstractProxyModel@@ABEPBVQAbstractProxyModelPrivate@@XZ
       4136 1027 002C9FF0 ?d_func@QAbstractScrollArea@@AAEPAVQAbstractScrollAreaPrivate@@XZ
       4137 1028 002C9FF0 ?d_func@QAbstractScrollArea@@ABEPBVQAbstractScrollAreaPrivate@@XZ
       4138 1029 002C9FF0 ?d_func@QAbstractSlider@@AAEPAVQAbstractSliderPrivate@@XZ
       4139 102A 002C9FF0 ?d_func@QAbstractSlider@@ABEPBVQAbstractSliderPrivate@@XZ
       4140 102B 002C9FF0 ?d_func@QAbstractSpinBox@@AAEPAVQAbstractSpinBoxPrivate@@XZ
       4141 102C 002C9FF0 ?d_func@QAbstractSpinBox@@ABEPBVQAbstractSpinBoxPrivate@@XZ
       4142 102D 002C9FF0 ?d_func@QAbstractTextDocumentLayout@@AAEPAVQAbstractTextDocumentLayoutPrivate@@XZ
       4143 102E 002C9FF0 ?d_func@QAbstractTextDocumentLayout@@ABEPBVQAbstractTextDocumentLayoutPrivate@@XZ
       4144 102F 002C9FF0 ?d_func@QAction@@AAEPAVQActionPrivate@@XZ
       4145 1030 002C9FF0 ?d_func@QAction@@ABEPBVQActionPrivate@@XZ
       4146 1031 002C9FF0 ?d_func@QActionGroup@@AAEPAVQActionGroupPrivate@@XZ
       4147 1032 002C9FF0 ?d_func@QActionGroup@@ABEPBVQActionGroupPrivate@@XZ
       4148 1033 002C9FF0 ?d_func@QApplication@@AAEPAVQApplicationPrivate@@XZ
       4149 1034 002C9FF0 ?d_func@QApplication@@ABEPBVQApplicationPrivate@@XZ
       4150 1035 002C9FF0 ?d_func@QBoxLayout@@AAEPAVQBoxLayoutPrivate@@XZ
       4151 1036 002C9FF0 ?d_func@QBoxLayout@@ABEPBVQBoxLayoutPrivate@@XZ
       4152 1037 002C9FF0 ?d_func@QButtonGroup@@AAEPAVQButtonGroupPrivate@@XZ
       4153 1038 002C9FF0 ?d_func@QButtonGroup@@ABEPBVQButtonGroupPrivate@@XZ
       4154 1039 002C9FF0 ?d_func@QCalendarWidget@@AAEPAVQCalendarWidgetPrivate@@XZ
       4155 103A 002C9FF0 ?d_func@QCalendarWidget@@ABEPBVQCalendarWidgetPrivate@@XZ
       4156 103B 002C9FF0 ?d_func@QCheckBox@@AAEPAVQCheckBoxPrivate@@XZ
       4157 103C 002C9FF0 ?d_func@QCheckBox@@ABEPBVQCheckBoxPrivate@@XZ
       4158 103D 002C9FF0 ?d_func@QCleanlooksStyle@@AAEPAVQCleanlooksStylePrivate@@XZ
       4159 103E 002C9FF0 ?d_func@QCleanlooksStyle@@ABEPBVQCleanlooksStylePrivate@@XZ
       4160 103F 002C9FF0 ?d_func@QClipboard@@AAEPAVQClipboardPrivate@@XZ
       4161 1040 002C9FF0 ?d_func@QClipboard@@ABEPBVQClipboardPrivate@@XZ
       4162 1041 002C9FF0 ?d_func@QColorDialog@@AAEPAVQColorDialogPrivate@@XZ
       4163 1042 002C9FF0 ?d_func@QColorDialog@@ABEPBVQColorDialogPrivate@@XZ
       4164 1043 002C9FF0 ?d_func@QColumnView@@AAEPAVQColumnViewPrivate@@XZ
       4165 1044 002C9FF0 ?d_func@QColumnView@@ABEPBVQColumnViewPrivate@@XZ
       4166 1045 002C9FF0 ?d_func@QComboBox@@AAEPAVQComboBoxPrivate@@XZ
       4167 1046 002C9FF0 ?d_func@QComboBox@@ABEPBVQComboBoxPrivate@@XZ
       4168 1047 002C9FF0 ?d_func@QCommandLinkButton@@AAEPAVQCommandLinkButtonPrivate@@XZ
       4169 1048 002C9FF0 ?d_func@QCommandLinkButton@@ABEPBVQCommandLinkButtonPrivate@@XZ
       4170 1049 002C9FF0 ?d_func@QCommonStyle@@AAEPAVQCommonStylePrivate@@XZ
       4171 104A 002C9FF0 ?d_func@QCommonStyle@@ABEPBVQCommonStylePrivate@@XZ
       4172 104B 002C9FF0 ?d_func@QCompleter@@AAEPAVQCompleterPrivate@@XZ
       4173 104C 002C9FF0 ?d_func@QCompleter@@ABEPBVQCompleterPrivate@@XZ
       4174 104D 002C9FF0 ?d_func@QDataWidgetMapper@@AAEPAVQDataWidgetMapperPrivate@@XZ
       4175 104E 002C9FF0 ?d_func@QDataWidgetMapper@@ABEPBVQDataWidgetMapperPrivate@@XZ
       4176 104F 002C9FF0 ?d_func@QDateTimeEdit@@AAEPAVQDateTimeEditPrivate@@XZ
       4177 1050 002C9FF0 ?d_func@QDateTimeEdit@@ABEPBVQDateTimeEditPrivate@@XZ
       4178 1051 002C9FF0 ?d_func@QDesktopWidget@@AAEPAVQDesktopWidgetPrivate@@XZ
       4179 1052 002C9FF0 ?d_func@QDesktopWidget@@ABEPBVQDesktopWidgetPrivate@@XZ
       4180 1053 002C9FF0 ?d_func@QDial@@AAEPAVQDialPrivate@@XZ
       4181 1054 002C9FF0 ?d_func@QDial@@ABEPBVQDialPrivate@@XZ
       4182 1055 002C9FF0 ?d_func@QDialog@@AAEPAVQDialogPrivate@@XZ
       4183 1056 002C9FF0 ?d_func@QDialog@@ABEPBVQDialogPrivate@@XZ
       4184 1057 002C9FF0 ?d_func@QDialogButtonBox@@AAEPAVQDialogButtonBoxPrivate@@XZ
       4185 1058 002C9FF0 ?d_func@QDialogButtonBox@@ABEPBVQDialogButtonBoxPrivate@@XZ
       4186 1059 002C9FF0 ?d_func@QDirModel@@AAEPAVQDirModelPrivate@@XZ
       4187 105A 002C9FF0 ?d_func@QDirModel@@ABEPBVQDirModelPrivate@@XZ
       4188 105B 002C9FF0 ?d_func@QDockWidget@@AAEPAVQDockWidgetPrivate@@XZ
       4189 105C 002C9FF0 ?d_func@QDockWidget@@ABEPBVQDockWidgetPrivate@@XZ
       4190 105D 002C9FF0 ?d_func@QDoubleSpinBox@@AAEPAVQDoubleSpinBoxPrivate@@XZ
       4191 105E 002C9FF0 ?d_func@QDoubleSpinBox@@ABEPBVQDoubleSpinBoxPrivate@@XZ
       4192 105F 002C9FF0 ?d_func@QDoubleValidator@@AAEPAVQDoubleValidatorPrivate@@XZ
       4193 1060 002C9FF0 ?d_func@QDoubleValidator@@ABEPBVQDoubleValidatorPrivate@@XZ
       4194 1061 002C9FF0 ?d_func@QDrag@@AAEPAVQDragPrivate@@XZ
       4195 1062 002C9FF0 ?d_func@QDrag@@ABEPBVQDragPrivate@@XZ
       4196 1063 002C9FF0 ?d_func@QErrorMessage@@AAEPAVQErrorMessagePrivate@@XZ
       4197 1064 002C9FF0 ?d_func@QErrorMessage@@ABEPBVQErrorMessagePrivate@@XZ
       4198 1065 002C9FF0 ?d_func@QFileDialog@@AAEPAVQFileDialogPrivate@@XZ
       4199 1066 002C9FF0 ?d_func@QFileDialog@@ABEPBVQFileDialogPrivate@@XZ
       4200 1067 002C9FF0 ?d_func@QFileIconProvider@@AAEPAVQFileIconProviderPrivate@@XZ
       4201 1068 002C9FF0 ?d_func@QFileIconProvider@@ABEPBVQFileIconProviderPrivate@@XZ
       4202 1069 002C9FF0 ?d_func@QFileSystemModel@@AAEPAVQFileSystemModelPrivate@@XZ
       4203 106A 002C9FF0 ?d_func@QFileSystemModel@@ABEPBVQFileSystemModelPrivate@@XZ
       4204 106B 002C9FF0 ?d_func@QFocusFrame@@AAEPAVQFocusFramePrivate@@XZ
       4205 106C 002C9FF0 ?d_func@QFocusFrame@@ABEPBVQFocusFramePrivate@@XZ
       4206 106D 002C9FF0 ?d_func@QFontComboBox@@AAEPAVQFontComboBoxPrivate@@XZ
       4207 106E 002C9FF0 ?d_func@QFontComboBox@@ABEPBVQFontComboBoxPrivate@@XZ
       4208 106F 002C9FF0 ?d_func@QFontDialog@@AAEPAVQFontDialogPrivate@@XZ
       4209 1070 002C9FF0 ?d_func@QFontDialog@@ABEPBVQFontDialogPrivate@@XZ
       4210 1071 002C9FF0 ?d_func@QFormLayout@@AAEPAVQFormLayoutPrivate@@XZ
       4211 1072 002C9FF0 ?d_func@QFormLayout@@ABEPBVQFormLayoutPrivate@@XZ
       4212 1073 002C9FF0 ?d_func@QFrame@@AAEPAVQFramePrivate@@XZ
       4213 1074 002C9FF0 ?d_func@QFrame@@ABEPBVQFramePrivate@@XZ
       4214 1075 002C9FF0 ?d_func@QGraphicsEllipseItem@@AAEPAVQGraphicsEllipseItemPrivate@@XZ
       4215 1076 002C9FF0 ?d_func@QGraphicsEllipseItem@@ABEPBVQGraphicsEllipseItemPrivate@@XZ
       4216 1077 002C9FF0 ?d_func@QGraphicsGridLayout@@AAEPAVQGraphicsGridLayoutPrivate@@XZ
       4217 1078 002C9FF0 ?d_func@QGraphicsGridLayout@@ABEPBVQGraphicsGridLayoutPrivate@@XZ
       4218 1079 002C9FF0 ?d_func@QGraphicsItem@@AAEPAVQGraphicsItemPrivate@@XZ
       4219 107A 002C9FF0 ?d_func@QGraphicsItem@@ABEPBVQGraphicsItemPrivate@@XZ
       4220 107B 002C9FF0 ?d_func@QGraphicsItemGroup@@AAEPAVQGraphicsItemGroupPrivate@@XZ
       4221 107C 002C9FF0 ?d_func@QGraphicsItemGroup@@ABEPBVQGraphicsItemGroupPrivate@@XZ
       4222 107D 002C9FF0 ?d_func@QGraphicsLayout@@AAEPAVQGraphicsLayoutPrivate@@XZ
       4223 107E 002C9FF0 ?d_func@QGraphicsLayout@@ABEPBVQGraphicsLayoutPrivate@@XZ
       4224 107F 002C9FF0 ?d_func@QGraphicsLayoutItem@@AAEPAVQGraphicsLayoutItemPrivate@@XZ
       4225 1080 002C9FF0 ?d_func@QGraphicsLayoutItem@@ABEPBVQGraphicsLayoutItemPrivate@@XZ
       4226 1081 002C9FF0 ?d_func@QGraphicsLineItem@@AAEPAVQGraphicsLineItemPrivate@@XZ
       4227 1082 002C9FF0 ?d_func@QGraphicsLineItem@@ABEPBVQGraphicsLineItemPrivate@@XZ
       4228 1083 002C9FF0 ?d_func@QGraphicsLinearLayout@@AAEPAVQGraphicsLinearLayoutPrivate@@XZ
       4229 1084 002C9FF0 ?d_func@QGraphicsLinearLayout@@ABEPBVQGraphicsLinearLayoutPrivate@@XZ
       4230 1085 002C9FF0 ?d_func@QGraphicsPathItem@@AAEPAVQGraphicsPathItemPrivate@@XZ
       4231 1086 002C9FF0 ?d_func@QGraphicsPathItem@@ABEPBVQGraphicsPathItemPrivate@@XZ
       4232 1087 002C9FF0 ?d_func@QGraphicsPixmapItem@@AAEPAVQGraphicsPixmapItemPrivate@@XZ
       4233 1088 002C9FF0 ?d_func@QGraphicsPixmapItem@@ABEPBVQGraphicsPixmapItemPrivate@@XZ
       4234 1089 002C9FF0 ?d_func@QGraphicsPolygonItem@@AAEPAVQGraphicsPolygonItemPrivate@@XZ
       4235 108A 002C9FF0 ?d_func@QGraphicsPolygonItem@@ABEPBVQGraphicsPolygonItemPrivate@@XZ
       4236 108B 00177860 ?d_func@QGraphicsProxyWidget@@AAEPAVQGraphicsProxyWidgetPrivate@@XZ
       4237 108C 00177860 ?d_func@QGraphicsProxyWidget@@ABEPBVQGraphicsProxyWidgetPrivate@@XZ
       4238 108D 002C9FF0 ?d_func@QGraphicsRectItem@@AAEPAVQGraphicsRectItemPrivate@@XZ
       4239 108E 002C9FF0 ?d_func@QGraphicsRectItem@@ABEPBVQGraphicsRectItemPrivate@@XZ
       4240 108F 002C9FF0 ?d_func@QGraphicsScene@@AAEPAVQGraphicsScenePrivate@@XZ
       4241 1090 002C9FF0 ?d_func@QGraphicsScene@@ABEPBVQGraphicsScenePrivate@@XZ
       4242 1091 00177860 ?d_func@QGraphicsSceneContextMenuEvent@@AAEPAVQGraphicsSceneContextMenuEventPrivate@@XZ
       4243 1092 00177860 ?d_func@QGraphicsSceneContextMenuEvent@@ABEPBVQGraphicsSceneContextMenuEventPrivate@@XZ
       4244 1093 00177860 ?d_func@QGraphicsSceneDragDropEvent@@AAEPAVQGraphicsSceneDragDropEventPrivate@@XZ
       4245 1094 00177860 ?d_func@QGraphicsSceneDragDropEvent@@ABEPBVQGraphicsSceneDragDropEventPrivate@@XZ
       4246 1095 00177860 ?d_func@QGraphicsSceneEvent@@IAEPAVQGraphicsSceneEventPrivate@@XZ
       4247 1096 00177860 ?d_func@QGraphicsSceneEvent@@IBEPBVQGraphicsSceneEventPrivate@@XZ
       4248 1097 00177860 ?d_func@QGraphicsSceneHelpEvent@@AAEPAVQGraphicsSceneHelpEventPrivate@@XZ
       4249 1098 00177860 ?d_func@QGraphicsSceneHelpEvent@@ABEPBVQGraphicsSceneHelpEventPrivate@@XZ
       4250 1099 00177860 ?d_func@QGraphicsSceneHoverEvent@@AAEPAVQGraphicsSceneHoverEventPrivate@@XZ
       4251 109A 00177860 ?d_func@QGraphicsSceneHoverEvent@@ABEPBVQGraphicsSceneHoverEventPrivate@@XZ
       4252 109B 00177860 ?d_func@QGraphicsSceneMouseEvent@@AAEPAVQGraphicsSceneMouseEventPrivate@@XZ
       4253 109C 00177860 ?d_func@QGraphicsSceneMouseEvent@@ABEPBVQGraphicsSceneMouseEventPrivate@@XZ
       4254 109D 00177860 ?d_func@QGraphicsSceneMoveEvent@@AAEPAVQGraphicsSceneMoveEventPrivate@@XZ
       4255 109E 00177860 ?d_func@QGraphicsSceneMoveEvent@@ABEPBVQGraphicsSceneMoveEventPrivate@@XZ
       4256 109F 00177860 ?d_func@QGraphicsSceneResizeEvent@@AAEPAVQGraphicsSceneResizeEventPrivate@@XZ
       4257 10A0 00177860 ?d_func@QGraphicsSceneResizeEvent@@ABEPBVQGraphicsSceneResizeEventPrivate@@XZ
       4258 10A1 00177860 ?d_func@QGraphicsSceneWheelEvent@@AAEPAVQGraphicsSceneWheelEventPrivate@@XZ
       4259 10A2 00177860 ?d_func@QGraphicsSceneWheelEvent@@ABEPBVQGraphicsSceneWheelEventPrivate@@XZ
       4260 10A3 002C9FF0 ?d_func@QGraphicsSimpleTextItem@@AAEPAVQGraphicsSimpleTextItemPrivate@@XZ
       4261 10A4 002C9FF0 ?d_func@QGraphicsSimpleTextItem@@ABEPBVQGraphicsSimpleTextItemPrivate@@XZ
       4262 10A5 002C9FF0 ?d_func@QGraphicsView@@AAEPAVQGraphicsViewPrivate@@XZ
       4263 10A6 002C9FF0 ?d_func@QGraphicsView@@ABEPBVQGraphicsViewPrivate@@XZ
       4264 10A7 00177860 ?d_func@QGraphicsWidget@@AAEPAVQGraphicsWidgetPrivate@@XZ
       4265 10A8 00177860 ?d_func@QGraphicsWidget@@ABEPBVQGraphicsWidgetPrivate@@XZ
       4266 10A9 002C9FF0 ?d_func@QGridLayout@@AAEPAVQGridLayoutPrivate@@XZ
       4267 10AA 002C9FF0 ?d_func@QGridLayout@@ABEPBVQGridLayoutPrivate@@XZ
       4268 10AB 002C9FF0 ?d_func@QGroupBox@@AAEPAVQGroupBoxPrivate@@XZ
       4269 10AC 002C9FF0 ?d_func@QGroupBox@@ABEPBVQGroupBoxPrivate@@XZ
       4270 10AD 002C9FF0 ?d_func@QHeaderView@@AAEPAVQHeaderViewPrivate@@XZ
       4271 10AE 002C9FF0 ?d_func@QHeaderView@@ABEPBVQHeaderViewPrivate@@XZ
       4272 10AF 002C9FF0 ?d_func@QImageIOHandler@@AAEPAVQImageIOHandlerPrivate@@XZ
       4273 10B0 002C9FF0 ?d_func@QImageIOHandler@@ABEPBVQImageIOHandlerPrivate@@XZ
       4274 10B1 002C9FF0 ?d_func@QInputContext@@AAEPAVQInputContextPrivate@@XZ
       4275 10B2 002C9FF0 ?d_func@QInputContext@@ABEPBVQInputContextPrivate@@XZ
       4276 10B3 002C9FF0 ?d_func@QInputDialog@@AAEPAVQInputDialogPrivate@@XZ
       4277 10B4 002C9FF0 ?d_func@QInputDialog@@ABEPBVQInputDialogPrivate@@XZ
       4278 10B5 002C9FF0 ?d_func@QItemDelegate@@AAEPAVQItemDelegatePrivate@@XZ
       4279 10B6 002C9FF0 ?d_func@QItemDelegate@@ABEPBVQItemDelegatePrivate@@XZ
       4280 10B7 002C9FF0 ?d_func@QItemSelectionModel@@AAEPAVQItemSelectionModelPrivate@@XZ
       4281 10B8 002C9FF0 ?d_func@QItemSelectionModel@@ABEPBVQItemSelectionModelPrivate@@XZ
       4282 10B9 002C9FF0 ?d_func@QLCDNumber@@AAEPAVQLCDNumberPrivate@@XZ
       4283 10BA 002C9FF0 ?d_func@QLCDNumber@@ABEPBVQLCDNumberPrivate@@XZ
       4284 10BB 002C9FF0 ?d_func@QLabel@@AAEPAVQLabelPrivate@@XZ
       4285 10BC 002C9FF0 ?d_func@QLabel@@ABEPBVQLabelPrivate@@XZ
       4286 10BD 002C9FF0 ?d_func@QLayout@@AAEPAVQLayoutPrivate@@XZ
       4287 10BE 002C9FF0 ?d_func@QLayout@@ABEPBVQLayoutPrivate@@XZ
       4288 10BF 002C9FF0 ?d_func@QLineEdit@@AAEPAVQLineEditPrivate@@XZ
       4289 10C0 002C9FF0 ?d_func@QLineEdit@@ABEPBVQLineEditPrivate@@XZ
       4290 10C1 002C9FF0 ?d_func@QListView@@AAEPAVQListViewPrivate@@XZ
       4291 10C2 002C9FF0 ?d_func@QListView@@ABEPBVQListViewPrivate@@XZ
       4292 10C3 002C9FF0 ?d_func@QListWidget@@AAEPAVQListWidgetPrivate@@XZ
       4293 10C4 002C9FF0 ?d_func@QListWidget@@ABEPBVQListWidgetPrivate@@XZ
       4294 10C5 002C9FF0 ?d_func@QMainWindow@@AAEPAVQMainWindowPrivate@@XZ
       4295 10C6 002C9FF0 ?d_func@QMainWindow@@ABEPBVQMainWindowPrivate@@XZ
       4296 10C7 002C9FF0 ?d_func@QMdiArea@@AAEPAVQMdiAreaPrivate@@XZ
       4297 10C8 002C9FF0 ?d_func@QMdiArea@@ABEPBVQMdiAreaPrivate@@XZ
       4298 10C9 002C9FF0 ?d_func@QMdiSubWindow@@AAEPAVQMdiSubWindowPrivate@@XZ
       4299 10CA 002C9FF0 ?d_func@QMdiSubWindow@@ABEPBVQMdiSubWindowPrivate@@XZ
       4300 10CB 002C9FF0 ?d_func@QMenu@@AAEPAVQMenuPrivate@@XZ
       4301 10CC 002C9FF0 ?d_func@QMenu@@ABEPBVQMenuPrivate@@XZ
       4302 10CD 002C9FF0 ?d_func@QMenuBar@@AAEPAVQMenuBarPrivate@@XZ
       4303 10CE 002C9FF0 ?d_func@QMenuBar@@ABEPBVQMenuBarPrivate@@XZ
       4304 10CF 002C9FF0 ?d_func@QMessageBox@@AAEPAVQMessageBoxPrivate@@XZ
       4305 10D0 002C9FF0 ?d_func@QMessageBox@@ABEPBVQMessageBoxPrivate@@XZ
       4306 10D1 002C9FF0 ?d_func@QMotifStyle@@AAEPAVQMotifStylePrivate@@XZ
       4307 10D2 002C9FF0 ?d_func@QMotifStyle@@ABEPBVQMotifStylePrivate@@XZ
       4308 10D3 002C9FF0 ?d_func@QMovie@@AAEPAVQMoviePrivate@@XZ
       4309 10D4 002C9FF0 ?d_func@QMovie@@ABEPBVQMoviePrivate@@XZ
       4310 10D5 002C9FF0 ?d_func@QPageSetupDialog@@AAEPAVQPageSetupDialogPrivate@@XZ
       4311 10D6 002C9FF0 ?d_func@QPageSetupDialog@@ABEPBVQPageSetupDialogPrivate@@XZ
       4312 10D7 002DC7C0 ?d_func@QPaintEngine@@AAEPAVQPaintEnginePrivate@@XZ
       4313 10D8 002DC7C0 ?d_func@QPaintEngine@@ABEPBVQPaintEnginePrivate@@XZ
       4314 10D9 000BF910 ?d_func@QPainter@@AAEPAVQPainterPrivate@@XZ
       4315 10DA 000BF910 ?d_func@QPainter@@ABEPBVQPainterPrivate@@XZ
       4316 10DB 000BF910 ?d_func@QPainterPath@@ABEPAVQPainterPathData@@XZ
       4317 10DC 000BF910 ?d_func@QPainterPathStroker@@AAEPAVQPainterPathStrokerPrivate@@XZ
       4318 10DD 000BF910 ?d_func@QPainterPathStroker@@ABEPBVQPainterPathStrokerPrivate@@XZ
       4319 10DE 0008E870 ?d_func@QPicture@@AAEPAVQPicturePrivate@@XZ
       4320 10DF 0008E870 ?d_func@QPicture@@ABEPBVQPicturePrivate@@XZ
       4321 10E0 002C9FF0 ?d_func@QPlainTextDocumentLayout@@AAEPAVQPlainTextDocumentLayoutPrivate@@XZ
       4322 10E1 002C9FF0 ?d_func@QPlainTextDocumentLayout@@ABEPBVQPlainTextDocumentLayoutPrivate@@XZ
       4323 10E2 002C9FF0 ?d_func@QPlainTextEdit@@AAEPAVQPlainTextEditPrivate@@XZ
       4324 10E3 002C9FF0 ?d_func@QPlainTextEdit@@ABEPBVQPlainTextEditPrivate@@XZ
       4325 10E4 002C9FF0 ?d_func@QPlastiqueStyle@@AAEPAVQPlastiqueStylePrivate@@XZ
       4326 10E5 002C9FF0 ?d_func@QPlastiqueStyle@@ABEPBVQPlastiqueStylePrivate@@XZ
       4327 10E6 002C9FF0 ?d_func@QPrintDialog@@AAEPAVQPrintDialogPrivate@@XZ
       4328 10E7 002C9FF0 ?d_func@QPrintDialog@@ABEPBVQPrintDialogPrivate@@XZ
       4329 10E8 0000EA00 ?d_func@QPrintPreviewDialog@@AAEPAVQPrintPreviewDialogPrivate@@XZ
       4330 10E9 0000EA00 ?d_func@QPrintPreviewDialog@@ABEPBVQPrintPreviewDialogPrivate@@XZ
       4331 10EA 0000EA00 ?d_func@QPrintPreviewWidget@@AAEPAVQPrintPreviewWidgetPrivate@@XZ
       4332 10EB 0000EA00 ?d_func@QPrintPreviewWidget@@ABEPBVQPrintPreviewWidgetPrivate@@XZ
       4333 10EC 0008E870 ?d_func@QPrinter@@AAEPAVQPrinterPrivate@@XZ
       4334 10ED 0008E870 ?d_func@QPrinter@@ABEPBVQPrinterPrivate@@XZ
       4335 10EE 000BF910 ?d_func@QPrinterInfo@@AAEPAVQPrinterInfoPrivate@@XZ
       4336 10EF 000BF910 ?d_func@QPrinterInfo@@ABEPBVQPrinterInfoPrivate@@XZ
       4337 10F0 002C9FF0 ?d_func@QProgressBar@@AAEPAVQProgressBarPrivate@@XZ
       4338 10F1 002C9FF0 ?d_func@QProgressBar@@ABEPBVQProgressBarPrivate@@XZ
       4339 10F2 002C9FF0 ?d_func@QProgressDialog@@AAEPAVQProgressDialogPrivate@@XZ
       4340 10F3 002C9FF0 ?d_func@QProgressDialog@@ABEPBVQProgressDialogPrivate@@XZ
       4341 10F4 002C9FF0 ?d_func@QProxyModel@@AAEPAVQProxyModelPrivate@@XZ
       4342 10F5 002C9FF0 ?d_func@QProxyModel@@ABEPBVQProxyModelPrivate@@XZ
       4343 10F6 002C9FF0 ?d_func@QPushButton@@AAEPAVQPushButtonPrivate@@XZ
       4344 10F7 002C9FF0 ?d_func@QPushButton@@ABEPBVQPushButtonPrivate@@XZ
       4345 10F8 002C9FF0 ?d_func@QRadioButton@@AAEPAVQRadioButtonPrivate@@XZ
       4346 10F9 002C9FF0 ?d_func@QRadioButton@@ABEPBVQRadioButtonPrivate@@XZ
       4347 10FA 002C9FF0 ?d_func@QRubberBand@@AAEPAVQRubberBandPrivate@@XZ
       4348 10FB 002C9FF0 ?d_func@QRubberBand@@ABEPBVQRubberBandPrivate@@XZ
       4349 10FC 002C9FF0 ?d_func@QScrollArea@@AAEPAVQScrollAreaPrivate@@XZ
       4350 10FD 002C9FF0 ?d_func@QScrollArea@@ABEPBVQScrollAreaPrivate@@XZ
       4351 10FE 002C9FF0 ?d_func@QScrollBar@@AAEPAVQScrollBarPrivate@@XZ
       4352 10FF 002C9FF0 ?d_func@QScrollBar@@ABEPBVQScrollBarPrivate@@XZ
       4353 1100 002C9FF0 ?d_func@QSessionManager@@AAEPAVQSessionManagerPrivate@@XZ
       4354 1101 002C9FF0 ?d_func@QSessionManager@@ABEPBVQSessionManagerPrivate@@XZ
       4355 1102 002C9FF0 ?d_func@QShortcut@@AAEPAVQShortcutPrivate@@XZ
       4356 1103 002C9FF0 ?d_func@QShortcut@@ABEPBVQShortcutPrivate@@XZ
       4357 1104 002C9FF0 ?d_func@QSizeGrip@@AAEPAVQSizeGripPrivate@@XZ
       4358 1105 002C9FF0 ?d_func@QSizeGrip@@ABEPBVQSizeGripPrivate@@XZ
       4359 1106 002C9FF0 ?d_func@QSlider@@AAEPAVQSliderPrivate@@XZ
       4360 1107 002C9FF0 ?d_func@QSlider@@ABEPBVQSliderPrivate@@XZ
       4361 1108 002C9FF0 ?d_func@QSortFilterProxyModel@@AAEPAVQSortFilterProxyModelPrivate@@XZ
       4362 1109 002C9FF0 ?d_func@QSortFilterProxyModel@@ABEPBVQSortFilterProxyModelPrivate@@XZ
       4363 110A 002C9FF0 ?d_func@QSound@@AAEPAVQSoundPrivate@@XZ
       4364 110B 002C9FF0 ?d_func@QSound@@ABEPBVQSoundPrivate@@XZ
       4365 110C 002C9FF0 ?d_func@QSpinBox@@AAEPAVQSpinBoxPrivate@@XZ
       4366 110D 002C9FF0 ?d_func@QSpinBox@@ABEPBVQSpinBoxPrivate@@XZ
       4367 110E 002C9FF0 ?d_func@QSplashScreen@@AAEPAVQSplashScreenPrivate@@XZ
       4368 110F 002C9FF0 ?d_func@QSplashScreen@@ABEPBVQSplashScreenPrivate@@XZ
       4369 1110 002C9FF0 ?d_func@QSplitter@@AAEPAVQSplitterPrivate@@XZ
       4370 1111 002C9FF0 ?d_func@QSplitter@@ABEPBVQSplitterPrivate@@XZ
       4371 1112 002C9FF0 ?d_func@QSplitterHandle@@AAEPAVQSplitterHandlePrivate@@XZ
       4372 1113 002C9FF0 ?d_func@QSplitterHandle@@ABEPBVQSplitterHandlePrivate@@XZ
       4373 1114 002C9FF0 ?d_func@QStackedLayout@@AAEPAVQStackedLayoutPrivate@@XZ
       4374 1115 002C9FF0 ?d_func@QStackedLayout@@ABEPBVQStackedLayoutPrivate@@XZ
       4375 1116 002C9FF0 ?d_func@QStackedWidget@@AAEPAVQStackedWidgetPrivate@@XZ
       4376 1117 002C9FF0 ?d_func@QStackedWidget@@ABEPBVQStackedWidgetPrivate@@XZ
       4377 1118 002C9FF0 ?d_func@QStandardItem@@AAEPAVQStandardItemPrivate@@XZ
       4378 1119 002C9FF0 ?d_func@QStandardItem@@ABEPBVQStandardItemPrivate@@XZ
       4379 111A 002C9FF0 ?d_func@QStandardItemModel@@AAEPAVQStandardItemModelPrivate@@XZ
       4380 111B 002C9FF0 ?d_func@QStandardItemModel@@ABEPBVQStandardItemModelPrivate@@XZ
       4381 111C 002C9FF0 ?d_func@QStatusBar@@AAEPAVQStatusBarPrivate@@XZ
       4382 111D 002C9FF0 ?d_func@QStatusBar@@ABEPBVQStatusBarPrivate@@XZ
       4383 111E 002C9FF0 ?d_func@QStyle@@AAEPAVQStylePrivate@@XZ
       4384 111F 002C9FF0 ?d_func@QStyle@@ABEPBVQStylePrivate@@XZ
       4385 1120 002C9FF0 ?d_func@QStyledItemDelegate@@AAEPAVQStyledItemDelegatePrivate@@XZ
       4386 1121 002C9FF0 ?d_func@QStyledItemDelegate@@ABEPBVQStyledItemDelegatePrivate@@XZ
       4387 1122 002C9FF0 ?d_func@QSyntaxHighlighter@@AAEPAVQSyntaxHighlighterPrivate@@XZ
       4388 1123 002C9FF0 ?d_func@QSyntaxHighlighter@@ABEPBVQSyntaxHighlighterPrivate@@XZ
       4389 1124 002C9FF0 ?d_func@QSystemTrayIcon@@AAEPAVQSystemTrayIconPrivate@@XZ
       4390 1125 002C9FF0 ?d_func@QSystemTrayIcon@@ABEPBVQSystemTrayIconPrivate@@XZ
       4391 1126 002C9FF0 ?d_func@QTabBar@@AAEPAVQTabBarPrivate@@XZ
       4392 1127 002C9FF0 ?d_func@QTabBar@@ABEPBVQTabBarPrivate@@XZ
       4393 1128 002C9FF0 ?d_func@QTabWidget@@AAEPAVQTabWidgetPrivate@@XZ
       4394 1129 002C9FF0 ?d_func@QTabWidget@@ABEPBVQTabWidgetPrivate@@XZ
       4395 112A 002C9FF0 ?d_func@QTableView@@AAEPAVQTableViewPrivate@@XZ
       4396 112B 002C9FF0 ?d_func@QTableView@@ABEPBVQTableViewPrivate@@XZ
       4397 112C 002C9FF0 ?d_func@QTableWidget@@AAEPAVQTableWidgetPrivate@@XZ
       4398 112D 002C9FF0 ?d_func@QTableWidget@@ABEPBVQTableWidgetPrivate@@XZ
       4399 112E 002C9FF0 ?d_func@QTextBlockGroup@@AAEPAVQTextBlockGroupPrivate@@XZ
       4400 112F 002C9FF0 ?d_func@QTextBlockGroup@@ABEPBVQTextBlockGroupPrivate@@XZ
       4401 1130 002C9FF0 ?d_func@QTextBrowser@@AAEPAVQTextBrowserPrivate@@XZ
       4402 1131 002C9FF0 ?d_func@QTextBrowser@@ABEPBVQTextBrowserPrivate@@XZ
       4403 1132 002C9FF0 ?d_func@QTextControl@@AAEPAVQTextControlPrivate@@XZ
       4404 1133 002C9FF0 ?d_func@QTextControl@@ABEPBVQTextControlPrivate@@XZ
       4405 1134 002C9FF0 ?d_func@QTextDocument@@AAEPAVQTextDocumentPrivate@@XZ
       4406 1135 002C9FF0 ?d_func@QTextDocument@@ABEPBVQTextDocumentPrivate@@XZ
       4407 1136 002C9FF0 ?d_func@QTextEdit@@AAEPAVQTextEditPrivate@@XZ
       4408 1137 002C9FF0 ?d_func@QTextEdit@@ABEPBVQTextEditPrivate@@XZ
       4409 1138 002C9FF0 ?d_func@QTextFrame@@AAEPAVQTextFramePrivate@@XZ
       4410 1139 002C9FF0 ?d_func@QTextFrame@@ABEPBVQTextFramePrivate@@XZ
       4411 113A 002C9FF0 ?d_func@QTextList@@AAEPAVQTextListPrivate@@XZ
       4412 113B 002C9FF0 ?d_func@QTextList@@ABEPBVQTextListPrivate@@XZ
       4413 113C 002C9FF0 ?d_func@QTextObject@@AAEPAVQTextObjectPrivate@@XZ
       4414 113D 002C9FF0 ?d_func@QTextObject@@ABEPBVQTextObjectPrivate@@XZ
       4415 113E 002C9FF0 ?d_func@QTextTable@@AAEPAVQTextTablePrivate@@XZ
       4416 113F 002C9FF0 ?d_func@QTextTable@@ABEPBVQTextTablePrivate@@XZ
       4417 1140 002C9FF0 ?d_func@QToolBar@@AAEPAVQToolBarPrivate@@XZ
       4418 1141 002C9FF0 ?d_func@QToolBar@@ABEPBVQToolBarPrivate@@XZ
       4419 1142 002C9FF0 ?d_func@QToolBox@@AAEPAVQToolBoxPrivate@@XZ
       4420 1143 002C9FF0 ?d_func@QToolBox@@ABEPBVQToolBoxPrivate@@XZ
       4421 1144 002C9FF0 ?d_func@QToolButton@@AAEPAVQToolButtonPrivate@@XZ
       4422 1145 002C9FF0 ?d_func@QToolButton@@ABEPBVQToolButtonPrivate@@XZ
       4423 1146 002C9FF0 ?d_func@QTreeView@@AAEPAVQTreeViewPrivate@@XZ
       4424 1147 002C9FF0 ?d_func@QTreeView@@ABEPBVQTreeViewPrivate@@XZ
       4425 1148 002C9FF0 ?d_func@QTreeWidget@@AAEPAVQTreeWidgetPrivate@@XZ
       4426 1149 002C9FF0 ?d_func@QTreeWidget@@ABEPBVQTreeWidgetPrivate@@XZ
       4427 114A 000BF910 ?d_func@QTreeWidgetItemIterator@@AAEPAVQTreeWidgetItemIteratorPrivate@@XZ
       4428 114B 000BF910 ?d_func@QTreeWidgetItemIterator@@ABEPBVQTreeWidgetItemIteratorPrivate@@XZ
       4429 114C 002C9FF0 ?d_func@QUndoGroup@@AAEPAVQUndoGroupPrivate@@XZ
       4430 114D 002C9FF0 ?d_func@QUndoGroup@@ABEPBVQUndoGroupPrivate@@XZ
       4431 114E 002C9FF0 ?d_func@QUndoStack@@AAEPAVQUndoStackPrivate@@XZ
       4432 114F 002C9FF0 ?d_func@QUndoStack@@ABEPBVQUndoStackPrivate@@XZ
       4433 1150 002C9FF0 ?d_func@QUndoView@@AAEPAVQUndoViewPrivate@@XZ
       4434 1151 002C9FF0 ?d_func@QUndoView@@ABEPBVQUndoViewPrivate@@XZ
       4435 1152 002C9FF0 ?d_func@QValidator@@AAEPAVQValidatorPrivate@@XZ
       4436 1153 002C9FF0 ?d_func@QValidator@@ABEPBVQValidatorPrivate@@XZ
       4437 1154 002C9FF0 ?d_func@QWidget@@AAEPAVQWidgetPrivate@@XZ
       4438 1155 002C9FF0 ?d_func@QWidget@@ABEPBVQWidgetPrivate@@XZ
       4439 1156 002C9FF0 ?d_func@QWidgetAction@@AAEPAVQWidgetActionPrivate@@XZ
       4440 1157 002C9FF0 ?d_func@QWidgetAction@@ABEPBVQWidgetActionPrivate@@XZ
       4441 1158 002C9FF0 ?d_func@QWindowsStyle@@AAEPAVQWindowsStylePrivate@@XZ
       4442 1159 002C9FF0 ?d_func@QWindowsStyle@@ABEPBVQWindowsStylePrivate@@XZ
       4443 115A 002C9FF0 ?d_func@QWindowsVistaStyle@@AAEPAVQWindowsVistaStylePrivate@@XZ
       4444 115B 002C9FF0 ?d_func@QWindowsVistaStyle@@ABEPBVQWindowsVistaStylePrivate@@XZ
       4445 115C 002C9FF0 ?d_func@QWindowsXPStyle@@AAEPAVQWindowsXPStylePrivate@@XZ
       4446 115D 002C9FF0 ?d_func@QWindowsXPStyle@@ABEPBVQWindowsXPStylePrivate@@XZ
       4447 115E 002C9FF0 ?d_func@QWizard@@AAEPAVQWizardPrivate@@XZ
       4448 115F 002C9FF0 ?d_func@QWizard@@ABEPBVQWizardPrivate@@XZ
       4449 1160 002C9FF0 ?d_func@QWizardPage@@AAEPAVQWizardPagePrivate@@XZ
       4450 1161 002C9FF0 ?d_func@QWizardPage@@ABEPBVQWizardPagePrivate@@XZ
       4451 1162 002C9FF0 ?d_func@QWorkspace@@AAEPAVQWorkspacePrivate@@XZ
       4452 1163 002C9FF0 ?d_func@QWorkspace@@ABEPBVQWorkspacePrivate@@XZ
       4453 1164 000C4DF0 ?dark@QColor@@QBE?AV1@H@Z
       4454 1165 00449490 ?dark@QColorGroup@@QBEABVQColor@@XZ
       4455 1166 0005AD40 ?dark@QPalette@@QBEABVQBrush@@XZ
       4456 1167 00035EA0 ?darker@QColor@@QBE?AV1@H@Z
       4457 1168 00046700 ?dashOffset@QDashStroker@@QBENXZ
       4458 1169 000DBB30 ?dashOffset@QPainterPathStroker@@QBENXZ
       4459 116A 000E8040 ?dashOffset@QPen@@QBENXZ
       4460 116B 0004C8E0 ?dashPattern@QDashStroker@@QBE?AV?$QVector@N@@XZ
       4461 116C 000DD220 ?dashPattern@QPainterPathStroker@@QBE?AV?$QVector@N@@XZ
       4462 116D 000E8750 ?dashPattern@QPen@@QBE?AV?$QVector@N@@XZ
       4463 116E 003D8C00 ?data@QAbstractProxyModel@@UBE?AVQVariant@@ABVQModelIndex@@H@Z
       4464 116F 00004390 ?data@QAction@@QBE?AVQVariant@@XZ
       4465 1170 0001E5A0 ?data@QClipboard@@QBEPAVQMimeSource@@W4Mode@1@@Z
       4466 1171 002C9FF0 ?data@QClipboardEvent@@QAEPAVQEventPrivate@@XZ
       4467 1172 003B9F20 ?data@QDirModel@@UBE?AVQVariant@@ABVQModelIndex@@H@Z
       4468 1173 0044AB80 ?data@QDropEvent@@QBE?AVQByteArray@@PBD@Z
       4469 1174 003613B0 ?data@QFileSystemModel@@UBE?AVQVariant@@ABVQModelIndex@@H@Z
       4470 1175 00401580 ?data@QGraphicsItem@@QBE?AVQVariant@@H@Z
       4471 1176 003BE550 ?data@QListWidgetItem@@UBE?AVQVariant@@H@Z
       4472 1177 00091790 ?data@QPicture@@QBEPBDXZ
       4473 1178 003D8510 ?data@QProxyModel@@UBE?AVQVariant@@ABVQModelIndex@@H@Z
       4474 1179 003D9770 ?data@QSortFilterProxyModel@@UBE?AVQVariant@@ABVQModelIndex@@H@Z
       4475 117A 003E1CE0 ?data@QStandardItem@@UBE?AVQVariant@@H@Z
       4476 117B 003E2D90 ?data@QStandardItemModel@@UBE?AVQVariant@@ABVQModelIndex@@H@Z
       4477 117C 003E7B20 ?data@QStringListModel@@UBE?AVQVariant@@ABVQModelIndex@@H@Z
       4478 117D 003C5770 ?data@QTableWidgetItem@@UBE?AVQVariant@@H@Z
       4479 117E 003CEBE0 ?data@QTreeWidgetItem@@UBE?AVQVariant@@HH@Z
       4480 117F 003857E0 ?dataChanged@QAbstractItemView@@MAEXABVQModelIndex@@0@Z
       4481 1180 0043EB20 ?dataChanged@QClipboard@@IAEXXZ
       4482 1181 00386C50 ?dataChanged@QHeaderView@@MAEXABVQModelIndex@@0@Z
       4483 1182 00395AE0 ?dataChanged@QListView@@MAEXABVQModelIndex@@0@Z
       4484 1183 003AA050 ?dataChanged@QTreeView@@UAEXABVQModelIndex@@0@Z
       4485 1184 00373080 ?data_ptr@QBrush@@QAEAAPAUQBrushData@@XZ
       4486 1185 00373080 ?data_ptr@QIcon@@QAEAAPAVQIconPrivate@@XZ
       4487 1186 00111D00 ?data_ptr@QImage@@QAEAAPAUQImageData@@XZ
       4488 1187 00373080 ?data_ptr@QKeySequence@@QAEAAPAVQKeySequencePrivate@@XZ
       4489 1188 00373080 ?data_ptr@QPen@@QAEAAPAVQPenPrivate@@XZ
       4490 1189 00111D00 ?data_ptr@QPicture@@QAEAAPAVQPicturePrivate@@XZ
       4491 118A 00111D00 ?data_ptr@QPixmap@@QAEAAPAVQPixmapData@@XZ
       4492 118B 00291F30 ?date@QDateTimeEdit@@QBE?AVQDate@@XZ
       4493 118C 00293450 ?dateChanged@QDateTimeEdit@@IAEXABVQDate@@@Z
       4494 118D 0027FD50 ?dateEditAcceptDelay@QCalendarWidget@@QBEHXZ
       4495 118E 00284760 ?dateTextFormat@QCalendarWidget@@QBE?AV?$QMap@VQDate@@VQTextCharFormat@@@@XZ
       4496 118F 002826B0 ?dateTextFormat@QCalendarWidget@@QBE?AVQTextCharFormat@@ABVQDate@@@Z
       4497 1190 00291F00 ?dateTime@QDateTimeEdit@@QBE?AVQDateTime@@XZ
       4498 1191 002933F0 ?dateTimeChanged@QDateTimeEdit@@IAEXABVQDateTime@@@Z
       4499 1192 00295370 ?dateTimeFromText@QDateTimeEdit@@MBE?AVQDateTime@@ABVQString@@@Z
       4500 1193 00047030 ?deactivateWidgetCleanup@QWidgetPrivate@@QAEXXZ
       4501 1194 002F24A0 ?decimals@QDoubleSpinBox@@QBEHXZ
       4502 1195 00179BF0 ?decimals@QDoubleValidator@@QBEHXZ
       4503 1196 001D3530 ?declarationsForNode@StyleSelector@QCss@@QAE?AV?$QVector@UDeclaration@QCss@@@@TNodePtr@12@PBD@Z
       4504 1197 000307F0 ?decodeString@QKeySequence@@CAHABVQString@@@Z
       4505 1198 003B0830 ?decoration@QItemDelegate@@IBE?AVQPixmap@@ABVQStyleOptionViewItem@@ABVQVariant@@@Z
       4506 1199 000211E0 ?defaultAction@QDragManager@@QBE?AW4DropAction@Qt@@V?$QFlags@W4DropAction@Qt@@@@V?$QFlags@W4KeyboardModifier@Qt@@@@@Z
       4507 119A 002DCA50 ?defaultAction@QMenu@@QBEPAVQAction@@XZ
       4508 119B 002D2800 ?defaultAction@QToolButton@@QBEPAVQAction@@XZ
       4509 119C 00386420 ?defaultAlignment@QHeaderView@@QBE?AV?$QFlags@W4AlignmentFlag@Qt@@@@XZ
       4510 119D 0044B270 ?defaultBorder@QLayout@@QBEHXZ
       4511 119E 002D2800 ?defaultButton@QMessageBox@@QBEPAVQPushButton@@XZ
       4512 119F 00096730 ?defaultDepth@QPixmap@@SAHXZ
       4513 11A0 003E15A0 ?defaultFactory@QItemEditorFactory@@SAPBV1@XZ
       4514 11A1 001D3BA0 ?defaultFamily@QFont@@QBE?AVQString@@XZ
       4515 11A2 0015DBA0 ?defaultFont@QFont@@SA?AV1@XZ
       4516 11A3 00198810 ?defaultFont@QTextDocument@@QBE?AVQFont@@XZ
       4517 11A4 0008EB90 ?defaultFont@QTextFormatCollection@@QBE?AVQFont@@XZ
       4518 11A5 00141220 ?defaultPrinter@QPrinterInfo@@SA?AV1@XZ
       4519 11A6 00385B70 ?defaultSectionSize@QHeaderView@@QBEHXZ
       4520 11A7 001982F0 ?defaultStyleSheet@QTextDocument@@QBE?AVQString@@XZ
       4521 11A8 003427E0 ?defaultSuffix@QFileDialog@@QBE?AVQString@@XZ
       4522 11A9 00400D10 ?defaultTextColor@QGraphicsTextItem@@QBE?AVQColor@@XZ
       4523 11AA 00198250 ?defaultTextOption@QTextDocument@@QBE?AVQTextOption@@XZ
       4524 11AB 00058A80 ?defaultWidget@QWidgetAction@@QBEPAVQWidget@@XZ
       4525 11AC 00094E40 ?defineIOHandler@QPictureIO@@SAXPBD00P6AXPAV1@@Z2@Z
       4526 11AD 002C0550 ?del@QLineEdit@@QAEXXZ
       4527 11AE 0037D730 ?delegateForIndex@QAbstractItemViewPrivate@@QBEPAVQAbstractItemDelegate@@ABVQModelIndex@@@Z
       4528 11AF 0037D840 ?delegateRefCount@QAbstractItemViewPrivate@@QBEHPBVQAbstractItemDelegate@@@Z
       4529 11B0 00030F70 ?deleteAllItems@QLayout@@IAEXXZ
       4530 11B1 001BA8F0 ?deleteChar@QTextCursor@@QAEXXZ
       4531 11B2 0044B2C0 ?deleteCurrent@QLayoutIterator@@QAEXXZ
       4532 11B3 0004F0D0 ?deleteExtra@QWidgetPrivate@@QAEXXZ
       4533 11B4 001BAA20 ?deletePreviousChar@QTextCursor@@QAEXXZ
       4534 11B5 00276040 ?deleteSysExtra@QWidgetPrivate@@QAEXXZ
       4535 11B6 0006EAC0 ?deleteTLSysExtra@QWidgetPrivate@@QAEXXZ
       4536 11B7 00373240 ?deleteText@QAccessibleSimpleEditableTextInterface@@UAEXHH@Z
       4537 11B8 00058A90 ?deleteWidget@QWidgetAction@@MAEXPAVQWidget@@@Z
       4538 11B9 00415060 ?delta@QGraphicsSceneWheelEvent@@QBEHXZ
       4539 11BA 00020DF0 ?delta@QWheelEvent@@QBEHXZ
       4540 11BB 00137E00 ?depth@QColormap@@QBEHXZ
       4541 11BC 00079670 ?depth@QImage@@QBEHXZ
       4542 11BD 00075740 ?depth@QPaintDevice@@QBEHXZ
       4543 11BE 00096550 ?depth@QPixmap@@QBEHXZ
       4544 11BF 00075740 ?depth@QPixmapData@@QBEHXZ
       4545 11C0 000965D0 ?deref@QPixmap@@AAEXXZ
       4546 11C1 000BB310 ?derivedAt@QBezier@@QBE?AVQPointF@@N@Z
       4547 11C2 001646C0 ?descent@QFontEngineMulti@@UBE?AUQFixed@@XZ
       4548 11C3 0016A9D0 ?descent@QFontMetrics@@QBEHXZ
       4549 11C4 0016B270 ?descent@QFontMetricsF@@QBENXZ
       4550 11C5 0018AB70 ?descent@QTextInlineObject@@QBENXZ
       4551 11C6 000CB420 ?descent@QTextItem@@QBENXZ
       4552 11C7 0018A7A0 ?descent@QTextLine@@QBENXZ
       4553 11C8 00290DA0 ?description@QCommandLinkButton@@QBE?AVQString@@XZ
       4554 11C9 0008D760 ?description@QImageWriter@@QBE?AVQString@@XZ
       4555 11CA 003F1D30 ?description@QInputContextFactory@@SA?AVQString@@ABV2@@Z
       4556 11CB 0008D760 ?description@QPictureIO@@QBE?AVQString@@XZ
       4557 11CC 002C0600 ?deselect@QLineEdit@@QAEXXZ
       4558 11CD 00010A30 ?desktop@QApplication@@SAPAVQDesktopWidget@@XZ
       4559 11CE 0000E610 ?desktopSettingsAware@QApplication@@SA_NXZ
       4560 11CF 0006ED20 ?destroy@QWidget@@IAEX_N0@Z
       4561 11D0 00410430 ?destroyItemGroup@QGraphicsScene@@QAEXPAVQGraphicsItemGroup@@@Z
       4562 11D1 000FE700 ?det@QMatrix@@QBENXZ
       4563 11D2 00448970 ?det@QTransform@@QBENXZ
       4564 11D3 001FA0F0 ?detach@?$QList@VQItemSelectionRange@@@@QAEXXZ
       4565 11D4 000C0E80 ?detach@QBrush@@AAEXW4BrushStyle@Qt@@@Z
       4566 11D5 0015D510 ?detach@QFont@@AAEXXZ
       4567 11D6 00076A00 ?detach@QIcon@@QAEXXZ
       4568 11D7 00085EB0 ?detach@QImage@@QAEXXZ
       4569 11D8 000DD340 ?detach@QPainterPath@@AAEXXZ
       4570 11D9 000361E0 ?detach@QPalette@@AAEXXZ
       4571 11DA 000E85E0 ?detach@QPen@@AAEXXZ
       4572 11DB 00094960 ?detach@QPicture@@QAEXXZ
       4573 11DC 00096F50 ?detach@QPixmap@@QAEXXZ
       4574 11DD 000FCD50 ?detach@QRegion@@AAEXXZ
       4575 11DE 001F8AB0 ?detach_helper@?$QList@VQItemSelectionRange@@@@AAEXXZ
       4576 11DF 000DCF00 ?detach_helper@QPainterPath@@AAEXXZ
       4577 11E0 000946C0 ?detach_helper@QPicture@@AAEXXZ
       4578 11E1 00352C10 ?detailedText@QMessageBox@@QBE?AVQString@@XZ
       4579 11E2 00448970 ?determinant@QTransform@@QBENXZ
       4580 11E3 003F4B50 ?devType@QImage@@UBEHXZ
       4581 11E4 002CA4A0 ?devType@QPaintDevice@@UBEHXZ
       4582 11E5 00091740 ?devType@QPicture@@UBEHXZ
       4583 11E6 00001D20 ?devType@QPixmap@@UBEHXZ
       4584 11E7 000F2E20 ?devType@QPrinter@@UBEHXZ
       4585 11E8 00046EC0 ?devType@QWidget@@UBEHXZ
       4586 11E9 00089EB0 ?device@QImageIOHandler@@QBEPAVQIODevice@@XZ
       4587 11EA 00137DF0 ?device@QImageReader@@QBEPAVQIODevice@@XZ
       4588 11EB 00137DF0 ?device@QImageWriter@@QBEPAVQIODevice@@XZ
       4589 11EC 0009ABB0 ?device@QMovie@@QBEPAVQIODevice@@XZ
       4590 11ED 000CFD40 ?device@QPainter@@QBEPAVQPaintDevice@@XZ
       4591 11EE 0000E990 ?device@QTabletEvent@@QBE?AW4TabletDevice@1@XZ
       4592 11EF 000CF0F0 ?deviceMatrix@QPainter@@QBEABVQMatrix@@XZ
       4593 11F0 003F9BB0 ?deviceTransform@QGraphicsItem@@QBE?AVQTransform@@ABV2@@Z
       4594 11F1 000CF870 ?deviceTransform@QPainter@@QBEABVQTransform@@XZ
       4595 11F2 00442DD0 ?dialMoved@QDial@@IAEXH@Z
       4596 11F3 00442DB0 ?dialPressed@QDial@@IAEXXZ
       4597 11F4 00442E00 ?dialReleased@QDial@@IAEXXZ
       4598 11F5 0001B610 ?direction@QBoxLayout@@QBE?AW4Direction@1@XZ
       4599 11F6 003424B0 ?directory@QFileDialog@@QBE?AVQDir@@XZ
       4600 11F7 00343DA0 ?directoryEntered@QFileDialog@@IAEXABVQString@@@Z
       4601 11F8 0037B170 ?dirtyRegionOffset@QAbstractItemView@@IBE?AVQPoint@@XZ
       4602 11F9 0006E4B0 ?dirtyWidget_sys@QWidgetPrivate@@QAEXABVQRegion@@_N@Z
       4603 11FA 00449580 ?disabled@QPalette@@QBE?AVQColorGroup@@XZ
       4604 11FB 000128C0 ?discardCommand@QSessionManager@@QBE?AVQStringList@@XZ
       4605 11FC 003D7D00 ?disconnectFromModel@QProxyModel@@IBEXPBVQAbstractItemModel@@@Z
       4606 11FD 000016B0 ?disconnectItem@QMenu@@QAE_NHPBVQObject@@PBD@Z
       4607 11FE 00001CD0 ?disconnectItem@QMenuBar@@QAE_NHPBVQObject@@PBD@Z
       4608 11FF 000164E0 ?dispatchEnterLeave@QApplicationPrivate@@SAXPAVQWidget@@0@Z
       4609 1200 002B5D70 ?display@QLCDNumber@@QAEXABVQString@@@Z
       4610 1201 002B5CC0 ?display@QLCDNumber@@QAEXH@Z
       4611 1202 002B5C10 ?display@QLCDNumber@@QAEXN@Z
       4612 1203 00293930 ?displayFormat@QDateTimeEdit@@QBE?AVQString@@XZ
       4613 1204 00437E80 ?displayName@QDesktopServices@@SA?AVQString@@W4StandardLocation@1@@Z
       4614 1205 003F1C80 ?displayName@QInputContextFactory@@SA?AVQString@@ABV2@@Z
       4615 1206 002B9C80 ?displayText@QLineEdit@@QBE?AVQString@@XZ
       4616 1207 003F0180 ?displayText@QStyledItemDelegate@@UBE?AVQString@@ABVQVariant@@ABVQLocale@@@Z
       4617 1208 00293860 ?displayedSections@QDateTimeEdit@@QBE?AV?$QFlags@W4Section@QDateTimeEdit@@@@XZ
       4618 1209 00373F20 ?doAction@QAccessibleApplication@@UAE_NHHABV?$QList@VQVariant@@@@@Z
       4619 120A 00096050 ?doAction@QAccessibleObject@@UAE_NHHABV?$QList@VQVariant@@@@@Z
       4620 120B 00096050 ?doAction@QAccessibleObjectEx@@UAE_NHHABV?$QList@VQVariant@@@@@Z
       4621 120C 00374FD0 ?doAction@QAccessibleWidget@@UAE_NHHABV?$QList@VQVariant@@@@@Z
       4622 120D 003751F0 ?doAction@QAccessibleWidgetEx@@UAE_NHHABV?$QList@VQVariant@@@@@Z
       4623 120E 0037BE00 ?doAutoScroll@QAbstractItemView@@IAEXXZ
       4624 120F 0037BDA0 ?doDelayedItemsLayout@QAbstractItemViewPrivate@@QAEXXZ
       4625 1210 00096E00 ?doImageIO@QPixmap@@ABE_NPAVQImageWriter@@H@Z
       4626 1211 0037A950 ?doItemsLayout@QAbstractItemView@@UAEXXZ
       4627 1212 0038DED0 ?doItemsLayout@QHeaderView@@UAEXXZ
       4628 1213 00398CB0 ?doItemsLayout@QListView@@UAEXXZ
       4629 1214 003AC240 ?doItemsLayout@QTreeView@@UAEXXZ
       4630 1215 00162840 ?doKerning@QFontEngine@@UBEXHPAUQGlyphLayout@@V?$QFlags@W4ShaperFlag@QTextEngine@@@@@Z
       4631 1216 00164530 ?doKerning@QFontEngineMulti@@UBEXHPAUQGlyphLayout@@V?$QFlags@W4ShaperFlag@QTextEngine@@@@@Z
       4632 1217 00301AA0 ?doKeyboardAction@QTextEdit@@QAEXW4KeyboardAction@1@@Z
       4633 1218 003AF6C0 ?doLayout@QItemDelegate@@IBEXABVQStyleOptionViewItem@@PAVQRect@@11_N@Z
       4634 1219 00315050 ?doMove@QWidgetResizeHandler@@QAEXXZ
       4635 121A 000327F0 ?doResize@QLayoutPrivate@@QAEXABVQSize@@@Z
       4636 121B 00315910 ?doResize@QWidgetResizeHandler@@QAEXXZ
       4637 121C 000BF910 ?docHandle@QTextBlock@@QBEPAVQTextDocumentPrivate@@XZ
       4638 121D 002C9FF0 ?docHandle@QTextDocument@@QBEPAVQTextDocumentPrivate@@XZ
       4639 121E 00193860 ?docHandle@QTextObject@@QBEPAVQTextDocumentPrivate@@XZ
       4640 121F 0008EC60 ?docLayout@QTextEngine@@QBEPAVQAbstractTextDocumentLayout@@XZ
       4641 1220 000F2FF0 ?docName@QPrinter@@QBE?AVQString@@XZ
       4642 1221 0029C890 ?dockLocationChanged@QDockWidget@@IAEXW4DockWidgetArea@Qt@@@Z
       4643 1222 002C29C0 ?dockOptions@QMainWindow@@QBE?AV?$QFlags@W4DockOption@QMainWindow@@@@XZ
       4644 1223 002C2720 ?dockWidgetArea@QMainWindow@@QBE?AW4DockWidgetArea@Qt@@PAVQDockWidget@@@Z
       4645 1224 0009AC60 ?document@QAbstractTextDocumentLayout@@QBEPAVQTextDocument@@XZ
       4646 1225 00400E10 ?document@QGraphicsTextItem@@QBEPAVQTextDocument@@XZ
       4647 1226 00329DD0 ?document@QPlainTextEdit@@QBEPAVQTextDocument@@XZ
       4648 1227 003B3140 ?document@QSyntaxHighlighter@@QBEPAVQTextDocument@@XZ
       4649 1228 00193B80 ?document@QTextBlock@@QBEPBVQTextDocument@@XZ
       4650 1229 003B3140 ?document@QTextControl@@QBEPAVQTextDocument@@XZ
       4651 122A 00329DD0 ?document@QTextEdit@@QBEPAVQTextDocument@@XZ
       4652 122B 00193850 ?document@QTextObject@@QBEPAVQTextDocument@@XZ
       4653 122C 0032B780 ?documentChanged@QPlainTextDocumentLayout@@MAEXHHH@Z
       4654 122D 00198350 ?documentLayout@QTextDocument@@QBEPAVQAbstractTextDocumentLayout@@XZ
       4655 122E 00440240 ?documentLayoutChanged@QTextDocument@@IAEXXZ
       4656 122F 00329BB0 ?documentSize@QPlainTextDocumentLayout@@UBE?AVQSizeF@@XZ
       4657 1230 001AA2B0 ?documentSizeChanged@QAbstractTextDocumentLayout@@IAEXABVQSizeF@@@Z
       4658 1231 00179A30 ?documentSizeChanged@QTextControl@@IAEXABVQSizeF@@@Z
       4659 1232 0032A380 ?documentTitle@QPlainTextEdit@@QBE?AVQString@@XZ
       4660 1233 00176F80 ?documentTitle@QTextEdit@@QBE?AVQString@@XZ
       4661 1234 0033F100 ?done@QDialog@@UAEXH@Z
       4662 1235 00341BC0 ?done@QErrorMessage@@MAEXH@Z
       4663 1236 00342BC0 ?done@QFileDialog@@MAEXH@Z
       4664 1237 0036F1B0 ?done@QWizard@@MAEXH@Z
       4665 1238 00079B70 ?dotsPerMeterX@QImage@@QBEHXZ
       4666 1239 00079BC0 ?dotsPerMeterY@QImage@@QBEHXZ
       4667 123A 0005A960 ?doubleClickInterval@QApplication@@SAHXZ
       4668 123B 0037B380 ?doubleClicked@QAbstractItemView@@IAEXABVQModelIndex@@@Z
       4669 123C 0018F510 ?doubleProperty@QTextFormat@@QBENH@Z
       4670 123D 000F3F50 ?doubleSidedPrinting@QPrinter@@QBE_NXZ
       4671 123E 00066DB0 ?drag@QDragManager@@QAE?AW4DropAction@Qt@@PAVQDrag@@@Z
       4672 123F 0044AC50 ?dragAccepted@QDragResponseEvent@@QBE_NXZ
       4673 1240 000216A0 ?dragCursor@QDragManager@@QBE?AVQPixmap@@W4DropAction@Qt@@@Z
       4674 1241 0037AB80 ?dragDropMode@QAbstractItemView@@QBE?AW4DragDropMode@1@XZ
       4675 1242 0037AA70 ?dragDropOverwriteMode@QAbstractItemView@@QBE_NXZ
       4676 1243 0037AB10 ?dragEnabled@QAbstractItemView@@QBE_NXZ
       4677 1244 002B9160 ?dragEnabled@QLineEdit@@QBE_NXZ
       4678 1245 00381E80 ?dragEnterEvent@QAbstractItemView@@MAEXPAVQDragEnterEvent@@@Z
       4679 1246 0030DEA0 ?dragEnterEvent@QAbstractScrollArea@@MAEXPAVQDragEnterEvent@@@Z
       4680 1247 0030DEA0 ?dragEnterEvent@QGraphicsItem@@MAEXPAVQGraphicsSceneDragDropEvent@@@Z
       4681 1248 00404BE0 ?dragEnterEvent@QGraphicsScene@@MAEXPAVQGraphicsSceneDragDropEvent@@@Z
       4682 1249 003F5720 ?dragEnterEvent@QGraphicsTextItem@@MAEXPAVQGraphicsSceneDragDropEvent@@@Z
       4683 124A 00418AC0 ?dragEnterEvent@QGraphicsView@@MAEXPAVQDragEnterEvent@@@Z
       4684 124B 002BC700 ?dragEnterEvent@QLineEdit@@MAEXPAVQDragEnterEvent@@@Z
       4685 124C 0032D4B0 ?dragEnterEvent@QPlainTextEdit@@MAEXPAVQDragEnterEvent@@@Z
       4686 124D 003036C0 ?dragEnterEvent@QTextEdit@@MAEXPAVQDragEnterEvent@@@Z
       4687 124E 0030DEA0 ?dragEnterEvent@QWidget@@MAEXPAVQDragEnterEvent@@@Z
       4688 124F 0037BB60 ?dragLeaveEvent@QAbstractItemView@@MAEXPAVQDragLeaveEvent@@@Z
       4689 1250 0030DEA0 ?dragLeaveEvent@QAbstractScrollArea@@MAEXPAVQDragLeaveEvent@@@Z
       4690 1251 0030DEA0 ?dragLeaveEvent@QGraphicsItem@@MAEXPAVQGraphicsSceneDragDropEvent@@@Z
       4691 1252 00407710 ?dragLeaveEvent@QGraphicsScene@@MAEXPAVQGraphicsSceneDragDropEvent@@@Z
       4692 1253 003F5720 ?dragLeaveEvent@QGraphicsTextItem@@MAEXPAVQGraphicsSceneDragDropEvent@@@Z
       4693 1254 004175D0 ?dragLeaveEvent@QGraphicsView@@MAEXPAVQDragLeaveEvent@@@Z
       4694 1255 002B9460 ?dragLeaveEvent@QLineEdit@@MAEXPAVQDragLeaveEvent@@@Z
       4695 1256 00391050 ?dragLeaveEvent@QListView@@MAEXPAVQDragLeaveEvent@@@Z
       4696 1257 0032D510 ?dragLeaveEvent@QPlainTextEdit@@MAEXPAVQDragLeaveEvent@@@Z
       4697 1258 003036D0 ?dragLeaveEvent@QTextEdit@@MAEXPAVQDragLeaveEvent@@@Z
       4698 1259 0030DEA0 ?dragLeaveEvent@QWidget@@MAEXPAVQDragLeaveEvent@@@Z
       4699 125A 00416310 ?dragMode@QGraphicsView@@QBE?AW4DragMode@1@XZ
       4700 125B 00381EE0 ?dragMoveEvent@QAbstractItemView@@MAEXPAVQDragMoveEvent@@@Z
       4701 125C 0030DEA0 ?dragMoveEvent@QAbstractScrollArea@@MAEXPAVQDragMoveEvent@@@Z
       4702 125D 0030DEA0 ?dragMoveEvent@QGraphicsItem@@MAEXPAVQGraphicsSceneDragDropEvent@@@Z
       4703 125E 00412210 ?dragMoveEvent@QGraphicsScene@@MAEXPAVQGraphicsSceneDragDropEvent@@@Z
       4704 125F 003F5720 ?dragMoveEvent@QGraphicsTextItem@@MAEXPAVQGraphicsSceneDragDropEvent@@@Z
       4705 1260 00418BA0 ?dragMoveEvent@QGraphicsView@@MAEXPAVQDragMoveEvent@@@Z
       4706 1261 002BC600 ?dragMoveEvent@QLineEdit@@MAEXPAVQDragMoveEvent@@@Z
       4707 1262 00396660 ?dragMoveEvent@QListView@@MAEXPAVQDragMoveEvent@@@Z
       4708 1263 0032D4C0 ?dragMoveEvent@QPlainTextEdit@@MAEXPAVQDragMoveEvent@@@Z
       4709 1264 00303700 ?dragMoveEvent@QTextEdit@@MAEXPAVQDragMoveEvent@@@Z
       4710 1265 003A0FE0 ?dragMoveEvent@QTreeView@@MAEXPAVQDragMoveEvent@@@Z
       4711 1266 0030DEA0 ?dragMoveEvent@QWidget@@MAEXPAVQDragMoveEvent@@@Z
       4712 1267 00006130 ?dragPrivate@QDragManager@@QBEPAVQDragPrivate@@XZ
       4713 1268 00006140 ?dragPrivate@QDragManager@@SAPAVQDragPrivate@@PAVQDrag@@@Z
       4714 1269 00177610 ?draggingSlider@QScrollBar@@QAE_NXZ
       4715 126A 0009E100 ?draw@QPlainTextDocumentLayout@@UAEXPAVQPainter@@ABUPaintContext@QAbstractTextDocumentLayout@@@Z
       4716 126B 0018E6F0 ?draw@QTextLayout@@QBEXPAVQPainter@@ABVQPointF@@ABV?$QVector@UFormatRange@QTextLayout@@@@ABVQRectF@@@Z
       4717 126C 0018D7E0 ?draw@QTextLine@@QBEXPAVQPainter@@ABVQPointF@@PBUFormatRange@QTextLayout@@@Z
       4718 126D 001DCC10 ?drawArc@QPainter@@QAEXABVQRect@@HH@Z
       4719 126E 000D0BC0 ?drawArc@QPainter@@QAEXABVQRectF@@HH@Z
       4720 126F 0044BDF0 ?drawArc@QPainter@@QAEXHHHHHH@Z
       4721 1270 00405250 ?drawBackground@QGraphicsScene@@MAEXPAVQPainter@@ABVQRectF@@@Z
       4722 1271 00417990 ?drawBackground@QGraphicsView@@MAEXPAVQPainter@@ABVQRectF@@@Z
       4723 1272 003B06E0 ?drawBackground@QItemDelegate@@IBEXPAVQPainter@@ABVQStyleOptionViewItem@@ABVQModelIndex@@@Z
       4724 1273 002AFC00 ?drawBase@QTabBar@@QBE_NXZ
       4725 1274 003A4F80 ?drawBranches@QTreeView@@MBEXPAVQPainter@@ABVQRect@@ABVQModelIndex@@@Z
       4726 1275 003B05E0 ?drawCheck@QItemDelegate@@MBEXPAVQPainter@@ABVQStyleOptionViewItem@@ABVQRect@@W4CheckState@Qt@@@Z
       4727 1276 0044BEC0 ?drawChord@QPainter@@QAEXABVQRect@@HH@Z
       4728 1277 000D0020 ?drawChord@QPainter@@QAEXABVQRectF@@HH@Z
       4729 1278 0044BEF0 ?drawChord@QPainter@@QAEXHHHHHH@Z
       4730 1279 0025AA90 ?drawComplexControl@QCleanlooksStyle@@UBEXW4ComplexControl@QStyle@@PBVQStyleOptionComplex@@PAVQPainter@@PBVQWidget@@@Z
       4731 127A 001EC730 ?drawComplexControl@QCommonStyle@@UBEXW4ComplexControl@QStyle@@PBVQStyleOptionComplex@@PAVQPainter@@PBVQWidget@@@Z
       4732 127B 00273E50 ?drawComplexControl@QMotifStyle@@UBEXW4ComplexControl@QStyle@@PBVQStyleOptionComplex@@PAVQPainter@@PBVQWidget@@@Z
       4733 127C 00242B60 ?drawComplexControl@QPlastiqueStyle@@UBEXW4ComplexControl@QStyle@@PBVQStyleOptionComplex@@PAVQPainter@@PBVQWidget@@@Z
       4734 127D 0026A970 ?drawComplexControl@QWindowsStyle@@UBEXW4ComplexControl@QStyle@@PBVQStyleOptionComplex@@PAVQPainter@@PBVQWidget@@@Z
       4735 127E 0021B100 ?drawComplexControl@QWindowsVistaStyle@@UBEXW4ComplexControl@QStyle@@PBVQStyleOptionComplex@@PAVQPainter@@PBVQWidget@@@Z
       4736 127F 002255D0 ?drawComplexControl@QWindowsXPStyle@@UBEXW4ComplexControl@QStyle@@PBVQStyleOptionComplex@@PAVQPainter@@PBVQWidget@@@Z
       4737 1280 002F5060 ?drawContents@QSplashScreen@@MAEXPAVQPainter@@@Z
       4738 1281 001816C0 ?drawContents@QTextControl@@QAEXPAVQPainter@@ABVQRectF@@PAVQWidget@@@Z
       4739 1282 0019DD10 ?drawContents@QTextDocument@@QAEXPAVQPainter@@ABVQRectF@@@Z
       4740 1283 002120A0 ?drawControl@QCDEStyle@@UBEXW4ControlElement@QStyle@@PBVQStyleOption@@PAVQPainter@@PBVQWidget@@@Z
       4741 1284 00255760 ?drawControl@QCleanlooksStyle@@UBEXW4ControlElement@QStyle@@PBVQStyleOption@@PAVQPainter@@PBVQWidget@@@Z
       4742 1285 001E5630 ?drawControl@QCommonStyle@@UBEXW4ControlElement@QStyle@@PBVQStyleOption@@PAVQPainter@@PBVQWidget@@@Z
       4743 1286 002715A0 ?drawControl@QMotifStyle@@UBEXW4ControlElement@QStyle@@PBVQStyleOption@@PAVQPainter@@PBVQWidget@@@Z
       4744 1287 00238840 ?drawControl@QPlastiqueStyle@@UBEXW4ControlElement@QStyle@@PBVQStyleOption@@PAVQPainter@@PBVQWidget@@@Z
       4745 1288 00267010 ?drawControl@QWindowsStyle@@UBEXW4ControlElement@QStyle@@PBVQStyleOption@@PAVQPainter@@PBVQWidget@@@Z
       4746 1289 002181A0 ?drawControl@QWindowsVistaStyle@@UBEXW4ControlElement@QStyle@@PBVQStyleOption@@PAVQPainter@@PBVQWidget@@@Z
       4747 128A 002232A0 ?drawControl@QWindowsXPStyle@@UBEXW4ControlElement@QStyle@@PBVQStyleOption@@PAVQPainter@@PBVQWidget@@@Z
       4748 128B 0044BBB0 ?drawConvexPolygon@QPainter@@QAEXABVQPolygon@@@Z
       4749 128C 0044BB00 ?drawConvexPolygon@QPainter@@QAEXABVQPolygon@@HH@Z
       4750 128D 000C5FD0 ?drawConvexPolygon@QPainter@@QAEXABVQPolygonF@@@Z
       4751 128E 0044BAC0 ?drawConvexPolygon@QPainter@@QAEXABVQPolygonF@@HH@Z
       4752 128F 000D7680 ?drawConvexPolygon@QPainter@@QAEXPBVQPoint@@H@Z
       4753 1290 000D77B0 ?drawConvexPolygon@QPainter@@QAEXPBVQPointF@@H@Z
       4754 1291 000D0E40 ?drawCubicBezier@QPainter@@QAEXABVQPolygon@@H@Z
       4755 1292 0018EE50 ?drawCursor@QTextLayout@@QBEXPAVQPainter@@ABVQPointF@@H@Z
       4756 1293 0018D250 ?drawCursor@QTextLayout@@QBEXPAVQPainter@@ABVQPointF@@HH@Z
       4757 1294 003B03D0 ?drawDecoration@QItemDelegate@@MBEXPAVQPainter@@ABVQStyleOptionViewItem@@ABVQRect@@ABVQPixmap@@@Z
       4758 1295 003B1EF0 ?drawDisplay@QItemDelegate@@MBEXPAVQPainter@@ABVQStyleOptionViewItem@@ABVQRect@@ABVQString@@@Z
       4759 1296 000CB630 ?drawEllipse@QPaintEngine@@UAEXABVQRect@@@Z
       4760 1297 000CBE60 ?drawEllipse@QPaintEngine@@UAEXABVQRectF@@@Z
       4761 1298 0044BDA0 ?drawEllipse@QPainter@@QAEXABVQPoint@@HH@Z
       4762 1299 0044BD30 ?drawEllipse@QPainter@@QAEXABVQPointF@@NN@Z
       4763 129A 000D69F0 ?drawEllipse@QPainter@@QAEXABVQRect@@@Z
       4764 129B 000D68D0 ?drawEllipse@QPainter@@QAEXABVQRectF@@@Z
       4765 129C 0044BCF0 ?drawEllipse@QPainter@@QAEXHHHH@Z
       4766 129D 003B04C0 ?drawFocus@QItemDelegate@@MBEXPAVQPainter@@ABVQStyleOptionViewItem@@ABVQRect@@@Z
       4767 129E 00405320 ?drawForeground@QGraphicsScene@@MAEXPAVQPainter@@ABVQRectF@@@Z
       4768 129F 004179D0 ?drawForeground@QGraphicsView@@MAEXPAVQPainter@@ABVQRectF@@@Z
       4769 12A0 002AF320 ?drawFrame@QFrame@@IAEXPAVQPainter@@@Z
       4770 12A1 000CC410 ?drawImage@QPaintEngine@@UAEXABVQRectF@@ABVQImage@@0V?$QFlags@W4ImageConversionFlag@Qt@@@@@Z
       4771 12A2 0007ED00 ?drawImage@QPainter@@QAEXABVQPoint@@ABVQImage@@@Z
       4772 12A3 0007EC90 ?drawImage@QPainter@@QAEXABVQPoint@@ABVQImage@@ABVQRect@@V?$QFlags@W4ImageConversionFlag@Qt@@@@@Z
       4773 12A4 0044D3C0 ?drawImage@QPainter@@QAEXABVQPointF@@ABVQImage@@@Z
       4774 12A5 0044D2F0 ?drawImage@QPainter@@QAEXABVQPointF@@ABVQImage@@ABVQRectF@@V?$QFlags@W4ImageConversionFlag@Qt@@@@@Z
       4775 12A6 0007EC40 ?drawImage@QPainter@@QAEXABVQRect@@ABVQImage@@0V?$QFlags@W4ImageConversionFlag@Qt@@@@@Z
       4776 12A7 0013A710 ?drawImage@QPainter@@QAEXABVQRect@@ABVQImage@@@Z
       4777 12A8 000D7A60 ?drawImage@QPainter@@QAEXABVQRectF@@ABVQImage@@0V?$QFlags@W4ImageConversionFlag@Qt@@@@@Z
       4778 12A9 0044D360 ?drawImage@QPainter@@QAEXABVQRectF@@ABVQImage@@@Z
       4779 12AA 0022C6F0 ?drawImage@QPainter@@QAEXHHABVQImage@@HHHHV?$QFlags@W4ImageConversionFlag@Qt@@@@@Z
       4780 12AB 001AA670 ?drawInlineObject@QAbstractTextDocumentLayout@@MAEXPAVQPainter@@ABVQRectF@@VQTextInlineObject@@HABVQTextFormat@@@Z
       4781 12AC 0024AAA0 ?drawItemPixmap@QCleanlooksStyle@@UBEXPAVQPainter@@ABVQRect@@HABVQPixmap@@@Z
       4782 12AD 001D8BC0 ?drawItemPixmap@QStyle@@UBEXPAVQPainter@@ABVQRect@@HABVQPixmap@@@Z
       4783 12AE 0024ACD0 ?drawItemText@QCleanlooksStyle@@UBEXPAVQPainter@@ABVQRect@@HABVQPalette@@_NABVQString@@W4ColorRole@4@@Z
       4784 12AF 001D82C0 ?drawItemText@QStyle@@UBEXPAVQPainter@@ABVQRect@@HABVQPalette@@_NABVQString@@W4ColorRole@4@@Z
       4785 12B0 004083E0 ?drawItems@QGraphicsScene@@MAEXPAVQPainter@@HQAPAVQGraphicsItem@@QBVQStyleOptionGraphicsItem@@PAVQWidget@@@Z
       4786 12B1 00417A10 ?drawItems@QGraphicsView@@MAEXPAVQPainter@@HQAPAVQGraphicsItem@@QBVQStyleOptionGraphicsItem@@@Z
       4787 12B2 00229310 ?drawLine@QPainter@@QAEXABVQLine@@@Z
       4788 12B3 00091EB0 ?drawLine@QPainter@@QAEXABVQLineF@@@Z
       4789 12B4 00091EC0 ?drawLine@QPainter@@QAEXABVQPoint@@0@Z
       4790 12B5 00091EF0 ?drawLine@QPainter@@QAEXABVQPointF@@0@Z
       4791 12B6 000445F0 ?drawLine@QPainter@@QAEXHHHH@Z
       4792 12B7 000D6B40 ?drawLineSegments@QPainter@@QAEXABVQPolygon@@HH@Z
       4793 12B8 000CB870 ?drawLines@QPaintEngine@@UAEXPBVQLine@@H@Z
       4794 12B9 000CC910 ?drawLines@QPaintEngine@@UAEXPBVQLineF@@H@Z
       4795 12BA 0044D290 ?drawLines@QPainter@@QAEXABV?$QVector@VQLine@@@@@Z
       4796 12BB 000CAA90 ?drawLines@QPainter@@QAEXABV?$QVector@VQLineF@@@@@Z
       4797 12BC 00091F20 ?drawLines@QPainter@@QAEXABV?$QVector@VQPoint@@@@@Z
       4798 12BD 001DCBE0 ?drawLines@QPainter@@QAEXABV?$QVector@VQPointF@@@@@Z
       4799 12BE 000D7040 ?drawLines@QPainter@@QAEXPBVQLine@@H@Z
       4800 12BF 000D6E80 ?drawLines@QPainter@@QAEXPBVQLineF@@H@Z
       4801 12C0 000D7220 ?drawLines@QPainter@@QAEXPBVQPoint@@H@Z
       4802 12C1 000D7210 ?drawLines@QPainter@@QAEXPBVQPointF@@H@Z
       4803 12C2 001C2220 ?drawObject@QTextImageHandler@@UAEXPAVQPainter@@ABVQRectF@@PAVQTextDocument@@HABVQTextFormat@@@Z
       4804 12C3 000CC6E0 ?drawPath@QPaintEngine@@UAEXABVQPainterPath@@@Z
       4805 12C4 000CFE30 ?drawPath@QPainter@@QAEXABVQPainterPath@@@Z
       4806 12C5 00139A10 ?drawPicture@QPainter@@QAEXABVQPoint@@ABVQPicture@@@Z
       4807 12C6 000D3830 ?drawPicture@QPainter@@QAEXABVQPointF@@ABVQPicture@@@Z
       4808 12C7 0013A790 ?drawPicture@QPainter@@QAEXHHABVQPicture@@@Z
       4809 12C8 0044BE40 ?drawPie@QPainter@@QAEXABVQRect@@HH@Z
       4810 12C9 000CFE80 ?drawPie@QPainter@@QAEXABVQRectF@@HH@Z
       4811 12CA 0044BE70 ?drawPie@QPainter@@QAEXHHHHHH@Z
       4812 12CB 00092160 ?drawPixmap@QPainter@@QAEXABVQPoint@@ABVQPixmap@@@Z
       4813 12CC 00064E70 ?drawPixmap@QPainter@@QAEXABVQPoint@@ABVQPixmap@@ABVQRect@@@Z
       4814 12CD 000920F0 ?drawPixmap@QPainter@@QAEXABVQPointF@@ABVQPixmap@@@Z
       4815 12CE 0044BFC0 ?drawPixmap@QPainter@@QAEXABVQPointF@@ABVQPixmap@@ABVQRectF@@@Z
       4816 12CF 000920B0 ?drawPixmap@QPainter@@QAEXABVQRect@@ABVQPixmap@@0@Z
       4817 12D0 00076D10 ?drawPixmap@QPainter@@QAEXABVQRect@@ABVQPixmap@@@Z
       4818 12D1 000D89F0 ?drawPixmap@QPainter@@QAEXABVQRectF@@ABVQPixmap@@0@Z
       4819 12D2 000446B0 ?drawPixmap@QPainter@@QAEXHHABVQPixmap@@@Z
       4820 12D3 00096740 ?drawPixmap@QPainter@@QAEXHHABVQPixmap@@HHHH@Z
       4821 12D4 00229320 ?drawPixmap@QPainter@@QAEXHHHHABVQPixmap@@@Z
       4822 12D5 0044BF40 ?drawPixmap@QPainter@@QAEXHHHHABVQPixmap@@HHHH@Z
       4823 12D6 00092030 ?drawPoint@QPainter@@QAEXABVQPoint@@@Z
       4824 12D7 00092020 ?drawPoint@QPainter@@QAEXABVQPointF@@@Z
       4825 12D8 00044680 ?drawPoint@QPainter@@QAEXHH@Z
       4826 12D9 000CB5A0 ?drawPoints@QPaintEngine@@UAEXPBVQPoint@@H@Z
       4827 12DA 000CB510 ?drawPoints@QPaintEngine@@UAEXPBVQPointF@@H@Z
       4828 12DB 00262650 ?drawPoints@QPainter@@QAEXABVQPolygon@@@Z
       4829 12DC 0044B9A0 ?drawPoints@QPainter@@QAEXABVQPolygon@@HH@Z
       4830 12DD 0044BBE0 ?drawPoints@QPainter@@QAEXABVQPolygonF@@@Z
       4831 12DE 000D6620 ?drawPoints@QPainter@@QAEXPBVQPoint@@H@Z
       4832 12DF 000D63A0 ?drawPoints@QPainter@@QAEXPBVQPointF@@H@Z
       4833 12E0 000CBD20 ?drawPolygon@QPaintEngine@@UAEXPBVQPoint@@HW4PolygonDrawMode@1@@Z
       4834 12E1 000CBB80 ?drawPolygon@QPaintEngine@@UAEXPBVQPointF@@HW4PolygonDrawMode@1@@Z
       4835 12E2 00091FE0 ?drawPolygon@QPainter@@QAEXABVQPolygon@@W4FillRule@Qt@@@Z
       4836 12E3 0044BA20 ?drawPolygon@QPainter@@QAEXABVQPolygon@@_NHH@Z
       4837 12E4 00091FB0 ?drawPolygon@QPainter@@QAEXABVQPolygonF@@W4FillRule@Qt@@@Z
       4838 12E5 0044BA70 ?drawPolygon@QPainter@@QAEXABVQPolygonF@@_NHH@Z
       4839 12E6 000D7550 ?drawPolygon@QPainter@@QAEXPBVQPoint@@HW4FillRule@Qt@@@Z
       4840 12E7 000D7440 ?drawPolygon@QPainter@@QAEXPBVQPointF@@HW4FillRule@Qt@@@Z
       4841 12E8 00091F80 ?drawPolyline@QPainter@@QAEXABVQPolygon@@@Z
       4842 12E9 0044B9E0 ?drawPolyline@QPainter@@QAEXABVQPolygon@@HH@Z
       4843 12EA 00091F50 ?drawPolyline@QPainter@@QAEXABVQPolygonF@@@Z
       4844 12EB 000D7320 ?drawPolyline@QPainter@@QAEXPBVQPoint@@H@Z
       4845 12EC 000D7230 ?drawPolyline@QPainter@@QAEXPBVQPointF@@H@Z
       4846 12ED 00212250 ?drawPrimitive@QCDEStyle@@UBEXW4PrimitiveElement@QStyle@@PBVQStyleOption@@PAVQPainter@@PBVQWidget@@@Z
       4847 12EE 0024F650 ?drawPrimitive@QCleanlooksStyle@@UBEXW4PrimitiveElement@QStyle@@PBVQStyleOption@@PAVQPainter@@PBVQWidget@@@Z
       4848 12EF 001EFD30 ?drawPrimitive@QCommonStyle@@UBEXW4PrimitiveElement@QStyle@@PBVQStyleOption@@PAVQPainter@@PBVQWidget@@@Z
       4849 12F0 0026F660 ?drawPrimitive@QMotifStyle@@UBEXW4PrimitiveElement@QStyle@@PBVQStyleOption@@PAVQPainter@@PBVQWidget@@@Z
       4850 12F1 00232100 ?drawPrimitive@QPlastiqueStyle@@UBEXW4PrimitiveElement@QStyle@@PBVQStyleOption@@PAVQPainter@@PBVQWidget@@@Z
       4851 12F2 00264A90 ?drawPrimitive@QWindowsStyle@@UBEXW4PrimitiveElement@QStyle@@PBVQStyleOption@@PAVQPainter@@PBVQWidget@@@Z
       4852 12F3 00216480 ?drawPrimitive@QWindowsVistaStyle@@UBEXW4PrimitiveElement@QStyle@@PBVQStyleOption@@PAVQPainter@@PBVQWidget@@@Z
       4853 12F4 002213E0 ?drawPrimitive@QWindowsXPStyle@@UBEXW4PrimitiveElement@QStyle@@PBVQStyleOption@@PAVQPainter@@PBVQWidget@@@Z
       4854 12F5 00044670 ?drawRect@QPainter@@QAEXABVQRect@@@Z
       4855 12F6 00092010 ?drawRect@QPainter@@QAEXABVQRectF@@@Z
       4856 12F7 00044630 ?drawRect@QPainter@@QAEXHHHH@Z
       4857 12F8 000CB930 ?drawRects@QPaintEngine@@UAEXPBVQRect@@H@Z
       4858 12F9 000CCF20 ?drawRects@QPaintEngine@@UAEXPBVQRectF@@H@Z
       4859 12FA 0044D2D0 ?drawRects@QPainter@@QAEXABV?$QVector@VQRect@@@@@Z
       4860 12FB 0044D2B0 ?drawRects@QPainter@@QAEXABV?$QVector@VQRectF@@@@@Z
       4861 12FC 000D6120 ?drawRects@QPainter@@QAEXPBVQRect@@H@Z
       4862 12FD 000D5F00 ?drawRects@QPainter@@QAEXPBVQRectF@@H@Z
       4863 12FE 0044BC60 ?drawRoundRect@QPainter@@QAEXABVQRect@@HH@Z
       4864 12FF 000D79A0 ?drawRoundRect@QPainter@@QAEXABVQRectF@@HH@Z
       4865 1300 0044BC10 ?drawRoundRect@QPainter@@QAEXHHHHHH@Z
       4866 1301 00092040 ?drawRoundedRect@QPainter@@QAEXABVQRect@@NNW4SizeMode@Qt@@@Z
       4867 1302 000D78C0 ?drawRoundedRect@QPainter@@QAEXABVQRectF@@NNW4SizeMode@Qt@@@Z
       4868 1303 0044BC90 ?drawRoundedRect@QPainter@@QAEXHHHHNNW4SizeMode@Qt@@@Z
       4869 1304 003A41C0 ?drawRow@QTreeView@@MBEXPAVQPainter@@ABVQStyleOptionViewItem@@ABVQModelIndex@@@Z
       4870 1305 000921E0 ?drawText@QPainter@@QAEXABVQPoint@@ABVQString@@@Z
       4871 1306 0044D210 ?drawText@QPainter@@QAEXABVQPoint@@ABVQString@@H@Z
       4872 1307 0044D0F0 ?drawText@QPainter@@QAEXABVQPoint@@ABVQString@@HH@Z
       4873 1308 000DA710 ?drawText@QPainter@@QAEXABVQPointF@@ABVQString@@@Z
       4874 1309 000DA0D0 ?drawText@QPainter@@QAEXABVQPointF@@ABVQString@@HH@Z
       4875 130A 0044B730 ?drawText@QPainter@@QAEXABVQRect@@HABVQString@@HPAV2@@Z
       4876 130B 000D4F70 ?drawText@QPainter@@QAEXABVQRect@@HABVQString@@PAV2@@Z
       4877 130C 000D50C0 ?drawText@QPainter@@QAEXABVQRectF@@ABVQString@@ABVQTextOption@@@Z
       4878 130D 000D5050 ?drawText@QPainter@@QAEXABVQRectF@@HABVQString@@PAV2@@Z
       4879 130E 00047D90 ?drawText@QPainter@@QAEXHHABVQString@@@Z
       4880 130F 0044D180 ?drawText@QPainter@@QAEXHHABVQString@@H@Z
       4881 1310 0044D050 ?drawText@QPainter@@QAEXHHABVQString@@HH@Z
       4882 1311 0044B7B0 ?drawText@QPainter@@QAEXHHHHHABVQString@@HPAVQRect@@@Z
       4883 1312 000C8500 ?drawText@QPainter@@QAEXHHHHHABVQString@@PAVQRect@@@Z
       4884 1313 00449B90 ?drawText@QWidget@@QAEXABVQPoint@@ABVQString@@@Z
       4885 1314 00449BC0 ?drawText@QWidget@@QAEXHHABVQString@@@Z
       4886 1315 000CCCF0 ?drawTextItem@QPaintEngine@@UAEXABVQPointF@@ABVQTextItem@@@Z
       4887 1316 0044C060 ?drawTextItem@QPainter@@QAEXABVQPoint@@ABVQTextItem@@@Z
       4888 1317 000D91F0 ?drawTextItem@QPainter@@QAEXABVQPointF@@ABVQTextItem@@@Z
       4889 1318 0044C020 ?drawTextItem@QPainter@@QAEXHHABVQTextItem@@@Z
       4890 1319 00049240 ?drawText_helper@QWidget@@AAEXHHABVQString@@@Z
       4891 131A 000CC120 ?drawTiledPixmap@QPaintEngine@@UAEXABVQRectF@@ABVQPixmap@@ABVQPointF@@@Z
       4892 131B 00047C60 ?drawTiledPixmap@QPainter@@QAEXABVQRect@@ABVQPixmap@@ABVQPoint@@@Z
       4893 131C 000D99C0 ?drawTiledPixmap@QPainter@@QAEXABVQRectF@@ABVQPixmap@@ABVQPointF@@@Z
       4894 131D 001DCC40 ?drawTiledPixmap@QPainter@@QAEXHHHHABVQPixmap@@HH@Z
       4895 131E 003A7CD0 ?drawTree@QTreeView@@IBEXPAVQPainter@@ABVQRegion@@@Z
       4896 131F 00052450 ?drawWidget@QWidgetPrivate@@QAEXPAVQPaintDevice@@ABVQRegion@@ABVQPoint@@HPAVQPainter@@@Z
       4897 1320 00276040 ?drop@QDragManager@@QAEXXZ
       4898 1321 00365590 ?dropAction@QDropEvent@@QBE?AW4DropAction@Qt@@XZ
       4899 1322 00415260 ?dropAction@QGraphicsSceneDragDropEvent@@QBE?AW4DropAction@Qt@@XZ
       4900 1323 00380830 ?dropEvent@QAbstractItemView@@MAEXPAVQDropEvent@@@Z
       4901 1324 0030DEA0 ?dropEvent@QAbstractScrollArea@@MAEXPAVQDropEvent@@@Z
       4902 1325 0030DEA0 ?dropEvent@QGraphicsItem@@MAEXPAVQGraphicsSceneDragDropEvent@@@Z
       4903 1326 00407710 ?dropEvent@QGraphicsScene@@MAEXPAVQGraphicsSceneDragDropEvent@@@Z
       4904 1327 003F5720 ?dropEvent@QGraphicsTextItem@@MAEXPAVQGraphicsSceneDragDropEvent@@@Z
       4905 1328 004189C0 ?dropEvent@QGraphicsView@@MAEXPAVQDropEvent@@@Z
       4906 1329 002C0DB0 ?dropEvent@QLineEdit@@MAEXPAVQDropEvent@@@Z
       4907 132A 00396940 ?dropEvent@QListView@@MAEXPAVQDropEvent@@@Z
       4908 132B 003C3400 ?dropEvent@QListWidget@@UAEXPAVQDropEvent@@@Z
       4909 132C 0032D510 ?dropEvent@QPlainTextEdit@@MAEXPAVQDropEvent@@@Z
       4910 132D 003CC190 ?dropEvent@QTableWidget@@MAEXPAVQDropEvent@@@Z
       4911 132E 003036D0 ?dropEvent@QTextEdit@@MAEXPAVQDropEvent@@@Z
       4912 132F 003D3FB0 ?dropEvent@QTreeWidget@@MAEXPAVQDropEvent@@@Z
       4913 1330 0030DEA0 ?dropEvent@QWidget@@MAEXPAVQDropEvent@@@Z
       4914 1331 0037ACA0 ?dropIndicatorPosition@QAbstractItemView@@IBE?AW4DropIndicatorPosition@1@XZ
       4915 1332 003BD840 ?dropMimeData@QDirModel@@UAE_NPBVQMimeData@@W4DropAction@Qt@@HHABVQModelIndex@@@Z
       4916 1333 00362150 ?dropMimeData@QFileSystemModel@@UAE_NPBVQMimeData@@W4DropAction@Qt@@HHABVQModelIndex@@@Z
       4917 1334 003C04B0 ?dropMimeData@QListWidget@@MAE_NHPBVQMimeData@@W4DropAction@Qt@@@Z
       4918 1335 003D85F0 ?dropMimeData@QProxyModel@@UAE_NPBVQMimeData@@W4DropAction@Qt@@HHABVQModelIndex@@@Z
       4919 1336 003D98F0 ?dropMimeData@QSortFilterProxyModel@@UAE_NPBVQMimeData@@W4DropAction@Qt@@HHABVQModelIndex@@@Z
       4920 1337 003C7AA0 ?dropMimeData@QTableWidget@@MAE_NHHPBVQMimeData@@W4DropAction@Qt@@@Z
       4921 1338 003D1090 ?dropMimeData@QTreeWidget@@MAE_NPAVQTreeWidgetItem@@HPBVQMimeData@@W4DropAction@Qt@@@Z
       4922 1339 0037EBE0 ?dropOn@QAbstractItemViewPrivate@@QAE_NPAVQDropEvent@@PAH1PAVQModelIndex@@@Z
       4923 133A 0037EA50 ?droppingOnItself@QAbstractItemViewPrivate@@QAE_NPAVQDropEvent@@ABVQModelIndex@@@Z
       4924 133B 000F35F0 ?duplex@QPrinter@@QBE?AW4DuplexMode@1@XZ
       4925 133C 00287380 ?duplicatesEnabled@QComboBox@@QBE_NXZ
       4926 133D 000BF890 ?dx@QMatrix@@QBENXZ
       4927 133E 000BF890 ?dx@QTransform@@QBENXZ
       4928 133F 00104A20 ?dy@QMatrix@@QBENXZ
       4929 1340 00104A20 ?dy@QTransform@@QBENXZ
       4930 1341 003D9EA0 ?dynamicSortFilter@QSortFilterProxyModel@@QBE_NXZ
       4931 1342 002B8FC0 ?echoMode@QLineEdit@@QBE?AW4EchoMode@1@XZ
       4932 1343 00384FD0 ?edit@QAbstractItemView@@MAE_NABVQModelIndex@@W4EditTrigger@1@PAVQEvent@@@Z
       4933 1344 0037A8F0 ?edit@QAbstractItemView@@QAEXABVQModelIndex@@@Z
       4934 1345 003BFF30 ?editItem@QListWidget@@QAEXPAVQListWidgetItem@@@Z
       4935 1346 003C7310 ?editItem@QTableWidget@@QAEXPAVQTableWidgetItem@@@Z
       4936 1347 003CFBD0 ?editItem@QTreeWidget@@QAEXPAVQTreeWidgetItem@@H@Z
       4937 1348 00287B80 ?editTextChanged@QComboBox@@IAEXABVQString@@@Z
       4938 1349 0037B9F0 ?editTriggers@QAbstractItemView@@QBE?AV?$QFlags@W4EditTrigger@QAbstractItemView@@@@XZ
       4939 134A 001F2CA0 ?editable@QComboBox@@QBE_NXZ
       4940 134B 0000C060 ?editableTextInterface@QAccessibleInterface@@QAEPAVQAccessibleEditableTextInterface@@XZ
       4941 134C 002B90D0 ?edited@QLineEdit@@QBE_NXZ
       4942 134D 0027AB70 ?editingFinished@QAbstractSpinBox@@IAEXXZ
       4943 134E 002B9AC0 ?editingFinished@QLineEdit@@IAEXXZ
       4944 134F 00384260 ?editor@QAbstractItemViewPrivate@@QAEPAVQWidget@@ABVQModelIndex@@ABVQStyleOptionViewItem@@@Z
       4945 1350 00385540 ?editorDestroyed@QAbstractItemView@@MAEXPAVQObject@@@Z
       4946 1351 003AE6B0 ?editorEvent@QAbstractItemDelegate@@UAE_NPAVQEvent@@PAVQAbstractItemModel@@ABVQStyleOptionViewItem@@ABVQModelIndex@@@Z
       4947 1352 003B0DC0 ?editorEvent@QItemDelegate@@MAE_NPAVQEvent@@PAVQAbstractItemModel@@ABVQStyleOptionViewItem@@ABVQModelIndex@@@Z
       4948 1353 003F1330 ?editorEvent@QStyledItemDelegate@@MAE_NPAVQEvent@@PAVQAbstractItemModel@@ABVQStyleOptionViewItem@@ABVQModelIndex@@@Z
       4949 1354 0037D4C0 ?editorForIndex@QAbstractItemViewPrivate@@QBEPAVQWidget@@ABVQModelIndex@@@Z
       4950 1355 0037C3F0 ?editorForIterator@QAbstractItemViewPrivate@@QBEPAVQWidget@@ABVconst_iterator@?$QList@U?$QPair@VQPersistentModelIndex@@V?$QPointer@VQWidget@@@@@@@@@Z
       4951 1356 0037C3F0 ?editorForIterator@QAbstractItemViewPrivate@@QBEPAVQWidget@@ABViterator@?$QList@U?$QPair@VQPersistentModelIndex@@V?$QPointer@VQWidget@@@@@@@@@Z
       4952 1357 00421200 ?effectiveSizeHint@QGraphicsLayoutItem@@QBE?AVQSizeF@@W4SizeHint@Qt@@ABV2@@Z
       4953 1358 000489A0 ?effectiveWinId@QWidget@@QBEPAUHWND__@@XZ
       4954 1359 000DBF80 ?elementAt@QPainterPath@@QBEABVElement@1@H@Z
       4955 135A 0018F840 ?elementCount@QPainterPath@@QBEHXZ
       4956 135B 0033ED80 ?elideMode@QTabBar@@QBE?AW4TextElideMode@Qt@@XZ
       4957 135C 002FFBB0 ?elideMode@QTabWidget@@QBE?AW4TextElideMode@Qt@@XZ
       4958 135D 003AE6C0 ?elidedText@QAbstractItemDelegate@@SA?AVQString@@ABVQFontMetrics@@HW4TextElideMode@Qt@@ABV2@@Z
       4959 135E 0016C730 ?elidedText@QFontMetrics@@QBE?AVQString@@ABV2@W4TextElideMode@Qt@@HH@Z
       4960 135F 0016B890 ?elidedText@QFontMetricsF@@QBE?AVQString@@ABV2@W4TextElideMode@Qt@@NH@Z
       4961 1360 00188710 ?elidedText@QTextEngine@@QBE?AVQString@@W4TextElideMode@Qt@@ABUQFixed@@H@Z
       4962 1361 000CB270 ?emSquareSize@QFontEngine@@UBE?AUQFixed@@XZ
       4963 1362 00003A70 ?emitActionChanged@QDragManager@@QAEXW4DropAction@Qt@@@Z
       4964 1363 0001E6E0 ?emitChanged@QClipboard@@AAEXW4Mode@1@@Z
       4965 1364 00046840 ?emitCubicTo@QStroker@@QAEXNNNNNN@Z
       4966 1365 00046770 ?emitCubicTo@QStrokerOps@@IAEXNNNNNN@Z
       4967 1366 003E3AD0 ?emitDataChanged@QStandardItem@@IAEXXZ
       4968 1367 0000F7D0 ?emitLastWindowClosed@QApplicationPrivate@@SAXXZ
       4969 1368 00046800 ?emitLineTo@QStroker@@QAEXNN@Z
       4970 1369 00046740 ?emitLineTo@QStrokerOps@@IAEXNN@Z
       4971 136A 000467C0 ?emitMoveTo@QStroker@@QAEXNN@Z
       4972 136B 00046710 ?emitMoveTo@QStrokerOps@@IAEXNN@Z
       4973 136C 003B5B20 ?emitSelectionChanged@QItemSelectionModel@@IAEXABVQItemSelection@@0@Z
       4974 136D 001F50F0 ?empty@?$QList@VQItemSelectionRange@@@@QBE_NXZ
       4975 136E 0043CB60 ?emptyLabel@QUndoView@@QBE?AVQString@@XZ
       4976 136F 0030DEA0 ?enabledChange@QWidget@@MAEX_N@Z
       4977 1370 00339A90 ?enabledOptions@QAbstractPrintDialog@@QBE?AV?$QFlags@W4PrintDialogOption@QAbstractPrintDialog@@@@XZ
       4978 1371 00367850 ?enabledOptions@QPageSetupDialog@@QBE?AV?$QFlags@W4PageSetupDialogOption@QPageSetupDialog@@@@XZ
       4979 1372 0002EE70 ?encodeString@QKeySequence@@CA?AVQString@@H@Z
       4980 1373 00022B80 ?encodedData@QDropEvent@@UBE?AVQByteArray@@PBD@Z
       4981 1374 001FA180 ?end@?$QList@VQItemSelectionRange@@@@QAE?AViterator@1@XZ
       4982 1375 001F68B0 ?end@?$QList@VQItemSelectionRange@@@@QBE?AVconst_iterator@1@XZ
       4983 1376 00046910 ?end@QDashStroker@@UAEXXZ
       4984 1377 002BE0B0 ?end@QLineEdit@@QAEX_N@Z
       4985 1378 000D3C00 ?end@QPainter@@QAE_NXZ
       4986 1379 000F6470 ?end@QStrokerOps@@UAEXXZ
       4987 137A 00194330 ?end@QTextBlock@@QBE?AViterator@1@XZ
       4988 137B 00199420 ?end@QTextDocument@@QBE?AVQTextBlock@@XZ
       4989 137C 00193D30 ?end@QTextFrame@@QBE?AViterator@1@XZ
       4990 137D 001C2B70 ?end@QTextTableCell@@QBE?AViterator@QTextFrame@@XZ
       4991 137E 001BBAE0 ?endEditBlock@QTextCursor@@QAEXXZ
       4992 137F 0018E550 ?endLayout@QTextLayout@@QAEXXZ
       4993 1380 0043C470 ?endMacro@QUndoStack@@QAEXXZ
       4994 1381 0015B250 ?endPaint@QWindowSurface@@UAEXABVQRegion@@@Z
       4995 1382 00048E20 ?endSharedPainter@QWidgetPrivate@@QAE_NXZ
       4996 1383 000BA5B0 ?endTangent@QBezier@@QBE?AVQLineF@@XZ
       4997 1384 000071C0 ?enforceNativeChildren@QWidgetPrivate@@QAEXXZ
       4998 1385 001628E0 ?engine@QFontEngineMulti@@QBEPAVQFontEngine@@H@Z
       4999 1386 000BF910 ?engine@QTextLayout@@QBEPAVQTextEngine@@XZ
       5000 1387 0015EC00 ?engineForScript@QFontPrivate@@QBEPAVQFontEngine@@H@Z
       5001 1388 0032B740 ?ensureBlockLayout@QPlainTextDocumentLayout@@QBEXABVQTextBlock@@@Z
       5002 1389 0032DB40 ?ensureCursorVisible@QPlainTextEdit@@QAEXXZ
       5003 138A 0017B040 ?ensureCursorVisible@QTextControl@@UAEXXZ
       5004 138B 00301C40 ?ensureCursorVisible@QTextEdit@@QAEXXZ
       5005 138C 000DD330 ?ensureData@QPainterPath@@AAEXXZ
       5006 138D 000DCFB0 ?ensureData_helper@QPainterPath@@AAEXXZ
       5007 138E 00276040 ?ensureHandle@QRegion@@ABEXXZ
       5008 138F 0004D750 ?ensurePolished@QWidget@@QBEXXZ
       5009 1390 0008EC10 ?ensureSpace@QTextEngine@@QBEXH@Z
       5010 1391 003FCD20 ?ensureVisible@QGraphicsItem@@QAEXABVQRectF@@HH@Z
       5011 1392 0000D5F0 ?ensureVisible@QGraphicsItem@@QAEXNNNNHH@Z
       5012 1393 00416AE0 ?ensureVisible@QGraphicsView@@QAEXABVQRectF@@HH@Z
       5013 1394 0026D490 ?ensureVisible@QGraphicsView@@QAEXNNNNHH@Z
       5014 1395 00416D00 ?ensureVisible@QGraphicsView@@QAEXPBVQGraphicsItem@@HH@Z
       5015 1396 00317810 ?ensureVisible@QScrollArea@@QAEXHHHH@Z
       5016 1397 003179E0 ?ensureWidgetVisible@QScrollArea@@QAEXPAVQWidget@@HH@Z
       5017 1398 002DC4F0 ?enterEvent@QMenu@@MAEXPAVQEvent@@@Z
       5018 1399 0030FC10 ?enterEvent@QToolButton@@MAEXPAVQEvent@@@Z
       5019 139A 0030DEA0 ?enterEvent@QWidget@@MAEXPAVQEvent@@@Z
       5020 139B 00013700 ?enterModal@QApplicationPrivate@@SAXPAVQWidget@@@Z
       5021 139C 0005E460 ?enterModal_sys@QApplicationPrivate@@SAXPAVQWidget@@@Z
       5022 139D 000457A0 ?enterWhatsThisMode@QWhatsThis@@SAXXZ
       5023 139E 0037B3E0 ?entered@QAbstractItemView@@IAEXABVQModelIndex@@@Z
       5024 139F 00142780 ?eor@QRegion@@QBE?AV1@ABV1@@Z
       5025 13A0 001FAAD0 ?erase@?$QList@VQItemSelectionRange@@@@QAE?AViterator@1@V21@0@Z
       5026 13A1 001F8A40 ?erase@?$QList@VQItemSelectionRange@@@@QAE?AViterator@1@V21@@Z
       5027 13A2 0044A1A0 ?erase@QWidget@@QAEXABVQRect@@@Z
       5028 13A3 00049190 ?erase@QWidget@@QAEXABVQRegion@@@Z
       5029 13A4 00449B80 ?erase@QWidget@@QAEXHHHH@Z
       5030 13A5 0044A170 ?erase@QWidget@@QAEXXZ
       5031 13A6 00449E90 ?eraseColor@QWidget@@QBEABVQColor@@XZ
       5032 13A7 002CA4A0 ?erasePixmap@QWidget@@QBEPBVQPixmap@@XZ
       5033 13A8 00047C30 ?eraseRect@QPainter@@QAEXABVQRect@@@Z
       5034 13A9 000D9F60 ?eraseRect@QPainter@@QAEXABVQRectF@@@Z
       5035 13AA 0033ACE0 ?eraseRect@QPainter@@QAEXHHHH@Z
       5036 13AB 000490A0 ?erase_helper@QWidget@@AAEXHHHH@Z
       5037 13AC 0044A960 ?erased@QPaintEvent@@QBE_NXZ
       5038 13AD 0008A100 ?error@QImageReader@@QBE?AW4ImageReaderError@1@XZ
       5039 13AE 00091DD0 ?error@QImageWriter@@QBE?AW4ImageWriterError@1@XZ
       5040 13AF 0009AEB0 ?error@QMovie@@IAEXW4ImageReaderError@QImageReader@@@Z
       5041 13B0 0008A110 ?errorString@QImageReader@@QBE?AVQString@@XZ
       5042 13B1 0008D790 ?errorString@QImageWriter@@QBE?AVQString@@XZ
       5043 13B2 001CAF60 ?errorSymbol@Parser@QCss@@QAE?AUSymbol@2@XZ
       5044 13B3 001977F0 ?escape@Qt@@YA?AVQString@@ABV2@@Z
       5045 13B4 002B9E00 ?escapeButton@QMessageBox@@QBEPAVQAbstractButton@@XZ
       5046 13B5 00276DA0 ?event@QAbstractButton@@MAE_NPAVQEvent@@@Z
       5047 13B6 00381D80 ?event@QAbstractItemView@@MAE_NPAVQEvent@@@Z
       5048 13B7 00314650 ?event@QAbstractScrollArea@@MAE_NPAVQEvent@@@Z
       5049 13B8 002EFB60 ?event@QAbstractSlider@@MAE_NPAVQEvent@@@Z
       5050 13B9 0027C1A0 ?event@QAbstractSpinBox@@UAE_NPAVQEvent@@@Z
       5051 13BA 000088D0 ?event@QAction@@MAE_NPAVQEvent@@@Z
       5052 13BB 000161A0 ?event@QApplication@@MAE_NPAVQEvent@@@Z
       5053 13BC 002834D0 ?event@QCalendarWidget@@MAE_NPAVQEvent@@@Z
       5054 13BD 00285DD0 ?event@QCheckBox@@MAE_NPAVQEvent@@@Z
       5055 13BE 00062730 ?event@QClipboard@@MAE_NPAVQEvent@@@Z
       5056 13BF 0028E8F0 ?event@QComboBox@@UAE_NPAVQEvent@@@Z
       5057 13C0 00290D60 ?event@QCommandLinkButton@@MAE_NPAVQEvent@@@Z
       5058 13C1 00178520 ?event@QCompleter@@MAE_NPAVQEvent@@@Z
       5059 13C2 00297F70 ?event@QDateTimeEdit@@UAE_NPAVQEvent@@@Z
       5060 13C3 00299720 ?event@QDial@@MAE_NPAVQEvent@@@Z
       5061 13C4 0029B000 ?event@QDialogButtonBox@@MAE_NPAVQEvent@@@Z
       5062 13C5 0029E7D0 ?event@QDockWidget@@MAE_NPAVQEvent@@@Z
       5063 13C6 003626C0 ?event@QFileSystemModel@@MAE_NPAVQEvent@@@Z
       5064 13C7 002EFB60 ?event@QFocusFrame@@MAE_NPAVQEvent@@@Z
       5065 13C8 002AD990 ?event@QFontComboBox@@MAE_NPAVQEvent@@@Z
       5066 13C9 002AF940 ?event@QFrame@@MAE_NPAVQEvent@@@Z
       5067 13CA 0042CE80 ?event@QGraphicsProxyWidget@@MAE_NPAVQEvent@@@Z
       5068 13CB 004133D0 ?event@QGraphicsScene@@MAE_NPAVQEvent@@@Z
       5069 13CC 004164C0 ?event@QGraphicsView@@MAE_NPAVQEvent@@@Z
       5070 13CD 00423F70 ?event@QGraphicsWidget@@MAE_NPAVQEvent@@@Z
       5071 13CE 002B0D90 ?event@QGroupBox@@MAE_NPAVQEvent@@@Z
       5072 13CF 0038E0E0 ?event@QHeaderView@@MAE_NPAVQEvent@@@Z
       5073 13D0 0030DEB0 ?event@QLCDNumber@@MAE_NPAVQEvent@@@Z
       5074 13D1 002B4180 ?event@QLabel@@MAE_NPAVQEvent@@@Z
       5075 13D2 002C1730 ?event@QLineEdit@@UAE_NPAVQEvent@@@Z
       5076 13D3 003C4EB0 ?event@QListView@@MAE_NPAVQEvent@@@Z
       5077 13D4 003BE2D0 ?event@QListWidget@@MAE_NPAVQEvent@@@Z
       5078 13D5 002C3AC0 ?event@QMainWindow@@MAE_NPAVQEvent@@@Z
       5079 13D6 002D0FE0 ?event@QMdiArea@@MAE_NPAVQEvent@@@Z
       5080 13D7 002DA630 ?event@QMdiSubWindow@@MAE_NPAVQEvent@@@Z
       5081 13D8 002E4230 ?event@QMenu@@MAE_NPAVQEvent@@@Z
       5082 13D9 002EA8F0 ?event@QMenuBar@@MAE_NPAVQEvent@@@Z
       5083 13DA 00354A40 ?event@QMessageBox@@MAE_NPAVQEvent@@@Z
       5084 13DB 00275600 ?event@QMotifStyle@@UAE_NPAVQEvent@@@Z
       5085 13DC 0032E3F0 ?event@QPlainTextEdit@@MAE_NPAVQEvent@@@Z
       5086 13DD 002EBCF0 ?event@QProgressBar@@MAE_NPAVQEvent@@@Z
       5087 13DE 002EC9D0 ?event@QPushButton@@MAE_NPAVQEvent@@@Z
       5088 13DF 002ED280 ?event@QRadioButton@@MAE_NPAVQEvent@@@Z
       5089 13E0 002EFB60 ?event@QRubberBand@@MAE_NPAVQEvent@@@Z
       5090 13E1 00317590 ?event@QScrollArea@@MAE_NPAVQEvent@@@Z
       5091 13E2 002EF5E0 ?event@QScrollBar@@UAE_NPAVQEvent@@@Z
       5092 13E3 00038D80 ?event@QShortcut@@MAE_NPAVQEvent@@@Z
       5093 13E4 002EFB60 ?event@QSizeGrip@@MAE_NPAVQEvent@@@Z
       5094 13E5 002F1110 ?event@QSlider@@UAE_NPAVQEvent@@@Z
       5095 13E6 002F2B50 ?event@QSpinBox@@MAE_NPAVQEvent@@@Z
       5096 13E7 002EFB60 ?event@QSplashScreen@@MAE_NPAVQEvent@@@Z
       5097 13E8 002F9390 ?event@QSplitter@@MAE_NPAVQEvent@@@Z
       5098 13E9 002F5860 ?event@QSplitterHandle@@MAE_NPAVQEvent@@@Z
       5099 13EA 0030DEB0 ?event@QStackedWidget@@MAE_NPAVQEvent@@@Z
       5100 13EB 002FAC50 ?event@QStatusBar@@MAE_NPAVQEvent@@@Z
       5101 13EC 00178520 ?event@QSystemTrayIcon@@MAE_NPAVQEvent@@@Z
       5102 13ED 002FE800 ?event@QTabBar@@MAE_NPAVQEvent@@@Z
       5103 13EE 003007A0 ?event@QTabWidget@@MAE_NPAVQEvent@@@Z
       5104 13EF 003C4EB0 ?event@QTableWidget@@MAE_NPAVQEvent@@@Z
       5105 13F0 00306170 ?event@QTextBrowser@@MAE_NPAVQEvent@@@Z
       5106 13F1 00178520 ?event@QTextControl@@MAE_NPAVQEvent@@@Z
       5107 13F2 00303E80 ?event@QTextEdit@@MAE_NPAVQEvent@@@Z
       5108 13F3 0030A6B0 ?event@QToolBar@@MAE_NPAVQEvent@@@Z
       5109 13F4 0030DEB0 ?event@QToolBox@@MAE_NPAVQEvent@@@Z
       5110 13F5 0030FDD0 ?event@QToolButton@@MAE_NPAVQEvent@@@Z
       5111 13F6 003C4EB0 ?event@QTreeWidget@@MAE_NPAVQEvent@@@Z
       5112 13F7 00054250 ?event@QWidget@@MAE_NPAVQEvent@@@Z
       5113 13F8 00059210 ?event@QWidgetAction@@MAE_NPAVQEvent@@@Z
       5114 13F9 00215E80 ?event@QWindowsVistaStyle@@UAE_NPAVQEvent@@@Z
       5115 13FA 0036D5E0 ?event@QWizard@@MAE_NPAVQEvent@@@Z
       5116 13FB 0031BB00 ?event@QWorkspace@@MAE_NPAVQEvent@@@Z
       5117 13FC 00433470 ?eventFilter@QCompleter@@MAE_NPAVQObject@@PAVQEvent@@@Z
       5118 13FD 0033EDC0 ?eventFilter@QDialog@@MAE_NPAVQObject@@PAVQEvent@@@Z
       5119 13FE 00064DB0 ?eventFilter@QDragManager@@EAE_NPAVQObject@@PAVQEvent@@@Z
       5120 13FF 00316BE0 ?eventFilter@QFocusFrame@@MAE_NPAVQObject@@PAVQEvent@@@Z
       5121 1400 0034EF40 ?eventFilter@QFontDialog@@EAE_NPAVQObject@@PAVQEvent@@@Z
       5122 1401 0042EB30 ?eventFilter@QGraphicsProxyWidget@@MAE_NPAVQObject@@PAVQEvent@@@Z
       5123 1402 00404B00 ?eventFilter@QGraphicsScene@@MAE_NPAVQObject@@PAVQEvent@@@Z
       5124 1403 003B1AB0 ?eventFilter@QItemDelegate@@MAE_NPAVQObject@@PAVQEvent@@@Z
       5125 1404 002D1D10 ?eventFilter@QMdiArea@@MAE_NPAVQObject@@PAVQEvent@@@Z
       5126 1405 002DA000 ?eventFilter@QMdiSubWindow@@MAE_NPAVQObject@@PAVQEvent@@@Z
       5127 1406 002EABC0 ?eventFilter@QMenuBar@@MAE_NPAVQObject@@PAVQEvent@@@Z
       5128 1407 00275820 ?eventFilter@QMotifStyle@@MAE_NPAVQObject@@PAVQEvent@@@Z
       5129 1408 0024A670 ?eventFilter@QPlastiqueStyle@@MAE_NPAVQObject@@PAVQEvent@@@Z
       5130 1409 003175D0 ?eventFilter@QScrollArea@@MAE_NPAVQObject@@PAVQEvent@@@Z
       5131 140A 002F02D0 ?eventFilter@QSizeGrip@@MAE_NPAVQObject@@PAVQEvent@@@Z
       5132 140B 003F15B0 ?eventFilter@QStyledItemDelegate@@MAE_NPAVQObject@@PAVQEvent@@@Z
       5133 140C 0033EDC0 ?eventFilter@QWidgetAction@@MAE_NPAVQObject@@PAVQEvent@@@Z
       5134 140D 00316410 ?eventFilter@QWidgetResizeHandler@@MAE_NPAVQObject@@PAVQEvent@@@Z
       5135 140E 0026CDB0 ?eventFilter@QWindowsStyle@@MAE_NPAVQObject@@PAVQEvent@@@Z
       5136 140F 003225F0 ?eventFilter@QWorkspace@@MAE_NPAVQObject@@PAVQEvent@@@Z
       5137 1410 0015F520 ?exactMatch@QFont@@QBE_NXZ
       5138 1411 0015F520 ?exactMatch@QFontInfo@@QBE_NXZ
       5139 1412 00038950 ?exclusive@QButtonGroup@@QBE_NXZ
       5140 1413 0000E670 ?exec@QApplication@@SAHXZ
       5141 1414 0033EF70 ?exec@QDialog@@QAEHXZ
       5142 1415 00020860 ?exec@QDrag@@QAE?AW4DropAction@Qt@@V?$QFlags@W4DropAction@Qt@@@@@Z
       5143 1416 000205B0 ?exec@QDrag@@QAE?AW4DropAction@Qt@@V?$QFlags@W4DropAction@Qt@@@@W423@@Z
       5144 1417 002E2B60 ?exec@QMenu@@QAEPAVQAction@@ABVQPoint@@PAV2@@Z
       5145 1418 002E3EC0 ?exec@QMenu@@QAEPAVQAction@@XZ
       5146 1419 002E2C80 ?exec@QMenu@@SAPAVQAction@@V?$QList@PAVQAction@@@@ABVQPoint@@PAV2@@Z
       5147 141A 003374C0 ?exec@QPageSetupDialog@@UAEHXZ
       5148 141B 00092670 ?exec@QPicture@@AAE_NPAVQPainter@@AAVQDataStream@@H@Z
       5149 141C 00337F80 ?exec@QPrintDialog@@UAEHXZ
       5150 141D 000FD0F0 ?exec@QRegion@@AAEXABVQByteArray@@H@Z
       5151 141E 0037B0F0 ?executeDelayedItemsLayout@QAbstractItemView@@IAEXXZ
       5152 141F 003CF0B0 ?executePendingSort@QTreeWidgetItem@@ABEXXZ
       5153 1420 0037A470 ?executePostedLayout@QAbstractItemViewPrivate@@QBEXXZ
       5154 1421 0002D700 ?expand@QGridLayout@@QAEXHH@Z
       5155 1422 003ACBF0 ?expand@QTreeView@@QAEXABVQModelIndex@@@Z
       5156 1423 003AC3E0 ?expandAll@QTreeView@@QAEXXZ
       5157 1424 003D0400 ?expandItem@QTreeWidget@@QAEXPBVQTreeWidgetItem@@@Z
       5158 1425 003AC630 ?expandToDepth@QTreeView@@QAEXH@Z
       5159 1426 003A1340 ?expanded@QTreeView@@IAEXABVQModelIndex@@@Z
       5160 1427 0030C110 ?expandedSize@QToolBarLayout@@QBE?AVQSize@@ABV2@@Z
       5161 1428 00035580 ?expanding@QSizePolicy@@QBE?AV?$QFlags@W4Orientation@Qt@@@@XZ
       5162 1429 0001CE80 ?expandingDirections@QBoxLayout@@UBE?AV?$QFlags@W4Orientation@Qt@@@@XZ
       5163 142A 00029550 ?expandingDirections@QFormLayout@@UBE?AV?$QFlags@W4Orientation@Qt@@@@XZ
       5164 142B 0002CCA0 ?expandingDirections@QGridLayout@@UBE?AV?$QFlags@W4Orientation@Qt@@@@XZ
       5165 142C 000316E0 ?expandingDirections@QLayout@@UBE?AV?$QFlags@W4Orientation@Qt@@@@XZ
       5166 142D 00035580 ?expandingDirections@QSizePolicy@@QBE?AV?$QFlags@W4Orientation@Qt@@@@XZ
       5167 142E 00035A00 ?expandingDirections@QSpacerItem@@UBE?AV?$QFlags@W4Orientation@Qt@@@@XZ
       5168 142F 0030C700 ?expandingDirections@QToolBarLayout@@UBE?AV?$QFlags@W4Orientation@Qt@@@@XZ
       5169 1430 00035A30 ?expandingDirections@QWidgetItem@@UBE?AV?$QFlags@W4Orientation@Qt@@@@XZ
       5170 1431 003A0EB0 ?expandsOnDoubleClick@QTreeView@@QBE_NXZ
       5171 1432 0037D040 ?extendedSelectionCommand@QAbstractItemViewPrivate@@QBE?AV?$QFlags@W4SelectionFlag@QItemSelectionModel@@@@ABVQModelIndex@@PBVQEvent@@@Z
       5172 1433 0033EDE0 ?extension@QDialog@@QBEPAVQWidget@@XZ
       5173 1434 0027A0A0 ?extension@QGraphicsEllipseItem@@MBE?AVQVariant@@ABV2@@Z
       5174 1435 0027A0A0 ?extension@QGraphicsItem@@MBE?AVQVariant@@ABV2@@Z
       5175 1436 0027A0A0 ?extension@QGraphicsLineItem@@MBE?AVQVariant@@ABV2@@Z
       5176 1437 0027A0A0 ?extension@QGraphicsPathItem@@MBE?AVQVariant@@ABV2@@Z
       5177 1438 0027A0A0 ?extension@QGraphicsPixmapItem@@MBE?AVQVariant@@ABV2@@Z
       5178 1439 0027A0A0 ?extension@QGraphicsPolygonItem@@MBE?AVQVariant@@ABV2@@Z
       5179 143A 0027A0A0 ?extension@QGraphicsRectItem@@MBE?AVQVariant@@ABV2@@Z
       5180 143B 0027A0A0 ?extension@QGraphicsSimpleTextItem@@MBE?AVQVariant@@ABV2@@Z
       5181 143C 0027A0A0 ?extension@QGraphicsTextItem@@MBE?AVQVariant@@ABV2@@Z
       5182 143D 006A3154 ?externalLoader@QTextImageHandler@@2P6A?AVQImage@@ABVQString@@0@ZA
       5183 143E 00003D60 ?extraData@QWidgetPrivate@@QBEPAUQWExtra@@XZ
       5184 143F 003059B0 ?extraSelections@QPlainTextEdit@@QBE?AV?$QList@UExtraSelection@QTextEdit@@@@XZ
       5185 1440 00181260 ?extraSelections@QTextControl@@QBE?AV?$QList@UExtraSelection@QTextEdit@@@@XZ
       5186 1441 003059B0 ?extraSelections@QTextEdit@@QBE?AV?$QList@UExtraSelection@QTextEdit@@@@XZ
       5187 1442 001D0F20 ?extractBackground@ValueExtractor@QCss@@QAE_NPAVQBrush@@PAVQString@@PAW4Repeat@2@PAV?$QFlags@W4AlignmentFlag@Qt@@@@PAW4Origin@2@PAW4Attachment@2@4@Z
       5188 1443 001D1800 ?extractBorder@ValueExtractor@QCss@@QAE_NPAHPAVQBrush@@PAW4BorderStyle@2@PAVQSize@@@Z
       5189 1444 001CD810 ?extractBox@ValueExtractor@QCss@@QAE_NPAH00@Z
       5190 1445 001CBA60 ?extractFont@ValueExtractor@QCss@@AAEXXZ
       5191 1446 001CB7D0 ?extractFont@ValueExtractor@QCss@@QAE_NPAVQFont@@PAH@Z
       5192 1447 001CD4A0 ?extractGeometry@ValueExtractor@QCss@@QAE_NPAH00000@Z
       5193 1448 001CDA80 ?extractImage@ValueExtractor@QCss@@QAE_NPAVQIcon@@PAV?$QFlags@W4AlignmentFlag@Qt@@@@PAVQSize@@@Z
       5194 1449 001D1CA0 ?extractOutline@ValueExtractor@QCss@@QAE_NPAHPAVQBrush@@PAW4BorderStyle@2@PAVQSize@@0@Z
       5195 144A 001D1E80 ?extractPalette@ValueExtractor@QCss@@QAE_NPAVQBrush@@000@Z
       5196 144B 001CD610 ?extractPosition@ValueExtractor@QCss@@QAE_NPAH000PAW4Origin@2@PAV?$QFlags@W4AlignmentFlag@Qt@@@@PAW4PositionMode@2@2@Z
       5197 144C 001CB670 ?extractStyleFeatures@ValueExtractor@QCss@@QAEHXZ
       5198 144D 000CBB50 ?faceId@QFontEngine@@UBE?AUFaceId@1@XZ
       5199 144E 006A148E ?fade_menu@QApplicationPrivate@@2_NA
       5200 144F 006A1495 ?fade_tooltip@QApplicationPrivate@@2_NA
       5201 1450 001740C0 ?families@QFontDatabase@@QBE?AVQStringList@@W4WritingSystem@1@@Z
       5202 1451 0015C5F0 ?family@QFont@@QBE?AVQString@@XZ
       5203 1452 0015F1E0 ?family@QFontInfo@@QBE?AVQString@@XZ
       5204 1453 00177140 ?family@QTextEdit@@QBE?AVQString@@XZ
       5205 1454 003092E0 ?features@QDockWidget@@QBE?AV?$QFlags@W4DockWidgetFeature@QDockWidget@@@@XZ
       5206 1455 0029C7D0 ?featuresChanged@QDockWidget@@IAEXV?$QFlags@W4DockWidgetFeature@QDockWidget@@@@@Z
       5207 1456 00361310 ?fetchMore@QFileSystemModel@@UAEXABVQModelIndex@@@Z
       5208 1457 003D7B60 ?fetchMore@QProxyModel@@UAEXABVQModelIndex@@@Z
       5209 1458 003D9A80 ?fetchMore@QSortFilterProxyModel@@UAEXABVQModelIndex@@@Z
       5210 1459 0036B390 ?field@QWizard@@QBE?AVQVariant@@ABVQString@@@Z
       5211 145A 0036BD70 ?field@QWizardPage@@IBE?AVQVariant@@ABVQString@@@Z
       5212 145B 00026230 ?fieldGrowthPolicy@QFormLayout@@QBE?AW4FieldGrowthPolicy@1@XZ
       5213 145C 0044ADF0 ?file@QFileOpenEvent@@QBE?AVQString@@XZ
       5214 145D 003B9100 ?fileIcon@QDirModel@@QBE?AVQIcon@@ABVQModelIndex@@@Z
       5215 145E 00335220 ?fileIcon@QFileSystemModel@@QBE?AVQIcon@@ABVQModelIndex@@@Z
       5216 145F 003B91D0 ?fileInfo@QDirModel@@QBE?AVQFileInfo@@ABVQModelIndex@@@Z
       5217 1460 00332E40 ?fileInfo@QFileSystemModel@@QBE?AVQFileInfo@@ABVQModelIndex@@@Z
       5218 1461 003425E0 ?fileMode@QFileDialog@@QBE?AW4FileMode@1@XZ
       5219 1462 003B9900 ?fileName@QDirModel@@QBE?AVQString@@ABVQModelIndex@@@Z
       5220 1463 00332DC0 ?fileName@QFileSystemModel@@QBE?AVQString@@ABVQModelIndex@@@Z
       5221 1464 0008AA40 ?fileName@QImageReader@@QBE?AVQString@@XZ
       5222 1465 0008DA70 ?fileName@QImageWriter@@QBE?AVQString@@XZ
       5223 1466 0009ABC0 ?fileName@QMovie@@QBE?AVQString@@XZ
       5224 1467 00091D60 ?fileName@QPictureIO@@QBE?AVQString@@XZ
       5225 1468 0003AE90 ?fileName@QSound@@QBE?AVQString@@XZ
       5226 1469 003B97E0 ?filePath@QDirModel@@QBE?AVQString@@ABVQModelIndex@@@Z
       5227 146A 003609E0 ?filePath@QFileSystemModel@@QBE?AVQString@@ABVQModelIndex@@@Z
       5228 146B 0035C620 ?fileRenamed@QFileSystemModel@@IAEXABVQString@@00@Z
       5229 146C 00343D40 ?filesSelected@QFileDialog@@IAEXABVQStringList@@@Z
       5230 146D 0007EFA0 ?fill@QImage@@QAEXI@Z
       5231 146E 00097C30 ?fill@QPixmap@@QAEXABVQColor@@@Z
       5232 146F 0004DF70 ?fill@QPixmap@@QAEXPBVQWidget@@ABVQPoint@@@Z
       5233 1470 004491B0 ?fill@QPixmap@@QAEXPBVQWidget@@HH@Z
       5234 1471 000D0AA0 ?fillPath@QPainter@@QAEXABVQPainterPath@@ABVQBrush@@@Z
       5235 1472 000D8820 ?fillRect@QPainter@@QAEXABVQRect@@ABVQBrush@@@Z
       5236 1473 000D86F0 ?fillRect@QPainter@@QAEXABVQRectF@@ABVQBrush@@@Z
       5237 1474 000C84C0 ?fillRect@QPainter@@QAEXHHHHABVQBrush@@@Z
       5238 1475 003E1930 ?fillRule@QGraphicsPolygonItem@@QBE?AW4FillRule@Qt@@XZ
       5239 1476 000DEAA0 ?fillRule@QPainterPath@@QBE?AW4FillRule@Qt@@XZ
       5240 1477 003B97C0 ?filter@QDirModel@@QBE?AV?$QFlags@W4Filter@QDir@@@@XZ
       5241 1478 00342590 ?filter@QFileDialog@@QBE?AV?$QFlags@W4Filter@QDir@@@@XZ
       5242 1479 0035D2D0 ?filter@QFileSystemModel@@QBE?AV?$QFlags@W4Filter@QDir@@@@XZ
       5243 147A 003DA520 ?filterAcceptsColumn@QSortFilterProxyModel@@MBE_NHABVQModelIndex@@@Z
       5244 147B 003DA340 ?filterAcceptsRow@QSortFilterProxyModel@@MBE_NHABVQModelIndex@@@Z
       5245 147C 003D9E80 ?filterCaseSensitivity@QSortFilterProxyModel@@QBE?AW4CaseSensitivity@Qt@@XZ
       5246 147D 003E03C0 ?filterChanged@QSortFilterProxyModel@@IAEXXZ
       5247 147E 003F4DE0 ?filterEvent@QInputContext@@UAE_NPBVQEvent@@@Z
       5248 147F 0003B5B0 ?filterKeyColumn@QSortFilterProxyModel@@QBEHXZ
       5249 1480 003D9E50 ?filterRegExp@QSortFilterProxyModel@@QBE?AVQRegExp@@XZ
       5250 1481 003D9EC0 ?filterRole@QSortFilterProxyModel@@QBEHXZ
       5251 1482 00343DD0 ?filterSelected@QFileDialog@@IAEXABVQString@@@Z
       5252 1483 003480F0 ?filters@QFileDialog@@QBE?AVQStringList@@XZ
       5253 1484 000BF800 ?finalStop@QLinearGradient@@QBE?AVQPointF@@XZ
       5254 1485 001FA2B0 ?find@?$QList@VQItemSelectionRange@@@@QAE?AViterator@1@ABVQItemSelectionRange@@@Z
       5255 1486 001FA330 ?find@?$QList@VQItemSelectionRange@@@@QAE?AViterator@1@V21@ABVQItemSelectionRange@@@Z
       5256 1487 001F7790 ?find@?$QList@VQItemSelectionRange@@@@QBE?AVconst_iterator@1@ABVQItemSelectionRange@@@Z
       5257 1488 001F77F0 ?find@?$QList@VQItemSelectionRange@@@@QBE?AVconst_iterator@1@V21@ABVQItemSelectionRange@@@Z
       5258 1489 00099950 ?find@QPixmapCache@@SAPAVQPixmap@@ABVQString@@@Z
       5259 148A 00099970 ?find@QPixmapCache@@SA_NABVQString@@AAVQPixmap@@@Z
       5260 148B 0032B1E0 ?find@QPlainTextEdit@@QAE_NABVQString@@V?$QFlags@W4FindFlag@QTextDocument@@@@@Z
       5261 148C 0017EE90 ?find@QTextControl@@QAE_NABVQString@@V?$QFlags@W4FindFlag@QTextDocument@@@@@Z
       5262 148D 00199360 ?find@QTextDocument@@QBE?AVQTextCursor@@ABVQRegExp@@ABV2@V?$QFlags@W4FindFlag@QTextDocument@@@@@Z
       5263 148E 00199190 ?find@QTextDocument@@QBE?AVQTextCursor@@ABVQRegExp@@HV?$QFlags@W4FindFlag@QTextDocument@@@@@Z
       5264 148F 0019A190 ?find@QTextDocument@@QBE?AVQTextCursor@@ABVQString@@ABV2@V?$QFlags@W4FindFlag@QTextDocument@@@@@Z
       5265 1490 0019A0D0 ?find@QTextDocument@@QBE?AVQTextCursor@@ABVQString@@HV?$QFlags@W4FindFlag@QTextDocument@@@@@Z
       5266 1491 0032B1E0 ?find@QTextEdit@@QAE_NABVQString@@V?$QFlags@W4FindFlag@QTextDocument@@@@@Z
       5267 1492 00179E90 ?find@QTextEdit@@QAE_NABVQString@@_N1@Z
       5268 1493 0004BD10 ?find@QWidget@@SAPAV1@PAUHWND__@@@Z
       5269 1494 002DF3C0 ?findActionForId@QMenu@@ABEPAVQAction@@H@Z
       5270 1495 002E7D00 ?findActionForId@QMenuBar@@ABEPAVQAction@@H@Z
       5271 1496 001993C0 ?findBlock@QTextDocument@@QBE?AVQTextBlock@@H@Z
       5272 1497 001993F0 ?findBlockByNumber@QTextDocument@@QBE?AVQTextBlock@@H@Z
       5273 1498 0043EB00 ?findBufferChanged@QClipboard@@IAEXXZ
       5274 1499 0028EF50 ?findData@QComboBox@@QBEHABVQVariant@@HV?$QFlags@W4MatchFlag@Qt@@@@@Z
       5275 149A 002DC5A0 ?findIdForAction@QMenu@@ABEHPAVQAction@@@Z
       5276 149B 002E5E60 ?findIdForAction@QMenuBar@@ABEHPAVQAction@@@Z
       5277 149C 001F7780 ?findIndex@?$QList@VQItemSelectionRange@@@@QBEHABVQItemSelectionRange@@@Z
       5278 149D 000BE740 ?findIntersections@QBezier@@SA?AV?$QVector@U?$QPair@NN@@@@ABV1@0@Z
       5279 149E 000BE1A0 ?findIntersections@QBezier@@SA_NABV1@0PAV?$QVector@U?$QPair@NN@@@@@Z
       5280 149F 00001720 ?findItem@QMenu@@QBEPAVQMenuItem@@H@Z
       5281 14A0 00001D10 ?findItem@QMenuBar@@QBEPAVQMenuItem@@H@Z
       5282 14A1 00186CD0 ?findItem@QTextEngine@@QBEHH@Z
       5283 14A2 003C1160 ?findItems@QListWidget@@QBE?AV?$QList@PAVQListWidgetItem@@@@ABVQString@@V?$QFlags@W4MatchFlag@Qt@@@@@Z
       5284 14A3 003E7270 ?findItems@QStandardItemModel@@QBE?AV?$QList@PAVQStandardItem@@@@ABVQString@@V?$QFlags@W4MatchFlag@Qt@@@@H@Z
       5285 14A4 003CA950 ?findItems@QTableWidget@@QBE?AV?$QList@PAVQTableWidgetItem@@@@ABVQString@@V?$QFlags@W4MatchFlag@Qt@@@@@Z
       5286 14A5 003D0DF0 ?findItems@QTreeWidget@@QBE?AV?$QList@PAVQTreeWidgetItem@@@@ABVQString@@V?$QFlags@W4MatchFlag@Qt@@@@H@Z
       5287 14A6 0017A850 ?findNextPrevAnchor@QTextControl@@QAE_NABVQTextCursor@@_NAAV2@@Z
       5288 14A7 002DF4E0 ?findPopup@QMenu@@QAEPAVQMenuItem@@PAV1@PAH@Z
       5289 14A8 001F5C30 ?findText@QComboBox@@QBEHABVQString@@V?$QFlags@W4MatchFlag@Qt@@@@@Z
       5290 14A9 0044B3A0 ?findWidget@QBoxLayout@@QAEHPAVQWidget@@@Z
       5291 14AA 0002A530 ?findWidget@QGridLayout@@IAE_NPAVQWidget@@PAH1@Z
       5292 14AB 002F4D20 ?finish@QSplashScreen@@QAEXPAVQWidget@@@Z
       5293 14AC 0033EE90 ?finished@QDialog@@IAEXH@Z
       5294 14AD 0009AEE0 ?finished@QMovie@@IAEXXZ
       5295 14AE 0003AE70 ?finished@QMovie@@QBE_NXZ
       5296 14AF 001FA1B0 ?first@?$QList@VQItemSelectionRange@@@@QAEAAVQItemSelectionRange@@XZ
       5297 14B0 001F7760 ?first@?$QList@VQItemSelectionRange@@@@QBEABVQItemSelectionRange@@XZ
       5298 14B1 0019A270 ?firstBlock@QTextDocument@@QBE?AVQTextBlock@@XZ
       5299 14B2 001948D0 ?firstCursorPosition@QTextFrame@@QBE?AVQTextCursor@@XZ
       5300 14B3 001C2860 ?firstCursorPosition@QTextTableCell@@QBE?AVQTextCursor@@XZ
       5301 14B4 0027FC50 ?firstDayOfWeek@QCalendarWidget@@QBE?AW4DayOfWeek@Qt@@XZ
       5302 14B5 00193C40 ?firstPosition@QTextFrame@@QBEHXZ
       5303 14B6 001C23F0 ?firstPosition@QTextTableCell@@QBEHXZ
       5304 14B7 00329F70 ?firstVisibleBlock@QPlainTextEdit@@IBE?AVQTextBlock@@XZ
       5305 14B8 0041C130 ?fitInView@QGraphicsView@@QAEXABVQRectF@@W4AspectRatioMode@Qt@@@Z
       5306 14B9 0026D4E0 ?fitInView@QGraphicsView@@QAEXNNNNW4AspectRatioMode@Qt@@@Z
       5307 14BA 0041C2F0 ?fitInView@QGraphicsView@@QAEXPBVQGraphicsItem@@W4AspectRatioMode@Qt@@@Z
       5308 14BB 00332680 ?fitInView@QPrintPreviewWidget@@QAEXXZ
       5309 14BC 00332660 ?fitToWidth@QPrintPreviewWidget@@QAEXXZ
       5310 14BD 000463D0 ?fix_neg_rect@QPaintEngine@@QAEXPAH000@Z
       5311 14BE 0015C6E0 ?fixedPitch@QFont@@QBE_NXZ
       5312 14BF 0015F480 ?fixedPitch@QFontInfo@@QBE_NXZ
       5313 14C0 0030DEA0 ?fixup@QAbstractSpinBox@@UBEXAAVQString@@@Z
       5314 14C1 00295450 ?fixup@QDateTimeEdit@@MBEXAAVQString@@@Z
       5315 14C2 002F24B0 ?fixup@QDoubleSpinBox@@UBEXAAVQString@@@Z
       5316 14C3 002F2290 ?fixup@QSpinBox@@MBEXAAVQString@@@Z
       5317 14C4 0030DEA0 ?fixup@QValidator@@UBEXAAVQString@@@Z
       5318 14C5 003D8DA0 ?flags@QAbstractProxyModel@@UBE?AV?$QFlags@W4ItemFlag@Qt@@@@ABVQModelIndex@@@Z
       5319 14C6 003B96C0 ?flags@QDirModel@@UBE?AV?$QFlags@W4ItemFlag@Qt@@@@ABVQModelIndex@@@Z
       5320 14C7 0035E880 ?flags@QFileSystemModel@@UBE?AV?$QFlags@W4ItemFlag@Qt@@@@ABVQModelIndex@@@Z
       5321 14C8 003F6230 ?flags@QGraphicsItem@@QBE?AV?$QFlags@W4GraphicsItemFlag@QGraphicsItem@@@@XZ
       5322 14C9 00334390 ?flags@QListWidgetItem@@QBE?AV?$QFlags@W4ItemFlag@Qt@@@@XZ
       5323 14CA 003D8740 ?flags@QProxyModel@@UBE?AV?$QFlags@W4ItemFlag@Qt@@@@ABVQModelIndex@@@Z
       5324 14CB 003D9BE0 ?flags@QSortFilterProxyModel@@UBE?AV?$QFlags@W4ItemFlag@Qt@@@@ABVQModelIndex@@@Z
       5325 14CC 003E2B70 ?flags@QStandardItem@@QBE?AV?$QFlags@W4ItemFlag@Qt@@@@XZ
       5326 14CD 003E2E90 ?flags@QStandardItemModel@@UBE?AV?$QFlags@W4ItemFlag@Qt@@@@ABVQModelIndex@@@Z
       5327 14CE 003E7B90 ?flags@QStringListModel@@UBE?AV?$QFlags@W4ItemFlag@Qt@@@@ABVQModelIndex@@@Z
       5328 14CF 00334390 ?flags@QTableWidgetItem@@QBE?AV?$QFlags@W4ItemFlag@Qt@@@@XZ
       5329 14D0 000CF8F0 ?flags@QTextOption@@QBE?AV?$QFlags@W4Flag@QTextOption@@@@XZ
       5330 14D1 00417B60 ?flags@QTreeWidgetItem@@QBE?AV?$QFlags@W4ItemFlag@Qt@@@@XZ
       5331 14D2 0038F690 ?flow@QListView@@QBE?AW4Flow@1@XZ
       5332 14D3 0044A340 ?flushX@QApplication@@SAXXZ
       5333 14D4 000BF800 ?focalPoint@QRadialGradient@@QBE?AVQPointF@@XZ
       5334 14D5 0000E820 ?focusChanged@QApplication@@IAEXPAVQWidget@@0@Z
       5335 14D6 00278240 ?focusInEvent@QAbstractButton@@MAEXPAVQFocusEvent@@@Z
       5336 14D7 0037BC00 ?focusInEvent@QAbstractItemView@@MAEXPAVQFocusEvent@@@Z
       5337 14D8 0027B050 ?focusInEvent@QAbstractSpinBox@@MAEXPAVQFocusEvent@@@Z
       5338 14D9 00287910 ?focusInEvent@QComboBox@@MAEXPAVQFocusEvent@@@Z
       5339 14DA 00298040 ?focusInEvent@QDateTimeEdit@@MAEXPAVQFocusEvent@@@Z
       5340 14DB 0030DEA0 ?focusInEvent@QGraphicsItem@@MAEXPAVQFocusEvent@@@Z
       5341 14DC 0042DFC0 ?focusInEvent@QGraphicsProxyWidget@@MAEXPAVQFocusEvent@@@Z
       5342 14DD 00409BF0 ?focusInEvent@QGraphicsScene@@MAEXPAVQFocusEvent@@@Z
       5343 14DE 003FFC80 ?focusInEvent@QGraphicsTextItem@@MAEXPAVQFocusEvent@@@Z
       5344 14DF 004177C0 ?focusInEvent@QGraphicsView@@MAEXPAVQFocusEvent@@@Z
       5345 14E0 00423330 ?focusInEvent@QGraphicsWidget@@MAEXPAVQFocusEvent@@@Z
       5346 14E1 002B0890 ?focusInEvent@QGroupBox@@MAEXPAVQFocusEvent@@@Z
       5347 14E2 002B4340 ?focusInEvent@QLabel@@MAEXPAVQFocusEvent@@@Z
       5348 14E3 002BE260 ?focusInEvent@QLineEdit@@MAEXPAVQFocusEvent@@@Z
       5349 14E4 002D2820 ?focusInEvent@QMdiSubWindow@@MAEXPAVQFocusEvent@@@Z
       5350 14E5 002EA240 ?focusInEvent@QMenuBar@@MAEXPAVQFocusEvent@@@Z
       5351 14E6 0032D550 ?focusInEvent@QPlainTextEdit@@MAEXPAVQFocusEvent@@@Z
       5352 14E7 002EC060 ?focusInEvent@QPushButton@@MAEXPAVQFocusEvent@@@Z
       5353 14E8 003039A0 ?focusInEvent@QTextEdit@@MAEXPAVQFocusEvent@@@Z
       5354 14E9 00049070 ?focusInEvent@QWidget@@MAEXPAVQFocusEvent@@@Z
       5355 14EA 0004B760 ?focusInputContext@QWidgetPrivate@@QAEXXZ
       5356 14EB 00339B60 ?focusItem@QGraphicsScene@@QBEPAVQGraphicsItem@@XZ
       5357 14EC 00046F00 ?focusNextChild@QWidget@@IAE_NXZ
       5358 14ED 0037BA70 ?focusNextPrevChild@QAbstractItemView@@MAE_N_N@Z
       5359 14EE 00295310 ?focusNextPrevChild@QDateTimeEdit@@MAE_N_N@Z
       5360 14EF 0042E100 ?focusNextPrevChild@QGraphicsProxyWidget@@MAE_N_N@Z
       5361 14F0 00408650 ?focusNextPrevChild@QGraphicsScene@@IAE_N_N@Z
       5362 14F1 00417810 ?focusNextPrevChild@QGraphicsView@@MAE_N_N@Z
       5363 14F2 00422980 ?focusNextPrevChild@QGraphicsWidget@@MAE_N_N@Z
       5364 14F3 002B1560 ?focusNextPrevChild@QLabel@@MAE_N_N@Z
       5365 14F4 002DCA80 ?focusNextPrevChild@QMenu@@MAE_N_N@Z
       5366 14F5 0032B560 ?focusNextPrevChild@QPlainTextEdit@@MAE_N_N@Z
       5367 14F6 00317DC0 ?focusNextPrevChild@QScrollArea@@UAE_N_N@Z
       5368 14F7 00306080 ?focusNextPrevChild@QTextBrowser@@MAE_N_N@Z
       5369 14F8 00304350 ?focusNextPrevChild@QTextEdit@@MAE_N_N@Z
       5370 14F9 0004C480 ?focusNextPrevChild@QWidget@@MAE_N_N@Z
       5371 14FA 00010930 ?focusNextPrevChild_helper@QApplicationPrivate@@SAPAVQWidget@@PAV2@_N@Z
       5372 14FB 00276050 ?focusOutEvent@QAbstractButton@@MAEXPAVQFocusEvent@@@Z
       5373 14FC 0037AC60 ?focusOutEvent@QAbstractItemView@@MAEXPAVQFocusEvent@@@Z
       5374 14FD 0027B0A0 ?focusOutEvent@QAbstractSpinBox@@MAEXPAVQFocusEvent@@@Z
       5375 14FE 00287960 ?focusOutEvent@QComboBox@@MAEXPAVQFocusEvent@@@Z
       5376 14FF 0030DEA0 ?focusOutEvent@QGraphicsItem@@MAEXPAVQFocusEvent@@@Z
       5377 1500 0042D270 ?focusOutEvent@QGraphicsProxyWidget@@MAEXPAVQFocusEvent@@@Z
       5378 1501 0040CA30 ?focusOutEvent@QGraphicsScene@@MAEXPAVQFocusEvent@@@Z
       5379 1502 003FFC80 ?focusOutEvent@QGraphicsTextItem@@MAEXPAVQFocusEvent@@@Z
       5380 1503 00417890 ?focusOutEvent@QGraphicsView@@MAEXPAVQFocusEvent@@@Z
       5381 1504 00423330 ?focusOutEvent@QGraphicsWidget@@MAEXPAVQFocusEvent@@@Z
       5382 1505 002B4380 ?focusOutEvent@QLabel@@MAEXPAVQFocusEvent@@@Z
       5383 1506 002C2260 ?focusOutEvent@QLineEdit@@MAEXPAVQFocusEvent@@@Z
       5384 1507 0030DEA0 ?focusOutEvent@QMdiSubWindow@@MAEXPAVQFocusEvent@@@Z
       5385 1508 002EA2A0 ?focusOutEvent@QMenuBar@@MAEXPAVQFocusEvent@@@Z
       5386 1509 0032D550 ?focusOutEvent@QPlainTextEdit@@MAEXPAVQFocusEvent@@@Z
       5387 150A 002EC0E0 ?focusOutEvent@QPushButton@@MAEXPAVQFocusEvent@@@Z
       5388 150B 00307460 ?focusOutEvent@QTextBrowser@@MAEXPAVQFocusEvent@@@Z
       5389 150C 003039A0 ?focusOutEvent@QTextEdit@@MAEXPAVQFocusEvent@@@Z
       5390 150D 00049070 ?focusOutEvent@QWidget@@MAEXPAVQFocusEvent@@@Z
       5391 150E 00422AA0 ?focusPolicy@QGraphicsWidget@@QBE?AW4FocusPolicy@Qt@@XZ
       5392 150F 00047BA0 ?focusPolicy@QWidget@@QBE?AW4FocusPolicy@Qt@@XZ
       5393 1510 002D2AE0 ?focusPreviousChild@QWidget@@IAE_NXZ
       5394 1511 00048EC0 ?focusProxy@QWidget@@QBEPAV1@XZ
       5395 1512 0000E4F0 ?focusWidget@QApplication@@SAPAVQWidget@@XZ
       5396 1513 00422B00 ?focusWidget@QGraphicsWidget@@QBEPAV1@XZ
       5397 1514 003B3140 ?focusWidget@QInputContext@@QBEPAVQWidget@@XZ
       5398 1515 00047910 ?focusWidget@QWidget@@QBEPAV1@XZ
       5399 1516 006A1480 ?focus_widget@QApplicationPrivate@@2PAVQWidget@@A
       5400 1517 000040D0 ?font@QAction@@QBE?AVQFont@@XZ
       5401 1518 00015D80 ?font@QApplication@@SA?AVQFont@@PBD@Z
       5402 1519 00015C70 ?font@QApplication@@SA?AVQFont@@PBVQWidget@@@Z
       5403 151A 000110A0 ?font@QApplication@@SA?AVQFont@@XZ
       5404 151B 00174BF0 ?font@QFontDatabase@@QBE?AVQFont@@ABVQString@@0H@Z
       5405 151C 0034F350 ?font@QFontDialog@@ABE?AVQFont@@XZ
       5406 151D 00404C20 ?font@QGraphicsScene@@QBE?AVQFont@@XZ
       5407 151E 003F5C10 ?font@QGraphicsSimpleTextItem@@QBE?AVQFont@@XZ
       5408 151F 003F55C0 ?font@QGraphicsTextItem@@QBE?AVQFont@@XZ
       5409 1520 004227A0 ?font@QGraphicsWidget@@QBE?AVQFont@@XZ
       5410 1521 003F2370 ?font@QInputContext@@UBE?AVQFont@@XZ
       5411 1522 00335320 ?font@QListWidgetItem@@QBE?AVQFont@@XZ
       5412 1523 000CD760 ?font@QPaintEngineState@@QBE?AVQFont@@XZ
       5413 1524 000CF6B0 ?font@QPainter@@QBEABVQFont@@XZ
       5414 1525 00288FB0 ?font@QStandardItem@@QBE?AVQFont@@XZ
       5415 1526 003C5B10 ?font@QTableWidgetItem@@QBE?AVQFont@@XZ
       5416 1527 00190010 ?font@QTextCharFormat@@QBE?AVQFont@@XZ
       5417 1528 00184F70 ?font@QTextEngine@@QBE?AVQFont@@ABUQScriptItem@@@Z
       5418 1529 0008EBB0 ?font@QTextEngine@@QBE?AVQFont@@XZ
       5419 152A 000CB480 ?font@QTextItem@@QBE?AVQFont@@XZ
       5420 152B 001891F0 ?font@QTextLayout@@QBE?AVQFont@@XZ
       5421 152C 0003C780 ?font@QToolTip@@SA?AVQFont@@XZ
       5422 152D 003CE860 ?font@QTreeWidgetItem@@QBE?AVQFont@@H@Z
       5423 152E 0003C860 ?font@QWidget@@QBEABVQFont@@XZ
       5424 152F 0003DB80 ?fontCapitalization@QTextCharFormat@@QBE?AW4Capitalization@QFont@@XZ
       5425 1530 0030DEA0 ?fontChange@QWidget@@MAEXABVQFont@@@Z
       5426 1531 000F3580 ?fontEmbeddingEnabled@QPrinter@@QBE_NXZ
       5427 1532 00185130 ?fontEngine@QTextEngine@@QBEPAVQFontEngine@@ABUQScriptItem@@PAUQFixed@@1@Z
       5428 1533 0003D920 ?fontFamily@QTextCharFormat@@QBE?AVQString@@XZ
       5429 1534 00301500 ?fontFamily@QTextEdit@@QBE?AVQString@@XZ
       5430 1535 002AD860 ?fontFilters@QFontComboBox@@QBE?AV?$QFlags@W4FontFilter@QFontComboBox@@@@XZ
       5431 1536 0003DF70 ?fontFixedPitch@QTextCharFormat@@QBE_NXZ
       5432 1537 000CE7E0 ?fontInfo@QPainter@@QBE?AVQFontInfo@@XZ
       5433 1538 0000E8A0 ?fontInfo@QWidget@@QBE?AVQFontInfo@@XZ
       5434 1539 0003DAF0 ?fontItalic@QTextCharFormat@@QBE_NXZ
       5435 153A 003016D0 ?fontItalic@QTextEdit@@QBE_NXZ
       5436 153B 0003DC10 ?fontLetterSpacing@QTextCharFormat@@QBENXZ
       5437 153C 000111C0 ?fontMetrics@QApplication@@SA?AVQFontMetrics@@XZ
       5438 153D 000CE7E0 ?fontMetrics@QPainter@@QBE?AVQFontMetrics@@XZ
       5439 153E 0000E8A0 ?fontMetrics@QWidget@@QBE?AVQFontMetrics@@XZ
       5440 153F 0003DDB0 ?fontOverline@QTextCharFormat@@QBE_NXZ
       5441 1540 0003D9C0 ?fontPointSize@QTextCharFormat@@QBENXZ
       5442 1541 00301460 ?fontPointSize@QTextEdit@@QBENXZ
       5443 1542 0003DE40 ?fontStrikeOut@QTextCharFormat@@QBE_NXZ
       5444 1543 0018FFB0 ?fontUnderline@QTextCharFormat@@QBE_NXZ
       5445 1544 00301640 ?fontUnderline@QTextEdit@@QBE_NXZ
       5446 1545 0003DA50 ?fontWeight@QTextCharFormat@@QBEHXZ
       5447 1546 003015A0 ?fontWeight@QTextEdit@@QBEHXZ
       5448 1547 0003DCA0 ?fontWordSpacing@QTextCharFormat@@QBENXZ
       5449 1548 00357250 ?forceShow@QProgressDialog@@IAEXXZ
       5450 1549 00449460 ?foreground@QColorGroup@@QBEABVQColor@@XZ
       5451 154A 00335500 ?foreground@QListWidgetItem@@QBE?AVQBrush@@XZ
       5452 154B 0005AD10 ?foreground@QPalette@@QBEABVQBrush@@XZ
       5453 154C 00289170 ?foreground@QStandardItem@@QBE?AVQBrush@@XZ
       5454 154D 003C5CF0 ?foreground@QTableWidgetItem@@QBE?AVQBrush@@XZ
       5455 154E 0003D7E0 ?foreground@QTextFormat@@QBE?AVQBrush@@XZ
       5456 154F 003CEA80 ?foreground@QTreeWidgetItem@@QBE?AVQBrush@@H@Z
       5457 1550 004048D0 ?foregroundBrush@QGraphicsScene@@QBE?AVQBrush@@XZ
       5458 1551 00416460 ?foregroundBrush@QGraphicsView@@QBE?AVQBrush@@XZ
       5459 1552 000114E0 ?foregroundColor@QAccessibleInterface@@QAE?AVQColor@@XZ
       5460 1553 0044A000 ?foregroundColor@QWidget@@QBEABVQColor@@XZ
       5461 1554 00048CA0 ?foregroundRole@QWidget@@QBE?AW4ColorRole@QPalette@@XZ
       5462 1555 000268A0 ?formAlignment@QFormLayout@@QBE?AV?$QFlags@W4AlignmentFlag@Qt@@@@XZ
       5463 1556 001AA780 ?format@QAbstractTextDocumentLayout@@IAE?AVQTextCharFormat@@H@Z
       5464 1557 00025CF0 ?format@QDropEvent@@UBEPBDH@Z
       5465 1558 00079760 ?format@QImage@@QBE?AW4Format@1@XZ
       5466 1559 00089ED0 ?format@QImageIOHandler@@QBE?AVQByteArray@@XZ
       5467 155A 0008C740 ?format@QImageReader@@QBE?AVQByteArray@@XZ
       5468 155B 0008D600 ?format@QImageWriter@@QBE?AVQByteArray@@XZ
       5469 155C 0009AC00 ?format@QMovie@@QBE?AVQByteArray@@XZ
       5470 155D 00091D50 ?format@QPictureIO@@QBEPBDXZ
       5471 155E 002EB330 ?format@QProgressBar@@QBE?AVQString@@XZ
       5472 155F 001C6310 ?format@QSyntaxHighlighter@@IBE?AVQTextCharFormat@@H@Z
       5473 1560 00184A50 ?format@QTextEngine@@QBE?AVQTextCharFormat@@PBUQScriptItem@@@Z
       5474 1561 001918B0 ?format@QTextFormatCollection@@QBE?AVQTextFormat@@H@Z
       5475 1562 0018ADD0 ?format@QTextInlineObject@@QBE?AVQTextFormat@@XZ
       5476 1563 00177760 ?format@QTextList@@QBE?AVQTextListFormat@@XZ
       5477 1564 001937C0 ?format@QTextObject@@QBE?AVQTextFormat@@XZ
       5478 1565 00177F10 ?format@QTextTable@@QBE?AVQTextTableFormat@@XZ
       5479 1566 001C26F0 ?format@QTextTableCell@@QBE?AVQTextCharFormat@@XZ
       5480 1567 001AA740 ?formatIndex@QAbstractTextDocumentLayout@@IAEHH@Z
       5481 1568 00184940 ?formatIndex@QTextEngine@@QBEHPBUQScriptItem@@@Z
       5482 1569 0018AD80 ?formatIndex@QTextInlineObject@@QBEHXZ
       5483 156A 001937F0 ?formatIndex@QTextObject@@QBEHXZ
       5484 156B 0008EC50 ?formats@QTextEngine@@QBEPAVQTextFormatCollection@@XZ
       5485 156C 00308030 ?forward@QTextBrowser@@UAEXXZ
       5486 156D 00306220 ?forwardAvailable@QTextBrowser@@IAEX_N@Z
       5487 156E 003069B0 ?forwardHistoryCount@QTextBrowser@@QBEHXZ
       5488 156F 00194440 ?fragment@iterator@QTextBlock@@QBE?AVQTextFragment@@XZ
       5489 1570 00178110 ?frame@QLineEdit@@QBE_NXZ
       5490 1571 00198790 ?frameAt@QTextDocument@@QBEPAVQTextFrame@@H@Z
       5491 1572 00329BE0 ?frameBoundingRect@QPlainTextDocumentLayout@@UBE?AVQRectF@@PAVQTextFrame@@@Z
       5492 1573 0009AF00 ?frameChanged@QMovie@@IAEXH@Z
       5493 1574 0009ACF0 ?frameCount@QMovie@@QBEHXZ
       5494 1575 00043620 ?frameFormat@QTextFrame@@QBE?AVQTextFrameFormat@@XZ
       5495 1576 00049DE0 ?frameGeometry@QWidget@@QBE?AVQRect@@XZ
       5496 1577 0009AFE0 ?frameImage@QMovie@@QBE?AVQImage@@XZ
       5497 1578 003E1930 ?frameNumber@QMovie@@QBEHXZ
       5498 1579 0009B000 ?framePixmap@QMovie@@QBE?AVQPixmap@@XZ
       5499 157A 002AEDA0 ?frameRect@QFrame@@QBE?AVQRect@@XZ
       5500 157B 00089F20 ?frameRect@QLineEdit@@QBE?AVQRect@@XZ
       5501 157C 00089F20 ?frameRect@QMenuBar@@QBE?AVQRect@@XZ
       5502 157D 003F5330 ?frameRect@QMovie@@QBE?AVQRect@@XZ
       5503 157E 002AED60 ?frameShadow@QFrame@@QBE?AW4Shadow@1@XZ
       5504 157F 00001D20 ?frameShadow@QLineEdit@@QBE?AW4DummyFrame@1@XZ
       5505 1580 00001D20 ?frameShadow@QMenuBar@@QBE?AW4DummyFrame@1@XZ
       5506 1581 002AED50 ?frameShape@QFrame@@QBE?AW4Shape@1@XZ
       5507 1582 00091740 ?frameShape@QLineEdit@@QBE?AW4DummyFrame@1@XZ
       5508 1583 00091740 ?frameShape@QMenuBar@@QBE?AW4DummyFrame@1@XZ
       5509 1584 0004AB60 ?frameSize@QWidget@@QBE?AVQSize@@XZ
       5510 1585 00049330 ?frameStrut@QWidgetPrivate@@QBE?AVQRect@@XZ
       5511 1586 002EDC80 ?frameStyle@QFrame@@QBEHXZ
       5512 1587 002CA4A0 ?frameStyle@QLineEdit@@QBEHXZ
       5513 1588 002CA4A0 ?frameStyle@QMenuBar@@QBEHXZ
       5514 1589 002AED90 ?frameWidth@QFrame@@QBEHXZ
       5515 158A 002CA4A0 ?frameWidth@QLineEdit@@QBEHXZ
       5516 158B 002DC580 ?frameWidth@QMenu@@QBEHXZ
       5517 158C 002E5E40 ?frameWidth@QMenuBar@@QBEHXZ
       5518 158D 001F7990 ?free@?$QList@VQItemSelectionRange@@@@AAEXPAUData@QListData@@@Z
       5519 158E 00184880 ?freeMemory@QTextEngine@@QAEXXZ
       5520 158F 00032E80 ?freeze@QLayout@@QAEXHH@Z
       5521 1590 000C3CC0 ?fromCmyk@QColor@@SA?AV1@HHHHH@Z
       5522 1591 000C3D90 ?fromCmykF@QColor@@SA?AV1@NNNNN@Z
       5523 1592 00075BA0 ?fromData@QBitmap@@SA?AV1@ABVQSize@@PBEW4Format@QImage@@@Z
       5524 1593 00020E40 ?fromData@QImage@@SA?AV1@ABVQByteArray@@PBD@Z
       5525 1594 00082930 ?fromData@QImage@@SA?AV1@PBEHPBD@Z
       5526 1595 00099EC0 ?fromFile@QPixmapData@@UAEXABVQString@@PBDV?$QFlags@W4ImageConversionFlag@Qt@@@@@Z
       5527 1596 000C38D0 ?fromHsv@QColor@@SA?AV1@HHHH@Z
       5528 1597 000C39D0 ?fromHsvF@QColor@@SA?AV1@NNNN@Z
       5529 1598 001C12A0 ?fromHtml@QTextDocumentFragment@@SA?AV1@ABVQString@@@Z
       5530 1599 001C11A0 ?fromHtml@QTextDocumentFragment@@SA?AV1@ABVQString@@PBVQTextDocument@@@Z
       5531 159A 00075A00 ?fromImage@QBitmap@@SA?AV1@ABVQImage@@V?$QFlags@W4ImageConversionFlag@Qt@@@@@Z
       5532 159B 00097030 ?fromImage@QPixmap@@SA?AV1@ABVQImage@@V?$QFlags@W4ImageConversionFlag@Qt@@@@@Z
       5533 159C 00047A30 ?fromOrToLayoutItemRect@QWidgetPrivate@@QBE?AVQRect@@ABV2@H@Z
       5534 159D 00339900 ?fromPage@QAbstractPrintDialog@@QBEHXZ
       5535 159E 000F3BE0 ?fromPage@QPrinter@@QBEHXZ
       5536 159F 001BE5A0 ?fromPlainText@QTextDocumentFragment@@SA?AV1@ABVQString@@@Z
       5537 15A0 000BA980 ?fromPoints@QBezier@@SA?AV1@ABVQPointF@@000@Z
       5538 15A1 000C36C0 ?fromRgb@QColor@@SA?AV1@HHHH@Z
       5539 15A2 000C4D70 ?fromRgb@QColor@@SA?AV1@I@Z
       5540 15A3 000C3780 ?fromRgbF@QColor@@SA?AV1@NNNN@Z
       5541 15A4 000C4DB0 ?fromRgba@QColor@@SA?AV1@I@Z
       5542 15A5 001FBC10 ?fromSet@?$QList@VQItemSelectionRange@@@@SA?AV1@ABV?$QSet@VQItemSelectionRange@@@@@Z
       5543 15A6 00200250 ?fromStdList@?$QList@VQItemSelectionRange@@@@SA?AV1@ABV?$list@VQItemSelectionRange@@V?$allocator@VQItemSelectionRange@@@std@@@std@@@Z
       5544 15A7 0015ECA0 ?fromString@QFont@@QAE_NABVQString@@@Z
       5545 15A8 00030650 ?fromString@QKeySequence@@SA?AV1@ABVQString@@W4SequenceFormat@1@@Z
       5546 15A9 001FBBF0 ?fromVector@?$QList@VQItemSelectionRange@@@@SA?AV1@ABV?$QVector@VQItemSelectionRange@@@@@Z
       5547 15AA 0009CAD0 ?fromWinHBITMAP@QPixmap@@SA?AV1@PAUHBITMAP__@@W4HBitmapFormat@1@@Z
       5548 15AB 001FA1B0 ?front@?$QList@VQItemSelectionRange@@@@QAEAAVQItemSelectionRange@@XZ
       5549 15AC 001F7760 ?front@?$QList@VQItemSelectionRange@@@@QBEABVQItemSelectionRange@@XZ
       5550 15AD 000F3410 ?fullPage@QPrinter@@QBE_NXZ
       5551 15AE 0008D750 ?gamma@QImageWriter@@QBEMXZ
       5552 15AF 00091E40 ?gamma@QPictureIO@@QBEMXZ
       5553 15B0 0024AAC0 ?generatedIconPixmap@QCleanlooksStyle@@UBE?AVQPixmap@@W4Mode@QIcon@@ABV2@PBVQStyleOption@@@Z
       5554 15B1 001E1F80 ?generatedIconPixmap@QCommonStyle@@UBE?AVQPixmap@@W4Mode@QIcon@@ABV2@PBVQStyleOption@@@Z
       5555 15B2 00385E60 ?geometriesChanged@QHeaderView@@IAEXXZ
       5556 15B3 004209B0 ?geometry@QGraphicsLayoutItem@@QBE?AVQRectF@@XZ
       5557 15B4 00031550 ?geometry@QLayout@@UBE?AVQRect@@XZ
       5558 15B5 000349F0 ?geometry@QSpacerItem@@UBE?AVQRect@@XZ
       5559 15B6 0042FF90 ?geometry@QSystemTrayIcon@@QBE?AVQRect@@XZ
       5560 15B7 00004A30 ?geometry@QWidget@@QBEABVQRect@@XZ
       5561 15B8 00034C20 ?geometry@QWidgetItem@@UBE?AVQRect@@XZ
       5562 15B9 0015B130 ?geometry@QWindowSurface@@QBE?AVQRect@@XZ
       5563 15BA 00160E50 ?getCMap@QFontEngine@@SAPBEPBEIPA_NPAH@Z
       5564 15BB 000C3B50 ?getCmyk@QColor@@QAEXPAH0000@Z
       5565 15BC 000C3BE0 ?getCmykF@QColor@@QAEXPAN0000@Z
       5566 15BD 0033EAC0 ?getColor@QColorDialog@@SA?AVQColor@@ABV2@PAVQWidget@@@Z
       5567 15BE 0033ED40 ?getColor@QColorDialog@@SA?AVQColor@@ABV2@PAVQWidget@@PBD@Z
       5568 15BF 00420150 ?getContentsMargins@QGraphicsLayout@@UBEXPAN000@Z
       5569 15C0 004209D0 ?getContentsMargins@QGraphicsLayoutItem@@UBEXPAN000@Z
       5570 15C1 00422380 ?getContentsMargins@QGraphicsWidget@@UBEXPAN000@Z
       5571 15C2 000335D0 ?getContentsMargins@QLayout@@QBEXPAH000@Z
       5572 15C3 00047AA0 ?getContentsMargins@QWidget@@QBEXPAH000@Z
       5573 15C4 002CA4A0 ?getDC@QPaintDevice@@UBEPAUHDC__@@XZ
       5574 15C5 002CA4A0 ?getDC@QPaintEngine@@UBEPAUHDC__@@XZ
       5575 15C6 000F3BC0 ?getDC@QPrinter@@UBEPAUHDC__@@XZ
       5576 15C7 000557D0 ?getDC@QWidget@@UBEPAUHDC__@@XZ
       5577 15C8 00213B30 ?getDouble@QInputDialog@@SANABVQString@@0NNNHPA_NPAVQWidget@@PBDV?$QFlags@W4WindowType@Qt@@@@@Z
       5578 15C9 003527A0 ?getDouble@QInputDialog@@SANPAVQWidget@@ABVQString@@1NNNHPA_NV?$QFlags@W4WindowType@Qt@@@@@Z
       5579 15CA 003342F0 ?getExistingDirectory@QFileDialog@@SA?AVQString@@ABV2@PAVQWidget@@PBD0_N3@Z
       5580 15CB 0034E510 ?getExistingDirectory@QFileDialog@@SA?AVQString@@PAVQWidget@@ABV2@1V?$QFlags@W4Option@QFileDialog@@@@@Z
       5581 15CC 003514B0 ?getFont@QFontDialog@@CA?AVQFont@@PA_NPBV2@PAVQWidget@@@Z
       5582 15CD 00351390 ?getFont@QFontDialog@@SA?AVQFont@@PA_NABV2@PAVQWidget@@@Z
       5583 15CE 00351360 ?getFont@QFontDialog@@SA?AVQFont@@PA_NABV2@PAVQWidget@@ABVQString@@@Z
       5584 15CF 00351540 ?getFont@QFontDialog@@SA?AVQFont@@PA_NABV2@PAVQWidget@@PBD@Z
       5585 15D0 00351420 ?getFont@QFontDialog@@SA?AVQFont@@PA_NPAVQWidget@@@Z
       5586 15D1 00351570 ?getFont@QFontDialog@@SA?AVQFont@@PA_NPAVQWidget@@PBD@Z
       5587 15D2 00162C20 ?getGlyphPositions@QFontEngine@@QAEXPBUQGlyphLayout@@HABVQTransform@@V?$QFlags@W4RenderFlag@QTextItem@@@@AAV?$QVarLengthArray@I$0BAA@@@AAV?$QVarLengthArray@UQFixedPoint@@$0BAA@@@@Z
       5588 15D3 000C4410 ?getHsv@QColor@@QBEXPAH000@Z
       5589 15D4 000C4340 ?getHsvF@QColor@@QBEXPAN000@Z
       5590 15D5 00213AF0 ?getInteger@QInputDialog@@SAHABVQString@@0HHHHPA_NPAVQWidget@@PBDV?$QFlags@W4WindowType@Qt@@@@@Z
       5591 15D6 00352680 ?getInteger@QInputDialog@@SAHPAVQWidget@@ABVQString@@1HHHHPA_NV?$QFlags@W4WindowType@Qt@@@@@Z
       5592 15D7 00213B80 ?getItem@QInputDialog@@SA?AVQString@@ABV2@0ABVQStringList@@H_NPA_NPAVQWidget@@PBDV?$QFlags@W4WindowType@Qt@@@@@Z
       5593 15D8 00352320 ?getItem@QInputDialog@@SA?AVQString@@PAVQWidget@@ABV2@1ABVQStringList@@H_NPA_NV?$QFlags@W4WindowType@Qt@@@@@Z
       5594 15D9 00026BF0 ?getItemPosition@QFormLayout@@QBEXHPAHPAW4ItemRole@1@@Z
       5595 15DA 0002A630 ?getItemPosition@QGridLayout@@QAEXHPAH000@Z
       5596 15DB 00048340 ?getLayoutItemMargins@QWidgetPrivate@@QBEXPAH000@Z
       5597 15DC 00026CA0 ?getLayoutPosition@QFormLayout@@QBEXPAVQLayout@@PAHPAW4ItemRole@1@@Z
       5598 15DD 00033530 ?getMargin@QLayoutPrivate@@QBEXPAHHW4PixelMetric@QStyle@@@Z
       5599 15DE 00049B50 ?getOpaqueChildren@QWidgetPrivate@@QBEABVQRegion@@XZ
       5600 15DF 0004DB00 ?getOpaqueRegion@QWidgetPrivate@@QBE?AVQRegion@@XZ
       5601 15E0 0004DC40 ?getOpaqueSiblings@QWidgetPrivate@@QBE?AVQRegion@@ABV2@@Z
       5602 15E1 00334250 ?getOpenFileName@QFileDialog@@SA?AVQString@@ABV2@0PAVQWidget@@PBD0PAV2@_N@Z
       5603 15E2 0034DDC0 ?getOpenFileName@QFileDialog@@SA?AVQString@@PAVQWidget@@ABV2@11PAV2@V?$QFlags@W4Option@QFileDialog@@@@@Z
       5604 15E3 00335760 ?getOpenFileNames@QFileDialog@@SA?AVQStringList@@ABVQString@@0PAVQWidget@@PBD0PAV3@_N@Z
       5605 15E4 0034E020 ?getOpenFileNames@QFileDialog@@SA?AVQStringList@@PAVQWidget@@ABVQString@@11PAV4@V?$QFlags@W4Option@QFileDialog@@@@@Z
       5606 15E5 000F4470 ?getPageMargins@QPrinter@@QBEXPAN000W4Unit@1@@Z
       5607 15E6 0032DBD0 ?getPaintContext@QPlainTextEdit@@IBE?AUPaintContext@QAbstractTextDocumentLayout@@XZ
       5608 15E7 00181390 ?getPaintContext@QTextControl@@QBE?AUPaintContext@QAbstractTextDocumentLayout@@PAVQWidget@@@Z
       5609 15E8 001609E0 ?getPointInOutline@QFontEngine@@UAE?AW4HB_Error@@IHIPAH0PAI@Z
       5610 15E9 002CA4A0 ?getPrinterDC@QPrintEngine@@UBEPAUHDC__@@XZ
       5611 15EA 002F70F0 ?getRange@QSplitter@@QBEXHPAH0@Z
       5612 15EB 000C4570 ?getRgb@QColor@@QBEXPAH000@Z
       5613 15EC 000C44B0 ?getRgbF@QColor@@QBEXPAN000@Z
       5614 15ED 004484B0 ?getRgba@QColor@@QBEXPAH000@Z
       5615 15EE 0033EBE0 ?getRgba@QColorDialog@@SAIIPA_NPAVQWidget@@@Z
       5616 15EF 0033ED60 ?getRgba@QColorDialog@@SAIIPA_NPAVQWidget@@PBD@Z
       5617 15F0 003342A0 ?getSaveFileName@QFileDialog@@SA?AVQString@@ABV2@0PAVQWidget@@PBD0PAV2@_N@Z
       5618 15F1 0034E290 ?getSaveFileName@QFileDialog@@SA?AVQString@@PAVQWidget@@ABV2@11PAV2@V?$QFlags@W4Option@QFileDialog@@@@@Z
       5619 15F2 002B90F0 ?getSelection@QLineEdit@@QAE_NPAH0@Z
       5620 15F3 00160C30 ?getSfntTable@QFontEngine@@QBE?AVQByteArray@@I@Z
       5621 15F4 00096050 ?getSfntTableData@QFontEngine@@UBE_NIPAEPAI@Z
       5622 15F5 00213AA0 ?getText@QInputDialog@@SA?AVQString@@ABV2@0W4EchoMode@QLineEdit@@0PA_NPAVQWidget@@PBDV?$QFlags@W4WindowType@Qt@@@@@Z
       5623 15F6 003521E0 ?getText@QInputDialog@@SA?AVQString@@PAVQWidget@@ABV2@1W4EchoMode@QLineEdit@@1PA_NV?$QFlags@W4WindowType@Qt@@@@@Z
       5624 15F7 00161020 ?getTrueTypeGlyphIndex@QFontEngine@@SAIPBEI@Z
       5625 15F8 00162660 ?getUnscaledGlyph@QFontEngine@@UAEXIPAVQPainterPath@@PAUglyph_metrics_t@@@Z
       5626 15F9 00026D00 ?getWidgetPosition@QFormLayout@@QBEXPAVQWidget@@PAHPAW4ItemRole@1@@Z
       5627 15FA 00422460 ?getWindowFrameMargins@QGraphicsWidget@@QBEXPAN000@Z
       5628 15FB 0000EA10 ?globalPos@QContextMenuEvent@@QBEABVQPoint@@XZ
       5629 15FC 00179BE0 ?globalPos@QHelpEvent@@QBEABVQPoint@@XZ
       5630 15FD 0000EA10 ?globalPos@QMouseEvent@@QBEABVQPoint@@XZ
       5631 15FE 0000EA10 ?globalPos@QTabletEvent@@QBEABVQPoint@@XZ
       5632 15FF 0000EA10 ?globalPos@QWheelEvent@@QBEABVQPoint@@XZ
       5633 1600 0000E3A0 ?globalStrut@QApplication@@SA?AVQSize@@XZ
       5634 1601 0044A8A0 ?globalX@QContextMenuEvent@@QBEHXZ
       5635 1602 0044ACF0 ?globalX@QHelpEvent@@QBEHXZ
       5636 1603 0044A8A0 ?globalX@QMouseEvent@@QBEHXZ
       5637 1604 0044A8A0 ?globalX@QTabletEvent@@QBEHXZ
       5638 1605 0044A8A0 ?globalX@QWheelEvent@@QBEHXZ
       5639 1606 0044A8B0 ?globalY@QContextMenuEvent@@QBEHXZ
       5640 1607 0044AD00 ?globalY@QHelpEvent@@QBEHXZ
       5641 1608 0044A8B0 ?globalY@QMouseEvent@@QBEHXZ
       5642 1609 0044A8B0 ?globalY@QTabletEvent@@QBEHXZ
       5643 160A 0044A8B0 ?globalY@QWheelEvent@@QBEHXZ
       5644 160B 00160DA0 ?glyphCount@QFontEngine@@UBEHXZ
       5645 160C 0008EBF0 ?glyphs@QTextEngine@@QBEPAUQGlyphLayout@@PBUQScriptItem@@@Z
       5646 160D 00179520 ?gotFocus@QFocusEvent@@QBE_NXZ
       5647 160E 003F4300 ?grabKeyboard@QGraphicsItem@@QAEXXZ
       5648 160F 0006E450 ?grabKeyboard@QWidget@@QAEXXZ
       5649 1610 0030DEA0 ?grabKeyboardEvent@QGraphicsWidget@@MAEXPAVQEvent@@@Z
       5650 1611 003F4290 ?grabMouse@QGraphicsItem@@QAEXXZ
       5651 1612 0006F5B0 ?grabMouse@QWidget@@QAEXABVQCursor@@@Z
       5652 1613 0006F500 ?grabMouse@QWidget@@QAEXXZ
       5653 1614 0030DEA0 ?grabMouseEvent@QGraphicsProxyWidget@@MAEXPAVQEvent@@@Z
       5654 1615 0030DEA0 ?grabMouseEvent@QGraphicsWidget@@MAEXPAVQEvent@@@Z
       5655 1616 0006F460 ?grabMouseWhileInWindow@QWidgetPrivate@@QAEXXZ
       5656 1617 00051620 ?grabShortcut@QWidget@@QAEHABVQKeySequence@@W4ShortcutContext@Qt@@@Z
       5657 1618 00098B90 ?grabWidget@QPixmap@@SA?AV1@PAVQWidget@@ABVQRect@@@Z
       5658 1619 002ABC70 ?grabWidget@QPixmap@@SA?AV1@PAVQWidget@@HHHH@Z
       5659 161A 0015B160 ?grabWidget@QWindowSurface@@UBE?AVQPixmap@@PBVQWidget@@ABVQRect@@@Z
       5660 161B 0009D1D0 ?grabWindow@QPixmap@@SA?AV1@PAUHWND__@@HHHH@Z
       5661 161C 000BF710 ?gradient@QBrush@@QBEPBVQGradient@@XZ
       5662 161D 00006230 ?graphicsProxyWidget@QWidgetPrivate@@QBEPAVQGraphicsProxyWidget@@XZ
       5663 161E 000C46C0 ?green@QColor@@QBEHXZ
       5664 161F 000C4830 ?greenF@QColor@@QBENXZ
       5665 1620 0038F790 ?gridSize@QListView@@QBE?AVQSize@@XZ
       5666 1621 00385A50 ?gridStyle@QTableView@@QBE?AW4PenStyle@Qt@@XZ
       5667 1622 00308F40 ?group@QAbstractButton@@QBEPAVQButtonGroup@@XZ
       5668 1623 003F6110 ?group@QGraphicsItem@@QBEPAVQGraphicsItemGroup@@XZ
       5669 1624 004162F0 ?group@QUndoView@@QBEPAVQUndoGroup@@XZ
       5670 1625 00137E80 ?hPal@QColormap@@SAPAUHPALETTE__@@XZ
       5671 1626 00063910 ?handle@QCursor@@QBEPAUHICON__@@XZ
       5672 1627 001D3B20 ?handle@QFont@@QBEPAUHFONT__@@XZ
       5673 1628 0005ACC0 ?handle@QRegion@@QBEPAUHRGN__@@XZ
       5674 1629 002F6BC0 ?handle@QSplitter@@QBEPAVQSplitterHandle@@H@Z
       5675 162A 0030B1E0 ?handleRect@QToolBarLayout@@QBE?AVQRect@@XZ
       5676 162B 002F5930 ?handleWidth@QSplitter@@QBEHXZ
       5677 162C 001AA4B0 ?handlerForObject@QAbstractTextDocumentLayout@@QBEPAVQTextObjectInterface@@H@Z
       5678 162D 003F41B0 ?handlesChildEvents@QGraphicsItem@@QBE_NXZ
       5679 162E 00160B90 ?harfbuzzFace@QFontEngine@@QBEPAUHB_FaceRec_@@XZ
       5680 162F 00160AF0 ?harfbuzzFont@QFontEngine@@QBEPAUHB_Font_@@XZ
       5681 1630 002795C0 ?hasAcceptableInput@QAbstractSpinBox@@QBE_NXZ
       5682 1631 002BB030 ?hasAcceptableInput@QLineEdit@@QBE_NXZ
       5683 1632 00096640 ?hasAlpha@QPixmap@@QBE_NXZ
       5684 1633 00079770 ?hasAlphaBuffer@QImage@@QBE_NXZ
       5685 1634 00079D30 ?hasAlphaChannel@QImage@@QBE_NXZ
       5686 1635 000966E0 ?hasAlphaChannel@QPixmap@@QBE_NXZ
       5687 1636 0037AA90 ?hasAutoScroll@QAbstractItemView@@QBE_NXZ
       5688 1637 0004D240 ?hasBackground@QWidgetPrivate@@QBE_NXZ
       5689 1638 003B9010 ?hasChildren@QDirModel@@UBE_NABVQModelIndex@@@Z
       5690 1639 0035CC60 ?hasChildren@QFileSystemModel@@UBE_NABVQModelIndex@@@Z
       5691 163A 003D84B0 ?hasChildren@QProxyModel@@UBE_NABVQModelIndex@@@Z
       5692 163B 003DF4A0 ?hasChildren@QSortFilterProxyModel@@UBE_NABVQModelIndex@@@Z
       5693 163C 003E1820 ?hasChildren@QStandardItem@@QBE_NXZ
       5694 163D 003E2EF0 ?hasChildren@QStandardItemModel@@UBE_NABVQModelIndex@@@Z
       5695 163E 003AEAF0 ?hasClipping@QItemDelegate@@QBE_NXZ
       5696 163F 000CE930 ?hasClipping@QPainter@@QBE_NXZ
       5697 1640 001B8770 ?hasComplexSelection@QTextCursor@@QBE_NXZ
       5698 1641 003F40D0 ?hasCursor@QGraphicsItem@@QBE_NXZ
       5699 1642 00020E80 ?hasCustomDragCursors@QDragManager@@QBE_NXZ
       5700 1643 0037D710 ?hasEditor@QAbstractItemViewPrivate@@QBE_NABVQModelIndex@@@Z
       5701 1644 0030B030 ?hasExpandFlag@QToolBarLayout@@QBE_NXZ
       5702 1645 00023200 ?hasExtendedInfo@QKeyEvent@@QBE_NXZ
       5703 1646 00023200 ?hasExtendedInfo@QMouseEvent@@QBE_NXZ
       5704 1647 000484D0 ?hasFeature@QPaintEngine@@QBE_NV?$QFlags@W4PaintEngineFeature@QPaintEngine@@@@@Z
       5705 1648 003F41C0 ?hasFocus@QGraphicsItem@@QBE_NXZ
       5706 1649 00404810 ?hasFocus@QGraphicsScene@@QBE_NXZ
       5707 164A 00048EE0 ?hasFocus@QWidget@@QBE_NXZ
       5708 164B 001911A0 ?hasFormatCached@QTextFormatCollection@@QBE_NABVQTextFormat@@@Z
       5709 164C 0008EC70 ?hasFormats@QTextEngine@@QBE_NXZ
       5710 164D 00279550 ?hasFrame@QAbstractSpinBox@@QBE_NXZ
       5711 164E 00287AC0 ?hasFrame@QComboBox@@QBE_NXZ
       5712 164F 002B8F80 ?hasFrame@QLineEdit@@QBE_NXZ
       5713 1650 00368440 ?hasGlobalMouseTracking@QApplication@@SA_NXZ
       5714 1651 0001CDF0 ?hasHeightForWidth@QBoxLayout@@UBE_NXZ
       5715 1652 00029590 ?hasHeightForWidth@QFormLayout@@UBE_NXZ
       5716 1653 0002CA70 ?hasHeightForWidth@QGridLayout@@UBE_NXZ
       5717 1654 000EBCA0 ?hasHeightForWidth@QLayoutItem@@UBE_NXZ
       5718 1655 00034AA0 ?hasHeightForWidth@QSizePolicy@@QBE_NXZ
       5719 1656 00034C80 ?hasHeightForWidth@QWidgetItem@@UBE_NXZ
       5720 1657 00178130 ?hasMarkedText@QLineEdit@@QBE_NXZ
       5721 1658 0005BCF0 ?hasMouse@QWidget@@QBE_NXZ
       5722 1659 0000F910 ?hasMouseTracking@QWidget@@QBE_NXZ
       5723 165A 0000EEE0 ?hasNext@Parser@QCss@@QBE_NXZ
       5724 165B 0018F800 ?hasProperty@QTextFormat@@QBE_NH@Z
       5725 165C 002B15A0 ?hasScaledContents@QLabel@@QBE_NXZ
       5726 165D 002B9000 ?hasSelectedText@QLineEdit@@QBE_NXZ
       5727 165E 00177170 ?hasSelectedText@QTextEdit@@QBE_NXZ
       5728 165F 003B6D10 ?hasSelection@QItemSelectionModel@@QBE_NXZ
       5729 1660 001B74D0 ?hasSelection@QTextCursor@@QBE_NXZ
       5730 1661 002B8F80 ?hasTracking@QAbstractSlider@@QBE_NXZ
       5731 1662 0044BBA0 ?hasViewXForm@QPainter@@QBE_NXZ
       5732 1663 0036ACA0 ?hasVisitedPage@QWizard@@QBE_NH@Z
       5733 1664 0044BB80 ?hasWorldXForm@QPainter@@QBE_NXZ
       5734 1665 003A0E00 ?header@QTreeView@@QBEPAVQHeaderView@@XZ
       5735 1666 003D8C80 ?headerData@QAbstractProxyModel@@UBE?AVQVariant@@HW4Orientation@Qt@@H@Z
       5736 1667 003B8E20 ?headerData@QDirModel@@UBE?AVQVariant@@HW4Orientation@Qt@@H@Z
       5737 1668 0035CDA0 ?headerData@QFileSystemModel@@UBE?AVQVariant@@HW4Orientation@Qt@@H@Z
       5738 1669 003D7B10 ?headerData@QProxyModel@@UBE?AVQVariant@@HW4Orientation@Qt@@H@Z
       5739 166A 003DF570 ?headerData@QSortFilterProxyModel@@UBE?AVQVariant@@HW4Orientation@Qt@@H@Z
       5740 166B 003E22C0 ?headerData@QStandardItemModel@@UBE?AVQVariant@@HW4Orientation@Qt@@H@Z
       5741 166C 0038C2F0 ?headerDataChanged@QHeaderView@@QAEXW4Orientation@Qt@@HH@Z
       5742 166D 003CF770 ?headerItem@QTreeWidget@@QBEPAVQTreeWidgetItem@@XZ
       5743 166E 0003F450 ?headerRowCount@QTextTableFormat@@QBEHXZ
       5744 166F 0027FC60 ?headerTextFormat@QCalendarWidget@@QBE?AVQTextCharFormat@@XZ
       5745 1670 0016AA00 ?height@QFontMetrics@@QBEHXZ
       5746 1671 0016B2A0 ?height@QFontMetricsF@@QBENXZ
       5747 1672 00046AA0 ?height@QGraphicsScene@@QBENXZ
       5748 1673 000795D0 ?height@QImage@@QBEHXZ
       5749 1674 001F3620 ?height@QItemSelectionRange@@QBEHXZ
       5750 1675 00075720 ?height@QPaintDevice@@QBEHXZ
       5751 1676 000964D0 ?height@QPixmap@@QBEHXZ
       5752 1677 00075720 ?height@QPixmapData@@QBEHXZ
       5753 1678 0003EDF0 ?height@QTextFrameFormat@@QBE?AVQTextLength@@XZ
       5754 1679 0003E9D0 ?height@QTextImageFormat@@QBENXZ
       5755 167A 0018ABC0 ?height@QTextInlineObject@@QBENXZ
       5756 167B 0018A7E0 ?height@QTextLine@@QBENXZ
       5757 167C 00004A50 ?height@QWidget@@QBEHXZ
       5758 167D 0001B940 ?heightForWidth@QBoxLayout@@UBEHH@Z
       5759 167E 00291900 ?heightForWidth@QCommandLinkButton@@MBEHH@Z
       5760 167F 00029CE0 ?heightForWidth@QFormLayout@@UBEHH@Z
       5761 1680 0002CAD0 ?heightForWidth@QGridLayout@@UBEHH@Z
       5762 1681 002B3F80 ?heightForWidth@QLabel@@UBEHH@Z
       5763 1682 000349C0 ?heightForWidth@QLayoutItem@@UBEHH@Z
       5764 1683 002EA440 ?heightForWidth@QMenuBar@@UBEHH@Z
       5765 1684 00047F00 ?heightForWidth@QWidget@@UBEHH@Z
       5766 1685 00034CD0 ?heightForWidth@QWidgetItem@@UBEHH@Z
       5767 1686 00035490 ?heightForWidth@QWidgetItemV2@@UBEHH@Z
       5768 1687 000EF490 ?heightMM@QPaintDevice@@QBEHXZ
       5769 1688 003AE6F0 ?helpEvent@QAbstractItemDelegate@@QAE_NPAVQHelpEvent@@PAVQAbstractItemView@@ABVQStyleOptionViewItem@@ABVQModelIndex@@@Z
       5770 1689 00412740 ?helpEvent@QGraphicsScene@@MAEXPAVQGraphicsSceneHelpEvent@@@Z
       5771 168A 0029A030 ?helpRequested@QDialogButtonBox@@IAEXXZ
       5772 168B 00368520 ?helpRequested@QWizard@@IAEXXZ
       5773 168C 0000E980 ?hiResGlobalPos@QTabletEvent@@QBEABVQPointF@@XZ
       5774 168D 0044A8C0 ?hiResGlobalX@QTabletEvent@@QBENXZ
       5775 168E 0044A8D0 ?hiResGlobalY@QTabletEvent@@QBENXZ
       5776 168F 00386260 ?hiddenSectionCount@QHeaderView@@QBEHXZ
       5777 1690 006A1484 ?hidden_focus_widget@QApplicationPrivate@@2PAVQWidget@@A
       5778 1691 0000D4C0 ?hide@QGraphicsItem@@QAEXXZ
       5779 1692 00430100 ?hide@QSystemTrayIcon@@QAEXXZ
       5780 1693 0003B5F0 ?hide@QWidget@@QAEXXZ
       5781 1694 00053D30 ?hideChildren@QWidgetPrivate@@QAEX_N@Z
       5782 1695 00399D20 ?hideColumn@QTableView@@QAEXH@Z
       5783 1696 003A0F60 ?hideColumn@QTreeView@@QAEXH@Z
       5784 1697 0027B140 ?hideEvent@QAbstractSpinBox@@MAEXPAVQHideEvent@@@Z
       5785 1698 002879F0 ?hideEvent@QComboBox@@MAEXPAVQHideEvent@@@Z
       5786 1699 0030DEA0 ?hideEvent@QGraphicsProxyWidget@@MAEXPAVQHideEvent@@@Z
       5787 169A 0030DEA0 ?hideEvent@QGraphicsWidget@@MAEXPAVQHideEvent@@@Z
       5788 169B 002D5460 ?hideEvent@QMdiSubWindow@@MAEXPAVQHideEvent@@@Z
       5789 169C 002E3EE0 ?hideEvent@QMenu@@MAEXPAVQHideEvent@@@Z
       5790 169D 002EE0F0 ?hideEvent@QScrollBar@@MAEXPAVQHideEvent@@@Z
       5791 169E 00308FA0 ?hideEvent@QSizeGrip@@MAEXPAVQHideEvent@@@Z
       5792 169F 0030DEA0 ?hideEvent@QWidget@@MAEXPAVQHideEvent@@@Z
       5793 16A0 0031A9A0 ?hideEvent@QWorkspace@@MAEXPAVQHideEvent@@@Z
       5794 16A1 002FA010 ?hideOrShow@QStatusBar@@IAEXXZ
       5795 16A2 0028C6D0 ?hidePopup@QComboBox@@UAEXXZ
       5796 16A3 00399D00 ?hideRow@QTableView@@QAEXH@Z
       5797 16A4 001F3F30 ?hideSection@QHeaderView@@QAEXH@Z
       5798 16A5 002DCA60 ?hideTearOffMenu@QMenu@@QAEXXZ
       5799 16A6 0003D470 ?hideText@QToolTip@@SAXXZ
       5800 16A7 000442D0 ?hideText@QWhatsThis@@SAXXZ
       5801 16A8 00056A00 ?hide_helper@QWidgetPrivate@@QAEXXZ
       5802 16A9 0006FB80 ?hide_sys@QWidgetPrivate@@QAEXXZ
       5803 16AA 00449520 ?highlight@QColorGroup@@QBEABVQColor@@XZ
       5804 16AB 001DCA50 ?highlight@QPalette@@QBEABVQBrush@@XZ
       5805 16AC 00385B00 ?highlightSections@QHeaderView@@QBE_NXZ
       5806 16AD 00287C40 ?highlighted@QComboBox@@IAEXABVQString@@@Z
       5807 16AE 00287C10 ?highlighted@QComboBox@@IAEXH@Z
       5808 16AF 00431A20 ?highlighted@QCompleter@@IAEXABVQModelIndex@@@Z
       5809 16B0 004319F0 ?highlighted@QCompleter@@IAEXABVQString@@@Z
       5810 16B1 002DC700 ?highlighted@QMenu@@IAEXH@Z
       5811 16B2 002E5F70 ?highlighted@QMenuBar@@IAEXH@Z
       5812 16B3 003062D0 ?highlighted@QTextBrowser@@IAEXABVQString@@@Z
       5813 16B4 003062A0 ?highlighted@QTextBrowser@@IAEXABVQUrl@@@Z
       5814 16B5 00449530 ?highlightedText@QColorGroup@@QBEABVQColor@@XZ
       5815 16B6 001DCA60 ?highlightedText@QPalette@@QBEABVQBrush@@XZ
       5816 16B7 00348180 ?history@QFileDialog@@QBE?AVQStringList@@XZ
       5817 16B8 00306250 ?historyChanged@QTextBrowser@@IAEXXZ
       5818 16B9 00306920 ?historyTitle@QTextBrowser@@QBE?AVQString@@H@Z
       5819 16BA 003068A0 ?historyUrl@QTextBrowser@@QBE?AVQUrl@@H@Z
       5820 16BB 002763F0 ?hitButton@QAbstractButton@@MBE_NABVQPoint@@@Z
       5821 16BC 00286650 ?hitButton@QCheckBox@@MBE_NABVQPoint@@@Z
       5822 16BD 002ED9B0 ?hitButton@QRadioButton@@MBE_NABVQPoint@@@Z
       5823 16BE 0030FCA0 ?hitButton@QToolButton@@MBE_NABVQPoint@@@Z
       5824 16BF 00329BA0 ?hitTest@QPlainTextDocumentLayout@@UBEHABVQPointF@@W4HitTestAccuracy@Qt@@@Z
       5825 16C0 001795D0 ?hitTest@QTextControl@@UBEHABVQPointF@@W4HitTestAccuracy@Qt@@@Z
       5826 16C1 0024AAB0 ?hitTestComplexControl@QCleanlooksStyle@@UBE?AW4SubControl@QStyle@@W4ComplexControl@3@PBVQStyleOptionComplex@@ABVQPoint@@PBVQWidget@@@Z
       5827 16C2 001E36D0 ?hitTestComplexControl@QCommonStyle@@UBE?AW4SubControl@QStyle@@W4ComplexControl@3@PBVQStyleOptionComplex@@ABVQPoint@@PBVQWidget@@@Z
       5828 16C3 0022CA10 ?hitTestComplexControl@QPlastiqueStyle@@UBE?AW4SubControl@QStyle@@W4ComplexControl@3@PBVQStyleOptionComplex@@ABVQPoint@@PBVQWidget@@@Z
       5829 16C4 00213110 ?hitTestComplexControl@QWindowsVistaStyle@@UBE?AW4SubControl@QStyle@@W4ComplexControl@3@PBVQStyleOptionComplex@@ABVQPoint@@PBVQWidget@@@Z
       5830 16C5 002BE090 ?home@QLineEdit@@QAEX_N@Z
       5831 16C6 00306020 ?home@QTextBrowser@@UAEXXZ
       5832 16C7 00033920 ?horData@QSizePolicy@@QBE?AW4Policy@1@XZ
       5833 16C8 0001B4C0 ?horStretch@QSizePolicy@@QBEIXZ
       5834 16C9 0000F7A0 ?horizontalAlignment@QApplication@@SA?AV?$QFlags@W4AlignmentFlag@Qt@@@@V2@@Z
       5835 16CA 0038F6E0 ?horizontalHeader@QTableView@@QBEPAVQHeaderView@@XZ
       5836 16CB 0027FB20 ?horizontalHeaderFormat@QCalendarWidget@@QBE?AW4HorizontalHeaderFormat@1@XZ
       5837 16CC 003E2180 ?horizontalHeaderItem@QStandardItemModel@@QBEPAVQStandardItem@@H@Z
       5838 16CD 003C70D0 ?horizontalHeaderItem@QTableWidget@@QBEPAVQTableWidgetItem@@H@Z
       5839 16CE 00385B30 ?horizontalOffset@QColumnView@@MBEHXZ
       5840 16CF 00385BB0 ?horizontalOffset@QHeaderView@@MBEHXZ
       5841 16D0 003911C0 ?horizontalOffset@QListView@@MBEHXZ
       5842 16D1 003997C0 ?horizontalOffset@QTableView@@MBEHXZ
       5843 16D2 003A1010 ?horizontalOffset@QTreeView@@MBEHXZ
       5844 16D3 00033920 ?horizontalPolicy@QSizePolicy@@QBE?AW4Policy@1@XZ
       5845 16D4 00403CA0 ?horizontalScaleAt@QGraphicsItemAnimation@@QBENN@Z
       5846 16D5 00312F60 ?horizontalScrollBar@QAbstractScrollArea@@QBEPAVQScrollBar@@XZ
       5847 16D6 00312F50 ?horizontalScrollBarPolicy@QAbstractScrollArea@@QBE?AW4ScrollBarPolicy@Qt@@XZ
       5848 16D7 0037AA50 ?horizontalScrollMode@QAbstractItemView@@QBE?AW4ScrollMode@1@XZ
       5849 16D8 0030DEA0 ?horizontalScrollbarAction@QAbstractItemView@@MAEXH@Z
       5850 16D9 00308FA0 ?horizontalScrollbarAction@QTableView@@MAEXH@Z
       5851 16DA 00308FA0 ?horizontalScrollbarAction@QTreeView@@MAEXH@Z
       5852 16DB 0037AE50 ?horizontalScrollbarValueChanged@QAbstractItemView@@MAEXH@Z
       5853 16DC 00403F60 ?horizontalShearAt@QGraphicsItemAnimation@@QBENN@Z
       5854 16DD 00026320 ?horizontalSpacing@QFormLayout@@QBEHXZ
       5855 16DE 0042FA00 ?horizontalSpacing@QGraphicsGridLayout@@QBENXZ
       5856 16DF 0002A1B0 ?horizontalSpacing@QGridLayout@@QBEHXZ
       5857 16E0 00046EC0 ?horizontalStepsPerItem@QAbstractItemView@@IBEHXZ
       5858 16E1 0001B4C0 ?horizontalStretch@QSizePolicy@@QBEHXZ
       5859 16E2 0001FB70 ?hotSpot@QCursor@@QBE?AVQPoint@@XZ
       5860 16E3 000204B0 ?hotSpot@QDrag@@QBE?AVQPoint@@XZ
       5861 16E4 00007940 ?hover@QAction@@QAEXXZ
       5862 16E5 003F4610 ?hoverEnterEvent@QGraphicsItem@@MAEXPAVQGraphicsSceneHoverEvent@@@Z
       5863 16E6 0030DEA0 ?hoverEnterEvent@QGraphicsProxyWidget@@MAEXPAVQGraphicsSceneHoverEvent@@@Z
       5864 16E7 003F5720 ?hoverEnterEvent@QGraphicsTextItem@@MAEXPAVQGraphicsSceneHoverEvent@@@Z
       5865 16E8 003F4610 ?hoverLeaveEvent@QGraphicsItem@@MAEXPAVQGraphicsSceneHoverEvent@@@Z
       5866 16E9 0042CFD0 ?hoverLeaveEvent@QGraphicsProxyWidget@@MAEXPAVQGraphicsSceneHoverEvent@@@Z
       5867 16EA 003F5720 ?hoverLeaveEvent@QGraphicsTextItem@@MAEXPAVQGraphicsSceneHoverEvent@@@Z
       5868 16EB 0030DEA0 ?hoverLeaveEvent@QGraphicsWidget@@MAEXPAVQGraphicsSceneHoverEvent@@@Z
       5869 16EC 0030DEA0 ?hoverMoveEvent@QGraphicsItem@@MAEXPAVQGraphicsSceneHoverEvent@@@Z
       5870 16ED 0042EE10 ?hoverMoveEvent@QGraphicsProxyWidget@@MAEXPAVQGraphicsSceneHoverEvent@@@Z
       5871 16EE 003F5720 ?hoverMoveEvent@QGraphicsTextItem@@MAEXPAVQGraphicsSceneHoverEvent@@@Z
       5872 16EF 0030DEA0 ?hoverMoveEvent@QGraphicsWidget@@MAEXPAVQGraphicsSceneHoverEvent@@@Z
       5873 16F0 00007940 ?hovered@QAction@@IAEXXZ
       5874 16F1 0000B740 ?hovered@QActionGroup@@IAEXPAVQAction@@@Z
       5875 16F2 002DC6A0 ?hovered@QMenu@@IAEXPAVQAction@@@Z
       5876 16F3 002E5F10 ?hovered@QMenuBar@@IAEXPAVQAction@@@Z
       5877 16F4 0044ADF0 ?href@QWhatsThisClickedEvent@@QBE?AVQString@@XZ
       5878 16F5 00448480 ?hsv@QColor@@QBEXPAH00@Z
       5879 16F6 000C4A30 ?hue@QColor@@QBEHXZ
       5880 16F7 000C4AE0 ?hueF@QColor@@QBENXZ
       5881 16F8 00275DE0 ?icon@QAbstractButton@@QBE?AVQIcon@@XZ
       5882 16F9 00004100 ?icon@QAction@@QBE?AVQIcon@@XZ
       5883 16FA 003EBB00 ?icon@QFileIconProvider@@UBE?AVQIcon@@ABVQFileInfo@@@Z
       5884 16FB 003EB520 ?icon@QFileIconProvider@@UBE?AVQIcon@@W4IconType@1@@Z
       5885 16FC 003352A0 ?icon@QListWidgetItem@@QBE?AVQIcon@@XZ
       5886 16FD 002DC0A0 ?icon@QMenu@@QBE?AVQIcon@@XZ
       5887 16FE 0030FD50 ?icon@QMessageBox@@QBE?AW4Icon@1@XZ
       5888 16FF 00288D40 ?icon@QStandardItem@@QBE?AVQIcon@@XZ
       5889 1700 0042FF10 ?icon@QSystemTrayIcon@@QBE?AVQIcon@@XZ
       5890 1701 003C5A90 ?icon@QTableWidgetItem@@QBE?AVQIcon@@XZ
       5891 1702 003CE7D0 ?icon@QTreeWidgetItem@@QBE?AVQIcon@@H@Z
       5892 1703 00047F40 ?icon@QWidget@@QBEPBVQPixmap@@XZ
       5893 1704 00352AF0 ?iconPixmap@QMessageBox@@QBE?AVQPixmap@@XZ
       5894 1705 003D9EC0 ?iconProvider@QDirModel@@QBEPAVQFileIconProvider@@XZ
       5895 1706 00342870 ?iconProvider@QFileDialog@@QBEPAVQFileIconProvider@@XZ
       5896 1707 0035C4C0 ?iconProvider@QFileSystemModel@@QBEPAVQFileIconProvider@@XZ
       5897 1708 002760E0 ?iconSet@QAbstractButton@@QBEPAVQIcon@@XZ
       5898 1709 00004AC0 ?iconSet@QAction@@QBE?AVQIcon@@XZ
       5899 170A 00004B40 ?iconSet@QMenu@@QBE?AVQIcon@@H@Z
       5900 170B 00004E70 ?iconSet@QMenuBar@@QBE?AVQIcon@@H@Z
       5901 170C 00043E20 ?iconSet@QToolButton@@QBE?AVQIcon@@XZ
       5902 170D 0030FCE0 ?iconSet@QToolButton@@QBE?AVQIcon@@_N@Z
       5903 170E 00276080 ?iconSize@QAbstractButton@@QBE?AVQSize@@XZ
       5904 170F 0037AC20 ?iconSize@QAbstractItemView@@QBE?AVQSize@@XZ
       5905 1710 002873E0 ?iconSize@QComboBox@@QBE?AVQSize@@XZ
       5906 1711 002C2470 ?iconSize@QMainWindow@@QBE?AVQSize@@XZ
       5907 1712 002FB1C0 ?iconSize@QTabBar@@QBE?AVQSize@@XZ
       5908 1713 002FFB80 ?iconSize@QTabWidget@@QBE?AVQSize@@XZ
       5909 1714 00308A90 ?iconSize@QToolBar@@QBE?AVQSize@@XZ
       5910 1715 00443670 ?iconSizeChanged@QMainWindow@@IAEXABVQSize@@@Z
       5911 1716 003090E0 ?iconSizeChanged@QToolBar@@IAEXABVQSize@@@Z
       5912 1717 00004220 ?iconText@QAction@@QBE?AVQString@@XZ
       5913 1718 00449C00 ?iconText@QWidget@@QBE?AVQString@@XZ
       5914 1719 001CAA40 ?iconValue@Declaration@QCss@@QBE?AVQIcon@@XZ
       5915 171A 004499D0 ?iconify@QWidget@@QAEXXZ
       5916 171B 00276970 ?id@QButtonGroup@@QBEHPAVQAbstractButton@@@Z
       5917 171C 002EAE40 ?id@QMenuItem@@QBEHXZ
       5918 171D 00038980 ?id@QShortcut@@QBEHXZ
       5919 171E 0043ABB0 ?id@QUndoCommand@@UBEHXZ
       5920 171F 00007E90 ?idAt@QMenu@@QBEHH@Z
       5921 1720 00008570 ?idAt@QMenuBar@@QBEHH@Z
       5922 1721 0019A9B0 ?idealWidth@QTextDocument@@QBENXZ
       5923 1722 0044AC20 ?ignore@QDragMoveEvent@@QAEXABVQRect@@@Z
       5924 1723 0033ACD0 ?ignore@QDragMoveEvent@@QAEXXZ
       5925 1724 0001ED30 ?image@QClipboard@@QBE?AVQImage@@W4Mode@1@@Z
       5926 1725 00089F40 ?imageCount@QImageIOHandler@@UBEHXZ
       5927 1726 0008D180 ?imageCount@QImageReader@@QBEHXZ
       5928 1727 0008BAA0 ?imageFormat@QImageReader@@SA?AVQByteArray@@ABVQString@@@Z
       5929 1728 0008B820 ?imageFormat@QImageReader@@SA?AVQByteArray@@PAVQIODevice@@@Z
       5930 1729 0008EB10 ?imageFormat@QTextFormatCollection@@QBE?AVQTextImageFormat@@H@Z
       5931 172A 0016AC90 ?inFont@QFontMetrics@@QBE_NVQChar@@@Z
       5932 172B 0016AC90 ?inFont@QFontMetricsF@@QBE_NVQChar@@@Z
       5933 172C 0000E700 ?inPopupMode@QApplicationPrivate@@QBE_NXZ
       5934 172D 006A149C ?inSizeMove@QApplicationPrivate@@2_NA
       5935 172E 000442C0 ?inWhatsThisMode@QWhatsThis@@SA_NXZ
       5936 172F 00449560 ?inactive@QPalette@@QBE?AVQColorGroup@@XZ
       5937 1730 002B1510 ?indent@QLabel@@QBEHXZ
       5938 1731 0003E730 ?indent@QTextBlockFormat@@QBEHXZ
       5939 1732 0003E870 ?indent@QTextListFormat@@QBEHXZ
       5940 1733 001982D0 ?indentWidth@QTextDocument@@QBENXZ
       5941 1734 00385A50 ?indentation@QTreeView@@QBEHXZ
       5942 1735 003BC2C0 ?index@QDirModel@@QBE?AVQModelIndex@@ABVQString@@H@Z
       5943 1736 003BC1C0 ?index@QDirModel@@UBE?AVQModelIndex@@HHABV2@@Z
       5944 1737 00364DF0 ?index@QFileSystemModel@@QBE?AVQModelIndex@@ABVQString@@H@Z
       5945 1738 0035EF50 ?index@QFileSystemModel@@UBE?AVQModelIndex@@HHABV2@@Z
       5946 1739 003D82E0 ?index@QProxyModel@@UBE?AVQModelIndex@@HHABV2@@Z
       5947 173A 003DF260 ?index@QSortFilterProxyModel@@UBE?AVQModelIndex@@HHABV2@@Z
       5948 173B 003E3DE0 ?index@QStandardItem@@QBE?AVQModelIndex@@XZ
       5949 173C 003E2F50 ?index@QStandardItemModel@@UBE?AVQModelIndex@@HHABV2@@Z
       5950 173D 0009AC60 ?index@QUndoStack@@QBEHXZ
       5951 173E 003AA4C0 ?indexAbove@QTreeView@@QBE?AVQModelIndex@@ABV2@@Z
       5952 173F 00186330 ?indexAdditionalFormats@QTextEngine@@QAEXXZ
       5953 1740 003EC420 ?indexAt@QColumnView@@UBE?AVQModelIndex@@ABVQPoint@@@Z
       5954 1741 0043C8A0 ?indexAt@QHeaderView@@MBE?AVQModelIndex@@ABVQPoint@@@Z
       5955 1742 00397130 ?indexAt@QListView@@UBE?AVQModelIndex@@ABVQPoint@@@Z
       5956 1743 0039BB00 ?indexAt@QTableView@@UBE?AVQModelIndex@@ABVQPoint@@@Z
       5957 1744 003A8200 ?indexAt@QTreeView@@UBE?AVQModelIndex@@ABVQPoint@@@Z
       5958 1745 003AA570 ?indexBelow@QTreeView@@QBE?AVQModelIndex@@ABV2@@Z
       5959 1746 00447B10 ?indexChanged@QUndoGroup@@IAEXH@Z
       5960 1747 00447E00 ?indexChanged@QUndoStack@@IAEXH@Z
       5961 1748 0037D570 ?indexForEditor@QAbstractItemViewPrivate@@QBE?AVQModelIndex@@PAVQWidget@@@Z
       5962 1749 00193430 ?indexForFormat@QTextFormatCollection@@QAEHABVQTextFormat@@@Z
       5963 174A 0037C3B0 ?indexForIterator@QAbstractItemViewPrivate@@QBE?AVQModelIndex@@ABVconst_iterator@?$QList@U?$QPair@VQPersistentModelIndex@@V?$QPointer@VQWidget@@@@@@@@@Z
       5964 174B 0037C3B0 ?indexForIterator@QAbstractItemViewPrivate@@QBE?AVQModelIndex@@ABViterator@?$QList@U?$QPair@VQPersistentModelIndex@@V?$QPointer@VQWidget@@@@@@@@@Z
       5965 174C 003C05E0 ?indexFromItem@QListWidget@@IBE?AVQModelIndex@@PAVQListWidgetItem@@@Z
       5966 174D 003E2CC0 ?indexFromItem@QStandardItemModel@@QBE?AVQModelIndex@@PBVQStandardItem@@@Z
       5967 174E 003C7BE0 ?indexFromItem@QTableWidget@@IBE?AVQModelIndex@@PAVQTableWidgetItem@@@Z
       5968 174F 003D04F0 ?indexFromItem@QTreeWidget@@IBE?AVQModelIndex@@PAVQTreeWidgetItem@@H@Z
       5969 1750 001F6910 ?indexOf@?$QList@VQItemSelectionRange@@@@QBEHABVQItemSelectionRange@@H@Z
       5970 1751 00030FE0 ?indexOf@QLayout@@UBEHPAVQWidget@@@Z
       5971 1752 00007DB0 ?indexOf@QMenu@@QBEHH@Z
       5972 1753 00008490 ?indexOf@QMenuBar@@QBEHH@Z
       5973 1754 002F6B60 ?indexOf@QSplitter@@QBEHPAVQWidget@@@Z
       5974 1755 002F9910 ?indexOf@QStackedWidget@@QBEHPAVQWidget@@@Z
       5975 1756 002FFAC0 ?indexOf@QTabWidget@@QBEHPAVQWidget@@@Z
       5976 1757 0030B260 ?indexOf@QToolBarLayout@@QBEHPAVQAction@@@Z
       5977 1758 002C4360 ?indexOf@QToolBarLayout@@UBEHPAVQWidget@@@Z
       5978 1759 0030EA20 ?indexOf@QToolBox@@QBEHPAVQWidget@@@Z
       5979 175A 00373C20 ?indexOfChild@QAccessibleApplication@@UBEHPBVQAccessibleInterface@@@Z
       5980 175B 00375910 ?indexOfChild@QAccessibleWidget@@UBEHPBVQAccessibleInterface@@@Z
       5981 175C 00375F80 ?indexOfChild@QAccessibleWidgetEx@@UBEHPBVQAccessibleInterface@@@Z
       5982 175D 003D4BB0 ?indexOfChild@QTreeWidgetItem@@QBEHPAV1@@Z
       5983 175E 003D6850 ?indexOfTopLevelItem@QTreeWidget@@QAEHPAVQTreeWidgetItem@@@Z
       5984 175F 003D6850 ?indexOfTopLevelItem@QTreeWidget@@QBEHPAVQTreeWidgetItem@@@Z
       5985 1760 003A6150 ?indexRowSizeHint@QTreeView@@IBEHABVQModelIndex@@@Z
       5986 1761 0037F470 ?indexWidget@QAbstractItemView@@QBEPAVQWidget@@ABVQModelIndex@@@Z
       5987 1762 003B4190 ?indexes@QItemSelection@@QBE?AV?$QList@VQModelIndex@@@@XZ
       5988 1763 003B3DB0 ?indexes@QItemSelectionRange@@QBE?AV?$QList@VQModelIndex@@@@XZ
       5989 1764 00446830 ?indexesMoved@QListView@@IAEXABV?$QList@VQModelIndex@@@@@Z
       5990 1765 00355FA0 ?information@QMessageBox@@SA?AW4StandardButton@1@PAVQWidget@@ABVQString@@1V?$QFlags@W4StandardButton@QMessageBox@@@@W421@@Z
       5991 1766 0000EFF0 ?information@QMessageBox@@SA?AW4StandardButton@1@PAVQWidget@@ABVQString@@1W421@2@Z
       5992 1767 00356880 ?information@QMessageBox@@SAHPAVQWidget@@ABVQString@@1111HH@Z
       5993 1768 00355820 ?information@QMessageBox@@SAHPAVQWidget@@ABVQString@@1HHH@Z
       5994 1769 00352CE0 ?informativeText@QMessageBox@@QBE?AVQString@@XZ
       5995 176A 0004BD30 ?inheritStyle@QWidgetPrivate@@QAEXXZ
       5996 176B 001CDDD0 ?init@Parser@QCss@@QAEXABVQString@@_N@Z
       5997 176C 003800C0 ?init@QAbstractItemViewPrivate@@QAEXXZ
       5998 176D 000C17F0 ?init@QBrush@@AAEXABVQColor@@W4BrushStyle@Qt@@@Z
       5999 176E 002AED20 ?init@QFramePrivate@@QAEXXZ
       6000 176F 00035C90 ?init@QPalette@@AAEXXZ
       6001 1770 00095610 ?init@QPictureIO@@AAEXXZ
       6002 1771 00096800 ?init@QPixmap@@AAEXHHH@Z
       6003 1772 00096800 ?init@QPixmap@@AAEXHHW4Type@1@@Z
       6004 1773 000F2D90 ?init@QPrinter@@AAEXW4PrinterMode@1@@Z
       6005 1774 001DB5B0 ?init@QStyleOption@@QAEXPBVQWidget@@@Z
       6006 1775 00055830 ?init@QWidgetPrivate@@QAEXPAVQWidget@@V?$QFlags@W4WindowType@Qt@@@@@Z
       6007 1776 000CE660 ?initFrom@QPainter@@QAEXPBVQWidget@@@Z
       6008 1777 00002EB0 ?initFrom@QStyleOption@@QAEXPBVQWidget@@@Z
       6009 1778 0027CD70 ?initStyleOption@QAbstractSpinBox@@IBEXPAVQStyleOptionSpinBox@@@Z
       6010 1779 00286220 ?initStyleOption@QCheckBox@@IBEXPAVQStyleOptionButton@@@Z
       6011 177A 0028A8B0 ?initStyleOption@QComboBox@@IBEXPAVQStyleOptionComboBox@@@Z
       6012 177B 002969B0 ?initStyleOption@QDateTimeEdit@@IBEXPAVQStyleOptionSpinBox@@@Z
       6013 177C 00299A80 ?initStyleOption@QDial@@IBEXPAVQStyleOptionSlider@@@Z
       6014 177D 0029D1A0 ?initStyleOption@QDockWidget@@IBEXPAVQStyleOptionDockWidget@@@Z
       6015 177E 00316710 ?initStyleOption@QFocusFrame@@IBEXPAVQStyleOption@@@Z
       6016 177F 00423750 ?initStyleOption@QGraphicsWidget@@MBEXPAVQStyleOption@@@Z
       6017 1780 002AFD00 ?initStyleOption@QGroupBox@@IBEXPAVQStyleOptionGroupBox@@@Z
       6018 1781 00387630 ?initStyleOption@QHeaderView@@IBEXPAVQStyleOptionHeader@@@Z
       6019 1782 002B9BE0 ?initStyleOption@QLineEdit@@IBEXPAVQStyleOptionFrame@@@Z
       6020 1783 002DDEB0 ?initStyleOption@QMenu@@IBEXPAVQStyleOptionMenuItem@@PBVQAction@@@Z
       6021 1784 002E63B0 ?initStyleOption@QMenuBar@@IBEXPAVQStyleOptionMenuItem@@PBVQAction@@@Z
       6022 1785 002EB4A0 ?initStyleOption@QProgressBar@@IBEXPAVQStyleOptionProgressBar@@@Z
       6023 1786 002EC450 ?initStyleOption@QPushButton@@IBEXPAVQStyleOptionButton@@@Z
       6024 1787 002ED6D0 ?initStyleOption@QRadioButton@@IBEXPAVQStyleOptionButton@@@Z
       6025 1788 002EDB60 ?initStyleOption@QRubberBand@@IBEXPAVQStyleOptionRubberBand@@@Z
       6026 1789 002EE120 ?initStyleOption@QScrollBar@@IBEXPAVQStyleOptionSlider@@@Z
       6027 178A 002F09B0 ?initStyleOption@QSlider@@IBEXPAVQStyleOptionSlider@@@Z
       6028 178B 003F0BB0 ?initStyleOption@QStyledItemDelegate@@MBEXPAVQStyleOptionViewItem@@ABVQModelIndex@@@Z
       6029 178C 002FDCC0 ?initStyleOption@QTabBar@@IBEXPAVQStyleOptionTab@@H@Z
       6030 178D 002FF7B0 ?initStyleOption@QTabWidget@@IBEXPAVQStyleOptionTabWidgetFrame@@@Z
       6031 178E 0030A9F0 ?initStyleOption@QToolBar@@IBEXPAVQStyleOptionToolBar@@@Z
       6032 178F 00310320 ?initStyleOption@QToolButton@@IBEXPAVQStyleOptionToolButton@@@Z
       6033 1790 00276040 ?initialize@QAccessible@@SAXXZ
       6034 1791 00019B10 ?initialize@QApplicationPrivate@@QAEXXZ
       6035 1792 00138270 ?initialize@QColormap@@SAXXZ
       6036 1793 00276040 ?initialize@QFont@@SAXXZ
       6037 1794 003860E0 ?initialize@QHeaderView@@IAEXXZ
       6038 1795 003ED760 ?initializeColumn@QColumnView@@IBEXPAVQAbstractItemView@@@Z
       6039 1796 0036B8B0 ?initializePage@QWizard@@MAEXH@Z
       6040 1797 00276040 ?initializePage@QWizardPage@@UAEXXZ
       6041 1798 0038AD30 ?initializeSections@QHeaderView@@IAEXHH@Z
       6042 1799 0038C4B0 ?initializeSections@QHeaderView@@IAEXXZ
       6043 179A 0005B030 ?initializeWidgetPaletteHash@QApplicationPrivate@@SAXXZ
       6044 179B 0000F8F0 ?inputContext@QApplication@@QBEPAVQInputContext@@XZ
       6045 179C 006A1444 ?inputContext@QApplicationPrivate@@2PAVQInputContext@@A
       6046 179D 00049810 ?inputContext@QWidget@@QAEPAVQInputContext@@XZ
       6047 179E 00048840 ?inputContext@QWidgetPrivate@@QBEPAVQInputContext@@XZ
       6048 179F 00095A10 ?inputFormatList@QPicture@@SA?AVQStringList@@XZ
       6049 17A0 000959F0 ?inputFormats@QPicture@@SA?AV?$QList@VQByteArray@@@@XZ
       6050 17A1 00095790 ?inputFormats@QPictureIO@@SA?AV?$QList@VQByteArray@@@@XZ
       6051 17A2 002B9190 ?inputMask@QLineEdit@@QBE?AVQString@@XZ
       6052 17A3 0037BCF0 ?inputMethodEvent@QAbstractItemView@@MAEXPAVQInputMethodEvent@@@Z
       6053 17A4 00287A00 ?inputMethodEvent@QComboBox@@MAEXPAVQInputMethodEvent@@@Z
       6054 17A5 00313020 ?inputMethodEvent@QGraphicsItem@@MAEXPAVQInputMethodEvent@@@Z
       6055 17A6 00407800 ?inputMethodEvent@QGraphicsScene@@MAEXPAVQInputMethodEvent@@@Z
       6056 17A7 003F5720 ?inputMethodEvent@QGraphicsTextItem@@MAEXPAVQInputMethodEvent@@@Z
       6057 17A8 00417970 ?inputMethodEvent@QGraphicsView@@MAEXPAVQInputMethodEvent@@@Z
       6058 17A9 002C0A20 ?inputMethodEvent@QLineEdit@@MAEXPAVQInputMethodEvent@@@Z
       6059 17AA 0032D540 ?inputMethodEvent@QPlainTextEdit@@MAEXPAVQInputMethodEvent@@@Z
       6060 17AB 00303660 ?inputMethodEvent@QTextEdit@@MAEXPAVQInputMethodEvent@@@Z
       6061 17AC 00313020 ?inputMethodEvent@QWidget@@MAEXPAVQInputMethodEvent@@@Z
       6062 17AD 0037C400 ?inputMethodQuery@QAbstractItemView@@UBE?AVQVariant@@W4InputMethodQuery@Qt@@@Z
       6063 17AE 00287A70 ?inputMethodQuery@QComboBox@@MBE?AVQVariant@@W4InputMethodQuery@Qt@@@Z
       6064 17AF 003F4660 ?inputMethodQuery@QGraphicsItem@@MBE?AVQVariant@@W4InputMethodQuery@Qt@@@Z
       6065 17B0 00404900 ?inputMethodQuery@QGraphicsScene@@UBE?AVQVariant@@W4InputMethodQuery@Qt@@@Z
       6066 17B1 003F5730 ?inputMethodQuery@QGraphicsTextItem@@MBE?AVQVariant@@W4InputMethodQuery@Qt@@@Z
       6067 17B2 00417270 ?inputMethodQuery@QGraphicsView@@UBE?AVQVariant@@W4InputMethodQuery@Qt@@@Z
       6068 17B3 002BBDA0 ?inputMethodQuery@QLineEdit@@UBE?AVQVariant@@W4InputMethodQuery@Qt@@@Z
       6069 17B4 0032ADF0 ?inputMethodQuery@QPlainTextEdit@@MBE?AVQVariant@@W4InputMethodQuery@Qt@@@Z
       6070 17B5 0017A5D0 ?inputMethodQuery@QTextControl@@UBE?AVQVariant@@W4InputMethodQuery@Qt@@@Z
       6071 17B6 00303780 ?inputMethodQuery@QTextEdit@@MBE?AVQVariant@@W4InputMethodQuery@Qt@@@Z
       6072 17B7 00047CB0 ?inputMethodQuery@QWidget@@UBE?AVQVariant@@W4InputMethodQuery@Qt@@@Z
       6073 17B8 001F68D0 ?insert@?$QList@VQItemSelectionRange@@@@QAE?AViterator@1@V21@ABVQItemSelectionRange@@@Z
       6074 17B9 001FA5D0 ?insert@?$QList@VQItemSelectionRange@@@@QAEXHABVQItemSelectionRange@@@Z
       6075 17BA 002783C0 ?insert@QButtonGroup@@QAEXPAVQAbstractButton@@@Z
       6076 17BB 002C0650 ?insert@QLineEdit@@QAEXABVQString@@@Z
       6077 17BC 00099E10 ?insert@QPixmapCache@@SA_NABVQString@@ABVQPixmap@@@Z
       6078 17BD 00177280 ?insert@QTextEdit@@QAEXABVQString@@@Z
       6079 17BE 0030B7E0 ?insertAction@QToolBarLayout@@QAEXHPAVQAction@@@Z
       6080 17BF 0004F320 ?insertAction@QWidget@@QAEXPAVQAction@@0@Z
       6081 17C0 0004F460 ?insertActions@QWidget@@QAEXPAVQAction@@V?$QList@PAVQAction@@@@@Z
       6082 17C1 002DEEB0 ?insertAny@QMenu@@AAEHPBVQIcon@@PBVQString@@PBVQObject@@PBDPBVQKeySequence@@PBV1@HH@Z
       6083 17C2 002E7980 ?insertAny@QMenuBar@@AAEHPBVQIcon@@PBVQString@@PBVQObject@@PBDPBVQKeySequence@@PBVQMenu@@HH@Z
       6084 17C3 001BC7A0 ?insertBlock@QTextCursor@@QAEXABVQTextBlockFormat@@@Z
       6085 17C4 001BB180 ?insertBlock@QTextCursor@@QAEXABVQTextBlockFormat@@ABVQTextCharFormat@@@Z
       6086 17C5 001BC8A0 ?insertBlock@QTextCursor@@QAEXXZ
       6087 17C6 003D32B0 ?insertChild@QTreeWidgetItem@@QAEXHPAV1@@Z
       6088 17C7 003D3690 ?insertChildren@QTreeWidgetItem@@QAEXHABV?$QList@PAVQTreeWidgetItem@@@@@Z
       6089 17C8 003E6860 ?insertColumn@QStandardItem@@QAEXHABV?$QList@PAVQStandardItem@@@@@Z
       6090 17C9 003E6DE0 ?insertColumn@QStandardItemModel@@QAEXHABV?$QList@PAVQStandardItem@@@@@Z
       6091 17CA 00286EF0 ?insertColumn@QStandardItemModel@@QAE_NHABVQModelIndex@@@Z
       6092 17CB 003C7880 ?insertColumn@QTableWidget@@QAEXH@Z
       6093 17CC 003D86D0 ?insertColumns@QProxyModel@@UAE_NHHABVQModelIndex@@@Z
       6094 17CD 003DF800 ?insertColumns@QSortFilterProxyModel@@UAE_NHHABVQModelIndex@@@Z
       6095 17CE 003E5700 ?insertColumns@QStandardItem@@QAEXHH@Z
       6096 17CF 003E74F0 ?insertColumns@QStandardItemModel@@UAE_NHHABVQModelIndex@@@Z
       6097 17D0 001C3FC0 ?insertColumns@QTextTable@@QAEXHH@Z
       6098 17D1 001BB5B0 ?insertFragment@QTextCursor@@QAEXABVQTextDocumentFragment@@@Z
       6099 17D2 001BB510 ?insertFrame@QTextCursor@@QAEPAVQTextFrame@@ABVQTextFrameFormat@@@Z
       6100 17D3 00329EB0 ?insertFromMimeData@QPlainTextEdit@@MAEXPBVQMimeData@@@Z
       6101 17D4 0017BEA0 ?insertFromMimeData@QTextControl@@UAEXPBVQMimeData@@@Z
       6102 17D5 00329EB0 ?insertFromMimeData@QTextEdit@@MAEXPBVQMimeData@@@Z
       6103 17D6 001792A0 ?insertHtml@QTextControl@@QAEXABVQString@@@Z
       6104 17D7 001BB690 ?insertHtml@QTextCursor@@QAEXABVQString@@@Z
       6105 17D8 003019D0 ?insertHtml@QTextEdit@@QAEXABVQString@@@Z
       6106 17D9 001BB9C0 ?insertImage@QTextCursor@@QAEXABVQString@@@Z
       6107 17DA 001BB940 ?insertImage@QTextCursor@@QAEXABVQTextImageFormat@@@Z
       6108 17DB 001BB740 ?insertImage@QTextCursor@@QAEXABVQTextImageFormat@@W4Position@QTextFrameFormat@@@Z
       6109 17DC 0001D4D0 ?insertItem@QBoxLayout@@IAEXHPAVQLayoutItem@@@Z
       6110 17DD 001F2DD0 ?insertItem@QComboBox@@QAEXABVQPixmap@@ABVQString@@H@Z
       6111 17DE 001F2D10 ?insertItem@QComboBox@@QAEXABVQPixmap@@H@Z
       6112 17DF 001F5CC0 ?insertItem@QComboBox@@QAEXABVQString@@H@Z
       6113 17E0 0028F180 ?insertItem@QComboBox@@QAEXHABVQIcon@@ABVQString@@ABVQVariant@@@Z
       6114 17E1 001F3050 ?insertItem@QComboBox@@QAEXHABVQString@@ABVQVariant@@@Z
       6115 17E2 00421760 ?insertItem@QGraphicsLinearLayout@@QAEXHPAVQGraphicsLayoutItem@@@Z
       6116 17E3 003C3D70 ?insertItem@QListWidget@@QAEXHABVQString@@@Z
       6117 17E4 003C2B40 ?insertItem@QListWidget@@QAEXHPAVQListWidgetItem@@@Z
       6118 17E5 00001450 ?insertItem@QMenu@@QAEHABVQIcon@@ABVQString@@HH@Z
       6119 17E6 000014B0 ?insertItem@QMenu@@QAEHABVQIcon@@ABVQString@@PAV1@HH@Z
       6120 17E7 00001360 ?insertItem@QMenu@@QAEHABVQIcon@@ABVQString@@PBVQObject@@PBDABVQKeySequence@@HH@Z
       6121 17E8 000014E0 ?insertItem@QMenu@@QAEHABVQPixmap@@HH@Z
       6122 17E9 00001570 ?insertItem@QMenu@@QAEHABVQPixmap@@PAV1@HH@Z
       6123 17EA 00001390 ?insertItem@QMenu@@QAEHABVQPixmap@@PBVQObject@@PBDABVQKeySequence@@HH@Z
       6124 17EB 00001420 ?insertItem@QMenu@@QAEHABVQString@@HH@Z
       6125 17EC 00001480 ?insertItem@QMenu@@QAEHABVQString@@PAV1@HH@Z
       6126 17ED 00001330 ?insertItem@QMenu@@QAEHABVQString@@PBVQObject@@PBDABVQKeySequence@@HH@Z
       6127 17EE 002DF0B0 ?insertItem@QMenu@@QAEHPAVQMenuItem@@HH@Z
       6128 17EF 00001A90 ?insertItem@QMenuBar@@QAEHABVQIcon@@ABVQString@@HH@Z
       6129 17F0 00001AF0 ?insertItem@QMenuBar@@QAEHABVQIcon@@ABVQString@@PAVQMenu@@HH@Z
       6130 17F1 000019A0 ?insertItem@QMenuBar@@QAEHABVQIcon@@ABVQString@@PBVQObject@@PBDABVQKeySequence@@HH@Z
       6131 17F2 00001B20 ?insertItem@QMenuBar@@QAEHABVQPixmap@@HH@Z
       6132 17F3 00001BB0 ?insertItem@QMenuBar@@QAEHABVQPixmap@@PAVQMenu@@HH@Z
       6133 17F4 000019D0 ?insertItem@QMenuBar@@QAEHABVQPixmap@@PBVQObject@@PBDABVQKeySequence@@HH@Z
       6134 17F5 00001A60 ?insertItem@QMenuBar@@QAEHABVQString@@HH@Z
       6135 17F6 00001AC0 ?insertItem@QMenuBar@@QAEHABVQString@@PAVQMenu@@HH@Z
       6136 17F7 00001970 ?insertItem@QMenuBar@@QAEHABVQString@@PBVQObject@@PBDABVQKeySequence@@HH@Z
       6137 17F8 0030F720 ?insertItem@QToolBox@@QAEHHPAVQWidget@@ABVQIcon@@ABVQString@@@Z
       6138 17F9 00228D40 ?insertItem@QToolBox@@QAEHHPAVQWidget@@ABVQString@@@Z
       6139 17FA 0028E570 ?insertItems@QComboBox@@QAEXHABVQStringList@@@Z
       6140 17FB 003C4030 ?insertItems@QListWidget@@QAEXHABVQStringList@@@Z
       6141 17FC 0001D720 ?insertLayout@QBoxLayout@@QAEXHPAVQLayout@@H@Z
       6142 17FD 001BC910 ?insertList@QTextCursor@@QAEPAVQTextList@@ABVQTextListFormat@@@Z
       6143 17FE 001BC930 ?insertList@QTextCursor@@QAEPAVQTextList@@W4Style@QTextListFormat@@@Z
       6144 17FF 002DC420 ?insertMenu@QMenu@@QAEPAVQAction@@PAV2@PAV1@@Z
       6145 1800 002E5DB0 ?insertMenu@QMenuBar@@QAEPAVQAction@@PAV2@PAVQMenu@@@Z
       6146 1801 002FAAA0 ?insertPermanentWidget@QStatusBar@@QAEHHPAVQWidget@@H@Z
       6147 1802 00329ED0 ?insertPlainText@QPlainTextEdit@@QAEXABVQString@@@Z
       6148 1803 00179290 ?insertPlainText@QTextControl@@QAEXABVQString@@@Z
       6149 1804 00329ED0 ?insertPlainText@QTextEdit@@QAEXABVQString@@@Z
       6150 1805 002873B0 ?insertPolicy@QComboBox@@QBE?AW4InsertPolicy@1@XZ
       6151 1806 000290F0 ?insertRow@QFormLayout@@QAEXHABVQString@@PAVQLayout@@@Z
       6152 1807 00029050 ?insertRow@QFormLayout@@QAEXHABVQString@@PAVQWidget@@@Z
       6153 1808 00029290 ?insertRow@QFormLayout@@QAEXHPAVQLayout@@@Z
       6154 1809 00028F10 ?insertRow@QFormLayout@@QAEXHPAVQWidget@@0@Z
       6155 180A 00029190 ?insertRow@QFormLayout@@QAEXHPAVQWidget@@@Z
       6156 180B 00028FB0 ?insertRow@QFormLayout@@QAEXHPAVQWidget@@PAVQLayout@@@Z
       6157 180C 003E6810 ?insertRow@QStandardItem@@QAEXHABV?$QList@PAVQStandardItem@@@@@Z
       6158 180D 0028EAC0 ?insertRow@QStandardItem@@QAEXHPAV1@@Z
       6159 180E 003E6D90 ?insertRow@QStandardItemModel@@QAEXHABV?$QList@PAVQStandardItem@@@@@Z
       6160 180F 0028EC60 ?insertRow@QStandardItemModel@@QAEXHPAVQStandardItem@@@Z
       6161 1810 00286EE0 ?insertRow@QStandardItemModel@@QAE_NHABVQModelIndex@@@Z
       6162 1811 003C7800 ?insertRow@QTableWidget@@QAEXH@Z
       6163 1812 003D8660 ?insertRows@QProxyModel@@UAE_NHHABVQModelIndex@@@Z
       6164 1813 003DF730 ?insertRows@QSortFilterProxyModel@@UAE_NHHABVQModelIndex@@@Z
       6165 1814 003E7190 ?insertRows@QStandardItem@@QAEXHABV?$QList@PAVQStandardItem@@@@@Z
       6166 1815 003E5640 ?insertRows@QStandardItem@@QAEXHH@Z
       6167 1816 003E75D0 ?insertRows@QStandardItemModel@@UAE_NHHABVQModelIndex@@@Z
       6168 1817 003E7F90 ?insertRows@QStringListModel@@UAE_NHHABVQModelIndex@@@Z
       6169 1818 001C37F0 ?insertRows@QTextTable@@QAEXHH@Z
       6170 1819 0028F540 ?insertSeparator@QComboBox@@QAEXH@Z
       6171 181A 002DF220 ?insertSeparator@QMenu@@QAEHH@Z
       6172 181B 002DC440 ?insertSeparator@QMenu@@QAEPAVQAction@@PAV2@@Z
       6173 181C 002E7B70 ?insertSeparator@QMenuBar@@QAEHH@Z
       6174 181D 002E5D30 ?insertSeparator@QMenuBar@@QAEPAVQAction@@PAV2@@Z
       6175 181E 00308D60 ?insertSeparator@QToolBar@@QAEPAVQAction@@PAV2@@Z
       6176 181F 0001D6A0 ?insertSpacerItem@QBoxLayout@@QAEXHPAVQSpacerItem@@@Z
       6177 1820 0001D550 ?insertSpacing@QBoxLayout@@QAEXHH@Z
       6178 1821 0001D600 ?insertStretch@QBoxLayout@@QAEXHH@Z
       6179 1822 00421460 ?insertStretch@QGraphicsLinearLayout@@QAEXHH@Z
       6180 1823 001F2CE0 ?insertStringList@QComboBox@@QAEXABVQStringList@@H@Z
       6181 1824 00160570 ?insertSubstitution@QFont@@SAXABVQString@@0@Z
       6182 1825 00160640 ?insertSubstitutions@QFont@@SAXABVQString@@ABVQStringList@@@Z
       6183 1826 002FE0A0 ?insertTab@QTabBar@@QAEHHABVQIcon@@ABVQString@@@Z
       6184 1827 002FF6A0 ?insertTab@QTabBar@@QAEHHABVQString@@@Z
       6185 1828 00300930 ?insertTab@QTabWidget@@QAEHHPAVQWidget@@ABVQIcon@@ABVQString@@@Z
       6186 1829 00301290 ?insertTab@QTabWidget@@QAEHHPAVQWidget@@ABVQString@@@Z
       6187 182A 00002A50 ?insertTab@QTabWidget@@QAEXPAVQWidget@@ABVQIcon@@ABVQString@@H@Z
       6188 182B 00002A30 ?insertTab@QTabWidget@@QAEXPAVQWidget@@ABVQString@@H@Z
       6189 182C 001BC820 ?insertTable@QTextCursor@@QAEPAVQTextTable@@HH@Z
       6190 182D 001BB440 ?insertTable@QTextCursor@@QAEPAVQTextTable@@HHABVQTextTableFormat@@@Z
       6191 182E 00001760 ?insertTearOffHandle@QMenu@@QAEHHH@Z
       6192 182F 003732D0 ?insertText@QAccessibleSimpleEditableTextInterface@@UAEXHABVQString@@@Z
       6193 1830 001BBB30 ?insertText@QTextCursor@@QAEXABVQString@@@Z
       6194 1831 001BA3F0 ?insertText@QTextCursor@@QAEXABVQString@@ABVQTextCharFormat@@@Z
       6195 1832 002C25F0 ?insertToolBar@QMainWindow@@QAEXPAVQToolBar@@0@Z
       6196 1833 002C25D0 ?insertToolBarBreak@QMainWindow@@QAEXPAVQToolBar@@@Z
       6197 1834 003D3E90 ?insertTopLevelItem@QTreeWidget@@QAEXHPAVQTreeWidgetItem@@@Z
       6198 1835 003D3F30 ?insertTopLevelItems@QTreeWidget@@QAEXHABV?$QList@PAVQTreeWidgetItem@@@@@Z
       6199 1836 0001D7D0 ?insertWidget@QBoxLayout@@QAEXHPAVQWidget@@HV?$QFlags@W4AlignmentFlag@Qt@@@@@Z
       6200 1837 002F91E0 ?insertWidget@QSplitter@@QAEXHPAVQWidget@@@Z
       6201 1838 0003C020 ?insertWidget@QStackedLayout@@QAEHHPAVQWidget@@@Z
       6202 1839 002F9880 ?insertWidget@QStackedWidget@@QAEHHPAVQWidget@@@Z
       6203 183A 002FA990 ?insertWidget@QStatusBar@@QAEHHPAVQWidget@@H@Z
       6204 183B 00308E70 ?insertWidget@QToolBar@@QAEPAVQAction@@PAV2@PAVQWidget@@@Z
       6205 183C 001F2C80 ?insertionPolicy@QComboBox@@QBE?AW4InsertPolicy@1@XZ
       6206 183D 00372BF0 ?installFactory@QAccessible@@SAXP6APAVQAccessibleInterface@@ABVQString@@PAVQObject@@@Z@Z
       6207 183E 003727D0 ?installRootObjectHandler@QAccessible@@SAP6AXPAVQObject@@@ZP6AX0@Z@Z
       6208 183F 003F4590 ?installSceneEventFilter@QGraphicsItem@@QAEXPAV1@@Z
       6209 1840 003727C0 ?installUpdateHandler@QAccessible@@SAP6AXPAVQObject@@HW4Event@1@@ZP6AX0H1@Z@Z
       6210 1841 00001840 ?instance@QApplicationPrivate@@SAPAV1@XZ
       6211 1842 001381E0 ?instance@QColormap@@SA?AV1@H@Z
       6212 1843 006A1548 ?instance@QDragManager@@0PAV1@A
       6213 1844 0009A820 ?instance@QPixmapDataFactory@@SAPAV1@H@Z
       6214 1845 006A15A8 ?instanceCounter@QWidgetPrivate@@2HA
       6215 1846 0018F460 ?intProperty@QTextFormat@@QBEHH@Z
       6216 1847 001CBB90 ?intValue@Declaration@QCss@@QBE_NPAHPBD@Z
       6217 1848 002B5670 ?intValue@QLCDNumber@@QBEHXZ
       6218 1849 003D79F0 ?interface_cast@QAccessibleInterfaceEx@@UAEPAVQAccessible2Interface@@W4InterfaceType@QAccessible2@@@Z
       6219 184A 002E2F10 ?internalDelayedPopup@QMenu@@AAEXXZ
       6220 184B 00392760 ?internalDrag@QListView@@IAEXV?$QFlags@W4DropAction@Qt@@@@@Z
       6221 184C 00395CE0 ?internalDrop@QListView@@IAEXPAVQDropEvent@@@Z
       6222 184D 002E55F0 ?internalSetSloppyAction@QMenu@@AAEXXZ
       6223 184E 0000E890 ?internalWinId@QWidget@@QBEPAUHWND__@@XZ
       6224 184F 002796A0 ?interpretText@QAbstractSpinBox@@QAEXXZ
       6225 1850 003B2A80 ?intersect@QItemSelectionRange@@QBE?AV1@ABV1@@Z
       6226 1851 001426E0 ?intersect@QRegion@@QBE?AV1@ABV1@@Z
       6227 1852 000FCF40 ?intersect@QRegion@@QBE?AV1@ABVQRect@@@Z
       6228 1853 001F5E70 ?intersected@QItemSelectionRange@@QBE?AV1@ABV1@@Z
       6229 1854 000E0D90 ?intersected@QPainterPath@@QBE?AV1@ABV1@@Z
       6230 1855 000EAAC0 ?intersected@QPolygon@@QBE?AV1@ABV1@@Z
       6231 1856 000EAE20 ?intersected@QPolygonF@@QBE?AV1@ABV1@@Z
       6232 1857 000FD000 ?intersected@QRegion@@QBE?AV1@ABV1@@Z
       6233 1858 000FD020 ?intersected@QRegion@@QBE?AV1@ABVQRect@@@Z
       6234 1859 003B2620 ?intersects@QItemSelectionRange@@QBE_NABV1@@Z
       6235 185A 000E10B0 ?intersects@QPainterPath@@QBE_NABV1@@Z
       6236 185B 000DF440 ?intersects@QPainterPath@@QBE_NABVQRectF@@@Z
       6237 185C 000FDB10 ?intersects@QRegion@@QBE_NABV1@@Z
       6238 185D 000FDCB0 ?intersects@QRegion@@QBE_NABVQRect@@@Z
       6239 185E 001C2160 ?intrinsicSize@QTextImageHandler@@UAE?AVQSizeF@@PAVQTextDocument@@HABVQTextFormat@@@Z
       6240 185F 0001C240 ?invalidate@QBoxLayout@@UAEXXZ
       6241 1860 000C29D0 ?invalidate@QColor@@AAEXXZ
       6242 1861 00026180 ?invalidate@QFormLayout@@UAEXXZ
       6243 1862 0042F750 ?invalidate@QGraphicsGridLayout@@UAEXXZ
       6244 1863 00420250 ?invalidate@QGraphicsLayout@@UAEXXZ
       6245 1864 00421610 ?invalidate@QGraphicsLinearLayout@@UAEXXZ
       6246 1865 004099B0 ?invalidate@QGraphicsScene@@QAEXABVQRectF@@V?$QFlags@W4SceneLayer@QGraphicsScene@@@@@Z
       6247 1866 000486A0 ?invalidate@QGraphicsScene@@QAEXNNNNV?$QFlags@W4SceneLayer@QGraphicsScene@@@@@Z
       6248 1867 0002A3D0 ?invalidate@QGridLayout@@UAEXXZ
       6249 1868 00032000 ?invalidate@QLayout@@UAEXXZ
       6250 1869 00276040 ?invalidate@QLayoutItem@@UAEXXZ
       6251 186A 003E03A0 ?invalidate@QSortFilterProxyModel@@QAEXXZ
       6252 186B 00184F40 ?invalidate@QTextEngine@@QAEXXZ
       6253 186C 0030B1D0 ?invalidate@QToolBarLayout@@UAEXXZ
       6254 186D 00151DE0 ?invalidateBuffer@QWidgetPrivate@@QAEXABVQRegion@@@Z
       6255 186E 003E03C0 ?invalidateFilter@QSortFilterProxyModel@@IAEXXZ
       6256 186F 004184C0 ?invalidateScene@QGraphicsView@@QAEXABVQRectF@@V?$QFlags@W4SceneLayer@QGraphicsScene@@@@@Z
       6257 1870 00047930 ?invalidateSizeCache@QWidgetItemV2@@AAEXXZ
       6258 1871 00448580 ?invert@QMatrix@@QBE?AV1@PA_N@Z
       6259 1872 00086140 ?invertPixels@QImage@@QAEXW4InvertMode@1@@Z
       6260 1873 00448FC0 ?invertPixels@QImage@@QAEX_N@Z
       6261 1874 000FF830 ?inverted@QMatrix@@QBE?AV1@PA_N@Z
       6262 1875 00104B90 ?inverted@QTransform@@QBE?AV1@PA_N@Z
       6263 1876 00278560 ?invertedAppearance@QAbstractSlider@@QBE_NXZ
       6264 1877 002EB2E0 ?invertedAppearance@QProgressBar@@QAE_NXZ
       6265 1878 002785A0 ?invertedControls@QAbstractSlider@@QBE_NXZ
       6266 1879 004318A0 ?invisibleRootItem@QStandardItemModel@@QBEPAVQStandardItem@@XZ
       6267 187A 003CF6B0 ?invisibleRootItem@QTreeWidget@@QBEPAVQTreeWidgetItem@@XZ
       6268 187B 00372800 ?invokeMethod@QAccessibleInterface@@QAE?AVQVariant@@W4Method@QAccessible@@HABV?$QList@VQVariant@@@@@Z
       6269 187C 00377440 ?invokeMethodEx@QAccessibleWidgetEx@@UAE?AVQVariant@@W4Method@QAccessible@@HABV?$QList@VQVariant@@@@@Z
       6270 187D 0008D730 ?ioDevice@QPictureIO@@QBEPAVQIODevice@@XZ
       6271 187E 0004A2C0 ?isAboutToShow@QWidgetPrivate@@QBE_NXZ
       6272 187F 002795B0 ?isAccelerated@QAbstractSpinBox@@QBE_NXZ
       6273 1880 00420240 ?isActivated@QGraphicsLayout@@QBE_NXZ
       6274 1881 003727E0 ?isActive@QAccessible@@SA_NXZ
       6275 1882 0044AF90 ?isActive@QPaintEngine@@QBE_NXZ
       6276 1883 000CE640 ?isActive@QPainter@@QBE_NXZ
       6277 1884 0043ADE0 ?isActive@QUndoStack@@QBE_NXZ
       6278 1885 00315020 ?isActive@QWidgetResizeHandler@@QBE_NW4Action@1@@Z
       6279 1886 0029C240 ?isActive@QWidgetResizeHandler@@QBE_NXZ
       6280 1887 00422A10 ?isActiveWindow@QGraphicsWidget@@QBE_NXZ
       6281 1888 0004A830 ?isActiveWindow@QWidget@@QBE_NXZ
       6282 1889 000CDEE0 ?isAffine@QTransform@@QBE_NXZ
       6283 188A 00004A60 ?isAmbiguous@QShortcutEvent@@QAE_NXZ
       6284 188B 00004A60 ?isAmbiguous@QShortcutEvent@@QBE_NXZ
       6285 188C 003F44C0 ?isAncestorOf@QGraphicsItem@@QBE_NPBV1@@Z
       6286 188D 00049030 ?isAncestorOf@QWidget@@QBE_NPBV1@@Z
       6287 188E 0003E1E0 ?isAnchor@QTextCharFormat@@QBE_NXZ
       6288 188F 002C2DE0 ?isAnimated@QMainWindow@@QBE_NXZ
       6289 1890 003A0FC0 ?isAnimated@QTreeView@@QBE_NXZ
       6290 1891 0037A5A0 ?isAnimating@QAbstractItemViewPrivate@@QBE_NXZ
       6291 1892 001E2480 ?isAreaAllowed@QDockWidget@@QBE_NW4DockWidgetArea@Qt@@@Z
       6292 1893 00031B80 ?isAreaAllowed@QToolBar@@QBE_NW4ToolBarArea@Qt@@@Z
       6293 1894 00023390 ?isAutoRepeat@QKeyEvent@@QBE_NXZ
       6294 1895 0003B370 ?isAvailable@QSound@@SA_NXZ
       6295 1896 0004CFF0 ?isBackgroundInherited@QWidgetPrivate@@QBE_NXZ
       6296 1897 00306860 ?isBackwardAvailable@QTextBrowser@@QBE_NXZ
       6297 1898 00174720 ?isBitmapScalable@QFontDatabase@@QBE_NABVQString@@0@Z
       6298 1899 0003E450 ?isBlockFormat@QTextFormat@@QBE_NXZ
       6299 189A 000134E0 ?isBlockedByModal@QApplicationPrivate@@SA_NPAVQWidget@@@Z
       6300 189B 00035DB0 ?isBrushSet@QPalette@@QBE_NW4ColorGroup@1@W4ColorRole@1@@Z
       6301 189C 0029C280 ?isButtonDown@QWidgetResizeHandler@@QBE_NXZ
       6302 189D 0003D890 ?isCharFormat@QTextFormat@@QBE_NXZ
       6303 189E 00275EB0 ?isCheckable@QAbstractButton@@QBE_NXZ
       6304 189F 00004350 ?isCheckable@QAction@@QBE_NXZ
       6305 18A0 002AFC00 ?isCheckable@QGroupBox@@QBE_NXZ
       6306 18A1 00368440 ?isCheckable@QMenu@@QBE_NXZ
       6307 18A2 002893F0 ?isCheckable@QStandardItem@@QBE_NXZ
       6308 18A3 00275EC0 ?isChecked@QAbstractButton@@QBE_NXZ
       6309 18A4 00004360 ?isChecked@QAction@@QBE_NXZ
       6310 18A5 002AFC10 ?isChecked@QGroupBox@@QBE_NXZ
       6311 18A6 0043A590 ?isClean@QUndoGroup@@QBE_NXZ
       6312 18A7 0043AF00 ?isClean@QUndoStack@@QBE_NXZ
       6313 18A8 00385AE0 ?isClickable@QHeaderView@@QBE_NXZ
       6314 18A9 000CD910 ?isClipEnabled@QPaintEngineState@@QBE_NXZ
       6315 18AA 000DBB50 ?isClosed@QPolygonF@@QBE_NXZ
       6316 18AB 002F6B10 ?isCollapsible@QSplitter@@QBE_NH@Z
       6317 18AC 00399990 ?isColumnHidden@QTableView@@QBE_NH@Z
       6318 18AD 003A0F10 ?isColumnHidden@QTreeView@@QBE_NH@Z
       6319 18AE 003B5690 ?isColumnSelected@QItemSelectionModel@@QBE_NHABVQModelIndex@@@Z
       6320 18AF 00368470 ?isCommitPage@QWizardPage@@QBE_NXZ
       6321 18B0 0036BA90 ?isComplete@QWizardPage@@UBE_NXZ
       6322 18B1 00035E30 ?isCopyOf@QFont@@QBE_NABV1@@Z
       6323 18B2 00035E30 ?isCopyOf@QPalette@@QBE_NABV1@@Z
       6324 18B3 00035E30 ?isCopyOf@QTextCursor@@QBE_NABV1@@Z
       6325 18B4 0039D020 ?isCornerButtonEnabled@QTableView@@QBE_NXZ
       6326 18B5 000E8100 ?isCosmetic@QPen@@QBE_NXZ
       6327 18B6 0027FCF0 ?isDateEditEnabled@QCalendarWidget@@QBE_NXZ
       6328 18B7 00140C00 ?isDefault@QPrinterInfo@@QBE_NXZ
       6329 18B8 002EBE90 ?isDefault@QPushButton@@QBE_NXZ
       6330 18B9 002E5E00 ?isDefaultUp@QMenuBar@@QBE_NXZ
       6331 18BA 0044D620 ?isDesktop@QWidget@@QBE_NXZ
       6332 18BB 000E8120 ?isDetached@?$QList@VQItemSelectionRange@@@@QBE_NXZ
       6333 18BC 000E8120 ?isDetached@QBrush@@QBE_NXZ
       6334 18BD 000769E0 ?isDetached@QIcon@@QBE_NXZ
       6335 18BE 00079D10 ?isDetached@QImage@@QBE_NXZ
       6336 18BF 000E8120 ?isDetached@QKeySequence@@QBE_NXZ
       6337 18C0 000E8120 ?isDetached@QPen@@QAE_NXZ
       6338 18C1 000917B0 ?isDetached@QPicture@@QBE_NXZ
       6339 18C2 000965C0 ?isDetached@QPixmap@@QBE_NXZ
       6340 18C3 0044D600 ?isDialog@QWidget@@QBE_NXZ
       6341 18C4 003B90E0 ?isDir@QDirModel@@QBE_NABVQModelIndex@@@Z
       6342 18C5 00361250 ?isDir@QFileSystemModel@@QBE_NABVQModelIndex@@@Z
       6343 18C6 003CEB90 ?isDisabled@QTreeWidgetItem@@QBE_NXZ
       6344 18C7 002C2E00 ?isDockNestingEnabled@QMainWindow@@QBE_NXZ
       6345 18C8 00275F60 ?isDown@QAbstractButton@@QBE_NXZ
       6346 18C9 00289430 ?isDragEnabled@QStandardItem@@QBE_NXZ
       6347 18CA 00289450 ?isDropEnabled@QStandardItem@@QBE_NXZ
       6348 18CB 00287440 ?isEditable@QComboBox@@QBE_NXZ
       6349 18CC 002893B0 ?isEditable@QStandardItem@@QBE_NXZ
       6350 18CD 0005AA30 ?isEffectEnabled@QApplication@@SA_NW4UIEffect@Qt@@@Z
       6351 18CE 001F50F0 ?isEmpty@?$QList@VQItemSelectionRange@@@@QBE_NXZ
       6352 18CF 0000C8C0 ?isEmpty@Declaration@QCss@@QBE_NXZ
       6353 18D0 0002DF70 ?isEmpty@QKeySequence@@QBE_NXZ
       6354 18D1 00030EA0 ?isEmpty@QLayout@@UBE_NXZ
       6355 18D2 002DE4F0 ?isEmpty@QMenu@@QBE_NXZ
       6356 18D3 000CCCA0 ?isEmpty@QPainterPath@@QBE_NXZ
       6357 18D4 00142D20 ?isEmpty@QRegion@@QBE_NXZ
       6358 18D5 00368440 ?isEmpty@QSpacerItem@@UBE_NXZ
       6359 18D6 00198E50 ?isEmpty@QTextDocument@@QBE_NXZ
       6360 18D7 001BCB00 ?isEmpty@QTextDocumentFragment@@QBE_NXZ
       6361 18D8 00177750 ?isEmpty@QTextList@@QBE_NXZ
       6362 18D9 0030B010 ?isEmpty@QToolBarItem@@UBE_NXZ
       6363 18DA 0030C6E0 ?isEmpty@QToolBarLayout@@UBE_NXZ
       6364 18DB 00035B00 ?isEmpty@QWidgetItem@@UBE_NXZ
       6365 18DC 00004370 ?isEnabled@QAction@@QBE_NXZ
       6366 18DD 0000B650 ?isEnabled@QActionGroup@@QBE_NXZ
       6367 18DE 003F4140 ?isEnabled@QGraphicsItem@@QBE_NXZ
       6368 18DF 00031850 ?isEnabled@QLayout@@QBE_NXZ
       6369 18E0 00038950 ?isEnabled@QShortcut@@QBE_NXZ
       6370 18E1 00289390 ?isEnabled@QStandardItem@@QBE_NXZ
       6371 18E2 0044C5B0 ?isEnabled@QWidget@@QBE_NXZ
       6372 18E3 00048AD0 ?isEnabledTo@QWidget@@QBE_NPAV1@@Z
       6373 18E4 0044C5B0 ?isEnabledToTLW@QWidget@@QBE_NXZ
       6374 18E5 000363C0 ?isEqual@QPalette@@QBE_NW4ColorGroup@1@0@Z
       6375 18E6 0000B640 ?isExclusive@QActionGroup@@QBE_NXZ
       6376 18E7 003A3390 ?isExpanded@QTreeView@@QBE_NABVQModelIndex@@@Z
       6377 18E8 003D0A50 ?isExpanded@QTreeWidgetItem@@QBE_NXZ
       6378 18E9 0036BBF0 ?isFinalPage@QWizardPage@@QBE_NXZ
       6379 18EA 0003AE70 ?isFinished@QSound@@QBE_NXZ
       6380 18EB 003A19B0 ?isFirstColumnSpanned@QTreeView@@QBE_NHABVQModelIndex@@@Z
       6381 18EC 003D0A90 ?isFirstColumnSpanned@QTreeWidgetItem@@QBE_NXZ
       6382 18ED 003D00A0 ?isFirstItemColumnSpanned@QTreeWidget@@QBE_NPBVQTreeWidgetItem@@@Z
       6383 18EE 00174630 ?isFixedPitch@QFontDatabase@@QBE_NABVQString@@0@Z
       6384 18EF 002AFBC0 ?isFlat@QGroupBox@@QBE_NXZ
       6385 18F0 002EBEA0 ?isFlat@QPushButton@@QBE_NXZ
       6386 18F1 00308A70 ?isFloatable@QToolBar@@QBE_NXZ
       6387 18F2 00309900 ?isFloating@QDockWidget@@QBE_NXZ
       6388 18F3 00309900 ?isFloating@QToolBar@@QBE_NXZ
       6389 18F4 00306880 ?isForwardAvailable@QTextBrowser@@QBE_NXZ
       6390 18F5 0003D590 ?isFrameFormat@QTextFormat@@QBE_NXZ
       6391 18F6 00047150 ?isFullScreen@QWidget@@QBE_NXZ
       6392 18F7 0007B2A0 ?isGrayscale@QImage@@QBE_NXZ
       6393 18F8 0027FBC0 ?isGridVisible@QCalendarWidget@@QBE_NXZ
       6394 18F9 003A3370 ?isHeaderHidden@QTreeView@@QBE_NXZ
       6395 18FA 002FB520 ?isHeaderVisible@QCalendarWidget@@QBE_NXZ
       6396 18FB 00333CD0 ?isHidden@QListWidgetItem@@QBE_NXZ
       6397 18FC 003D0A10 ?isHidden@QTreeWidgetItem@@QBE_NXZ
       6398 18FD 0000F930 ?isHidden@QWidget@@QBE_NXZ
       6399 18FE 00004490 ?isIconVisibleInMenu@QAction@@QBE_NXZ
       6400 18FF 000FFB60 ?isIdentity@QMatrix@@QBE_NXZ
       6401 1900 000BFCE0 ?isIdentity@QTransform@@QBE_NXZ
       6402 1901 0003D5A0 ?isImageFormat@QTextFormat@@QBE_NXZ
       6403 1902 003F4DE0 ?isIndexHidden@QColumnView@@MBE_NABVQModelIndex@@@Z
       6404 1903 00385BF0 ?isIndexHidden@QHeaderView@@MBE_NABVQModelIndex@@@Z
       6405 1904 00390350 ?isIndexHidden@QListView@@MBE_NABVQModelIndex@@@Z
       6406 1905 0039D9C0 ?isIndexHidden@QTableView@@MBE_NABVQModelIndex@@@Z
       6407 1906 003A21E0 ?isIndexHidden@QTreeView@@MBE_NABVQModelIndex@@@Z
       6408 1907 0037A570 ?isIndexValid@QAbstractItemViewPrivate@@QBE_NABVQModelIndex@@@Z
       6409 1908 0044C580 ?isInputMethodEnabled@QWidget@@QBE_NXZ
       6410 1909 003019F0 ?isInteractive@QGraphicsView@@QBE_NXZ
       6411 190A 0044C2B0 ?isInvertible@QMatrix@@QBE_NXZ
       6412 190B 0044C2E0 ?isInvertible@QTransform@@QBE_NXZ
       6413 190C 00001640 ?isItemActive@QMenu@@QBE_NH@Z
       6414 190D 00001C60 ?isItemActive@QMenuBar@@QBE_NH@Z
       6415 190E 00004CF0 ?isItemChecked@QMenu@@QBE_NH@Z
       6416 190F 00005020 ?isItemChecked@QMenuBar@@QBE_NH@Z
       6417 1910 00004CC0 ?isItemEnabled@QMenu@@QBE_NH@Z
       6418 1911 00004FF0 ?isItemEnabled@QMenuBar@@QBE_NH@Z
       6419 1912 0030EA60 ?isItemEnabled@QToolBox@@QBE_NH@Z
       6420 1913 003CFFD0 ?isItemExpanded@QTreeWidget@@QBE_NPBVQTreeWidgetItem@@@Z
       6421 1914 003C02F0 ?isItemHidden@QListWidget@@QBE_NPBVQListWidgetItem@@@Z
       6422 1915 003CFE70 ?isItemHidden@QTreeWidget@@QBE_NPBVQTreeWidgetItem@@@Z
       6423 1916 003C01B0 ?isItemSelected@QListWidget@@QBE_NPBVQListWidgetItem@@@Z
       6424 1917 003C7490 ?isItemSelected@QTableWidget@@QBE_NPBVQTableWidgetItem@@@Z
       6425 1918 003CDBA0 ?isItemSelected@QTreeWidget@@QBE_NPBVQTreeWidgetItem@@@Z
       6426 1919 00004D20 ?isItemVisible@QMenu@@QBE_NH@Z
       6427 191A 00005050 ?isItemVisible@QMenuBar@@QBE_NH@Z
       6428 191B 00420AF0 ?isLayout@QGraphicsLayoutItem@@QBE_NXZ
       6429 191C 0044A2A0 ?isLeftToRight@QApplication@@SA_NXZ
       6430 191D 002CA570 ?isLeftToRight@QWidget@@QBE_NXZ
       6431 191E 0003D580 ?isListFormat@QTextFormat@@QBE_NXZ
       6432 191F 00047140 ?isMaximized@QWidget@@QBE_NXZ
       6433 1920 002116D0 ?isMenuButton@QPushButton@@QBE_NXZ
       6434 1921 00047130 ?isMinimized@QWidget@@QBE_NXZ
       6435 1922 00046FA0 ?isModal@QWidget@@QBE_NXZ
       6436 1923 002B90D0 ?isModified@QLineEdit@@QBE_NXZ
       6437 1924 001994E0 ?isModified@QTextDocument@@QBE_NXZ
       6438 1925 00177290 ?isModified@QTextEdit@@QBE_NXZ
       6439 1926 00385AC0 ?isMovable@QHeaderView@@QBE_NXZ
       6440 1927 00308A60 ?isMovable@QToolBar@@QBE_NXZ
       6441 1928 0029C2D0 ?isMove@QWidgetResizeHandler@@ABE_NXZ
       6442 1929 0029C270 ?isMovingEnabled@QWidgetResizeHandler@@QBE_NXZ
       6443 192A 00342530 ?isNameFilterDetailsVisible@QFileDialog@@QBE_NXZ
       6444 192B 002FB520 ?isNavigationBarVisible@QCalendarWidget@@QBE_NXZ
       6445 192C 000769D0 ?isNull@QIcon@@QBE_NXZ
       6446 192D 000795C0 ?isNull@QImage@@QBE_NXZ
       6447 192E 0009ACD0 ?isNull@QMovie@@QBE_NXZ
       6448 192F 00091750 ?isNull@QPicture@@QBE_NXZ
       6449 1930 000964A0 ?isNull@QPixmap@@QBE_NXZ
       6450 1931 00140BF0 ?isNull@QPrinterInfo@@QBE_NXZ
       6451 1932 00448550 ?isNull@QRegion@@QBE_NXZ
       6452 1933 001B7460 ?isNull@QTextCursor@@QBE_NXZ
       6453 1934 003FA380 ?isObscured@QGraphicsItem@@QBE_NABVQRectF@@@Z
       6454 1935 0000D690 ?isObscured@QGraphicsItem@@QBE_NNNNN@Z
       6455 1936 003FD700 ?isObscured@QGraphicsItem@@QBE_NXZ
       6456 1937 003FAC50 ?isObscuredBy@QAbstractGraphicsShapeItem@@UBE_NPBVQGraphicsItem@@@Z
       6457 1938 003FAC50 ?isObscuredBy@QGraphicsEllipseItem@@UBE_NPBVQGraphicsItem@@@Z
       6458 1939 003FA750 ?isObscuredBy@QGraphicsItem@@UBE_NPBV1@@Z
       6459 193A 003FAC50 ?isObscuredBy@QGraphicsItemGroup@@UBE_NPBVQGraphicsItem@@@Z
       6460 193B 003FAC50 ?isObscuredBy@QGraphicsLineItem@@UBE_NPBVQGraphicsItem@@@Z
       6461 193C 003FAC50 ?isObscuredBy@QGraphicsPathItem@@UBE_NPBVQGraphicsItem@@@Z
       6462 193D 003FAC50 ?isObscuredBy@QGraphicsPixmapItem@@UBE_NPBVQGraphicsItem@@@Z
       6463 193E 003FAC50 ?isObscuredBy@QGraphicsPolygonItem@@UBE_NPBVQGraphicsItem@@@Z
       6464 193F 003FAC50 ?isObscuredBy@QGraphicsRectItem@@UBE_NPBVQGraphicsItem@@@Z
       6465 1940 003FAC50 ?isObscuredBy@QGraphicsSimpleTextItem@@UBE_NPBVQGraphicsItem@@@Z
       6466 1941 003FAC50 ?isObscuredBy@QGraphicsTextItem@@UBE_NPBVQGraphicsItem@@@Z
       6467 1942 00043B30 ?isOn@QAbstractButton@@QBE_NXZ
       6468 1943 00004360 ?isOn@QAction@@QBE_NXZ
       6469 1944 000C11D0 ?isOpaque@QBrush@@QBE_NXZ
       6470 1945 0004D330 ?isOpaque@QWidgetPrivate@@QBE_NXZ
       6471 1946 00339B40 ?isOptionEnabled@QAbstractPrintDialog@@QBE_NW4PrintDialogOption@1@@Z
       6472 1947 00367870 ?isOptionEnabled@QPageSetupDialog@@QBE_NW4PageSetupDialogOption@1@@Z
       6473 1948 000F40C0 ?isOptionEnabled@QPrinter@@QBE_NW4PrinterOption@1@@Z
       6474 1949 0004B7B0 ?isOverlapped@QWidgetPrivate@@QBE_NABVQRect@@@Z
       6475 194A 00023150 ?isOverride@QWindowStateChangeEvent@@QBE_NXZ
       6476 194B 000EBCA0 ?isPhase2@QSessionManager@@QBE_NXZ
       6477 194C 0044D610 ?isPopup@QWidget@@QBE_NXZ
       6478 194D 000CD460 ?isQBitmap@QPixmap@@QBE_NXZ
       6479 194E 002794D0 ?isReadOnly@QAbstractSpinBox@@QBE_NXZ
       6480 194F 003B90B0 ?isReadOnly@QDirModel@@QBE_NXZ
       6481 1950 00342790 ?isReadOnly@QFileDialog@@QBE_NXZ
       6482 1951 0035C500 ?isReadOnly@QFileSystemModel@@QBE_NXZ
       6483 1952 002785A0 ?isReadOnly@QLineEdit@@QBE_NXZ
       6484 1953 00304590 ?isReadOnly@QPlainTextEdit@@QBE_NXZ
       6485 1954 00304590 ?isReadOnly@QTextEdit@@QBE_NXZ
       6486 1955 002BA210 ?isRedoAvailable@QLineEdit@@QBE_NXZ
       6487 1956 00198F50 ?isRedoAvailable@QTextDocument@@QBE_NXZ
       6488 1957 00177270 ?isRedoAvailable@QTextEdit@@QBE_NXZ
       6489 1958 0029C2F0 ?isResize@QWidgetResizeHandler@@ABE_NXZ
       6490 1959 0044A2D0 ?isRightToLeft@QApplication@@SA_NXZ
       6491 195A 0001B4E0 ?isRightToLeft@QWidget@@QBE_NXZ
       6492 195B 00105B20 ?isRotating@QTransform@@QBE_NXZ
       6493 195C 0038FDC0 ?isRowHidden@QListView@@QBE_NH@Z
       6494 195D 00399940 ?isRowHidden@QTableView@@QBE_NH@Z
       6495 195E 003A1910 ?isRowHidden@QTreeView@@QBE_NHABVQModelIndex@@@Z
       6496 195F 003B5220 ?isRowSelected@QItemSelectionModel@@QBE_NHABVQModelIndex@@@Z
       6497 1960 00174B20 ?isScalable@QFontDatabase@@QBE_NABVQString@@0@Z
       6498 1961 00105AE0 ?isScaling@QTransform@@QBE_NXZ
       6499 1962 00386BB0 ?isSectionHidden@QHeaderView@@QBE_NH@Z
       6500 1963 002893D0 ?isSelectable@QStandardItem@@QBE_NXZ
       6501 1964 003F6260 ?isSelected@QGraphicsItem@@QBE_NXZ
       6502 1965 003B32F0 ?isSelected@QItemSelectionModel@@QBE_NABVQModelIndex@@@Z
       6503 1966 00333C90 ?isSelected@QListWidgetItem@@QBE_NXZ
       6504 1967 003C7FA0 ?isSelected@QTableWidgetItem@@QBE_NXZ
       6505 1968 003CDF80 ?isSelected@QTreeWidgetItem@@QBE_NXZ
       6506 1969 0038F8F0 ?isSelectionRectVisible@QListView@@QBE_NXZ
       6507 196A 00004130 ?isSeparator@QAction@@QBE_NXZ
       6508 196B 002C3490 ?isSeparator@QMainWindow@@QBE_NABVQPoint@@@Z
       6509 196C 0000F700 ?isSessionRestored@QApplication@@QBE_NXZ
       6510 196D 002D27E0 ?isShaded@QMdiSubWindow@@QBE_NXZ
       6511 196E 0044D5F0 ?isShown@QWidget@@QBE_NXZ
       6512 196F 0033EE00 ?isSizeGripEnabled@QDialog@@QBE_NXZ
       6513 1970 002F9A60 ?isSizeGripEnabled@QStatusBar@@QBE_NXZ
       6514 1971 00278550 ?isSliderDown@QAbstractSlider@@QBE_NXZ
       6515 1972 00174920 ?isSmoothlyScalable@QFontDatabase@@QBE_NABVQString@@0@Z
       6516 1973 000E81B0 ?isSolid@QPen@@QBE_NXZ
       6517 1974 00385B10 ?isSortIndicatorShown@QHeaderView@@QBE_NXZ
       6518 1975 003D9E90 ?isSortLocaleAware@QSortFilterProxyModel@@QBE_NXZ
       6519 1976 003BE2C0 ?isSortingEnabled@QListWidget@@QBE_NXZ
       6520 1977 003999E0 ?isSortingEnabled@QTableView@@QBE_NXZ
       6521 1978 003C4D30 ?isSortingEnabled@QTableWidget@@QBE_NXZ
       6522 1979 003A0FA0 ?isSortingEnabled@QTreeView@@QBE_NXZ
       6523 197A 003CDB90 ?isSortingEnabled@QTreeWidget@@QBE_NXZ
       6524 197B 00430010 ?isSystemTrayAvailable@QSystemTrayIcon@@SA_NXZ
       6525 197C 002FB9B0 ?isTabEnabled@QTabBar@@QBE_NH@Z
       6526 197D 002FFA20 ?isTabEnabled@QTabWidget@@QBE_NH@Z
       6527 197E 00002AC0 ?isTabEnabled@QTabWidget@@QBE_NPAVQWidget@@@Z
       6528 197F 0003D5D0 ?isTableCellFormat@QTextFormat@@QBE_NXZ
       6529 1980 0003F2B0 ?isTableFormat@QTextFormat@@QBE_NXZ
       6530 1981 002DC4C0 ?isTearOffEnabled@QMenu@@QBE_NXZ
       6531 1982 002DCC80 ?isTearOffMenuVisible@QMenu@@QBE_NXZ
       6532 1983 002EAEE0 ?isTextVisible@QProgressBar@@QBE_NXZ
       6533 1984 00004350 ?isToggleAction@QAction@@QBE_NXZ
       6534 1985 00043BD0 ?isToggleButton@QAbstractButton@@QBE_NXZ
       6535 1986 00031510 ?isTopLevel@QLayout@@QBE_NXZ
       6536 1987 00309900 ?isTopLevel@QWidget@@QBE_NXZ
       6537 1988 00105B60 ?isTranslating@QTransform@@QBE_NXZ
       6538 1989 002996D0 ?isTristate@QCheckBox@@QBE_NXZ
       6539 198A 00289410 ?isTristate@QStandardItem@@QBE_NXZ
       6540 198B 003FE9D0 ?isUnderMouse@QGraphicsItem@@QBE_NXZ
       6541 198C 002B9140 ?isUndoAvailable@QLineEdit@@QBE_NXZ
       6542 198D 00198320 ?isUndoAvailable@QTextDocument@@QBE_NXZ
       6543 198E 00177260 ?isUndoAvailable@QTextEdit@@QBE_NXZ
       6544 198F 0032A3B0 ?isUndoRedoEnabled@QPlainTextEdit@@QBE_NXZ
       6545 1990 00198200 ?isUndoRedoEnabled@QTextDocument@@QBE_NXZ
       6546 1991 00176FB0 ?isUndoRedoEnabled@QTextEdit@@QBE_NXZ
       6547 1992 0003B610 ?isUpdatesEnabled@QWidget@@QBE_NXZ
       6548 1993 00373870 ?isValid@QAccessibleObject@@UBE_NXZ
       6549 1994 00373870 ?isValid@QAccessibleObjectEx@@UBE_NXZ
       6550 1995 00177E00 ?isValid@QColor@@QBE_NXZ
       6551 1996 001F3910 ?isValid@QItemSelectionRange@@QBE_NXZ
       6552 1997 0009ACD0 ?isValid@QMovie@@QBE_NXZ
       6553 1998 000F2EC0 ?isValid@QPrinter@@QBE_NXZ
       6554 1999 00043A00 ?isValid@QTextBlock@@QBE_NXZ
       6555 199A 0003E450 ?isValid@QTextBlockFormat@@QBE_NXZ
       6556 199B 0003D890 ?isValid@QTextCharFormat@@QBE_NXZ
       6557 199C 0003D560 ?isValid@QTextFormat@@QBE_NXZ
       6558 199D 00043A00 ?isValid@QTextFragment@@QBE_NXZ
       6559 199E 0003D590 ?isValid@QTextFrameFormat@@QBE_NXZ
       6560 199F 0003D5A0 ?isValid@QTextImageFormat@@QBE_NXZ
       6561 19A0 000430B0 ?isValid@QTextInlineObject@@QBE_NXZ
       6562 19A1 000430B0 ?isValid@QTextLine@@QBE_NXZ
       6563 19A2 0003D580 ?isValid@QTextListFormat@@QBE_NXZ
       6564 19A3 00177E00 ?isValid@QTextTableCell@@QBE_NXZ
       6565 19A4 0003D5D0 ?isValid@QTextTableCellFormat@@QBE_NXZ
       6566 19A5 0003F2B0 ?isValid@QTextTableFormat@@QBE_NXZ
       6567 19A6 00189510 ?isValidCursorPosition@QTextLayout@@QBE_NH@Z
       6568 19A7 00368440 ?isVirtualDesktop@QDesktopWidget@@QBE_NXZ
       6569 19A8 00004380 ?isVisible@QAction@@QBE_NXZ
       6570 19A9 0000B660 ?isVisible@QActionGroup@@QBE_NXZ
       6571 19AA 003F40E0 ?isVisible@QGraphicsItem@@QBE_NXZ
       6572 19AB 00198200 ?isVisible@QSystemTrayIcon@@QBE_NXZ
       6573 19AC 00194210 ?isVisible@QTextBlock@@QBE_NXZ
       6574 19AD 0003CF10 ?isVisible@QToolTip@@SA_NXZ
       6575 19AE 0000F920 ?isVisible@QWidget@@QBE_NXZ
       6576 19AF 003F40F0 ?isVisibleTo@QGraphicsItem@@QBE_NPBV1@@Z
       6577 19B0 0004AC30 ?isVisibleTo@QWidget@@QBE_NPAV1@@Z
       6578 19B1 0000F920 ?isVisibleToTLW@QWidget@@QBE_NXZ
       6579 19B2 003F4080 ?isWidget@QGraphicsItem@@QBE_NXZ
       6580 19B3 003F4090 ?isWindow@QGraphicsItem@@QBE_NXZ
       6581 19B4 00309900 ?isWindow@QWidget@@QBE_NXZ
       6582 19B5 00049320 ?isWindowModified@QWidget@@QBE_NXZ
       6583 19B6 003EC0B0 ?isWrapping@QListView@@QBE_NXZ
       6584 19B7 0018EF20 ?italic@QFont@@QBE_NXZ
       6585 19B8 00174E10 ?italic@QFontDatabase@@QBE_NABVQString@@0@Z
       6586 19B9 0015F380 ?italic@QFontInfo@@QBE_NXZ
       6587 19BA 00177110 ?italic@QTextEdit@@QBE_NXZ
       6588 19BB 00402690 ?item@QGraphicsItemAnimation@@QBEPAVQGraphicsItem@@XZ
       6589 19BC 003BF9E0 ?item@QListWidget@@QBEPAVQListWidgetItem@@H@Z
       6590 19BD 003E2130 ?item@QStandardItemModel@@QBEPAVQStandardItem@@HH@Z
       6591 19BE 003C7050 ?item@QTableWidget@@QBEPAVQTableWidgetItem@@HH@Z
       6592 19BF 001C5C40 ?item@QTextList@@QBE?AVQTextBlock@@H@Z
       6593 19C0 00228C20 ?item@QToolBox@@QBEPAVQWidget@@H@Z
       6594 19C1 003D01F0 ?itemAbove@QTreeWidget@@QBEPAVQTreeWidgetItem@@PBV2@@Z
       6595 19C2 003BE3E0 ?itemActivated@QListWidget@@IAEXPAVQListWidgetItem@@@Z
       6596 19C3 003C4FC0 ?itemActivated@QTableWidget@@IAEXPAVQTableWidgetItem@@@Z
       6597 19C4 003CDCF0 ?itemActivated@QTreeWidget@@IAEXPAVQTreeWidgetItem@@H@Z
       6598 19C5 0001B9A0 ?itemAt@QBoxLayout@@UBEPAVQLayoutItem@@H@Z
       6599 19C6 0029EE60 ?itemAt@QDockWidgetLayout@@UBEPAVQLayoutItem@@H@Z
       6600 19C7 00026BB0 ?itemAt@QFormLayout@@QBEPAVQLayoutItem@@HW4ItemRole@1@@Z
       6601 19C8 00026B50 ?itemAt@QFormLayout@@UBEPAVQLayoutItem@@H@Z
       6602 19C9 0042F600 ?itemAt@QGraphicsGridLayout@@QBEPAVQGraphicsLayoutItem@@HH@Z
       6603 19CA 0042F690 ?itemAt@QGraphicsGridLayout@@UBEPAVQGraphicsLayoutItem@@H@Z
       6604 19CB 00421AC0 ?itemAt@QGraphicsLinearLayout@@UBEPAVQGraphicsLayoutItem@@H@Z
       6605 19CC 004116C0 ?itemAt@QGraphicsScene@@QBEPAVQGraphicsItem@@ABVQPointF@@@Z
       6606 19CD 00046B10 ?itemAt@QGraphicsScene@@QBEPAVQGraphicsItem@@NN@Z
       6607 19CE 0041CDE0 ?itemAt@QGraphicsView@@QBEPAVQGraphicsItem@@ABVQPoint@@@Z
       6608 19CF 0026D530 ?itemAt@QGraphicsView@@QBEPAVQGraphicsItem@@HH@Z
       6609 19D0 0002A570 ?itemAt@QGridLayout@@UBEPAVQLayoutItem@@H@Z
       6610 19D1 003BFDB0 ?itemAt@QListWidget@@QBEPAVQListWidgetItem@@ABVQPoint@@@Z
       6611 19D2 00333C40 ?itemAt@QListWidget@@QBEPAVQListWidgetItem@@HH@Z
       6612 19D3 0003B660 ?itemAt@QStackedLayout@@UBEPAVQLayoutItem@@H@Z
       6613 19D4 003C75B0 ?itemAt@QTableWidget@@QBEPAVQTableWidgetItem@@ABVQPoint@@@Z
       6614 19D5 003C7EC0 ?itemAt@QTableWidget@@QBEPAVQTableWidgetItem@@HH@Z
       6615 19D6 0030B230 ?itemAt@QToolBarLayout@@UBEPAVQLayoutItem@@H@Z
       6616 19D7 003CFA70 ?itemAt@QTreeWidget@@QBEPAVQTreeWidgetItem@@ABVQPoint@@@Z
       6617 19D8 003D09A0 ?itemAt@QTreeWidget@@QBEPAVQTreeWidgetItem@@HH@Z
       6618 19D9 00004D90 ?itemAtPos@QMenu@@IAEHABVQPoint@@_N@Z
       6619 19DA 00001D30 ?itemAtPos@QMenuBar@@IAEHABVQPoint@@@Z
       6620 19DB 0002A5B0 ?itemAtPosition@QGridLayout@@QBEPAVQLayoutItem@@HH@Z
       6621 19DC 003D02C0 ?itemBelow@QTreeWidget@@QBEPAVQTreeWidgetItem@@PBV2@@Z
       6622 19DD 00422840 ?itemChange@QGraphicsItem@@MAE?AVQVariant@@W4GraphicsItemChange@1@ABV2@@Z
       6623 19DE 0042CCF0 ?itemChange@QGraphicsProxyWidget@@MAE?AVQVariant@@W4GraphicsItemChange@QGraphicsItem@@ABV2@@Z
       6624 19DF 00424C50 ?itemChange@QGraphicsWidget@@MAE?AVQVariant@@W4GraphicsItemChange@QGraphicsItem@@ABV2@@Z
       6625 19E0 003BE440 ?itemChanged@QListWidget@@IAEXPAVQListWidgetItem@@@Z
       6626 19E1 003E19C0 ?itemChanged@QStandardItemModel@@IAEXPAVQStandardItem@@@Z
       6627 19E2 003C5020 ?itemChanged@QTableWidget@@IAEXPAVQTableWidgetItem@@@Z
       6628 19E3 003CDD70 ?itemChanged@QTreeWidget@@IAEXPAVQTreeWidgetItem@@H@Z
       6629 19E4 003CF080 ?itemChanged@QTreeWidgetItem@@AAEXXZ
       6630 19E5 003BE380 ?itemClicked@QListWidget@@IAEXPAVQListWidgetItem@@@Z
       6631 19E6 003C4F60 ?itemClicked@QTableWidget@@IAEXPAVQTableWidgetItem@@@Z
       6632 19E7 003CDC70 ?itemClicked@QTreeWidget@@IAEXPAVQTreeWidgetItem@@H@Z
       6633 19E8 003CDDE0 ?itemCollapsed@QTreeWidget@@IAEXPAVQTreeWidgetItem@@@Z
       6634 19E9 003D9180 ?itemData@QAbstractProxyModel@@UBE?AV?$QMap@HVQVariant@@@@ABVQModelIndex@@@Z
       6635 19EA 00287540 ?itemData@QComboBox@@QBE?AVQVariant@@HH@Z
       6636 19EB 003E5D60 ?itemData@QStandardItemModel@@UBE?AV?$QMap@HVQVariant@@@@ABVQModelIndex@@@Z
       6637 19EC 0037DAE0 ?itemDelegate@QAbstractItemView@@QBEPAVQAbstractItemDelegate@@ABVQModelIndex@@@Z
       6638 19ED 00416310 ?itemDelegate@QAbstractItemView@@QBEPAVQAbstractItemDelegate@@XZ
       6639 19EE 00288810 ?itemDelegate@QComboBox@@QBEPAVQAbstractItemDelegate@@XZ
       6640 19EF 00193840 ?itemDelegate@QDataWidgetMapper@@QBEPAVQAbstractItemDelegate@@XZ
       6641 19F0 00342840 ?itemDelegate@QFileDialog@@QBEPAVQAbstractItemDelegate@@XZ
       6642 19F1 0037DA40 ?itemDelegateForColumn@QAbstractItemView@@QBEPAVQAbstractItemDelegate@@H@Z
       6643 19F2 0037D9A0 ?itemDelegateForRow@QAbstractItemView@@QBEPAVQAbstractItemDelegate@@H@Z
       6644 19F3 003BE3B0 ?itemDoubleClicked@QListWidget@@IAEXPAVQListWidgetItem@@@Z
       6645 19F4 003C4F90 ?itemDoubleClicked@QTableWidget@@IAEXPAVQTableWidgetItem@@@Z
       6646 19F5 003CDCB0 ?itemDoubleClicked@QTreeWidget@@IAEXPAVQTreeWidgetItem@@H@Z
       6647 19F6 003B3140 ?itemEditorFactory@QItemDelegate@@QBEPAVQItemEditorFactory@@XZ
       6648 19F7 003B3140 ?itemEditorFactory@QStyledItemDelegate@@QBEPAVQItemEditorFactory@@XZ
       6649 19F8 003BE410 ?itemEntered@QListWidget@@IAEXPAVQListWidgetItem@@@Z
       6650 19F9 003C4FF0 ?itemEntered@QTableWidget@@IAEXPAVQTableWidgetItem@@@Z
       6651 19FA 003CDD30 ?itemEntered@QTreeWidget@@IAEXPAVQTreeWidgetItem@@H@Z
       6652 19FB 003CDDB0 ?itemExpanded@QTreeWidget@@IAEXPAVQTreeWidgetItem@@@Z
       6653 19FC 00004D50 ?itemFont@QMenu@@QBE?AVQFont@@H@Z
       6654 19FD 0029CA10 ?itemForRole@QDockWidgetLayout@@QBEPAVQLayoutItem@@W4Role@1@@Z
       6655 19FE 003C0620 ?itemFromIndex@QListWidget@@IBEPAVQListWidgetItem@@ABVQModelIndex@@@Z
       6656 19FF 003E71D0 ?itemFromIndex@QStandardItemModel@@QBEPAVQStandardItem@@ABVQModelIndex@@@Z
       6657 1A00 003C7C20 ?itemFromIndex@QTableWidget@@IBEPAVQTableWidgetItem@@ABVQModelIndex@@@Z
       6658 1A01 003D0520 ?itemFromIndex@QTreeWidget@@IBEPAVQTreeWidgetItem@@ABVQModelIndex@@@Z
       6659 1A02 00007C90 ?itemGeometry@QMenu@@QAE?AVQRect@@H@Z
       6660 1A03 000080D0 ?itemHeight@QMenu@@IAEHH@Z
       6661 1A04 00001780 ?itemHeight@QMenu@@IAEHPAVQMenuItem@@@Z
       6662 1A05 00289B90 ?itemIcon@QComboBox@@QBE?AVQIcon@@H@Z
       6663 1A06 0030E5D0 ?itemIcon@QToolBox@@QBE?AVQIcon@@H@Z
       6664 1A07 00228BE0 ?itemIconSet@QToolBox@@QBE?AVQIcon@@H@Z
       6665 1A08 003B3140 ?itemIndexMethod@QGraphicsScene@@QBE?AW4ItemIndexMethod@1@XZ
       6666 1A09 0030DEA0 ?itemInserted@QToolBox@@MAEXH@Z
       6667 1A0A 00228B70 ?itemLabel@QToolBox@@QBE?AVQString@@H@Z
       6668 1A0B 001C5C90 ?itemNumber@QTextList@@QBEHABVQTextBlock@@@Z
       6669 1A0C 002DF640 ?itemParameter@QMenu@@QBEHH@Z
       6670 1A0D 002E8360 ?itemParameter@QMenuBar@@QBEHH@Z
       6671 1A0E 0024AA80 ?itemPixmapRect@QCleanlooksStyle@@UBE?AVQRect@@ABV2@HABVQPixmap@@@Z
       6672 1A0F 001D81A0 ?itemPixmapRect@QStyle@@UBE?AVQRect@@ABV2@HABVQPixmap@@@Z
       6673 1A10 003BE350 ?itemPressed@QListWidget@@IAEXPAVQListWidgetItem@@@Z
       6674 1A11 003C4F30 ?itemPressed@QTableWidget@@IAEXPAVQTableWidgetItem@@@Z
       6675 1A12 003CDC30 ?itemPressed@QTreeWidget@@IAEXPAVQTreeWidgetItem@@H@Z
       6676 1A13 003E1920 ?itemPrototype@QStandardItemModel@@QBEPBVQStandardItem@@XZ
       6677 1A14 003C77A0 ?itemPrototype@QTableWidget@@QBEPBVQTableWidgetItem@@XZ
       6678 1A15 00008750 ?itemRect@QMenuBar@@IAE?AVQRect@@H@Z
       6679 1A16 0030DEA0 ?itemRemoved@QToolBox@@MAEXH@Z
       6680 1A17 003BE510 ?itemSelectionChanged@QListWidget@@IAEXXZ
       6681 1A18 003C5090 ?itemSelectionChanged@QTableWidget@@IAEXXZ
       6682 1A19 003CDE50 ?itemSelectionChanged@QTreeWidget@@IAEXXZ
       6683 1A1A 00421570 ?itemSpacing@QGraphicsLinearLayout@@QBENH@Z
       6684 1A1B 00289B00 ?itemText@QComboBox@@QBE?AVQString@@H@Z
       6685 1A1C 001C5CB0 ?itemText@QTextList@@QBE?AVQString@@ABVQTextBlock@@@Z
       6686 1A1D 0030E4E0 ?itemText@QToolBox@@QBE?AVQString@@H@Z
       6687 1A1E 001D8070 ?itemTextRect@QStyle@@UBE?AVQRect@@ABVQFontMetrics@@ABV2@H_NABVQString@@@Z
       6688 1A1F 0030E6C0 ?itemToolTip@QToolBox@@QBE?AVQString@@H@Z
       6689 1A20 00409ED0 ?itemUpdated@QGraphicsScene@@AAEXPAVQGraphicsItem@@ABVQRectF@@@Z
       6690 1A21 003C00B0 ?itemWidget@QListWidget@@QBEPAVQWidget@@PAVQListWidgetItem@@@Z
       6691 1A22 003CFCF0 ?itemWidget@QTreeWidget@@QBEPAVQWidget@@PAVQTreeWidgetItem@@H@Z
       6692 1A23 001868A0 ?itemize@QTextEngine@@QBEXXZ
       6693 1A24 0040F580 ?items@QGraphicsScene@@QBE?AV?$QList@PAVQGraphicsItem@@@@ABVQPainterPath@@W4ItemSelectionMode@Qt@@@Z
       6694 1A25 004113A0 ?items@QGraphicsScene@@QBE?AV?$QList@PAVQGraphicsItem@@@@ABVQPointF@@@Z
       6695 1A26 0040F0C0 ?items@QGraphicsScene@@QBE?AV?$QList@PAVQGraphicsItem@@@@ABVQPolygonF@@W4ItemSelectionMode@Qt@@@Z
       6696 1A27 0040ECB0 ?items@QGraphicsScene@@QBE?AV?$QList@PAVQGraphicsItem@@@@ABVQRectF@@W4ItemSelectionMode@Qt@@@Z
       6697 1A28 0004B530 ?items@QGraphicsScene@@QBE?AV?$QList@PAVQGraphicsItem@@@@NNNNW4ItemSelectionMode@Qt@@@Z
       6698 1A29 0040AA30 ?items@QGraphicsScene@@QBE?AV?$QList@PAVQGraphicsItem@@@@XZ
       6699 1A2A 0041CCE0 ?items@QGraphicsView@@QBE?AV?$QList@PAVQGraphicsItem@@@@ABVQPainterPath@@W4ItemSelectionMode@Qt@@@Z
       6700 1A2B 0041C8A0 ?items@QGraphicsView@@QBE?AV?$QList@PAVQGraphicsItem@@@@ABVQPoint@@@Z
       6701 1A2C 0041CB80 ?items@QGraphicsView@@QBE?AV?$QList@PAVQGraphicsItem@@@@ABVQPolygon@@W4ItemSelectionMode@Qt@@@Z
       6702 1A2D 0041CA30 ?items@QGraphicsView@@QBE?AV?$QList@PAVQGraphicsItem@@@@ABVQRect@@W4ItemSelectionMode@Qt@@@Z
       6703 1A2E 0026F460 ?items@QGraphicsView@@QBE?AV?$QList@PAVQGraphicsItem@@@@HH@Z
       6704 1A2F 0026F4A0 ?items@QGraphicsView@@QBE?AV?$QList@PAVQGraphicsItem@@@@HHHHW4ItemSelectionMode@Qt@@@Z
       6705 1A30 004197B0 ?items@QGraphicsView@@QBE?AV?$QList@PAVQGraphicsItem@@@@XZ
       6706 1A31 003C1420 ?items@QListWidget@@IBE?AV?$QList@PAVQListWidgetItem@@@@PBVQMimeData@@@Z
       6707 1A32 003C9300 ?items@QTableWidget@@IBE?AV?$QList@PAVQTableWidgetItem@@@@PBVQMimeData@@@Z
       6708 1A33 003D04C0 ?items@QTreeWidget@@IBE?AV?$QList@PAVQTreeWidgetItem@@@@PBVQMimeData@@@Z
       6709 1A34 0040EA70 ?itemsBoundingRect@QGraphicsScene@@QBE?AVQRectF@@XZ
       6710 1A35 003A0E90 ?itemsExpandable@QTreeView@@QBE_NXZ
       6711 1A36 0044B260 ?iterator@QLayout@@QAE?AVQLayoutIterator@@XZ
       6712 1A37 000F6020 ?joinForJoinMode@QStroker@@KA?AW4PenJoinStyle@Qt@@W4LineJoinMode@1@@Z
       6713 1A38 000F6000 ?joinModeForCap@QStroker@@KA?AW4LineJoinMode@1@W4PenCapStyle@Qt@@@Z
       6714 1A39 000F6050 ?joinModeForJoin@QStroker@@KA?AW4LineJoinMode@1@W4PenJoinStyle@Qt@@@Z
       6715 1A3A 000F7500 ?joinPoints@QStroker@@QAEXNNABVQLineF@@W4LineJoinMode@1@@Z
       6716 1A3B 001BBA90 ?joinPreviousEditBlock@QTextCursor@@QAEXXZ
       6717 1A3C 000DBAE0 ?joinStyle@QPainterPathStroker@@QBE?AW4PenJoinStyle@Qt@@XZ
       6718 1A3D 000E80C0 ?joinStyle@QPen@@QBE?AW4PenJoinStyle@Qt@@XZ
       6719 1A3E 000465C0 ?joinStyle@QStroker@@QBE?AW4PenJoinStyle@Qt@@XZ
       6720 1A3F 000465D0 ?joinStyleMode@QStroker@@QBE?AW4LineJoinMode@1@XZ
       6721 1A40 00085F90 ?jumpTable@QImage@@QAEPAPAEXZ
       6722 1A41 00079680 ?jumpTable@QImage@@QBEPBQBEXZ
       6723 1A42 0009C470 ?jumpToFrame@QMovie@@QAE_NH@Z
       6724 1A43 003F4DE0 ?jumpToImage@QImageIOHandler@@UAE_NH@Z
       6725 1A44 0008D140 ?jumpToImage@QImageReader@@QAE_NH@Z
       6726 1A45 0009C420 ?jumpToNextFrame@QMovie@@QAE_NXZ
       6727 1A46 000EBCA0 ?jumpToNextImage@QImageIOHandler@@UAE_NXZ
       6728 1A47 0008D120 ?jumpToNextImage@QImageReader@@QAE_NXZ
       6729 1A48 00187FA0 ?justify@QTextEngine@@QAEXABUQScriptLine@@@Z
       6730 1A49 0015C6F0 ?kerning@QFont@@QBE_NXZ
       6731 1A4A 0015DBC0 ?key@QFont@@QBE?AVQString@@XZ
       6732 1A4B 003F2BD0 ?key@QIconEngineV2@@UBE?AVQString@@XZ
       6733 1A4C 0000EA00 ?key@QKeyEvent@@QBEHXZ
       6734 1A4D 003F47D0 ?key@QShortcut@@QBE?AVQKeySequence@@XZ
       6735 1A4E 0000EA30 ?key@QShortcutEvent@@QAEABVQKeySequence@@XZ
       6736 1A4F 0000EA30 ?key@QShortcutEvent@@QBEABVQKeySequence@@XZ
       6737 1A50 0002F260 ?keyBindings@QKeySequence@@SA?AV?$QList@VQKeySequence@@@@W4StandardKey@1@@Z
       6738 1A51 00277F90 ?keyPressEvent@QAbstractButton@@MAEXPAVQKeyEvent@@@Z
       6739 1A52 00380970 ?keyPressEvent@QAbstractItemView@@MAEXPAVQKeyEvent@@@Z
       6740 1A53 00313E40 ?keyPressEvent@QAbstractScrollArea@@MAEXPAVQKeyEvent@@@Z
       6741 1A54 00278A80 ?keyPressEvent@QAbstractSlider@@MAEXPAVQKeyEvent@@@Z
       6742 1A55 0027C3D0 ?keyPressEvent@QAbstractSpinBox@@MAEXPAVQKeyEvent@@@Z
       6743 1A56 00284800 ?keyPressEvent@QCalendarWidget@@MAEXPAVQKeyEvent@@@Z
       6744 1A57 0028CC70 ?keyPressEvent@QComboBox@@MAEXPAVQKeyEvent@@@Z
       6745 1A58 002971B0 ?keyPressEvent@QDateTimeEdit@@MAEXPAVQKeyEvent@@@Z
       6746 1A59 00340B80 ?keyPressEvent@QDialog@@MAEXPAVQKeyEvent@@@Z
       6747 1A5A 00313020 ?keyPressEvent@QGraphicsItem@@MAEXPAVQKeyEvent@@@Z
       6748 1A5B 0042DFB0 ?keyPressEvent@QGraphicsProxyWidget@@MAEXPAVQKeyEvent@@@Z
       6749 1A5C 00407740 ?keyPressEvent@QGraphicsScene@@MAEXPAVQKeyEvent@@@Z
       6750 1A5D 003F5720 ?keyPressEvent@QGraphicsTextItem@@MAEXPAVQKeyEvent@@@Z
       6751 1A5E 004178C0 ?keyPressEvent@QGraphicsView@@MAEXPAVQKeyEvent@@@Z
       6752 1A5F 002B4330 ?keyPressEvent@QLabel@@MAEXPAVQKeyEvent@@@Z
       6753 1A60 002C1A70 ?keyPressEvent@QLineEdit@@MAEXPAVQKeyEvent@@@Z
       6754 1A61 002DB890 ?keyPressEvent@QMdiSubWindow@@MAEXPAVQKeyEvent@@@Z
       6755 1A62 002E4500 ?keyPressEvent@QMenu@@MAEXPAVQKeyEvent@@@Z
       6756 1A63 002E9C80 ?keyPressEvent@QMenuBar@@MAEXPAVQKeyEvent@@@Z
       6757 1A64 00355930 ?keyPressEvent@QMessageBox@@MAEXPAVQKeyEvent@@@Z
       6758 1A65 0032E540 ?keyPressEvent@QPlainTextEdit@@MAEXPAVQKeyEvent@@@Z
       6759 1A66 002EC000 ?keyPressEvent@QPushButton@@MAEXPAVQKeyEvent@@@Z
       6760 1A67 002FDAF0 ?keyPressEvent@QTabBar@@MAEXPAVQKeyEvent@@@Z
       6761 1A68 00300800 ?keyPressEvent@QTabWidget@@MAEXPAVQKeyEvent@@@Z
       6762 1A69 003073D0 ?keyPressEvent@QTextBrowser@@MAEXPAVQKeyEvent@@@Z
       6763 1A6A 00303FC0 ?keyPressEvent@QTextEdit@@MAEXPAVQKeyEvent@@@Z
       6764 1A6B 003AD9D0 ?keyPressEvent@QTreeView@@MAEXPAVQKeyEvent@@@Z
       6765 1A6C 00054FF0 ?keyPressEvent@QWidget@@MAEXPAVQKeyEvent@@@Z
       6766 1A6D 00315470 ?keyPressEvent@QWidgetResizeHandler@@IAEXPAVQKeyEvent@@@Z
       6767 1A6E 002780E0 ?keyReleaseEvent@QAbstractButton@@MAEXPAVQKeyEvent@@@Z
       6768 1A6F 0027AFF0 ?keyReleaseEvent@QAbstractSpinBox@@MAEXPAVQKeyEvent@@@Z
       6769 1A70 00287A00 ?keyReleaseEvent@QComboBox@@MAEXPAVQKeyEvent@@@Z
       6770 1A71 00313020 ?keyReleaseEvent@QGraphicsItem@@MAEXPAVQKeyEvent@@@Z
       6771 1A72 0042DFB0 ?keyReleaseEvent@QGraphicsProxyWidget@@MAEXPAVQKeyEvent@@@Z
       6772 1A73 00407740 ?keyReleaseEvent@QGraphicsScene@@MAEXPAVQKeyEvent@@@Z
       6773 1A74 003F5720 ?keyReleaseEvent@QGraphicsTextItem@@MAEXPAVQKeyEvent@@@Z
       6774 1A75 00417920 ?keyReleaseEvent@QGraphicsView@@MAEXPAVQKeyEvent@@@Z
       6775 1A76 0030DEA0 ?keyReleaseEvent@QPlainTextEdit@@MAEXPAVQKeyEvent@@@Z
       6776 1A77 003018F0 ?keyReleaseEvent@QTextEdit@@MAEXPAVQKeyEvent@@@Z
       6777 1A78 00313020 ?keyReleaseEvent@QWidget@@MAEXPAVQKeyEvent@@@Z
       6778 1A79 0006DC40 ?keyboardGrabber@QWidget@@SAPAV1@XZ
       6779 1A7A 0000E770 ?keyboardInputDirection@QApplication@@SA?AW4LayoutDirection@Qt@@XZ
       6780 1A7B 0005A980 ?keyboardInputInterval@QApplication@@SAHXZ
       6781 1A7C 0000E730 ?keyboardInputLocale@QApplication@@SA?AVQLocale@@XZ
       6782 1A7D 0000F6E0 ?keyboardModifiers@QApplication@@SA?AV?$QFlags@W4KeyboardModifier@Qt@@@@XZ
       6783 1A7E 00417B60 ?keyboardModifiers@QDropEvent@@QBE?AV?$QFlags@W4KeyboardModifier@Qt@@@@XZ
       6784 1A7F 002D2800 ?keyboardPageStep@QMdiSubWindow@@QBEHXZ
       6785 1A80 00383760 ?keyboardSearch@QAbstractItemView@@UAEXABVQString@@@Z
       6786 1A81 003ABC50 ?keyboardSearch@QTreeView@@UAEXABVQString@@@Z
       6787 1A82 002B9E00 ?keyboardSingleStep@QMdiSubWindow@@QBEHXZ
       6788 1A83 00279520 ?keyboardTracking@QAbstractSpinBox@@QBE_NXZ
       6789 1A84 0069B308 ?keyboard_input_time@QApplicationPrivate@@2HA
       6790 1A85 003F1DC0 ?keys@QInputContextFactory@@SA?AVQStringList@@XZ
       6791 1A86 001D9A60 ?keys@QStyleFactory@@SA?AVQStringList@@XZ
       6792 1A87 00002C60 ?label@QTabWidget@@QBE?AVQString@@H@Z
       6793 1A88 00449BE0 ?label@QToolBar@@QBE?AVQString@@XZ
       6794 1A89 00026820 ?labelAlignment@QFormLayout@@QBE?AV?$QFlags@W4AlignmentFlag@Qt@@@@XZ
       6795 1A8A 00026D30 ?labelForField@QFormLayout@@QBEPAVQWidget@@PAV2@@Z
       6796 1A8B 00026D90 ?labelForField@QFormLayout@@QBEPAVQWidget@@PAVQLayout@@@Z
       6797 1A8C 00342980 ?labelText@QFileDialog@@QBE?AVQString@@W4DialogLabel@1@@Z
       6798 1A8D 00356A60 ?labelText@QProgressDialog@@QBE?AVQString@@XZ
       6799 1A8E 00276040 ?languageChange@QWidget@@MAEXXZ
       6800 1A8F 003F1EE0 ?languages@QInputContextFactory@@SA?AVQStringList@@ABVQString@@@Z
       6801 1A90 001FA1E0 ?last@?$QList@VQItemSelectionRange@@@@QAEAAVQItemSelectionRange@@XZ
       6802 1A91 001F7770 ?last@?$QList@VQItemSelectionRange@@@@QBEABVQItemSelectionRange@@XZ
       6803 1A92 0019A2C0 ?lastBlock@QTextDocument@@QBE?AVQTextBlock@@XZ
       6804 1A93 00194910 ?lastCursorPosition@QTextFrame@@QBE?AVQTextCursor@@XZ
       6805 1A94 001C2DC0 ?lastCursorPosition@QTextTableCell@@QBE?AVQTextCursor@@XZ
       6806 1A95 001F53A0 ?lastIndexOf@?$QList@VQItemSelectionRange@@@@QBEHABVQItemSelectionRange@@H@Z
       6807 1A96 0035B900 ?lastModified@QFileSystemModel@@QBE?AVQDateTime@@ABVQModelIndex@@@Z
       6808 1A97 00414F50 ?lastPos@QGraphicsSceneHoverEvent@@QBE?AVQPointF@@XZ
       6809 1A98 00414F50 ?lastPos@QGraphicsSceneMouseEvent@@QBE?AVQPointF@@XZ
       6810 1A99 00193C60 ?lastPosition@QTextFrame@@QBEHXZ
       6811 1A9A 001C2A80 ?lastPosition@QTextTableCell@@QBEHXZ
       6812 1A9B 001D3C60 ?lastResortFamily@QFont@@QBE?AVQString@@XZ
       6813 1A9C 001D3C90 ?lastResortFont@QFont@@QBE?AVQString@@XZ
       6814 1A9D 00415110 ?lastScenePos@QGraphicsSceneHoverEvent@@QBE?AVQPointF@@XZ
       6815 1A9E 00415110 ?lastScenePos@QGraphicsSceneMouseEvent@@QBE?AVQPointF@@XZ
       6816 1A9F 00414FB0 ?lastScreenPos@QGraphicsSceneHoverEvent@@QBE?AVQPoint@@XZ
       6817 1AA0 00414FB0 ?lastScreenPos@QGraphicsSceneMouseEvent@@QBE?AVQPoint@@XZ
       6818 1AA1 0000E800 ?lastWindowClosed@QApplication@@IAEXXZ
       6819 1AA2 00422610 ?layout@QGraphicsWidget@@QBEPAVQGraphicsLayout@@XZ
       6820 1AA3 000349A0 ?layout@QLayout@@UAEPAV1@XZ
       6821 1AA4 002CA4A0 ?layout@QLayoutItem@@UAEPAVQLayout@@XZ
       6822 1AA5 00193E70 ?layout@QTextBlock@@QBEPAVQTextLayout@@XZ
       6823 1AA6 00047E70 ?layout@QWidget@@QBEPAVQLayout@@XZ
       6824 1AA7 0030C770 ?layoutActions@QToolBarLayout@@QAE_NABVQSize@@@Z
       6825 1AA8 0032B280 ?layoutBlock@QPlainTextDocumentLayout@@AAEXABVQTextBlock@@@Z
       6826 1AA9 003D7B00 ?layoutData@QTextFrame@@QBEPAVQTextFrameLayoutData@@XZ
       6827 1AAA 0000E660 ?layoutDirection@QApplication@@SA?AW4LayoutDirection@Qt@@XZ
       6828 1AAB 00422E90 ?layoutDirection@QGraphicsWidget@@QBE?AW4LayoutDirection@Qt@@XZ
       6829 1AAC 000CF850 ?layoutDirection@QPainter@@QBE?AW4LayoutDirection@Qt@@XZ
       6830 1AAD 0003D6A0 ?layoutDirection@QTextFormat@@QBE?AW4LayoutDirection@Qt@@XZ
       6831 1AAE 00048D30 ?layoutDirection@QWidget@@QBE?AW4LayoutDirection@Qt@@XZ
       6832 1AAF 003997B0 ?layoutMode@QListView@@QBE?AW4LayoutMode@1@XZ
       6833 1AB0 001D88C0 ?layoutSpacing@QStyle@@QBEHW4ControlType@QSizePolicy@@0W4Orientation@Qt@@PBVQStyleOption@@PBVQWidget@@@Z
       6834 1AB1 0022F4F0 ?layoutSpacingImplementation@QPlastiqueStyle@@IBEHW4ControlType@QSizePolicy@@0W4Orientation@Qt@@PBVQStyleOption@@PBVQWidget@@@Z
       6835 1AB2 001D8060 ?layoutSpacingImplementation@QStyle@@IBEHW4ControlType@QSizePolicy@@0W4Orientation@Qt@@PBVQStyleOption@@PBVQWidget@@@Z
       6836 1AB3 0018B860 ?layout_helper@QTextLine@@AAEXH@Z
       6837 1AB4 003B90D0 ?lazyChildCount@QDirModel@@QBE_NXZ
       6838 1AB5 001646E0 ?leading@QFontEngineMulti@@UBE?AUQFixed@@XZ
       6839 1AB6 0016AA50 ?leading@QFontMetrics@@QBEHXZ
       6840 1AB7 0016B2F0 ?leading@QFontMetricsF@@QBENXZ
       6841 1AB8 006A14D0 ?leaveAfterRelease@QApplicationPrivate@@2V?$QPointer@VQWidget@@@@A
       6842 1AB9 002D81F0 ?leaveEvent@QMdiSubWindow@@MAEXPAVQEvent@@@Z
       6843 1ABA 002DC500 ?leaveEvent@QMenu@@MAEXPAVQEvent@@@Z
       6844 1ABB 002E7880 ?leaveEvent@QMenuBar@@MAEXPAVQEvent@@@Z
       6845 1ABC 0030FC50 ?leaveEvent@QToolButton@@MAEXPAVQEvent@@@Z
       6846 1ABD 0030DEA0 ?leaveEvent@QWidget@@MAEXPAVQEvent@@@Z
       6847 1ABE 00013A40 ?leaveModal@QApplicationPrivate@@SAXPAVQWidget@@@Z
       6848 1ABF 0005E570 ?leaveModal_sys@QApplicationPrivate@@SAXPAVQWidget@@@Z
       6849 1AC0 00045840 ?leaveWhatsThisMode@QWhatsThis@@SAXXZ
       6850 1AC1 001F35D0 ?left@QItemSelectionRange@@QBEHXZ
       6851 1AC2 0016BB10 ?leftBearing@QFontMetrics@@QBEHVQChar@@@Z
       6852 1AC3 0016C910 ?leftBearing@QFontMetricsF@@QBENVQChar@@@Z
       6853 1AC4 002C9FF0 ?leftColumn@QTableWidgetSelectionRange@@QBEHXZ
       6854 1AC5 0003E600 ?leftMargin@QTextBlockFormat@@QBENXZ
       6855 1AC6 00190150 ?leftMargin@QTextFrameFormat@@QBENXZ
       6856 1AC7 0003F720 ?leftPadding@QTextTableCellFormat@@QBENXZ
       6857 1AC8 000BC5A0 ?length@QBezier@@QBENN@Z
       6858 1AC9 00385A60 ?length@QHeaderView@@QBEHXZ
       6859 1ACA 000E0050 ?length@QPainterPath@@QBENXZ
       6860 1ACB 00193DF0 ?length@QTextBlock@@QBEHXZ
       6861 1ACC 00091620 ?length@QTextEngine@@QBEHH@Z
       6862 1ACD 0008F1A0 ?length@QTextEngine@@QBEHPBUQScriptItem@@@Z
       6863 1ACE 001945B0 ?length@QTextFragment@@QBEHXZ
       6864 1ACF 00190AB0 ?lengthProperty@QTextFormat@@QBE?AVQTextLength@@H@Z
       6865 1AD0 001C7450 ?lengthValue@ValueExtractor@QCss@@AAEHABUValue@2@@Z
       6866 1AD1 001CB650 ?lengthValue@ValueExtractor@QCss@@QAEHABUDeclaration@2@@Z
       6867 1AD2 001CA240 ?lengthValues@ValueExtractor@QCss@@AAEXABUDeclaration@2@PAH@Z
       6868 1AD3 00190EE0 ?lengthVectorProperty@QTextFormat@@QBE?AV?$QVector@VQTextLength@@@@H@Z
       6869 1AD4 003D9ED0 ?lessThan@QSortFilterProxyModel@@MBE_NABVQModelIndex@@0@Z
       6870 1AD5 0015C730 ?letterSpacing@QFont@@QBENXZ
       6871 1AD6 0015C740 ?letterSpacingType@QFont@@QBE?AW4SpacingType@1@XZ
       6872 1AD7 0000EF20 ?lexem@Parser@QCss@@QBE?AVQString@@XZ
       6873 1AD8 001C7D30 ?lexem@Symbol@QCss@@QBE?AVQString@@XZ
       6874 1AD9 001CB190 ?lexemUntil@Parser@QCss@@QAE?AVQString@@W4TokenType@2@@Z
       6875 1ADA 000C3F00 ?light@QColor@@QBE?AV1@H@Z
       6876 1ADB 00449480 ?light@QColorGroup@@QBEABVQColor@@XZ
       6877 1ADC 0005AD30 ?light@QPalette@@QBEABVQBrush@@XZ
       6878 1ADD 00035E80 ?lighter@QColor@@QBE?AV1@H@Z
       6879 1ADE 003F4FB0 ?line@QGraphicsLineItem@@QBE?AVQLineF@@XZ
       6880 1ADF 00189560 ?lineAt@QTextLayout@@QBE?AVQTextLine@@H@Z
       6881 1AE0 00189A20 ?lineCount@QTextLayout@@QBEHXZ
       6882 1AE1 00278520 ?lineEdit@QAbstractSpinBox@@IBEPAVQLineEdit@@XZ
       6883 1AE2 002EAEA0 ?lineEdit@QComboBox@@QBEPAVQLineEdit@@XZ
       6884 1AE3 0018A320 ?lineForTextPosition@QTextLayout@@QBE?AVQTextLine@@H@Z
       6885 1AE4 000BF910 ?lineNumber@QTextLine@@QBEHXZ
       6886 1AE5 0016AA80 ?lineSpacing@QFontMetrics@@QBEHXZ
       6887 1AE6 0016B320 ?lineSpacing@QFontMetricsF@@QBENXZ
       6888 1AE7 000025D0 ?lineStep@QAbstractSlider@@QBEHXZ
       6889 1AE8 00160A50 ?lineThickness@QFontEngine@@UBE?AUQFixed@@XZ
       6890 1AE9 00164740 ?lineThickness@QFontEngineMulti@@UBE?AUQFixed@@XZ
       6891 1AEA 000DDB70 ?lineTo@QPainterPath@@QAEXABVQPointF@@@Z
       6892 1AEB 000CD240 ?lineTo@QPainterPath@@QAEXNN@Z
       6893 1AEC 00049760 ?lineTo@QStrokerOps@@QAEXNN@Z
       6894 1AED 0016B1F0 ?lineWidth@QFontMetrics@@QBEHXZ
       6895 1AEE 0016BA00 ?lineWidth@QFontMetricsF@@QBENXZ
       6896 1AEF 002AED70 ?lineWidth@QFrame@@QBEHXZ
       6897 1AF0 002CA4A0 ?lineWidth@QLineEdit@@QBEHXZ
       6898 1AF1 002CA4A0 ?lineWidth@QMenuBar@@QBEHXZ
       6899 1AF2 00301A10 ?lineWrapColumnOrWidth@QTextEdit@@QBEHXZ
       6900 1AF3 00329F10 ?lineWrapMode@QPlainTextEdit@@QBE?AW4LineWrapMode@1@XZ
       6901 1AF4 00301A00 ?lineWrapMode@QTextEdit@@QBE?AW4LineWrapMode@1@XZ
       6902 1AF5 00449540 ?link@QColorGroup@@QBEABVQColor@@XZ
       6903 1AF6 001A4880 ?link@QPalette@@QBEABVQBrush@@XZ
       6904 1AF7 003F5F80 ?linkActivated@QGraphicsTextItem@@IAEXABVQString@@@Z
       6905 1AF8 002B1720 ?linkActivated@QLabel@@IAEXABVQString@@@Z
       6906 1AF9 00179AE0 ?linkActivated@QTextControl@@IAEXABVQString@@@Z
       6907 1AFA 003F5FB0 ?linkHovered@QGraphicsTextItem@@IAEXABVQString@@@Z
       6908 1AFB 002B1750 ?linkHovered@QLabel@@IAEXABVQString@@@Z
       6909 1AFC 00179B10 ?linkHovered@QTextControl@@IAEXABVQString@@@Z
       6910 1AFD 00449550 ?linkVisited@QColorGroup@@QBEABVQColor@@XZ
       6911 1AFE 004492F0 ?linkVisited@QPalette@@QBEABVQBrush@@XZ
       6912 1AFF 0008EA10 ?listFormat@QTextFormatCollection@@QBE?AVQTextListFormat@@H@Z
       6913 1B00 00177860 ?listWidget@QListWidgetItem@@QBEPAVQListWidget@@XZ
       6914 1B01 001763F0 ?load@QFontDatabase@@CAXPBVQFontPrivate@@H@Z
       6915 1B02 00082760 ?load@QImage@@QAE_NABVQString@@PBD@Z
       6916 1B03 00082850 ?load@QImage@@QAE_NPAVQIODevice@@PBD@Z
       6917 1B04 00095DB0 ?load@QPicture@@QAE_NABVQString@@PBD@Z
       6918 1B05 00095B30 ?load@QPicture@@QAE_NPAVQIODevice@@PBD@Z
       6919 1B06 000973E0 ?load@QPixmap@@QAE_NABVQString@@PBDV?$QFlags@W4ImageConversionFlag@Qt@@@@@Z
       6920 1B07 00097F20 ?load@QPixmap@@QAE_NABVQString@@PBDW4ColorMode@1@@Z
       6921 1B08 00068820 ?loadFromData@QImage@@QAE_NABVQByteArray@@PBD@Z
       6922 1B09 00085C50 ?loadFromData@QImage@@QAE_NPBEHPBD@Z
       6923 1B0A 00199E70 ?loadFromData@QPixmap@@QAE_NABVQByteArray@@PBDV?$QFlags@W4ImageConversionFlag@Qt@@@@@Z
       6924 1B0B 000978B0 ?loadFromData@QPixmap@@QAE_NPBEIPBDV?$QFlags@W4ImageConversionFlag@Qt@@@@@Z
       6925 1B0C 00097F70 ?loadFromData@QPixmap@@QAE_NPBEIPBDW4ColorMode@1@@Z
       6926 1B0D 00164F80 ?loadKerningPairs@QFontEngine@@QAEXUQFixed@@@Z
       6927 1B0E 00096050 ?loadPicture@QPictureFormatPlugin@@UAE_NABVQString@@0PAVQPicture@@@Z
       6928 1B0F 003D7A00 ?loadResource@QPlainTextEdit@@UAE?AVQVariant@@HABVQUrl@@@Z
       6929 1B10 00308920 ?loadResource@QTextBrowser@@UAE?AVQVariant@@HABVQUrl@@@Z
       6930 1B11 0017C820 ?loadResource@QTextControl@@UAE?AVQVariant@@HABVQUrl@@@Z
       6931 1B12 0019DDE0 ?loadResource@QTextDocument@@MAE?AVQVariant@@HABVQUrl@@@Z
       6932 1B13 003D7A00 ?loadResource@QTextEdit@@UAE?AVQVariant@@HABVQUrl@@@Z
       6933 1B14 00311F90 ?locale@QValidator@@QBE?AVQLocale@@XZ
       6934 1B15 000473A0 ?locale@QWidget@@QBE?AVQLocale@@XZ
       6935 1B16 0008EBD0 ?logClusters@QTextEngine@@QBEPAGPBUQScriptItem@@@Z
       6936 1B17 00091E70 ?logicalDpiX@QPaintDevice@@QBEHXZ
       6937 1B18 00091E80 ?logicalDpiY@QPaintDevice@@QBEHXZ
       6938 1B19 003862E0 ?logicalIndex@QHeaderView@@QBEHH@Z
       6939 1B1A 001F3EE0 ?logicalIndexAt@QHeaderView@@QBEHABVQPoint@@@Z
       6940 1B1B 0038BCF0 ?logicalIndexAt@QHeaderView@@QBEHH@Z
       6941 1B1C 001F3EB0 ?logicalIndexAt@QHeaderView@@QBEHHH@Z
       6942 1B1D 0000EF50 ?lookup@Parser@QCss@@QBE?AW4TokenType@2@XZ
       6943 1B1E 00010650 ?lookupElementName@Parser@QCss@@QBE_NXZ
       6944 1B1F 002CA4A0 ?loopCount@QImageIOHandler@@UBEHXZ
       6945 1B20 0008D160 ?loopCount@QImageReader@@QBEHXZ
       6946 1B21 0009AD20 ?loopCount@QMovie@@QBEHXZ
       6947 1B22 00038980 ?loops@QSound@@QBEHXZ
       6948 1B23 0009AC60 ?loopsRemaining@QSound@@QBEHXZ
       6949 1B24 0044A910 ?lostFocus@QFocusEvent@@QBE_NXZ
       6950 1B25 002B9B00 ?lostFocus@QLineEdit@@IAEXXZ
       6951 1B26 00050640 ?lower@QWidget@@QAEXXZ
       6952 1B27 0006E610 ?lower_sys@QWidgetPrivate@@QAEXXZ
       6953 1B28 0007A0B0 ?m11@QMatrix@@QBENXZ
       6954 1B29 0007A0B0 ?m11@QTransform@@QBENXZ
       6955 1B2A 000FE6E0 ?m12@QMatrix@@QBENXZ
       6956 1B2B 000FE6E0 ?m12@QTransform@@QBENXZ
       6957 1B2C 000BF7E0 ?m13@QTransform@@QBENXZ
       6958 1B2D 000FE6F0 ?m21@QMatrix@@QBENXZ
       6959 1B2E 000FE6F0 ?m21@QTransform@@QBENXZ
       6960 1B2F 0007A0C0 ?m22@QMatrix@@QBENXZ
       6961 1B30 0007A0C0 ?m22@QTransform@@QBENXZ
       6962 1B31 000CD3E0 ?m23@QTransform@@QBENXZ
       6963 1B32 000BF890 ?m31@QTransform@@QBENXZ
       6964 1B33 00104A20 ?m32@QTransform@@QBENXZ
       6965 1B34 000CD3F0 ?m33@QTransform@@QBENXZ
       6966 1B35 000C4BE0 ?magenta@QColor@@QBEHXZ
       6967 1B36 000C4CB0 ?magentaF@QColor@@QBENXZ
       6968 1B37 0000E6F0 ?mainWidget@QApplication@@SAPAVQWidget@@XZ
       6969 1B38 0044B230 ?mainWidget@QLayout@@QBEPAVQWidget@@XZ
       6970 1B39 006A147C ?main_widget@QApplicationPrivate@@2PAVQWidget@@A
       6971 1B3A 000FE250 ?map@QMatrix@@QBE?AVQLine@@ABV2@@Z
       6972 1B3B 000FE1F0 ?map@QMatrix@@QBE?AVQLineF@@ABV2@@Z
       6973 1B3C 000FFE40 ?map@QMatrix@@QBE?AVQPainterPath@@ABV2@@Z
       6974 1B3D 000FE0A0 ?map@QMatrix@@QBE?AVQPoint@@ABV2@@Z
       6975 1B3E 000FE190 ?map@QMatrix@@QBE?AVQPointF@@ABV2@@Z
       6976 1B3F 000FEFF0 ?map@QMatrix@@QBE?AVQPolygon@@ABV2@@Z
       6977 1B40 000FF190 ?map@QMatrix@@QBE?AVQPolygonF@@ABV2@@Z
       6978 1B41 004485A0 ?map@QMatrix@@QBE?AVQRect@@ABV2@@Z
       6979 1B42 00100080 ?map@QMatrix@@QBE?AVQRegion@@ABV2@@Z
       6980 1B43 000FDFE0 ?map@QMatrix@@QBEXHHPAH0@Z
       6981 1B44 000FDFA0 ?map@QMatrix@@QBEXNNPAN0@Z
       6982 1B45 000D0170 ?map@QPainter@@QBEXHHPAH0@Z
       6983 1B46 00107CD0 ?map@QTransform@@QBE?AVQLine@@ABV2@@Z
       6984 1B47 00107F00 ?map@QTransform@@QBE?AVQLineF@@ABV2@@Z
       6985 1B48 00106E80 ?map@QTransform@@QBE?AVQPainterPath@@ABV2@@Z
       6986 1B49 00106150 ?map@QTransform@@QBE?AVQPoint@@ABV2@@Z
       6987 1B4A 00106320 ?map@QTransform@@QBE?AVQPointF@@ABV2@@Z
       6988 1B4B 001083B0 ?map@QTransform@@QBE?AVQPolygon@@ABV2@@Z
       6989 1B4C 00108260 ?map@QTransform@@QBE?AVQPolygonF@@ABV2@@Z
       6990 1B4D 00108580 ?map@QTransform@@QBE?AVQRegion@@ABV2@@Z
       6991 1B4E 00106DC0 ?map@QTransform@@QBEXHHPAH0@Z
       6992 1B4F 00106D30 ?map@QTransform@@QBEXNNPAN0@Z
       6993 1B50 00048BC0 ?mapFrom@QWidget@@QBE?AVQPoint@@PAV1@ABV2@@Z
       6994 1B51 0006F080 ?mapFromGlobal@QWidget@@QBE?AVQPoint@@ABV2@@Z
       6995 1B52 003F8F50 ?mapFromItem@QGraphicsItem@@QBE?AVQPainterPath@@PBV1@ABV2@@Z
       6996 1B53 003F8D90 ?mapFromItem@QGraphicsItem@@QBE?AVQPointF@@PBV1@ABV2@@Z
       6997 1B54 0000D7A0 ?mapFromItem@QGraphicsItem@@QBE?AVQPointF@@PBV1@NN@Z
       6998 1B55 003F8E90 ?mapFromItem@QGraphicsItem@@QBE?AVQPolygonF@@PBV1@ABV2@@Z
       6999 1B56 003F8DD0 ?mapFromItem@QGraphicsItem@@QBE?AVQPolygonF@@PBV1@ABVQRectF@@@Z
       7000 1B57 0000F260 ?mapFromItem@QGraphicsItem@@QBE?AVQPolygonF@@PBV1@NNNN@Z
       7001 1B58 003F8FE0 ?mapFromParent@QGraphicsItem@@QBE?AVQPainterPath@@ABV2@@Z
       7002 1B59 003F7CC0 ?mapFromParent@QGraphicsItem@@QBE?AVQPointF@@ABV2@@Z
       7003 1B5A 0000D7E0 ?mapFromParent@QGraphicsItem@@QBE?AVQPointF@@NN@Z
       7004 1B5B 003F8F20 ?mapFromParent@QGraphicsItem@@QBE?AVQPolygonF@@ABV2@@Z
       7005 1B5C 003F8E60 ?mapFromParent@QGraphicsItem@@QBE?AVQPolygonF@@ABVQRectF@@@Z
       7006 1B5D 0000F2C0 ?mapFromParent@QGraphicsItem@@QBE?AVQPolygonF@@NNNN@Z
       7007 1B5E 000472E0 ?mapFromParent@QWidget@@QBE?AVQPoint@@ABV2@@Z
       7008 1B5F 003F7EA0 ?mapFromScene@QGraphicsItem@@QBE?AVQPainterPath@@ABV2@@Z
       7009 1B60 003F7D30 ?mapFromScene@QGraphicsItem@@QBE?AVQPointF@@ABV2@@Z
       7010 1B61 0000D820 ?mapFromScene@QGraphicsItem@@QBE?AVQPointF@@NN@Z
       7011 1B62 003F7E50 ?mapFromScene@QGraphicsItem@@QBE?AVQPolygonF@@ABV2@@Z
       7012 1B63 003F7D90 ?mapFromScene@QGraphicsItem@@QBE?AVQPolygonF@@ABVQRectF@@@Z
       7013 1B64 0000F320 ?mapFromScene@QGraphicsItem@@QBE?AVQPolygonF@@NNNN@Z
       7014 1B65 004171B0 ?mapFromScene@QGraphicsView@@QBE?AVQPainterPath@@ABV2@@Z
       7015 1B66 00416FE0 ?mapFromScene@QGraphicsView@@QBE?AVQPoint@@ABVQPointF@@@Z
       7016 1B67 0026D5A0 ?mapFromScene@QGraphicsView@@QBE?AVQPoint@@NN@Z
       7017 1B68 004186F0 ?mapFromScene@QGraphicsView@@QBE?AVQPolygon@@ABVQPolygonF@@@Z
       7018 1B69 00417080 ?mapFromScene@QGraphicsView@@QBE?AVQPolygon@@ABVQRectF@@@Z
       7019 1B6A 0026DA70 ?mapFromScene@QGraphicsView@@QBE?AVQPolygon@@NNNN@Z
       7020 1B6B 003DFCF0 ?mapFromSource@QSortFilterProxyModel@@UBE?AVQModelIndex@@ABV2@@Z
       7021 1B6C 00006190 ?mapFromWS@QWidgetPrivate@@QBE?AVQPoint@@ABV2@@Z
       7022 1B6D 00003B90 ?mapFromWS@QWidgetPrivate@@QBE?AVQRect@@ABV2@@Z
       7023 1B6E 000FE740 ?mapRect@QMatrix@@QBE?AVQRect@@ABV2@@Z
       7024 1B6F 000FEC60 ?mapRect@QMatrix@@QBE?AVQRectF@@ABV2@@Z
       7025 1B70 001070D0 ?mapRect@QTransform@@QBE?AVQRect@@ABV2@@Z
       7026 1B71 00107730 ?mapRect@QTransform@@QBE?AVQRectF@@ABV2@@Z
       7027 1B72 003D9370 ?mapSelectionFromSource@QAbstractProxyModel@@UBE?AVQItemSelection@@ABV2@@Z
       7028 1B73 003DC030 ?mapSelectionFromSource@QSortFilterProxyModel@@UBE?AVQItemSelection@@ABV2@@Z
       7029 1B74 003D91F0 ?mapSelectionToSource@QAbstractProxyModel@@UBE?AVQItemSelection@@ABV2@@Z
       7030 1B75 003DC010 ?mapSelectionToSource@QSortFilterProxyModel@@UBE?AVQItemSelection@@ABV2@@Z
       7031 1B76 00048B40 ?mapTo@QWidget@@QBE?AVQPoint@@PAV1@ABV2@@Z
       7032 1B77 0006EEC0 ?mapToGlobal@QWidget@@QBE?AVQPoint@@ABV2@@Z
       7033 1B78 003F8CD0 ?mapToItem@QGraphicsItem@@QBE?AVQPainterPath@@PBV1@ABV2@@Z
       7034 1B79 003F8B00 ?mapToItem@QGraphicsItem@@QBE?AVQPointF@@PBV1@ABV2@@Z
       7035 1B7A 0000D6E0 ?mapToItem@QGraphicsItem@@QBE?AVQPointF@@PBV1@NN@Z
       7036 1B7B 003F8C10 ?mapToItem@QGraphicsItem@@QBE?AVQPolygonF@@PBV1@ABV2@@Z
       7037 1B7C 003F8B50 ?mapToItem@QGraphicsItem@@QBE?AVQPolygonF@@PBV1@ABVQRectF@@@Z
       7038 1B7D 0000F140 ?mapToItem@QGraphicsItem@@QBE?AVQPolygonF@@PBV1@NNNN@Z
       7039 1B7E 003F8D60 ?mapToParent@QGraphicsItem@@QBE?AVQPainterPath@@ABV2@@Z
       7040 1B7F 003F7B30 ?mapToParent@QGraphicsItem@@QBE?AVQPointF@@ABV2@@Z
       7041 1B80 0000D720 ?mapToParent@QGraphicsItem@@QBE?AVQPointF@@NN@Z
       7042 1B81 003F8CA0 ?mapToParent@QGraphicsItem@@QBE?AVQPolygonF@@ABV2@@Z
       7043 1B82 003F8BE0 ?mapToParent@QGraphicsItem@@QBE?AVQPolygonF@@ABVQRectF@@@Z
       7044 1B83 0000F1A0 ?mapToParent@QGraphicsItem@@QBE?AVQPolygonF@@NNNN@Z
       7045 1B84 000472A0 ?mapToParent@QWidget@@QBE?AVQPoint@@ABV2@@Z
       7046 1B85 000FF350 ?mapToPolygon@QMatrix@@QBE?AVQPolygon@@ABVQRect@@@Z
       7047 1B86 00106680 ?mapToPolygon@QTransform@@QBE?AVQPolygon@@ABVQRect@@@Z
       7048 1B87 000FFC10 ?mapToRegion@QMatrix@@QBE?AVQRegion@@ABVQRect@@@Z
       7049 1B88 003F7C90 ?mapToScene@QGraphicsItem@@QBE?AVQPainterPath@@ABV2@@Z
       7050 1B89 003F7B80 ?mapToScene@QGraphicsItem@@QBE?AVQPointF@@ABV2@@Z
       7051 1B8A 0000D760 ?mapToScene@QGraphicsItem@@QBE?AVQPointF@@NN@Z
       7052 1B8B 003F7C60 ?mapToScene@QGraphicsItem@@QBE?AVQPolygonF@@ABV2@@Z
       7053 1B8C 003F7BD0 ?mapToScene@QGraphicsItem@@QBE?AVQPolygonF@@ABVQRectF@@@Z
       7054 1B8D 0000F200 ?mapToScene@QGraphicsItem@@QBE?AVQPolygonF@@NNNN@Z
       7055 1B8E 00416F20 ?mapToScene@QGraphicsView@@QBE?AVQPainterPath@@ABV2@@Z
       7056 1B8F 00416D30 ?mapToScene@QGraphicsView@@QBE?AVQPointF@@ABVQPoint@@@Z
       7057 1B90 0026D560 ?mapToScene@QGraphicsView@@QBE?AVQPointF@@HH@Z
       7058 1B91 00418600 ?mapToScene@QGraphicsView@@QBE?AVQPolygonF@@ABVQPolygon@@@Z
       7059 1B92 00416DE0 ?mapToScene@QGraphicsView@@QBE?AVQPolygonF@@ABVQRect@@@Z
       7060 1B93 0026DA20 ?mapToScene@QGraphicsView@@QBE?AVQPolygonF@@HHHH@Z
       7061 1B94 003DB8E0 ?mapToSource@QSortFilterProxyModel@@UBE?AVQModelIndex@@ABV2@@Z
       7062 1B95 00006150 ?mapToWS@QWidgetPrivate@@QBE?AVQPoint@@ABV2@@Z
       7063 1B96 000061D0 ?mapToWS@QWidgetPrivate@@QBE?AVQRect@@ABV2@@Z
       7064 1B97 003E9E70 ?mappedPropertyName@QDataWidgetMapper@@QBE?AVQByteArray@@PAVQWidget@@@Z
       7065 1B98 003E9E40 ?mappedSection@QDataWidgetMapper@@QBEHPAVQWidget@@@Z
       7066 1B99 003E9F10 ?mappedWidgetAt@QDataWidgetMapper@@QBEPAVQWidget@@H@Z
       7067 1B9A 006A15A0 ?mapper@QWidgetPrivate@@2PAV?$QHash@PAUHWND__@@PAVQWidget@@@@A
       7068 1B9B 00178160 ?margin@QLCDNumber@@QBEHXZ
       7069 1B9C 00312F50 ?margin@QLabel@@QBEHXZ
       7070 1B9D 00033850 ?margin@QLayout@@QBEHXZ
