Microsoft (R) COFF/PE Dumper Version 9.00.21022.08
Copyright (C) Microsoft Corporation.  All rights reserved.


Dump of file poppler-qt4.dll

File Type: DLL

  Section contains the following exports for poppler-qt4.dll

    00000000 characteristics
    49BDEC45 time date stamp Mon Mar 16 02:05:57 2009
        0.00 version
           1 ordinal base
         471 number of functions
         471 number of names

    ordinal hint RVA      name

          1    0 00002685 ??0Annotation@Poppler@@IAE@AAVAnnotationPrivate@1@@Z
          2    1 00002667 ??0Annotation@Poppler@@IAE@AAVAnnotationPrivate@1@ABVQDomNode@@@Z
          3    2 00001D48 ??0BaseConverter@Poppler@@IAE@AAVBaseConverterPrivate@1@@Z
          4    3 0000262B ??0CaretAnnotation@Poppler@@QAE@ABVQDomNode@@@Z
          5    4 00002365 ??0CaretAnnotation@Poppler@@QAE@XZ
          6    5 00001375 ??0Document@Poppler@@AAE@PAVDocumentData@1@@Z
          7    6 00001FC3 ??0EmbeddedFile@Poppler@@QAE@PAVEmbFile@@@Z
          8    7 00001131 ??0FileAttachmentAnnotation@Poppler@@QAE@ABVQDomNode@@@Z
          9    8 000018A2 ??0FileAttachmentAnnotation@Poppler@@QAE@XZ
         10    9 00002112 ??0FontInfo@Poppler@@QAE@ABV01@@Z
         11    A 00002EB9 ??0FontInfo@Poppler@@QAE@ABVFontInfoData@1@@Z
         12    B 000015C8 ??0FontInfo@Poppler@@QAE@XZ
         13    C 00001992 ??0FormField@Poppler@@IAE@AAVFormFieldData@1@@Z
         14    D 0000278E ??0FormFieldButton@Poppler@@QAE@PAVDocumentData@1@PAVPage@@PAVFormWidgetButton@@@Z
         15    E 00001CBC ??0FormFieldChoice@Poppler@@QAE@PAVDocumentData@1@PAVPage@@PAVFormWidgetChoice@@@Z
         16    F 00001AE1 ??0FormFieldText@Poppler@@QAE@PAVDocumentData@1@PAVPage@@PAVFormWidgetText@@@Z
         17   10 000029A5 ??0GeomAnnotation@Poppler@@QAE@ABVQDomNode@@@Z
         18   11 00002CCF ??0GeomAnnotation@Poppler@@QAE@XZ
         19   12 00002D79 ??0HighlightAnnotation@Poppler@@QAE@ABVQDomNode@@@Z
         20   13 00001041 ??0HighlightAnnotation@Poppler@@QAE@XZ
         21   14 000029F5 ??0InkAnnotation@Poppler@@QAE@ABVQDomNode@@@Z
         22   15 00001DFC ??0InkAnnotation@Poppler@@QAE@XZ
         23   16 00001DED ??0LineAnnotation@Poppler@@QAE@ABVQDomNode@@@Z
         24   17 000023EC ??0LineAnnotation@Poppler@@QAE@XZ
         25   18 000026DA ??0Link@Poppler@@IAE@AAVLinkPrivate@1@@Z
         26   19 00001B63 ??0Link@Poppler@@QAE@ABVQRectF@@@Z
         27   1A 000026B2 ??0LinkAction@Poppler@@QAE@ABVQRectF@@W4ActionType@01@@Z
         28   1B 00001E7E ??0LinkAnnotation@Poppler@@QAE@ABVQDomNode@@@Z
         29   1C 00001D2A ??0LinkAnnotation@Poppler@@QAE@XZ
         30   1D 00001D7A ??0LinkBrowse@Poppler@@QAE@ABVQRectF@@ABVQString@@@Z
         31   1E 00002CDE ??0LinkDestination@Poppler@@QAE@ABV01@@Z
         32   1F 000012AD ??0LinkDestination@Poppler@@QAE@ABVLinkDestinationData@1@@Z
         33   20 00001E65 ??0LinkDestination@Poppler@@QAE@ABVQString@@@Z
         34   21 00001154 ??0LinkExecute@Poppler@@QAE@ABVQRectF@@ABVQString@@1@Z
         35   22 00002842 ??0LinkGoto@Poppler@@QAE@ABVQRectF@@VQString@@ABVLinkDestination@1@@Z
         36   23 0000257C ??0LinkJavaScript@Poppler@@QAE@ABVQRectF@@ABVQString@@@Z
         37   24 00002360 ??0LinkSound@Poppler@@QAE@ABVQRectF@@N_N11PAVSoundObject@1@@Z
         38   25 000020A4 ??0MovieAnnotation@Poppler@@QAE@ABVQDomNode@@@Z
         39   26 00001230 ??0MovieAnnotation@Poppler@@QAE@XZ
         40   27 00002F8B ??0MovieObject@Poppler@@AAE@PAVAnnotMovie@@@Z
         41   28 000011AE ??0OptContentModel@Poppler@@AAE@PAVOCGs@@PAVQObject@@@Z
         42   29 0000224D ??0PDFConverter@Poppler@@AAE@PAVDocumentData@1@@Z
         43   2A 000012CB ??0PSConverter@Poppler@@AAE@PAVDocumentData@1@@Z
         44   2B 00002068 ??0Page@Poppler@@AAE@PAVDocumentData@1@H@Z
         45   2C 00001CA3 ??0PageTransition@Poppler@@QAE@ABV01@@Z
         46   2D 00002900 ??0PageTransition@Poppler@@QAE@ABVPageTransitionParams@1@@Z
         47   2E 000015AA ??0SoundAnnotation@Poppler@@QAE@ABVQDomNode@@@Z
         48   2F 000028FB ??0SoundAnnotation@Poppler@@QAE@XZ
         49   30 00002AD6 ??0SoundObject@Poppler@@QAE@PAVSound@@@Z
         50   31 0000127B ??0StampAnnotation@Poppler@@QAE@ABVQDomNode@@@Z
         51   32 000018F7 ??0StampAnnotation@Poppler@@QAE@XZ
         52   33 00002C07 ??0TextAnnotation@Poppler@@QAE@ABVQDomNode@@@Z
         53   34 00001EEC ??0TextAnnotation@Poppler@@QAE@XZ
         54   35 00002D9C ??0TextBox@Poppler@@QAE@ABVQString@@ABVQRectF@@@Z
         55   36 00001F05 ??1Annotation@Poppler@@UAE@XZ
         56   37 000011C7 ??1BaseConverter@Poppler@@UAE@XZ
         57   38 000025B8 ??1CaretAnnotation@Poppler@@UAE@XZ
         58   39 00002BD5 ??1Document@Poppler@@QAE@XZ
         59   3A 00002B76 ??1EmbeddedFile@Poppler@@QAE@XZ
         60   3B 00001253 ??1FileAttachmentAnnotation@Poppler@@UAE@XZ
         61   3C 00002784 ??1FontInfo@Poppler@@QAE@XZ
         62   3D 00002536 ??1FormField@Poppler@@UAE@XZ
         63   3E 00001AF0 ??1FormFieldButton@Poppler@@UAE@XZ
         64   3F 0000139D ??1FormFieldChoice@Poppler@@UAE@XZ
         65   40 000025AE ??1FormFieldText@Poppler@@UAE@XZ
         66   41 00002914 ??1GeomAnnotation@Poppler@@UAE@XZ
         67   42 00001B9F ??1HighlightAnnotation@Poppler@@UAE@XZ
         68   43 0000174E ??1InkAnnotation@Poppler@@UAE@XZ
         69   44 00002B8A ??1LineAnnotation@Poppler@@UAE@XZ
         70   45 00002220 ??1Link@Poppler@@UAE@XZ
         71   46 000022DE ??1LinkAction@Poppler@@UAE@XZ
         72   47 00002621 ??1LinkAnnotation@Poppler@@UAE@XZ
         73   48 000013E3 ??1LinkBrowse@Poppler@@UAE@XZ
         74   49 00002EAA ??1LinkDestination@Poppler@@QAE@XZ
         75   4A 0000253B ??1LinkExecute@Poppler@@UAE@XZ
         76   4B 00002527 ??1LinkGoto@Poppler@@UAE@XZ
         77   4C 000017C1 ??1LinkJavaScript@Poppler@@UAE@XZ
         78   4D 00002A36 ??1LinkSound@Poppler@@UAE@XZ
         79   4E 00002B49 ??1MovieAnnotation@Poppler@@UAE@XZ
         80   4F 00002572 ??1MovieObject@Poppler@@QAE@XZ
         81   50 00001406 ??1OptContentModel@Poppler@@UAE@XZ
         82   51 0000132F ??1PDFConverter@Poppler@@UAE@XZ
         83   52 00001424 ??1PSConverter@Poppler@@UAE@XZ
         84   53 00002E73 ??1Page@Poppler@@QAE@XZ
         85   54 00002B03 ??1PageTransition@Poppler@@QAE@XZ
         86   55 00001DB6 ??1SoundAnnotation@Poppler@@UAE@XZ
         87   56 00002676 ??1SoundObject@Poppler@@QAE@XZ
         88   57 0000100F ??1StampAnnotation@Poppler@@UAE@XZ
         89   58 00002CA7 ??1TextAnnotation@Poppler@@UAE@XZ
         90   59 000014AB ??1TextBox@Poppler@@QAE@XZ
         91   5A 0000192E ??4AnnotationUtils@Poppler@@QAEAAV01@ABV01@@Z
         92   5B 00001BEA ??4FontInfo@Poppler@@QAEAAV01@ABV01@@Z
         93   5C 00001BC7 ??4LinkDestination@Poppler@@QAEAAV01@ABV01@@Z
         94   5D 0000119A ??4PageTransition@Poppler@@QAEAAV01@ABV01@@Z
         95   5E 0010784C ??_7Annotation@Poppler@@6B@
         96   5F 00108798 ??_7BaseConverter@Poppler@@6B@
         97   60 00107D30 ??_7CaretAnnotation@Poppler@@6B@
         98   61 00107D44 ??_7FileAttachmentAnnotation@Poppler@@6B@
         99   62 00107F58 ??_7FormField@Poppler@@6B@
        100   63 00107F74 ??_7FormFieldButton@Poppler@@6B@
        101   64 00107F94 ??_7FormFieldChoice@Poppler@@6B@
        102   65 00107F84 ??_7FormFieldText@Poppler@@6B@
        103   66 00107CC8 ??_7GeomAnnotation@Poppler@@6B@
        104   67 00107CDC ??_7HighlightAnnotation@Poppler@@6B@
        105   68 00107D08 ??_7InkAnnotation@Poppler@@6B@
        106   69 00107CB0 ??_7LineAnnotation@Poppler@@6B@
        107   6A 00108018 ??_7Link@Poppler@@6B@
        108   6B 00108058 ??_7LinkAction@Poppler@@6B@
        109   6C 00107D1C ??_7LinkAnnotation@Poppler@@6B@
        110   6D 00108048 ??_7LinkBrowse@Poppler@@6B@
        111   6E 00108038 ??_7LinkExecute@Poppler@@6B@
        112   6F 00108028 ??_7LinkGoto@Poppler@@6B@
        113   70 00108078 ??_7LinkJavaScript@Poppler@@6B@
        114   71 00108068 ??_7LinkSound@Poppler@@6B@
        115   72 00107D6C ??_7MovieAnnotation@Poppler@@6B@
        116   73 0010850C ??_7OptContentModel@Poppler@@6B@
        117   74 00108838 ??_7PDFConverter@Poppler@@6B@
        118   75 00108870 ??_7PSConverter@Poppler@@6B@
        119   76 00107D58 ??_7SoundAnnotation@Poppler@@6B@
        120   77 00107CF4 ??_7StampAnnotation@Poppler@@6B@
        121   78 00107C9C ??_7TextAnnotation@Poppler@@6B@
        122   79 00001550 ?action@Page@Poppler@@QBEPAVLink@2@W4PageAction@12@@Z
        123   7A 000015F0 ?actionType@LinkAction@Poppler@@QBE?AW4ActionType@12@XZ
        124   7B 000020A9 ?activationAction@FormField@Poppler@@QBEPAVLink@2@XZ
        125   7C 00001668 ?alignment@PageTransition@Poppler@@QBE?AW4Alignment@12@XZ
        126   7D 0000141F ?angle@PageTransition@Poppler@@QBEHXZ
        127   7E 0000281A ?annotations@Page@Poppler@@QBE?AV?$QList@PAVAnnotation@Poppler@@@@XZ
        128   7F 000016D1 ?author@Annotation@Poppler@@QBE?AVQString@@XZ
        129   80 00002AAE ?availableRenderBackends@Document@Poppler@@SA?AV?$QSet@W4RenderBackend@Document@Poppler@@@@XZ
        130   81 000020CC ?bitsPerSample@SoundObject@Poppler@@QBEHXZ
        131   82 00001E74 ?bottom@LinkDestination@Poppler@@QBENXZ
        132   83 00002C61 ?boundary@Annotation@Poppler@@QBE?AVQRectF@@XZ
        133   84 000018E3 ?boundingBox@TextBox@Poppler@@QBE?AVQRectF@@XZ
        134   85 00001645 ?buttonType@FormFieldButton@Poppler@@QBE?AW4ButtonType@12@XZ
        135   86 00001956 ?calloutPoint@TextAnnotation@Poppler@@QBE?AVQPointF@@H@Z
        136   87 00001CF3 ?canBeSpellChecked@FormFieldChoice@Poppler@@QBE_NXZ
        137   88 0000280B ?canBeSpellChecked@FormFieldText@Poppler@@QBE_NXZ
        138   89 00001127 ?caption@FormFieldButton@Poppler@@QBE?AVQString@@XZ
        139   8A 00002257 ?caretSymbol@CaretAnnotation@Poppler@@QBE?AW4CaretSymbol@12@XZ
        140   8B 00002B21 ?channels@SoundObject@Poppler@@QBEHXZ
        141   8C 00001005 ?charBoundingBox@TextBox@Poppler@@QBE?AVQRectF@@H@Z
        142   8D 00001302 ?checksum@EmbeddedFile@Poppler@@QBE?AVQByteArray@@XZ
        143   8E 00001C0D ?choiceType@FormFieldChoice@Poppler@@QBE?AW4ChoiceType@12@XZ
        144   8F 00001820 ?choices@FormFieldChoice@Poppler@@QBE?AVQStringList@@XZ
        145   90 000030B2 ?columnCount@OptContentModel@Poppler@@UBEHABVQModelIndex@@@Z
        146   91 000018ED ?contents@Annotation@Poppler@@QBE?AVQString@@XZ
        147   92 00001FFF ?convert@PDFConverter@Poppler@@UAE_NXZ
        148   93 00001C12 ?convert@PSConverter@Poppler@@UAE_NXZ
        149   94 00001884 ?convertDate@Poppler@@YA?AVQDateTime@@PAD@Z
        150   95 00002333 ?createAnnotation@AnnotationUtils@Poppler@@SAPAVAnnotation@2@ABVQDomElement@@@Z
        151   96 00001DDE ?createDate@EmbeddedFile@Poppler@@QBE?AVQDateTime@@XZ
        152   97 0000177B ?creationDate@Annotation@Poppler@@QBE?AVQDateTime@@XZ
        153   98 00002A1D ?currentChoices@FormFieldChoice@Poppler@@QBE?AV?$QList@H@@XZ
        154   99 00001F4B ?d_func@Annotation@Poppler@@IAEPAVAnnotationPrivate@2@XZ
        155   9A 00001E56 ?d_func@Annotation@Poppler@@IBEPBVAnnotationPrivate@2@XZ
        156   9B 00001E24 ?d_func@BaseConverter@Poppler@@IAEPAVBaseConverterPrivate@2@XZ
        157   9C 0000163B ?d_func@BaseConverter@Poppler@@IBEPBVBaseConverterPrivate@2@XZ
        158   9D 00002739 ?d_func@CaretAnnotation@Poppler@@AAEPAVCaretAnnotationPrivate@2@XZ
        159   9E 000011EF ?d_func@CaretAnnotation@Poppler@@ABEPBVCaretAnnotationPrivate@2@XZ
        160   9F 00002FA4 ?d_func@FileAttachmentAnnotation@Poppler@@AAEPAVFileAttachmentAnnotationPrivate@2@XZ
        161   A0 000022D4 ?d_func@FileAttachmentAnnotation@Poppler@@ABEPBVFileAttachmentAnnotationPrivate@2@XZ
        162   A1 00002275 ?d_func@GeomAnnotation@Poppler@@AAEPAVGeomAnnotationPrivate@2@XZ
        163   A2 00001BE5 ?d_func@GeomAnnotation@Poppler@@ABEPBVGeomAnnotationPrivate@2@XZ
        164   A3 00001140 ?d_func@HighlightAnnotation@Poppler@@AAEPAVHighlightAnnotationPrivate@2@XZ
        165   A4 00001A73 ?d_func@HighlightAnnotation@Poppler@@ABEPBVHighlightAnnotationPrivate@2@XZ
        166   A5 00001DC0 ?d_func@InkAnnotation@Poppler@@AAEPAVInkAnnotationPrivate@2@XZ
        167   A6 00002923 ?d_func@InkAnnotation@Poppler@@ABEPBVInkAnnotationPrivate@2@XZ
        168   A7 000021BC ?d_func@LineAnnotation@Poppler@@AAEPAVLineAnnotationPrivate@2@XZ
        169   A8 00002301 ?d_func@LineAnnotation@Poppler@@ABEPBVLineAnnotationPrivate@2@XZ
        170   A9 00001DF2 ?d_func@Link@Poppler@@IAEPAVLinkPrivate@2@XZ
        171   AA 00003062 ?d_func@Link@Poppler@@IBEPBVLinkPrivate@2@XZ
        172   AB 00002649 ?d_func@LinkAction@Poppler@@AAEPAVLinkActionPrivate@2@XZ
        173   AC 000029FA ?d_func@LinkAction@Poppler@@ABEPBVLinkActionPrivate@2@XZ
        174   AD 000015FF ?d_func@LinkAnnotation@Poppler@@AAEPAVLinkAnnotationPrivate@2@XZ
        175   AE 000024A5 ?d_func@LinkAnnotation@Poppler@@ABEPBVLinkAnnotationPrivate@2@XZ
        176   AF 00001410 ?d_func@LinkBrowse@Poppler@@AAEPAVLinkBrowsePrivate@2@XZ
        177   B0 0000268A ?d_func@LinkBrowse@Poppler@@ABEPBVLinkBrowsePrivate@2@XZ
        178   B1 0000197E ?d_func@LinkExecute@Poppler@@AAEPAVLinkExecutePrivate@2@XZ
        179   B2 00001474 ?d_func@LinkExecute@Poppler@@ABEPBVLinkExecutePrivate@2@XZ
        180   B3 0000308F ?d_func@LinkGoto@Poppler@@AAEPAVLinkGotoPrivate@2@XZ
        181   B4 0000169A ?d_func@LinkGoto@Poppler@@ABEPBVLinkGotoPrivate@2@XZ
        182   B5 00001F23 ?d_func@LinkJavaScript@Poppler@@AAEPAVLinkJavaScriptPrivate@2@XZ
        183   B6 000016A9 ?d_func@LinkJavaScript@Poppler@@ABEPBVLinkJavaScriptPrivate@2@XZ
        184   B7 00002F90 ?d_func@LinkSound@Poppler@@AAEPAVLinkSoundPrivate@2@XZ
        185   B8 00002491 ?d_func@LinkSound@Poppler@@ABEPBVLinkSoundPrivate@2@XZ
        186   B9 000027AC ?d_func@MovieAnnotation@Poppler@@AAEPAVMovieAnnotationPrivate@2@XZ
        187   BA 00002DAB ?d_func@MovieAnnotation@Poppler@@ABEPBVMovieAnnotationPrivate@2@XZ
        188   BB 000010AF ?d_func@PDFConverter@Poppler@@AAEPAVPDFConverterPrivate@2@XZ
        189   BC 000027E8 ?d_func@PDFConverter@Poppler@@ABEPBVPDFConverterPrivate@2@XZ
        190   BD 00001FF5 ?d_func@PSConverter@Poppler@@AAEPAVPSConverterPrivate@2@XZ
        191   BE 000015BE ?d_func@PSConverter@Poppler@@ABEPBVPSConverterPrivate@2@XZ
        192   BF 000010FA ?d_func@SoundAnnotation@Poppler@@AAEPAVSoundAnnotationPrivate@2@XZ
        193   C0 000017F3 ?d_func@SoundAnnotation@Poppler@@ABEPBVSoundAnnotationPrivate@2@XZ
        194   C1 000018AC ?d_func@StampAnnotation@Poppler@@AAEPAVStampAnnotationPrivate@2@XZ
        195   C2 0000268F ?d_func@StampAnnotation@Poppler@@ABEPBVStampAnnotationPrivate@2@XZ
        196   C3 000014A1 ?d_func@TextAnnotation@Poppler@@AAEPAVTextAnnotationPrivate@2@XZ
        197   C4 00002BB7 ?d_func@TextAnnotation@Poppler@@ABEPBVTextAnnotationPrivate@2@XZ
        198   C5 00002F54 ?data@EmbeddedFile@Poppler@@QAE?AVQByteArray@@XZ
        199   C6 0000191F ?data@OptContentModel@Poppler@@UBE?AVQVariant@@ABVQModelIndex@@H@Z
        200   C7 00002946 ?data@SoundObject@Poppler@@QBE?AVQByteArray@@XZ
        201   C8 00002680 ?date@Document@Poppler@@QBE?AVQDateTime@@ABVQString@@@Z
        202   C9 00001C58 ?defaultCTM@Page@Poppler@@QAEXPANNNH_N@Z
        203   CA 00002EF0 ?description@EmbeddedFile@Poppler@@QBE?AVQString@@XZ
        204   CB 000012F3 ?destination@LinkGoto@Poppler@@QBE?AVLinkDestination@2@XZ
        205   CC 00002617 ?direction@PageTransition@Poppler@@QBE?AW4Direction@12@XZ
        206   CD 00001519 ?duration@Page@Poppler@@QBENXZ
        207   CE 00001947 ?duration@PageTransition@Poppler@@QBEHXZ
        208   CF 00002581 ?embeddedFile@FileAttachmentAnnotation@Poppler@@QBEPAVEmbeddedFile@2@XZ
        209   D0 000024BE ?embeddedFiles@Document@Poppler@@QBE?AV?$QList@PAVEmbeddedFile@Poppler@@@@XZ
        210   D1 00001F64 ?file@FontInfo@Poppler@@QBE?AVQString@@XZ
        211   D2 00001C49 ?fileIconName@FileAttachmentAnnotation@Poppler@@QBE?AVQString@@XZ
        212   D3 000014FB ?fileName@LinkExecute@Poppler@@QBE?AVQString@@XZ
        213   D4 000027D4 ?fileName@LinkGoto@Poppler@@QBE?AVQString@@XZ
        214   D5 00001CAD ?findChildElement@AnnotationUtils@Poppler@@SA?AVQDomElement@@ABVQDomNode@@ABVQString@@@Z
        215   D6 00001FE1 ?flags@Annotation@Poppler@@QBEHXZ
        216   D7 0000239C ?flags@OptContentModel@Poppler@@UBE?AV?$QFlags@W4ItemFlag@Qt@@@@ABVQModelIndex@@@Z
        217   D8 00002E69 ?fontData@Document@Poppler@@QBE?AVQByteArray@@ABVFontInfo@2@@Z
        218   D9 000016D6 ?fonts@Document@Poppler@@QBE?AV?$QList@VFontInfo@Poppler@@@@XZ
        219   DA 000017E4 ?formFields@Page@Poppler@@QBE?AV?$QList@PAVFormField@Poppler@@@@XZ
        220   DB 00001578 ?geomInnerColor@GeomAnnotation@Poppler@@QBE?AVQColor@@XZ
        221   DC 00002590 ?geomPointWidth@GeomAnnotation@Poppler@@QBEHXZ
        222   DD 000019B5 ?geomType@GeomAnnotation@Poppler@@QBE?AW4GeomType@12@XZ
        223   DE 0000230B ?hasEmbeddedFiles@Document@Poppler@@QBE_NXZ
        224   DF 00002D3D ?hasOptionalContent@Document@Poppler@@QBE_NXZ
        225   E0 00001C1C ?hasSpaceAfter@TextBox@Poppler@@QBE_NXZ
        226   E1 00001915 ?headerData@OptContentModel@Poppler@@UBE?AVQVariant@@HW4Orientation@Qt@@H@Z
        227   E2 00002D56 ?highlightQuads@HighlightAnnotation@Poppler@@QBE?AV?$QList@UQuad@HighlightAnnotation@Poppler@@@@XZ
        228   E3 000018FC ?highlightType@HighlightAnnotation@Poppler@@QBE?AW4HighlightType@12@XZ
        229   E4 000016A4 ?id@FormField@Poppler@@QBEHXZ
        230   E5 00001938 ?index@OptContentModel@Poppler@@UBE?AVQModelIndex@@HHABV3@@Z
        231   E6 0000200E ?info@Document@Poppler@@QBE?AVQString@@ABV3@@Z
        232   E7 000019BF ?infoKeys@Document@Poppler@@QBE?AVQStringList@@XZ
        233   E8 00002F9A ?inkPaths@InkAnnotation@Poppler@@QBE?AV?$QList@V?$QLinkedList@VQPointF@@@@@@XZ
        234   E9 00002509 ?inplaceAlign@TextAnnotation@Poppler@@QBEHXZ
        235   EA 000013BB ?inplaceIntent@TextAnnotation@Poppler@@QBE?AW4InplaceIntent@12@XZ
        236   EB 00002EBE ?inplaceText@TextAnnotation@Poppler@@QBE?AVQString@@XZ
        237   EC 00002644 ?isChangeLeft@LinkDestination@Poppler@@QBE_NXZ
        238   ED 000018B6 ?isChangeTop@LinkDestination@Poppler@@QBE_NXZ
        239   EE 00002086 ?isChangeZoom@LinkDestination@Poppler@@QBE_NXZ
        240   EF 00002FF9 ?isEditable@FormFieldChoice@Poppler@@QBE_NXZ
        241   F0 0000178A ?isEmbedded@FontInfo@Poppler@@QBE_NXZ
        242   F1 00002B08 ?isEncrypted@Document@Poppler@@QBE_NXZ
        243   F2 00001BF9 ?isExternal@LinkGoto@Poppler@@QBE_NXZ
        244   F3 0000203B ?isLineClosed@LineAnnotation@Poppler@@QBE_NXZ
        245   F4 000029D2 ?isLinearized@Document@Poppler@@QBE_NXZ
        246   F5 00002A59 ?isLocked@Document@Poppler@@QBE_NXZ
        247   F6 00002FD1 ?isPassword@FormFieldText@Poppler@@QBE_NXZ
        248   F7 00002EF5 ?isReadOnly@FormField@Poppler@@QBE_NXZ
        249   F8 00001B7C ?isRectangular@PageTransition@Poppler@@QBE_NXZ
        250   F9 00001A28 ?isRichText@FormFieldText@Poppler@@QBE_NXZ
        251   FA 00002AEF ?isSubset@FontInfo@Poppler@@QBE_NXZ
        252   FB 00001573 ?isVisible@FormField@Poppler@@QBE_NXZ
        253   FC 000013CA ?kind@LinkDestination@Poppler@@QBE?AW4Kind@12@XZ
        254   FD 00002DC9 ?label@Page@Poppler@@QBE?AVQString@@XZ
        255   FE 00001636 ?left@LinkDestination@Poppler@@QBENXZ
        256   FF 00002563 ?lineEndStyle@LineAnnotation@Poppler@@QBE?AW4TermStyle@12@XZ
        257  100 000022A7 ?lineInnerColor@LineAnnotation@Poppler@@QBE?AVQColor@@XZ
        258  101 00002FA9 ?lineIntent@LineAnnotation@Poppler@@QBE?AW4LineIntent@12@XZ
        259  102 00001C6C ?lineLeadingBackPoint@LineAnnotation@Poppler@@QBENXZ
        260  103 000019AB ?lineLeadingForwardPoint@LineAnnotation@Poppler@@QBENXZ
        261  104 000026A8 ?linePoints@LineAnnotation@Poppler@@QBE?AV?$QLinkedList@VQPointF@@@@XZ
        262  105 000022ED ?lineShowCaption@LineAnnotation@Poppler@@QBE_NXZ
        263  106 000028F6 ?lineStartStyle@LineAnnotation@Poppler@@QBE?AW4TermStyle@12@XZ
        264  107 0000270C ?linkArea@Link@Poppler@@QBE?AVQRectF@@XZ
        265  108 00002B99 ?linkDestination@Document@Poppler@@QAEPAVLinkDestination@2@ABVQString@@@Z
        266  109 0000234C ?linkDestionation@LinkAnnotation@Poppler@@QBEPAVLink@2@XZ
        267  10A 0000186B ?linkHighlightMode@LinkAnnotation@Poppler@@QBE?AW4HighlightMode@12@XZ
        268  10B 0000294B ?linkRegionPoint@LinkAnnotation@Poppler@@QBE?AVQPointF@@H@Z
        269  10C 00001B8B ?linkType@Link@Poppler@@UBE?AW4LinkType@12@XZ
        270  10D 00001569 ?linkType@LinkAction@Poppler@@UBE?AW4LinkType@Link@2@XZ
        271  10E 00001DA2 ?linkType@LinkBrowse@Poppler@@UBE?AW4LinkType@Link@2@XZ
        272  10F 00001AB4 ?linkType@LinkExecute@Poppler@@UBE?AW4LinkType@Link@2@XZ
        273  110 000012A3 ?linkType@LinkGoto@Poppler@@UBE?AW4LinkType@Link@2@XZ
        274  111 00002121 ?linkType@LinkJavaScript@Poppler@@UBE?AW4LinkType@Link@2@XZ
        275  112 000026FD ?linkType@LinkSound@Poppler@@UBE?AW4LinkType@Link@2@XZ
        276  113 0000293C ?links@Page@Poppler@@QBE?AV?$QList@PAVLink@Poppler@@@@XZ
        277  114 00001F46 ?load@Document@Poppler@@SAPAV12@ABVQString@@ABVQByteArray@@1@Z
        278  115 000016F9 ?loadFromData@Document@Poppler@@SAPAV12@ABVQByteArray@@00@Z
        279  116 000025BD ?maximumLength@FormFieldText@Poppler@@QBEHXZ
        280  117 00003026 ?metaObject@OptContentModel@Poppler@@UBEPBUQMetaObject@@XZ
        281  118 00002059 ?metadata@Document@Poppler@@QBE?AVQString@@XZ
        282  119 00002211 ?mimeType@EmbeddedFile@Poppler@@QBE?AVQString@@XZ
        283  11A 00001AF5 ?mix@LinkSound@Poppler@@QBE_NXZ
        284  11B 00002DDD ?modDate@EmbeddedFile@Poppler@@QBE?AVQDateTime@@XZ
        285  11C 00002FB3 ?modificationDate@Annotation@Poppler@@QBE?AVQDateTime@@XZ
        286  11D 00002CFC ?movie@MovieAnnotation@Poppler@@QBEPAVMovieObject@2@XZ
        287  11E 0000109B ?movieTitle@MovieAnnotation@Poppler@@QBE?AVQString@@XZ
        288  11F 00001EA6 ?multiSelect@FormFieldChoice@Poppler@@QBE_NXZ
        289  120 000020F4 ?name@EmbeddedFile@Poppler@@QBE?AVQString@@XZ
        290  121 000015C3 ?name@FontInfo@Poppler@@QBE?AVQString@@XZ
        291  122 00002D29 ?name@FormField@Poppler@@QBE?AVQString@@XZ
        292  123 00001924 ?nextWord@TextBox@Poppler@@QBEPAV12@XZ
        293  124 00002BBC ?numPages@Document@Poppler@@QBEHXZ
        294  125 00001622 ?okToAddNotes@Document@Poppler@@QBE_NXZ
        295  126 00002D6F ?okToAssemble@Document@Poppler@@QBE_NXZ
        296  127 00002B1C ?okToChange@Document@Poppler@@QBE_NXZ
        297  128 0000217B ?okToCopy@Document@Poppler@@QBE_NXZ
        298  129 00001C7B ?okToCreateFormFields@Document@Poppler@@QBE_NXZ
        299  12A 000010BE ?okToExtractForAccessibility@Document@Poppler@@QBE_NXZ
        300  12B 00002A13 ?okToFillForm@Document@Poppler@@QBE_NXZ
        301  12C 0000106E ?okToPrint@Document@Poppler@@QBE_NXZ
        302  12D 0000281F ?okToPrintHighRes@Document@Poppler@@QBE_NXZ
        303  12E 0000204F ?optionalContentModel@Document@Poppler@@QAEPAVOptContentModel@2@XZ
        304  12F 000010EB ?orientation@Page@Poppler@@QBE?AW4Orientation@12@XZ
        305  130 00002E3C ?page@Document@Poppler@@QBEPAVPage@2@ABVQString@@@Z
        306  131 00002AF4 ?page@Document@Poppler@@QBEPAVPage@2@H@Z
        307  132 0000275C ?pageLayout@Document@Poppler@@QBE?AW4PageLayout@12@XZ
        308  133 000030D0 ?pageMode@Document@Poppler@@QBE?AW4PageMode@12@XZ
        309  134 00002B9E ?pageNumber@LinkDestination@Poppler@@QBEHXZ
        310  135 00001D4D ?pageSize@Page@Poppler@@QBE?AVQSize@@XZ
        311  136 0000303F ?pageSizeF@Page@Poppler@@QBE?AVQSizeF@@XZ
        312  137 000022CA ?paperColor@Document@Poppler@@QBE?AVQColor@@XZ
        313  138 00001A64 ?parameters@LinkExecute@Poppler@@QBE?AVQString@@XZ
        314  139 00001CDA ?parent@OptContentModel@Poppler@@UBE?AVQModelIndex@@ABV3@@Z
        315  13A 00001429 ?pdfConverter@Document@Poppler@@QBEPAVPDFConverter@2@XZ
        316  13B 00001B27 ?pdfOptions@PDFConverter@Poppler@@QBE?AV?$QFlags@W4PDFOption@PDFConverter@Poppler@@@@XZ
        317  13C 00002702 ?pdfVersion@Document@Poppler@@QBENXZ
        318  13D 0000112C ?playMode@MovieObject@Poppler@@QBE?AW4PlayMode@12@XZ
        319  13E 00002F18 ?psConverter@Document@Poppler@@QBEPAVPSConverter@2@XZ
        320  13F 000016BD ?psOptions@PSConverter@Poppler@@QBE?AV?$QFlags@W4PSOption@PSConverter@Poppler@@@@XZ
        321  140 000026E9 ?qt_metacall@OptContentModel@Poppler@@UAEHW4Call@QMetaObject@@HPAPAX@Z
        322  141 00001F50 ?qt_metacast@OptContentModel@Poppler@@UAEPAXPBD@Z
        323  142 0000164A ?rect@FormField@Poppler@@QBE?AVQRectF@@XZ
        324  143 00001384 ?renderBackend@Document@Poppler@@QBE?AW4RenderBackend@12@XZ
        325  144 00002969 ?renderHints@Document@Poppler@@QBE?AV?$QFlags@W4RenderHint@Document@Poppler@@@@XZ
        326  145 00001177 ?renderToImage@Page@Poppler@@QBE?AVQImage@@NNHHHHW4Rotation@12@@Z
        327  146 0000182A ?repeat@LinkSound@Poppler@@QBE_NXZ
        328  147 00001596 ?revisions@Annotation@Poppler@@QAEAAV?$QLinkedList@URevision@Annotation@Poppler@@@@XZ
        329  148 000022AC ?revisions@Annotation@Poppler@@QBEABV?$QLinkedList@URevision@Annotation@Poppler@@@@XZ
        330  149 000012A8 ?right@LinkDestination@Poppler@@QBENXZ
        331  14A 00002B53 ?rotation@MovieObject@Poppler@@QBEHXZ
        332  14B 00002C8E ?rowCount@OptContentModel@Poppler@@UBEHABVQModelIndex@@@Z
        333  14C 000025C2 ?samplingRate@SoundObject@Poppler@@QBENXZ
        334  14D 00002B5D ?scale@PageTransition@Poppler@@QBENXZ
        335  14E 00002A8B ?scanForFonts@Document@Poppler@@QBE_NHPAV?$QList@VFontInfo@Poppler@@@@@Z
        336  14F 0000229D ?script@LinkJavaScript@Poppler@@QBE?AVQString@@XZ
        337  150 000023E7 ?scripts@Document@Poppler@@QBE?AVQStringList@@XZ
        338  151 00001F41 ?search@Page@Poppler@@QBE_NABVQString@@AAVQRectF@@W4SearchDirection@12@W4SearchMode@12@W4Rotation@12@@Z
        339  152 000024F0 ?setAuthor@Annotation@Poppler@@QAEXABVQString@@@Z
        340  153 00001546 ?setBottomMargin@PSConverter@Poppler@@QAEXH@Z
        341  154 00001D52 ?setBoundary@Annotation@Poppler@@QAEXABVQRectF@@@Z
        342  155 000024FF ?setCalloutPoint@TextAnnotation@Poppler@@QAEXHABVQPointF@@@Z
        343  156 000027A7 ?setCaretSymbol@CaretAnnotation@Poppler@@QAEXW4CaretSymbol@12@@Z
        344  157 00001654 ?setContents@Annotation@Poppler@@QAEXABVQString@@@Z
        345  158 00002FDB ?setCreationDate@Annotation@Poppler@@QAEXABVQDateTime@@@Z
        346  159 00002306 ?setCurrentChoices@FormFieldChoice@Poppler@@QAEXABV?$QList@H@@@Z
        347  15A 000014EC ?setData@OptContentModel@Poppler@@UAE_NABVQModelIndex@@ABVQVariant@@H@Z
        348  15B 00001EFB ?setEmbeddedFile@FileAttachmentAnnotation@Poppler@@QAEXPAVEmbeddedFile@2@@Z
        349  15C 00002E50 ?setFileIconName@FileAttachmentAnnotation@Poppler@@QAEXABVQString@@@Z
        350  15D 00001F2D ?setFlags@Annotation@Poppler@@QAEXH@Z
        351  15E 00002437 ?setForceRasterize@PSConverter@Poppler@@QAEX_N@Z
        352  15F 000018D9 ?setGeomInnerColor@GeomAnnotation@Poppler@@QAEXABVQColor@@@Z
        353  160 00001E06 ?setGeomPointWidth@GeomAnnotation@Poppler@@QAEXH@Z
        354  161 00002BF3 ?setGeomType@GeomAnnotation@Poppler@@QAEXW4GeomType@12@@Z
        355  162 000016C7 ?setHDPI@PSConverter@Poppler@@QAEXN@Z
        356  163 0000140B ?setHighlightQuads@HighlightAnnotation@Poppler@@QAEXABV?$QList@UQuad@HighlightAnnotation@Poppler@@@@@Z
        357  164 000021B2 ?setHighlightType@HighlightAnnotation@Poppler@@QAEXW4HighlightType@12@@Z
        358  165 00003094 ?setInkPaths@InkAnnotation@Poppler@@QAEXABV?$QList@V?$QLinkedList@VQPointF@@@@@@@Z
        359  166 00001F14 ?setInplaceAlign@TextAnnotation@Poppler@@QAEXH@Z
        360  167 000013A7 ?setInplaceIntent@TextAnnotation@Poppler@@QAEXW4InplaceIntent@12@@Z
        361  168 0000277F ?setInplaceText@TextAnnotation@Poppler@@QAEXABVQString@@@Z
        362  169 00001ADC ?setLeftMargin@PSConverter@Poppler@@QAEXH@Z
        363  16A 0000297D ?setLineClosed@LineAnnotation@Poppler@@QAEX_N@Z
        364  16B 00002833 ?setLineEndStyle@LineAnnotation@Poppler@@QAEXW4TermStyle@12@@Z
        365  16C 00002BF8 ?setLineInnerColor@LineAnnotation@Poppler@@QAEXABVQColor@@@Z
        366  16D 000027D9 ?setLineIntent@LineAnnotation@Poppler@@QAEXW4LineIntent@12@@Z
        367  16E 00002E1E ?setLineLeadingBackPoint@LineAnnotation@Poppler@@QAEXN@Z
        368  16F 000029FF ?setLineLeadingForwardPoint@LineAnnotation@Poppler@@QAEXN@Z
        369  170 00002707 ?setLinePoints@LineAnnotation@Poppler@@QAEXABV?$QLinkedList@VQPointF@@@@@Z
        370  171 00002202 ?setLineShowCaption@LineAnnotation@Poppler@@QAEX_N@Z
        371  172 0000308A ?setLineStartStyle@LineAnnotation@Poppler@@QAEXW4TermStyle@12@@Z
        372  173 00002F9F ?setLinkDestination@LinkAnnotation@Poppler@@QAEXPAVLink@2@@Z
        373  174 00002F6D ?setLinkHighlightMode@LinkAnnotation@Poppler@@QAEXW4HighlightMode@12@@Z
        374  175 00001523 ?setLinkRegionPoint@LinkAnnotation@Poppler@@QAEXHABVQPointF@@@Z
        375  176 00001316 ?setModificationDate@Annotation@Poppler@@QAEXABVQDateTime@@@Z
        376  177 00001730 ?setMovie@MovieAnnotation@Poppler@@QAEXPAVMovieObject@2@@Z
        377  178 00002BC1 ?setMovieTitle@MovieAnnotation@Poppler@@QAEXABVQString@@@Z
        378  179 000021CB ?setOutputDevice@BaseConverter@Poppler@@QAEXPAVQIODevice@@@Z
        379  17A 00002B85 ?setOutputFileName@BaseConverter@Poppler@@QAEXABVQString@@@Z
        380  17B 00001285 ?setPDFOptions@PDFConverter@Poppler@@QAEXV?$QFlags@W4PDFOption@PDFConverter@Poppler@@@@@Z
        381  17C 000027BB ?setPSOptions@PSConverter@Poppler@@QAEXV?$QFlags@W4PSOption@PSConverter@Poppler@@@@@Z
        382  17D 00001F55 ?setPageList@PSConverter@Poppler@@QAEXABV?$QList@H@@@Z
        383  17E 00001212 ?setPaperColor@Document@Poppler@@QAEXABVQColor@@@Z
        384  17F 000010B4 ?setPaperHeight@PSConverter@Poppler@@QAEXH@Z
        385  180 000013E8 ?setPaperWidth@PSConverter@Poppler@@QAEXH@Z
        386  181 000022FC ?setRenderBackend@Document@Poppler@@QAEXW4RenderBackend@12@@Z
        387  182 00002284 ?setRenderHint@Document@Poppler@@QAEXW4RenderHint@12@_N@Z
        388  183 00001933 ?setRightMargin@PSConverter@Poppler@@QAEXH@Z
        389  184 00001401 ?setRotate@PSConverter@Poppler@@QAEXH@Z
        390  185 00001E10 ?setSound@SoundAnnotation@Poppler@@QAEXPAVSoundObject@2@@Z
        391  186 00001758 ?setSoundIconName@SoundAnnotation@Poppler@@QAEXABVQString@@@Z
        392  187 00002F0E ?setStampIconName@StampAnnotation@Poppler@@QAEXABVQString@@@Z
        393  188 000011EA ?setState@FormFieldButton@Poppler@@QAEX_N@Z
        394  189 00002AF9 ?setStrictMargins@PSConverter@Poppler@@QAEX_N@Z
        395  18A 000016EF ?setText@FormFieldText@Poppler@@QAEXABVQString@@@Z
        396  18B 00001FDC ?setTextFont@TextAnnotation@Poppler@@QAEXABVQFont@@@Z
        397  18C 00002CBB ?setTextIcon@TextAnnotation@Poppler@@QAEXABVQString@@@Z
        398  18D 00001DAC ?setTextType@TextAnnotation@Poppler@@QAEXW4TextType@12@@Z
        399  18E 00002F22 ?setTitle@PSConverter@Poppler@@QAEXABVQString@@@Z
        400  18F 00002815 ?setTopMargin@PSConverter@Poppler@@QAEXH@Z
        401  190 0000101E ?setUniqueName@Annotation@Poppler@@QAEXABVQString@@@Z
        402  191 00002C1B ?setVDPI@PSConverter@Poppler@@QAEXN@Z
        403  192 00002054 ?showControls@MovieObject@Poppler@@QBE_NXZ
        404  193 00001A23 ?siblings@FormFieldButton@Poppler@@QBE?AV?$QList@H@@XZ
        405  194 00001898 ?size@EmbeddedFile@Poppler@@QBEHXZ
        406  195 00001A9B ?size@MovieObject@Poppler@@QBE?AVQSize@@XZ
        407  196 00002C34 ?sound@LinkSound@Poppler@@QBEPAVSoundObject@2@XZ
        408  197 00002A6D ?sound@SoundAnnotation@Poppler@@QBEPAVSoundObject@2@XZ
        409  198 00001852 ?soundEncoding@SoundObject@Poppler@@QBE?AW4SoundEncoding@12@XZ
        410  199 00001F6E ?soundIconName@SoundAnnotation@Poppler@@QBE?AVQString@@XZ
        411  19A 00002400 ?soundType@SoundObject@Poppler@@QBE?AW4SoundType@12@XZ
        412  19B 00001532 ?stampIconName@StampAnnotation@Poppler@@QBE?AVQString@@XZ
        413  19C 0000255E ?state@FormFieldButton@Poppler@@QBE_NXZ
        414  19D 00167850 ?staticMetaObject@OptContentModel@Poppler@@2UQMetaObject@@B
        415  19E 0000279D ?store@Annotation@Poppler@@UBEXAAVQDomNode@@AAVQDomDocument@@@Z
        416  19F 0000263A ?store@CaretAnnotation@Poppler@@UBEXAAVQDomNode@@AAVQDomDocument@@@Z
        417  1A0 00001C21 ?store@FileAttachmentAnnotation@Poppler@@UBEXAAVQDomNode@@AAVQDomDocument@@@Z
        418  1A1 0000164F ?store@GeomAnnotation@Poppler@@UBEXAAVQDomNode@@AAVQDomDocument@@@Z
        419  1A2 00001B77 ?store@HighlightAnnotation@Poppler@@UBEXAAVQDomNode@@AAVQDomDocument@@@Z
        420  1A3 00002860 ?store@InkAnnotation@Poppler@@UBEXAAVQDomNode@@AAVQDomDocument@@@Z
        421  1A4 00001B45 ?store@LineAnnotation@Poppler@@UBEXAAVQDomNode@@AAVQDomDocument@@@Z
        422  1A5 0000158C ?store@LinkAnnotation@Poppler@@UBEXAAVQDomNode@@AAVQDomDocument@@@Z
        423  1A6 000019C9 ?store@MovieAnnotation@Poppler@@UBEXAAVQDomNode@@AAVQDomDocument@@@Z
        424  1A7 00001492 ?store@SoundAnnotation@Poppler@@UBEXAAVQDomNode@@AAVQDomDocument@@@Z
        425  1A8 00002905 ?store@StampAnnotation@Poppler@@UBEXAAVQDomNode@@AAVQDomDocument@@@Z
        426  1A9 0000233D ?store@TextAnnotation@Poppler@@UBEXAAVQDomNode@@AAVQDomDocument@@@Z
        427  1AA 00003003 ?storeAnnotation@AnnotationUtils@Poppler@@SAXPBVAnnotation@2@AAVQDomElement@@AAVQDomDocument@@@Z
        428  1AB 00002EAF ?subType@CaretAnnotation@Poppler@@UBE?AW4SubType@Annotation@2@XZ
        429  1AC 00001186 ?subType@FileAttachmentAnnotation@Poppler@@UBE?AW4SubType@Annotation@2@XZ
        430  1AD 00001889 ?subType@GeomAnnotation@Poppler@@UBE?AW4SubType@Annotation@2@XZ
        431  1AE 00001C03 ?subType@HighlightAnnotation@Poppler@@UBE?AW4SubType@Annotation@2@XZ
        432  1AF 00001AC8 ?subType@InkAnnotation@Poppler@@UBE?AW4SubType@Annotation@2@XZ
        433  1B0 00002473 ?subType@LineAnnotation@Poppler@@UBE?AW4SubType@Annotation@2@XZ
        434  1B1 00002932 ?subType@LinkAnnotation@Poppler@@UBE?AW4SubType@Annotation@2@XZ
        435  1B2 00002E2D ?subType@MovieAnnotation@Poppler@@UBE?AW4SubType@Annotation@2@XZ
        436  1B3 000028C9 ?subType@SoundAnnotation@Poppler@@UBE?AW4SubType@Annotation@2@XZ
        437  1B4 0000191A ?subType@StampAnnotation@Poppler@@UBE?AW4SubType@Annotation@2@XZ
        438  1B5 00002F5E ?subType@TextAnnotation@Poppler@@UBE?AW4SubType@Annotation@2@XZ
        439  1B6 000025DB ?synchronous@LinkSound@Poppler@@QBE_NXZ
        440  1B7 000029F0 ?text@FormFieldText@Poppler@@QBE?AVQString@@XZ
        441  1B8 000018E8 ?text@Page@Poppler@@QBE?AVQString@@ABVQRectF@@@Z
        442  1B9 00001DD9 ?text@TextBox@Poppler@@QBE?AVQString@@XZ
        443  1BA 00001CB2 ?textAlignment@FormFieldChoice@Poppler@@QBE?AV?$QFlags@W4AlignmentFlag@Qt@@@@XZ
        444  1BB 000017D0 ?textAlignment@FormFieldText@Poppler@@QBE?AV?$QFlags@W4AlignmentFlag@Qt@@@@XZ
        445  1BC 00002BB2 ?textFont@TextAnnotation@Poppler@@QBE?AVQFont@@XZ
        446  1BD 00002F40 ?textIcon@TextAnnotation@Poppler@@QBE?AVQString@@XZ
        447  1BE 000022C5 ?textList@Page@Poppler@@QBE?AV?$QList@PAVTextBox@Poppler@@@@W4Rotation@12@@Z
        448  1BF 000022A2 ?textType@FormFieldText@Poppler@@QBE?AW4TextType@12@XZ
        449  1C0 00002ADB ?textType@TextAnnotation@Poppler@@QBE?AW4TextType@12@XZ
        450  1C1 00002450 ?toString@LinkDestination@Poppler@@QBE?AVQString@@XZ
        451  1C2 000010B9 ?toc@Document@Poppler@@QBEPAVQDomDocument@@XZ
        452  1C3 00002C16 ?top@LinkDestination@Poppler@@QBENXZ
        453  1C4 00001C08 ?tr@OptContentModel@Poppler@@SA?AVQString@@PBD0@Z
        454  1C5 00001C71 ?tr@OptContentModel@Poppler@@SA?AVQString@@PBD0H@Z
        455  1C6 000021D5 ?trUtf8@OptContentModel@Poppler@@SA?AVQString@@PBD0@Z
        456  1C7 000012BC ?trUtf8@OptContentModel@Poppler@@SA?AVQString@@PBD0H@Z
        457  1C8 00001D16 ?transition@Page@Poppler@@QBEPAVPageTransition@2@XZ
        458  1C9 00002045 ?type@FontInfo@Poppler@@QBE?AW4Type@12@XZ
        459  1CA 00002810 ?type@FormFieldButton@Poppler@@UBE?AW4FormType@FormField@2@XZ
        460  1CB 00002356 ?type@FormFieldChoice@Poppler@@UBE?AW4FormType@FormField@2@XZ
        461  1CC 00001118 ?type@FormFieldText@Poppler@@UBE?AW4FormType@FormField@2@XZ
        462  1CD 00001C9E ?type@PageTransition@Poppler@@QBE?AW4Type@12@XZ
        463  1CE 00001866 ?typeName@FontInfo@Poppler@@QBE?AVQString@@XZ
        464  1CF 00002793 ?uiName@FormField@Poppler@@QBE?AVQString@@XZ
        465  1D0 00002DA1 ?uniqueName@Annotation@Poppler@@QBE?AVQString@@XZ
        466  1D1 00002CC5 ?unlock@Document@Poppler@@QAE_NABVQByteArray@@0@Z
        467  1D2 0000184D ?url@LinkBrowse@Poppler@@QBE?AVQString@@XZ
        468  1D3 0000277A ?url@MovieObject@Poppler@@QBE?AVQString@@XZ
        469  1D4 000024C8 ?url@SoundObject@Poppler@@QBE?AVQString@@XZ
        470  1D5 00002851 ?volume@LinkSound@Poppler@@QBENXZ
        471  1D6 00001CDF ?zoom@LinkDestination@Poppler@@QBENXZ

  Summary

       21000 .data
        5000 .idata
       60000 .rdata
       11000 .reloc
        1000 .rsrc
      106000 .text
