Microsoft (R) COFF/PE Dumper Version 9.00.21022.08
Copyright (C) Microsoft Corporation.  All rights reserved.


Dump of file QtCore4.dll

File Type: DLL

  Section contains the following exports for QtCore4.dll

    00000000 characteristics
    4995BEA7 time date stamp Fri Feb 13 13:40:39 2009
        0.00 version
           1 ordinal base
        4663 number of functions
        4663 number of names

    ordinal hint RVA      name

          1    0 00006440 ??0?$QVector@VQPoint@@@@QAE@ABV0@@Z
          2    1 000047A0 ??0?$QVector@VQPoint@@@@QAE@H@Z
          3    2 00004730 ??0?$QVector@VQPoint@@@@QAE@HABVQPoint@@@Z
          4    3 00002650 ??0?$QVector@VQPoint@@@@QAE@XZ
          5    4 00006210 ??0?$QVector@VQPointF@@@@QAE@ABV0@@Z
          6    5 000041F0 ??0?$QVector@VQPointF@@@@QAE@H@Z
          7    6 00004170 ??0?$QVector@VQPointF@@@@QAE@HABVQPointF@@@Z
          8    7 00002650 ??0?$QVector@VQPointF@@@@QAE@XZ
          9    8 00106DC0 ??0?$QVector@VQXmlStreamAttribute@@@@QAE@ABV0@@Z
         10    9 00101A20 ??0?$QVector@VQXmlStreamAttribute@@@@QAE@H@Z
         11    A 00101950 ??0?$QVector@VQXmlStreamAttribute@@@@QAE@HABVQXmlStreamAttribute@@@Z
         12    B 00002650 ??0?$QVector@VQXmlStreamAttribute@@@@QAE@XZ
         13    C 0000B290 ??0BlockSizeManager@QtConcurrent@@QAE@ABV01@@Z
         14    D 0000B170 ??0BlockSizeManager@QtConcurrent@@QAE@H@Z
         15    E 000010D0 ??0Exception@QtConcurrent@@QAE@ABV01@@Z
         16    F 00001060 ??0Exception@QtConcurrent@@QAE@XZ
         17   10 000011E0 ??0ExceptionStore@internal@QtConcurrent@@QAE@ABV012@@Z
         18   11 000011C0 ??0ExceptionStore@internal@QtConcurrent@@QAE@XZ
         19   12 000CCC50 ??0QAbstractEventDispatcher@@IAE@AAVQAbstractEventDispatcherPrivate@@PAVQObject@@@Z
         20   13 00012DC0 ??0QAbstractEventDispatcher@@QAE@ABV0@@Z
         21   14 000CCB90 ??0QAbstractEventDispatcher@@QAE@PAVQObject@@@Z
         22   15 00078A90 ??0QAbstractFileEngine@@IAE@AAVQAbstractFileEnginePrivate@@@Z
         23   16 00078D60 ??0QAbstractFileEngine@@IAE@XZ
         24   17 00078960 ??0QAbstractFileEngine@@QAE@ABV0@@Z
         25   18 00078980 ??0QAbstractFileEngineHandler@@QAE@ABV0@@Z
         26   19 00079280 ??0QAbstractFileEngineHandler@@QAE@XZ
         27   1A 00078990 ??0QAbstractFileEngineIterator@@QAE@ABV0@@Z
         28   1B 00079AE0 ??0QAbstractFileEngineIterator@@QAE@V?$QFlags@W4Filter@QDir@@@@ABVQStringList@@@Z
         29   1C 000CD550 ??0QAbstractItemModel@@IAE@AAVQAbstractItemModelPrivate@@PAVQObject@@@Z
         30   1D 000CD9B0 ??0QAbstractItemModel@@QAE@ABV0@@Z
         31   1E 000D3970 ??0QAbstractItemModel@@QAE@PAVQObject@@@Z
         32   1F 000D3E40 ??0QAbstractItemModelPrivate@@QAE@ABV0@@Z
         33   20 000D2930 ??0QAbstractItemModelPrivate@@QAE@XZ
         34   21 000D0780 ??0QAbstractListModel@@IAE@AAVQAbstractItemModelPrivate@@PAVQObject@@@Z
         35   22 000D09F0 ??0QAbstractListModel@@QAE@ABV0@@Z
         36   23 000D3DD0 ??0QAbstractListModel@@QAE@PAVQObject@@@Z
         37   24 000D0750 ??0QAbstractTableModel@@IAE@AAVQAbstractItemModelPrivate@@PAVQObject@@@Z
         38   25 000D0970 ??0QAbstractTableModel@@QAE@ABV0@@Z
         39   26 000D3DB0 ??0QAbstractTableModel@@QAE@PAVQObject@@@Z
         40   27 00039170 ??0QAtomicInt@@QAE@ABV0@@Z
         41   28 00001620 ??0QAtomicInt@@QAE@H@Z
         42   29 0004E310 ??0QBasicTimer@@QAE@XZ
         43   2A 0000CF30 ??0QBitArray@@QAE@ABV0@@Z
         44   2B 00015AF0 ??0QBitArray@@QAE@H_N@Z
         45   2C 000159D0 ??0QBitArray@@QAE@XZ
         46   2D 0001E540 ??0QBitRef@@AAE@AAVQBitArray@@H@Z
         47   2E 00001EE0 ??0QBoolBlocker@@QAE@AA_N@Z
         48   2F 0007A300 ??0QBuffer@@QAE@ABV0@@Z
         49   30 00079F80 ??0QBuffer@@QAE@PAVQByteArray@@PAVQObject@@@Z
         50   31 00079EE0 ??0QBuffer@@QAE@PAVQObject@@@Z
         51   32 00016B20 ??0QByteArray@@AAE@PAUData@0@HH@Z
         52   33 0000CF30 ??0QByteArray@@QAE@ABV0@@Z
         53   34 00110BC0 ??0QByteArray@@QAE@H@Z
         54   35 00017710 ??0QByteArray@@QAE@HD@Z
         55   36 000175F0 ??0QByteArray@@QAE@PBD@Z
         56   37 00017680 ??0QByteArray@@QAE@PBDH@Z
         57   38 000159D0 ??0QByteArray@@QAE@XZ
         58   39 0001AF90 ??0QByteArrayMatcher@@QAE@ABV0@@Z
         59   3A 0001B0B0 ??0QByteArrayMatcher@@QAE@ABVQByteArray@@@Z
         60   3B 0001AF10 ??0QByteArrayMatcher@@QAE@XZ
         61   3C 0001E540 ??0QByteRef@@AAE@AAVQByteArray@@H@Z
         62   3D 00052E60 ??0QChar@@QAE@D@Z
         63   3E 00052EF0 ??0QChar@@QAE@E@Z
         64   3F 00092910 ??0QChar@@QAE@EE@Z
         65   40 00016AE0 ??0QChar@@QAE@F@Z
         66   41 00016AE0 ??0QChar@@QAE@G@Z
         67   42 00016AE0 ??0QChar@@QAE@H@Z
         68   43 00016AE0 ??0QChar@@QAE@I@Z
         69   44 0000ED40 ??0QChar@@QAE@UQLatin1Char@@@Z
         70   45 00016AE0 ??0QChar@@QAE@W4SpecialCharacter@0@@Z
         71   46 00001510 ??0QChar@@QAE@XZ
         72   47 0001E540 ??0QCharRef@@AAE@AAVQString@@H@Z
         73   48 00112E70 ??0QChildEvent@@QAE@ABV0@@Z
         74   49 000D8940 ??0QChildEvent@@QAE@W4Type@QEvent@@PAVQObject@@@Z
         75   4A 000ABA40 ??0QConfFile@@AAE@ABVQString@@_N@Z
         76   4B 000D87D0 ??0QCoreApplication@@IAE@AAVQCoreApplicationPrivate@@@Z
         77   4C 000D8830 ??0QCoreApplication@@QAE@AAHPAPAD@Z
         78   4D 00113130 ??0QCoreApplication@@QAE@ABV0@@Z
         79   4E 000D5CE0 ??0QCoreApplicationPrivate@@QAE@AAHPAPAD@Z
         80   4F 00014C60 ??0QCoreApplicationPrivate@@QAE@ABV0@@Z
         81   50 0001D8F0 ??0QCryptographicHash@@QAE@W4Algorithm@0@@Z
         82   51 00112EC0 ??0QCustomEvent@@QAE@ABV0@@Z
         83   52 000D89A0 ??0QCustomEvent@@QAE@HPAX@Z
         84   53 00113380 ??0QDataStream@@QAE@ABV0@@Z
         85   54 0007C030 ??0QDataStream@@QAE@ABVQByteArray@@@Z
         86   55 0007BED0 ??0QDataStream@@QAE@PAVQByteArray@@H@Z
         87   56 0007BF80 ??0QDataStream@@QAE@PAVQByteArray@@V?$QFlags@W4OpenModeFlag@QIODevice@@@@@Z
         88   57 0007B800 ??0QDataStream@@QAE@PAVQIODevice@@@Z
         89   58 0007B7D0 ??0QDataStream@@QAE@XZ
         90   59 00023D20 ??0QDate@@QAE@HHH@Z
         91   5A 0004E310 ??0QDate@@QAE@XZ
         92   5B 0000CF30 ??0QDateTime@@QAE@ABV0@@Z
         93   5C 00020E00 ??0QDateTime@@QAE@ABVQDate@@@Z
         94   5D 00020E50 ??0QDateTime@@QAE@ABVQDate@@ABVQTime@@W4TimeSpec@Qt@@@Z
         95   5E 0001E400 ??0QDateTime@@QAE@XZ
         96   5F 000262F0 ??0QDateTimeParser@@QAE@ABV0@@Z
         97   60 00024EB0 ??0QDateTimeParser@@QAE@W4Type@QVariant@@W4Context@0@@Z
         98   61 00001850 ??0QDebug@@QAE@ABV0@@Z
         99   62 000031E0 ??0QDebug@@QAE@PAVQIODevice@@@Z
        100   63 00003270 ??0QDebug@@QAE@PAVQString@@@Z
        101   64 000032E0 ??0QDebug@@QAE@W4QtMsgType@@@Z
        102   65 0007E750 ??0QDir@@QAE@ABV0@@Z
        103   66 00081830 ??0QDir@@QAE@ABVQString@@0V?$QFlags@W4SortFlag@QDir@@@@V?$QFlags@W4Filter@QDir@@@@@Z
        104   67 00081680 ??0QDir@@QAE@ABVQString@@@Z
        105   68 00078A10 ??0QDirIterator@@QAE@ABV0@@Z
        106   69 00083C80 ??0QDirIterator@@QAE@ABVQDir@@V?$QFlags@W4IteratorFlag@QDirIterator@@@@@Z
        107   6A 000840A0 ??0QDirIterator@@QAE@ABVQString@@ABVQStringList@@V?$QFlags@W4Filter@QDir@@@@V?$QFlags@W4IteratorFlag@QDirIterator@@@@@Z
        108   6B 00083DE0 ??0QDirIterator@@QAE@ABVQString@@V?$QFlags@W4Filter@QDir@@@@V?$QFlags@W4IteratorFlag@QDirIterator@@@@@Z
        109   6C 00083F40 ??0QDirIterator@@QAE@ABVQString@@V?$QFlags@W4IteratorFlag@QDirIterator@@@@@Z
        110   6D 00112F20 ??0QDynamicPropertyChangeEvent@@QAE@ABV0@@Z
        111   6E 000D89D0 ??0QDynamicPropertyChangeEvent@@QAE@ABVQByteArray@@@Z
        112   6F 00002CF0 ??0QEvent@@QAE@ABV0@@Z
        113   70 000D88E0 ??0QEvent@@QAE@W4Type@0@@Z
        114   71 000144A0 ??0QEventDispatcherWin32@@QAE@ABV0@@Z
        115   72 000F3A10 ??0QEventDispatcherWin32@@QAE@PAVQObject@@@Z
        116   73 00113040 ??0QEventLoop@@QAE@ABV0@@Z
        117   74 000D44B0 ??0QEventLoop@@QAE@PAVQObject@@@Z
        118   75 000AF0C0 ??0QFSFileEngine@@IAE@AAVQFSFileEnginePrivate@@@Z
        119   76 00078D40 ??0QFSFileEngine@@QAE@ABV0@@Z
        120   77 000B01A0 ??0QFSFileEngine@@QAE@ABVQString@@@Z
        121   78 000B0260 ??0QFSFileEngine@@QAE@XZ
        122   79 000C68A0 ??0QFactoryInterface@@QAE@ABU0@@Z
        123   7A 000C6890 ??0QFactoryInterface@@QAE@XZ
        124   7B 000C6970 ??0QFactoryLoader@@QAE@ABV0@@Z
        125   7C 000C8750 ??0QFactoryLoader@@QAE@PBDABVQString@@W4CaseSensitivity@Qt@@@Z
        126   7D 00084240 ??0QFile@@IAE@AAVQFilePrivate@@PAVQObject@@@Z
        127   7E 0000F270 ??0QFile@@QAE@ABV0@@Z
        128   7F 00085FC0 ??0QFile@@QAE@ABVQString@@@Z
        129   80 00086060 ??0QFile@@QAE@ABVQString@@PAVQObject@@@Z
        130   81 00085F40 ??0QFile@@QAE@PAVQObject@@@Z
        131   82 00085EC0 ??0QFile@@QAE@XZ
        132   83 00088AA0 ??0QFileInfo@@QAE@ABV0@@Z
        133   84 00089000 ??0QFileInfo@@QAE@ABVQDir@@ABVQString@@@Z
        134   85 00088F50 ??0QFileInfo@@QAE@ABVQFile@@@Z
        135   86 00088ED0 ??0QFileInfo@@QAE@ABVQString@@@Z
        136   87 00088A20 ??0QFileInfo@@QAE@XZ
        137   88 000B1150 ??0QFileSystemWatcher@@QAE@ABV0@@Z
        138   89 000B3010 ??0QFileSystemWatcher@@QAE@ABVQStringList@@PAVQObject@@@Z
        139   8A 000B16B0 ??0QFileSystemWatcher@@QAE@PAVQObject@@@Z
        140   8B 00001620 ??0QFlag@@QAE@H@Z
        141   8C 00002460 ??0QFutureInterfaceBase@@QAE@ABV0@@Z
        142   8D 00007300 ??0QFutureInterfaceBase@@QAE@W4State@0@@Z
        143   8E 00009300 ??0QFutureWatcherBase@@QAE@ABV0@@Z
        144   8F 00009890 ??0QFutureWatcherBase@@QAE@PAVQObject@@@Z
        145   90 00009A50 ??0QFutureWatcherBasePrivate@@QAE@ABV0@@Z
        146   91 00009750 ??0QFutureWatcherBasePrivate@@QAE@XZ
        147   92 00079C60 ??0QGenericArgument@@QAE@PBDPBX@Z
        148   93 00079C60 ??0QGenericReturnArgument@@QAE@PBDPAX@Z
        149   94 000892C0 ??0QIODevice@@IAE@AAVQIODevicePrivate@@PAVQObject@@@Z
        150   95 0000EF70 ??0QIODevice@@QAE@ABV0@@Z
        151   96 0008AA90 ??0QIODevice@@QAE@PAVQObject@@@Z
        152   97 0008AA10 ??0QIODevice@@QAE@XZ
        153   98 0007B5B0 ??0QIODevicePrivate@@QAE@ABV0@@Z
        154   99 0008A980 ??0QIODevicePrivate@@QAE@XZ
        155   9A 00001620 ??0QLatin1String@@QAE@PBD@Z
        156   9B 000A5B00 ??0QLibrary@@QAE@ABV0@@Z
        157   9C 000CBE00 ??0QLibrary@@QAE@ABVQString@@0PAVQObject@@@Z
        158   9D 000CBD90 ??0QLibrary@@QAE@ABVQString@@HPAVQObject@@@Z
        159   9E 000CBD20 ??0QLibrary@@QAE@ABVQString@@PAVQObject@@@Z
        160   9F 000C97C0 ??0QLibrary@@QAE@PAVQObject@@@Z
        161   A0 00043B70 ??0QLibraryInfo@@AAE@XZ
        162   A1 00037630 ??0QLine@@QAE@ABVQPoint@@0@Z
        163   A2 000CCFB0 ??0QLine@@QAE@HHHH@Z
        164   A3 00037620 ??0QLine@@QAE@XZ
        165   A4 000377A0 ??0QLineF@@QAE@ABVQLine@@@Z
        166   A5 00037800 ??0QLineF@@QAE@ABVQPointF@@0@Z
        167   A6 00044240 ??0QLineF@@QAE@NNNN@Z
        168   A7 000377F0 ??0QLineF@@QAE@XZ
        169   A8 00039170 ??0QLocale@@QAE@ABV0@@Z
        170   A9 0003DA70 ??0QLocale@@QAE@ABVQString@@@Z
        171   AA 000408D0 ??0QLocale@@QAE@W4Language@0@W4Country@0@@Z
        172   AB 00040850 ??0QLocale@@QAE@XZ
        173   AC 000037B0 ??0QMetaCallEvent@@QAE@ABV0@@Z
        174   AD 000E1170 ??0QMetaCallEvent@@QAE@HPBVQObject@@HHPAHPAPAXPAVQSemaphore@@@Z
        175   AE 00009B70 ??0QMetaClassInfo@@QAE@XZ
        176   AF 00009B70 ??0QMetaEnum@@QAE@XZ
        177   B0 00009B70 ??0QMetaMethod@@QAE@XZ
        178   B1 000D9E60 ??0QMetaProperty@@QAE@XZ
        179   B2 000CDDA0 ??0QMimeData@@QAE@ABV0@@Z
        180   B3 000DFC20 ??0QMimeData@@QAE@XZ
        181   B4 000CCFB0 ??0QModelIndex@@AAE@HHPAXPBVQAbstractItemModel@@@Z
        182   B5 00012390 ??0QModelIndex@@QAE@ABV0@@Z
        183   B6 000CCD70 ??0QModelIndex@@QAE@XZ
        184   B7 00011410 ??0QMutex@@QAE@W4RecursionMode@0@@Z
        185   B8 00002E90 ??0QMutex@@QAE@_N@Z
        186   B9 00002EF0 ??0QMutexLocker@@QAE@PAVQMutex@@@Z
        187   BA 000123B0 ??0QMutexPool@@QAE@_NH@Z
        188   BB 000E5590 ??0QObject@@IAE@AAVQObjectPrivate@@PAV0@@Z
        189   BC 00002C70 ??0QObject@@QAE@ABV0@@Z
        190   BD 000E6BC0 ??0QObject@@QAE@PAV0@@Z
        191   BE 000E6C90 ??0QObject@@QAE@PAV0@PBD@Z
        192   BF 000E8110 ??0QObjectCleanupHandler@@QAE@ABV0@@Z
        193   C0 000E80E0 ??0QObjectCleanupHandler@@QAE@XZ
        194   C1 00008570 ??0QObjectPrivate@@QAE@ABV0@@Z
        195   C2 000E6980 ??0QObjectPrivate@@QAE@H@Z
        196   C3 00112DA0 ??0QObjectUserData@@QAE@ABV0@@Z
        197   C4 00112D90 ??0QObjectUserData@@QAE@XZ
        198   C5 000CD280 ??0QPersistentModelIndex@@QAE@ABV0@@Z
        199   C6 000D40F0 ??0QPersistentModelIndex@@QAE@ABVQModelIndex@@@Z
        200   C7 0004E310 ??0QPersistentModelIndex@@QAE@XZ
        201   C8 000CD1F0 ??0QPersistentModelIndexData@@QAE@ABV0@@Z
        202   C9 000CD190 ??0QPersistentModelIndexData@@QAE@ABVQModelIndex@@@Z
        203   CA 000CD170 ??0QPersistentModelIndexData@@QAE@XZ
        204   CB 000C5FB0 ??0QPluginLoader@@QAE@ABV0@@Z
        205   CC 000C63C0 ??0QPluginLoader@@QAE@ABVQString@@PAVQObject@@@Z
        206   CD 000C5E30 ??0QPluginLoader@@QAE@PAVQObject@@@Z
        207   CE 0001E540 ??0QPoint@@QAE@HH@Z
        208   CF 00009B70 ??0QPoint@@QAE@XZ
        209   D0 00043A40 ??0QPointF@@QAE@ABVQPoint@@@Z
        210   D1 00043A60 ??0QPointF@@QAE@NN@Z
        211   D2 000016D0 ??0QPointF@@QAE@XZ
        212   D3 0008B520 ??0QProcess@@QAE@ABV0@@Z
        213   D4 0008D700 ??0QProcess@@QAE@PAVQObject@@@Z
        214   D5 00001DA0 ??0QReadLocker@@QAE@PAVQReadWriteLock@@@Z
        215   D6 00011AF0 ??0QReadWriteLock@@QAE@W4RecursionMode@0@@Z
        216   D7 00011A70 ??0QReadWriteLock@@QAE@XZ
        217   D8 00037630 ??0QRect@@QAE@ABVQPoint@@0@Z
        218   D9 00043BD0 ??0QRect@@QAE@ABVQPoint@@ABVQSize@@@Z
        219   DA 00043BA0 ??0QRect@@QAE@HHHH@Z
        220   DB 00043B50 ??0QRect@@QAE@XZ
        221   DC 00044290 ??0QRectF@@QAE@ABVQPointF@@0@Z
        222   DD 00044260 ??0QRectF@@QAE@ABVQPointF@@ABVQSizeF@@@Z
        223   DE 000442C0 ??0QRectF@@QAE@ABVQRect@@@Z
        224   DF 00044240 ??0QRectF@@QAE@NNNN@Z
        225   E0 00044190 ??0QRectF@@QAE@XZ
        226   E1 0004E290 ??0QRegExp@@QAE@ABV0@@Z
        227   E2 00048B80 ??0QRegExp@@QAE@ABVQString@@W4CaseSensitivity@Qt@@W4PatternSyntax@0@@Z
        228   E3 00113660 ??0QRegExp@@QAE@ABVQString@@_N1@Z
        229   E4 00048B00 ??0QRegExp@@QAE@XZ
        230   E5 00094990 ??0QResource@@QAE@ABVQString@@ABVQLocale@@@Z
        231   E6 0007B210 ??0QRingBuffer@@QAE@ABV0@@Z
        232   E7 0007B710 ??0QRingBuffer@@QAE@H@Z
        233   E8 00012820 ??0QSemaphore@@QAE@H@Z
        234   E9 0000FA70 ??0QSettings@@QAE@ABV0@@Z
        235   EA 000A5250 ??0QSettings@@QAE@ABVQString@@0PAVQObject@@@Z
        236   EB 000A5310 ??0QSettings@@QAE@ABVQString@@W4Format@0@PAVQObject@@@Z
        237   EC 000A5340 ??0QSettings@@QAE@PAVQObject@@@Z
        238   ED 000A52D0 ??0QSettings@@QAE@W4Format@0@W4Scope@0@ABVQString@@2PAVQObject@@@Z
        239   EE 000A5290 ??0QSettings@@QAE@W4Scope@0@ABVQString@@1PAVQObject@@@Z
        240   EF 0004E320 ??0QSharedData@@QAE@ABV0@@Z
        241   F0 0004E310 ??0QSharedData@@QAE@XZ
        242   F1 000F1B50 ??0QSharedMemory@@QAE@ABV0@@Z
        243   F2 000F2880 ??0QSharedMemory@@QAE@ABVQString@@PAVQObject@@@Z
        244   F3 000F1A00 ??0QSharedMemory@@QAE@PAVQObject@@@Z
        245   F4 000E85F0 ??0QSignalMapper@@QAE@ABV0@@Z
        246   F5 000E9130 ??0QSignalMapper@@QAE@PAVQObject@@@Z
        247   F6 000E8E50 ??0QSignalMapper@@QAE@PAVQObject@@PBD@Z
        248   F7 0001E540 ??0QSize@@QAE@HH@Z
        249   F8 00043970 ??0QSize@@QAE@XZ
        250   F9 00043A40 ??0QSizeF@@QAE@ABVQSize@@@Z
        251   FA 00043A60 ??0QSizeF@@QAE@NN@Z
        252   FB 00043A30 ??0QSizeF@@QAE@XZ
        253   FC 0008B600 ??0QSocketNotifier@@QAE@ABV0@@Z
        254   FD 000E93B0 ??0QSocketNotifier@@QAE@HW4Type@0@PAVQObject@@@Z
        255   FE 000E94A0 ??0QSocketNotifier@@QAE@HW4Type@0@PAVQObject@@PBD@Z
        256   FF 00050240 ??0QString@@AAE@PAUData@0@H@Z
        257  100 00111270 ??0QString@@QAE@ABUNull@0@@Z
        258  101 0000CF30 ??0QString@@QAE@ABV0@@Z
        259  102 001111A0 ??0QString@@QAE@ABVQByteArray@@@Z
        260  103 0000EE60 ??0QString@@QAE@ABVQLatin1String@@@Z
        261  104 0004FBE0 ??0QString@@QAE@HVQChar@@@Z
        262  105 00111180 ??0QString@@QAE@PBD@Z
        263  106 0004FB20 ??0QString@@QAE@PBVQChar@@H@Z
        264  107 0004FC90 ??0QString@@QAE@VQChar@@@Z
        265  108 00002B50 ??0QString@@QAE@XZ
        266  109 000578D0 ??0QStringMatcher@@QAE@ABV0@@Z
        267  10A 00053180 ??0QStringMatcher@@QAE@ABVQString@@W4CaseSensitivity@Qt@@@Z
        268  10B 00053100 ??0QStringMatcher@@QAE@XZ
        269  10C 000FE750 ??0QStringRef@@QAE@ABV0@@Z
        270  10D 000FE7A0 ??0QStringRef@@QAE@PBVQString@@@Z
        271  10E 0001EA90 ??0QStringRef@@QAE@PBVQString@@HH@Z
        272  10F 000507E0 ??0QStringRef@@QAE@XZ
        273  110 00039100 ??0QSystemLocale@@AAE@_N@Z
        274  111 00039100 ??0QSystemLocale@@QAE@ABV0@@Z
        275  112 000390C0 ??0QSystemLocale@@QAE@XZ
        276  113 000F2D60 ??0QSystemSemaphore@@QAE@ABVQString@@HW4AccessMode@0@@Z
        277  114 00085E10 ??0QTemporaryFile@@QAE@ABV0@@Z
        278  115 000921E0 ??0QTemporaryFile@@QAE@ABVQString@@@Z
        279  116 00092430 ??0QTemporaryFile@@QAE@ABVQString@@PAVQObject@@@Z
        280  117 000922C0 ??0QTemporaryFile@@QAE@PAVQObject@@@Z
        281  118 00092080 ??0QTemporaryFile@@QAE@XZ
        282  119 0005B0C0 ??0QTextBoundaryFinder@@QAE@ABV0@@Z
        283  11A 0005B150 ??0QTextBoundaryFinder@@QAE@W4BoundaryType@0@ABVQString@@@Z
        284  11B 0005B1F0 ??0QTextBoundaryFinder@@QAE@W4BoundaryType@0@PBVQChar@@HPAEH@Z
        285  11C 0005B090 ??0QTextBoundaryFinder@@QAE@XZ
        286  11D 000FB460 ??0QTextCodec@@IAE@XZ
        287  11E 000FA2D0 ??0QTextCodec@@QAE@ABV0@@Z
        288  11F 000FA020 ??0QTextCodecFactoryInterface@@QAE@ABU0@@Z
        289  120 000FA000 ??0QTextCodecFactoryInterface@@QAE@XZ
        290  121 000FA3A0 ??0QTextCodecPlugin@@QAE@ABV0@@Z
        291  122 000FDBF0 ??0QTextCodecPlugin@@QAE@PAVQObject@@@Z
        292  123 00114D90 ??0QTextDecoder@@QAE@ABV0@@Z
        293  124 000FA8C0 ??0QTextDecoder@@QAE@PBVQTextCodec@@@Z
        294  125 00114D90 ??0QTextEncoder@@QAE@ABV0@@Z
        295  126 000FA8C0 ??0QTextEncoder@@QAE@PBVQTextCodec@@@Z
        296  127 00001470 ??0QTextIStream@@QAE@ABV0@@Z
        297  128 00003080 ??0QTextIStream@@QAE@PAU_iobuf@@@Z
        298  129 00003050 ??0QTextIStream@@QAE@PAVQByteArray@@@Z
        299  12A 00003020 ??0QTextIStream@@QAE@PBVQString@@@Z
        300  12B 000014F0 ??0QTextOStream@@QAE@ABV0@@Z
        301  12C 00003110 ??0QTextOStream@@QAE@PAU_iobuf@@@Z
        302  12D 000030E0 ??0QTextOStream@@QAE@PAVQByteArray@@@Z
        303  12E 000030B0 ??0QTextOStream@@QAE@PAVQString@@@Z
        304  12F 000013B0 ??0QTextStream@@QAE@ABV0@@Z
        305  130 0008EA90 ??0QTextStream@@QAE@ABVQByteArray@@V?$QFlags@W4OpenModeFlag@QIODevice@@@@@Z
        306  131 0008EB90 ??0QTextStream@@QAE@PAU_iobuf@@V?$QFlags@W4OpenModeFlag@QIODevice@@@@@Z
        307  132 0008E990 ??0QTextStream@@QAE@PAVQByteArray@@V?$QFlags@W4OpenModeFlag@QIODevice@@@@@Z
        308  133 0008E840 ??0QTextStream@@QAE@PAVQIODevice@@@Z
        309  134 0008E900 ??0QTextStream@@QAE@PAVQString@@V?$QFlags@W4OpenModeFlag@QIODevice@@@@@Z
        310  135 0008E7C0 ??0QTextStream@@QAE@XZ
        311  136 00002FD0 ??0QTextStreamManipulator@@QAE@P8QTextStream@@AEXH@ZH@Z
        312  137 00002FF0 ??0QTextStreamManipulator@@QAE@P8QTextStream@@AEXVQChar@@@Z0@Z
        313  138 00012CA0 ??0QThread@@IAE@AAVQThreadPrivate@@PAVQObject@@@Z
        314  139 000036A0 ??0QThread@@QAE@ABV0@@Z
        315  13A 000135E0 ??0QThread@@QAE@PAVQObject@@@Z
        316  13B 0000E2E0 ??0QThreadData@@QAE@ABV0@@Z
        317  13C 00013230 ??0QThreadData@@QAE@H@Z
        318  13D 00003780 ??0QThreadPool@@QAE@ABV0@@Z
        319  13E 0000BEB0 ??0QThreadPool@@QAE@PAVQObject@@@Z
        320  13F 00013B80 ??0QThreadStorageData@@QAE@P6AXPAX@Z@Z
        321  140 00020B80 ??0QTime@@QAE@HHHH@Z
        322  141 00002060 ??0QTime@@QAE@XZ
        323  142 0005B820 ??0QTimeLine@@QAE@ABV0@@Z
        324  143 0005B8A0 ??0QTimeLine@@QAE@HPAVQObject@@@Z
        325  144 0008B720 ??0QTimer@@QAE@ABV0@@Z
        326  145 000E96C0 ??0QTimer@@QAE@PAVQObject@@@Z
        327  146 000E9920 ??0QTimer@@QAE@PAVQObject@@PBD@Z
        328  147 00112E00 ??0QTimerEvent@@QAE@ABV0@@Z
        329  148 000D8910 ??0QTimerEvent@@QAE@H@Z
        330  149 000143C0 ??0QTranslator@@QAE@ABV0@@Z
        331  14A 000E9E60 ??0QTranslator@@QAE@PAVQObject@@@Z
        332  14B 000EA0B0 ??0QTranslator@@QAE@PAVQObject@@PBD@Z
        333  14C 000FB660 ??0QTsciiCodec@@QAE@ABV0@@Z
        334  14D 000FB640 ??0QTsciiCodec@@QAE@XZ
        335  14E 0000CF30 ??0QUrl@@QAE@ABV0@@Z
        336  14F 000A1920 ??0QUrl@@QAE@ABVQString@@@Z
        337  150 000A0640 ??0QUrl@@QAE@ABVQString@@W4ParsingMode@0@@Z
        338  151 0009D9B0 ??0QUrl@@QAE@XZ
        339  152 000C8990 ??0QUuid@@QAE@ABU_GUID@@@Z
        340  153 000C8E30 ??0QUuid@@QAE@ABVQString@@@Z
        341  154 000C88B0 ??0QUuid@@QAE@IGGEEEEEEEE@Z
        342  155 000C91E0 ??0QUuid@@QAE@PBD@Z
        343  156 000C8890 ??0QUuid@@QAE@XZ
        344  157 000EDE30 ??0QVariant@@QAE@AAVQDataStream@@@Z
        345  158 000ECA40 ??0QVariant@@QAE@ABV0@@Z
        346  159 000ECEF0 ??0QVariant@@QAE@ABV?$QList@VQVariant@@@@@Z
        347  15A 000ECF20 ??0QVariant@@QAE@ABV?$QMap@VQString@@VQVariant@@@@@Z
        348  15B 000ECCF0 ??0QVariant@@QAE@ABVQBitArray@@@Z
        349  15C 000ECCC0 ??0QVariant@@QAE@ABVQByteArray@@@Z
        350  15D 000ECD50 ??0QVariant@@QAE@ABVQChar@@@Z
        351  15E 000ECE60 ??0QVariant@@QAE@ABVQDate@@@Z
        352  15F 000ECEC0 ??0QVariant@@QAE@ABVQDateTime@@@Z
        353  160 000ECD80 ??0QVariant@@QAE@ABVQLatin1String@@@Z
        354  161 000ED010 ??0QVariant@@QAE@ABVQLine@@@Z
        355  162 000ECFE0 ??0QVariant@@QAE@ABVQLineF@@@Z
        356  163 000ED100 ??0QVariant@@QAE@ABVQLocale@@@Z
        357  164 000ECF50 ??0QVariant@@QAE@ABVQPoint@@@Z
        358  165 000ECF80 ??0QVariant@@QAE@ABVQPointF@@@Z
        359  166 000ED040 ??0QVariant@@QAE@ABVQRect@@@Z
        360  167 000ECFB0 ??0QVariant@@QAE@ABVQRectF@@@Z
        361  168 000ED130 ??0QVariant@@QAE@ABVQRegExp@@@Z
        362  169 000ED070 ??0QVariant@@QAE@ABVQSize@@@Z
        363  16A 000ED0A0 ??0QVariant@@QAE@ABVQSizeF@@@Z
        364  16B 000ECD20 ??0QVariant@@QAE@ABVQString@@@Z
        365  16C 000ECE30 ??0QVariant@@QAE@ABVQStringList@@@Z
        366  16D 000ECE90 ??0QVariant@@QAE@ABVQTime@@@Z
        367  16E 000ED0D0 ??0QVariant@@QAE@ABVQUrl@@@Z
        368  16F 000ECC00 ??0QVariant@@QAE@H@Z
        369  170 000ECBC0 ??0QVariant@@QAE@HPBX@Z
        370  171 000ECC20 ??0QVariant@@QAE@I@Z
        371  172 000ECCA0 ??0QVariant@@QAE@N@Z
        372  173 000ECAE0 ??0QVariant@@QAE@PBD@Z
        373  174 000ED160 ??0QVariant@@QAE@W4GlobalColor@Qt@@@Z
        374  175 000ECB90 ??0QVariant@@QAE@W4Type@0@@Z
        375  176 0000EFF0 ??0QVariant@@QAE@XZ
        376  177 000ECC40 ??0QVariant@@QAE@_J@Z
        377  178 000ECC60 ??0QVariant@@QAE@_K@Z
        378  179 000ECC80 ??0QVariant@@QAE@_N@Z
        379  17A 00114C20 ??0QVariant@@QAE@_NH@Z
        380  17B 00015490 ??0QWaitCondition@@QAE@XZ
        381  17C 0008B870 ??0QWinEventNotifier@@QAE@ABV0@@Z
        382  17D 000F77C0 ??0QWinEventNotifier@@QAE@PAVQObject@@@Z
        383  17E 000F7800 ??0QWinEventNotifier@@QAE@PAXPAVQObject@@@Z
        384  17F 000B8AF0 ??0QWindowsPipeWriter@@QAE@ABV0@@Z
        385  180 000C5800 ??0QWindowsPipeWriter@@QAE@PAXPAVQObject@@@Z
        386  181 00001DE0 ??0QWriteLocker@@QAE@PAVQReadWriteLock@@@Z
        387  182 00100240 ??0QXmlStreamAttribute@@QAE@ABV0@@Z
        388  183 000FFDD0 ??0QXmlStreamAttribute@@QAE@ABVQString@@00@Z
        389  184 00100040 ??0QXmlStreamAttribute@@QAE@ABVQString@@0@Z
        390  185 000FFCB0 ??0QXmlStreamAttribute@@QAE@XZ
        391  186 00106DC0 ??0QXmlStreamAttributes@@QAE@ABV0@@Z
        392  187 00002650 ??0QXmlStreamAttributes@@QAE@XZ
        393  188 001007B0 ??0QXmlStreamEntityDeclaration@@QAE@ABV0@@Z
        394  189 00100740 ??0QXmlStreamEntityDeclaration@@QAE@XZ
        395  18A 000FE080 ??0QXmlStreamEntityResolver@@QAE@ABV0@@Z
        396  18B 000FE070 ??0QXmlStreamEntityResolver@@QAE@XZ
        397  18C 00100600 ??0QXmlStreamNamespaceDeclaration@@QAE@ABV0@@Z
        398  18D 001004C0 ??0QXmlStreamNamespaceDeclaration@@QAE@ABVQString@@0@Z
        399  18E 00100480 ??0QXmlStreamNamespaceDeclaration@@QAE@XZ
        400  18F 00100340 ??0QXmlStreamNotationDeclaration@@QAE@ABV0@@Z
        401  190 001002F0 ??0QXmlStreamNotationDeclaration@@QAE@XZ
        402  191 0010D670 ??0QXmlStreamReader@@QAE@ABVQByteArray@@@Z
        403  192 0010D6F0 ??0QXmlStreamReader@@QAE@ABVQString@@@Z
        404  193 0010D5D0 ??0QXmlStreamReader@@QAE@PAVQIODevice@@@Z
        405  194 0010D7B0 ??0QXmlStreamReader@@QAE@PBD@Z
        406  195 0010D550 ??0QXmlStreamReader@@QAE@XZ
        407  196 000FEB60 ??0QXmlStreamStringRef@@QAE@ABV0@@Z
        408  197 000FEB10 ??0QXmlStreamStringRef@@QAE@ABVQString@@@Z
        409  198 000FEA60 ??0QXmlStreamStringRef@@QAE@ABVQStringRef@@@Z
        410  199 000FEA40 ??0QXmlStreamStringRef@@QAE@XZ
        411  19A 00104B40 ??0QXmlStreamWriter@@QAE@PAVQByteArray@@@Z
        412  19B 00104AD0 ??0QXmlStreamWriter@@QAE@PAVQIODevice@@@Z
        413  19C 00104C00 ??0QXmlStreamWriter@@QAE@PAVQString@@@Z
        414  19D 00104A50 ??0QXmlStreamWriter@@QAE@XZ
        415  19E 0001E540 ??0ResultIteratorBase@QtConcurrent@@QAE@Vconst_iterator@?$QMap@HVResultItem@QtConcurrent@@@@H@Z
        416  19F 00009B70 ??0ResultIteratorBase@QtConcurrent@@QAE@XZ
        417  1A0 00007C30 ??0ResultStoreBase@QtConcurrent@@QAE@ABV01@@Z
        418  1A1 00009D50 ??0ResultStoreBase@QtConcurrent@@QAE@XZ
        419  1A2 0000A7B0 ??0ThreadEngineBase@QtConcurrent@@QAE@ABV01@@Z
        420  1A3 0000A470 ??0ThreadEngineBase@QtConcurrent@@QAE@XZ
        421  1A4 00001120 ??0UnhandledException@QtConcurrent@@QAE@ABV01@@Z
        422  1A5 000010F0 ??0UnhandledException@QtConcurrent@@QAE@XZ
        423  1A6 000203C0 ??1?$QVector@VQPoint@@@@QAE@XZ
        424  1A7 000203C0 ??1?$QVector@VQPointF@@@@QAE@XZ
        425  1A8 001056F0 ??1?$QVector@VQXmlStreamAttribute@@@@QAE@XZ
        426  1A9 0000AFC0 ??1BlockSizeManager@QtConcurrent@@QAE@XZ
        427  1AA 00001110 ??1Exception@QtConcurrent@@UAE@XZ
        428  1AB 000011D0 ??1ExceptionStore@internal@QtConcurrent@@QAE@XZ
        429  1AC 000CCCE0 ??1QAbstractEventDispatcher@@UAE@XZ
        430  1AD 00078AB0 ??1QAbstractFileEngine@@UAE@XZ
        431  1AE 00079350 ??1QAbstractFileEngineHandler@@UAE@XZ
        432  1AF 00079BB0 ??1QAbstractFileEngineIterator@@UAE@XZ
        433  1B0 000CF7A0 ??1QAbstractItemModel@@UAE@XZ
        434  1B1 000D2990 ??1QAbstractItemModelPrivate@@UAE@XZ
        435  1B2 000D07A0 ??1QAbstractListModel@@UAE@XZ
        436  1B3 000D0770 ??1QAbstractTableModel@@UAE@XZ
        437  1B4 0008AF00 ??1QBasicTimer@@QAE@XZ
        438  1B5 00001A30 ??1QBitArray@@QAE@XZ
        439  1B6 00001F00 ??1QBoolBlocker@@QAE@XZ
        440  1B7 0007A040 ??1QBuffer@@UAE@XZ
        441  1B8 00001A30 ??1QByteArray@@QAE@XZ
        442  1B9 0001B020 ??1QByteArrayMatcher@@QAE@XZ
        443  1BA 000D8980 ??1QChildEvent@@UAE@XZ
        444  1BB 000A8720 ??1QConfFile@@QAE@XZ
        445  1BC 000D7D50 ??1QCoreApplication@@UAE@XZ
        446  1BD 000D60E0 ??1QCoreApplicationPrivate@@UAE@XZ
        447  1BE 0001DA80 ??1QCryptographicHash@@QAE@XZ
        448  1BF 000D8980 ??1QCustomEvent@@UAE@XZ
        449  1C0 0007B830 ??1QDataStream@@UAE@XZ
        450  1C1 0001E440 ??1QDateTime@@QAE@XZ
        451  1C2 00024FB0 ??1QDateTimeParser@@UAE@XZ
        452  1C3 000053F0 ??1QDebug@@QAE@XZ
        453  1C4 00080ED0 ??1QDir@@QAE@XZ
        454  1C5 00083470 ??1QDirIterator@@UAE@XZ
        455  1C6 000D8A10 ??1QDynamicPropertyChangeEvent@@UAE@XZ
        456  1C7 000D8980 ??1QEvent@@UAE@XZ
        457  1C8 000F3200 ??1QEventDispatcherWin32@@UAE@XZ
        458  1C9 000D4440 ??1QEventLoop@@UAE@XZ
        459  1CA 000B0560 ??1QFSFileEngine@@UAE@XZ
        460  1CB 000FA010 ??1QFactoryInterface@@UAE@XZ
        461  1CC 000C70B0 ??1QFactoryLoader@@UAE@XZ
        462  1CD 000856A0 ??1QFile@@UAE@XZ
        463  1CE 00088B10 ??1QFileInfo@@QAE@XZ
        464  1CF 000B0E50 ??1QFileSystemWatcher@@UAE@XZ
        465  1D0 00007D00 ??1QFutureInterfaceBase@@UAE@XZ
        466  1D1 00008F60 ??1QFutureWatcherBase@@UAE@XZ
        467  1D2 00009660 ??1QFutureWatcherBasePrivate@@UAE@XZ
        468  1D3 000892E0 ??1QIODevice@@UAE@XZ
        469  1D4 000895B0 ??1QIODevicePrivate@@UAE@XZ
        470  1D5 000CBA60 ??1QLibrary@@UAE@XZ
        471  1D6 000E11C0 ??1QMetaCallEvent@@UAE@XZ
        472  1D7 000DF250 ??1QMimeData@@UAE@XZ
        473  1D8 000CCD90 ??1QModelIndex@@QAE@XZ
        474  1D9 000114A0 ??1QMutex@@QAE@XZ
        475  1DA 00002F10 ??1QMutexLocker@@QAE@XZ
        476  1DB 00012460 ??1QMutexPool@@QAE@XZ
        477  1DC 000E77D0 ??1QObject@@UAE@XZ
        478  1DD 000E8300 ??1QObjectCleanupHandler@@UAE@XZ
        479  1DE 000E6A70 ??1QObjectPrivate@@UAE@XZ
        480  1DF 000E14A0 ??1QObjectUserData@@UAE@XZ
        481  1E0 000D4130 ??1QPersistentModelIndex@@QAE@XZ
        482  1E1 000CCD90 ??1QPersistentModelIndexData@@QAE@XZ
        483  1E2 000C5E60 ??1QPluginLoader@@UAE@XZ
        484  1E3 0008BE90 ??1QProcess@@UAE@XZ
        485  1E4 00001D60 ??1QReadLocker@@QAE@XZ
        486  1E5 00011DB0 ??1QReadWriteLock@@QAE@XZ
        487  1E6 0004D700 ??1QRegExp@@QAE@XZ
        488  1E7 00095C20 ??1QResource@@QAE@XZ
        489  1E8 0001ABA0 ??1QRingBuffer@@QAE@XZ
        490  1E9 00012BD0 ??1QSemaphore@@QAE@XZ
        491  1EA 000A54B0 ??1QSettings@@UAE@XZ
        492  1EB 000F2950 ??1QSharedMemory@@UAE@XZ
        493  1EC 000E83F0 ??1QSignalMapper@@UAE@XZ
        494  1ED 000E9590 ??1QSocketNotifier@@UAE@XZ
        495  1EE 00002B70 ??1QString@@QAE@XZ
        496  1EF 00054200 ??1QStringMatcher@@QAE@XZ
        497  1F0 000D8AA0 ??1QStringRef@@QAE@XZ
        498  1F1 00039110 ??1QSystemLocale@@UAE@XZ
        499  1F2 000F2DE0 ??1QSystemSemaphore@@QAE@XZ
        500  1F3 00092520 ??1QTemporaryFile@@UAE@XZ
        501  1F4 0005B120 ??1QTextBoundaryFinder@@QAE@XZ
        502  1F5 000FB4B0 ??1QTextCodec@@MAE@XZ
        503  1F6 000FA010 ??1QTextCodecFactoryInterface@@UAE@XZ
        504  1F7 000FDC20 ??1QTextCodecPlugin@@UAE@XZ
        505  1F8 000FA850 ??1QTextDecoder@@QAE@XZ
        506  1F9 000FA850 ??1QTextEncoder@@QAE@XZ
        507  1FA 00001460 ??1QTextIStream@@UAE@XZ
        508  1FB 00001460 ??1QTextOStream@@UAE@XZ
        509  1FC 0008F750 ??1QTextStream@@UAE@XZ
        510  1FD 00012DE0 ??1QThread@@UAE@XZ
        511  1FE 000132D0 ??1QThreadData@@QAE@XZ
        512  1FF 0000CC30 ??1QThreadPool@@UAE@XZ
        513  200 00013C30 ??1QThreadStorageData@@QAE@XZ
        514  201 0005B960 ??1QTimeLine@@UAE@XZ
        515  202 000E99C0 ??1QTimer@@UAE@XZ
        516  203 000D8980 ??1QTimerEvent@@UAE@XZ
        517  204 000EA990 ??1QTranslator@@UAE@XZ
        518  205 000FC700 ??1QTsciiCodec@@UAE@XZ
        519  206 0009D9E0 ??1QUrl@@QAE@XZ
        520  207 000EB320 ??1QVariant@@QAE@XZ
        521  208 00015530 ??1QWaitCondition@@QAE@XZ
        522  209 000F7960 ??1QWinEventNotifier@@UAE@XZ
        523  20A 000C58C0 ??1QWindowsPipeWriter@@UAE@XZ
        524  20B 00001D60 ??1QWriteLocker@@QAE@XZ
        525  20C 000FFD10 ??1QXmlStreamAttribute@@QAE@XZ
        526  20D 001056F0 ??1QXmlStreamAttributes@@QAE@XZ
        527  20E 00100870 ??1QXmlStreamEntityDeclaration@@QAE@XZ
        528  20F 000FE100 ??1QXmlStreamEntityResolver@@UAE@XZ
        529  210 001006C0 ??1QXmlStreamNamespaceDeclaration@@QAE@XZ
        530  211 001003E0 ??1QXmlStreamNotationDeclaration@@QAE@XZ
        531  212 000FF610 ??1QXmlStreamReader@@QAE@XZ
        532  213 00002B70 ??1QXmlStreamStringRef@@QAE@XZ
        533  214 00104C70 ??1QXmlStreamWriter@@QAE@XZ
        534  215 00005550 ??1ResultStoreBase@QtConcurrent@@UAE@XZ
        535  216 0000A4F0 ??1ThreadEngineBase@QtConcurrent@@UAE@XZ
        536  217 00001110 ??1UnhandledException@QtConcurrent@@UAE@XZ
        537  218 00006A90 ??4?$QVector@VQPoint@@@@QAEAAV0@ABV0@@Z
        538  219 00006670 ??4?$QVector@VQPointF@@@@QAEAAV0@ABV0@@Z
        539  21A 00107780 ??4?$QVector@VQXmlStreamAttribute@@@@QAEAAV0@ABV0@@Z
        540  21B 00001140 ??4Exception@QtConcurrent@@QAEAAV01@ABV01@@Z
        541  21C 00001200 ??4ExceptionStore@internal@QtConcurrent@@QAEAAV012@ABV012@@Z
        542  21D 000CD9D0 ??4QAbstractEventDispatcher@@QAEAAV0@ABV0@@Z
        543  21E 000CD9D0 ??4QAbstractFileEngine@@QAEAAV0@ABV0@@Z
        544  21F 000FE090 ??4QAbstractFileEngineHandler@@QAEAAV0@ABV0@@Z
        545  220 000CD9D0 ??4QAbstractFileEngineIterator@@QAEAAV0@ABV0@@Z
        546  221 000CD9D0 ??4QAbstractItemModel@@QAEAAV0@ABV0@@Z
        547  222 000D3EE0 ??4QAbstractItemModelPrivate@@QAEAAV0@ABV0@@Z
        548  223 000CD9D0 ??4QAbstractListModel@@QAEAAV0@ABV0@@Z
        549  224 000CD9D0 ??4QAbstractTableModel@@QAEAAV0@ABV0@@Z
        550  225 00039170 ??4QAtomicInt@@QAEAAV0@ABV0@@Z
        551  226 00001620 ??4QAtomicInt@@QAEAAV0@H@Z
        552  227 00039170 ??4QBasicAtomicInt@@QAEAAV0@ABV0@@Z
        553  228 00001620 ??4QBasicAtomicInt@@QAEAAV0@H@Z
        554  229 00039170 ??4QBasicTimer@@QAEAAV0@ABV0@@Z
        555  22A 00110B40 ??4QBitArray@@QAEAAV0@ABV0@@Z
        556  22B 000166F0 ??4QBitRef@@QAEAAV0@ABV0@@Z
        557  22C 00016730 ??4QBitRef@@QAEAAV0@_N@Z
        558  22D 000CD9D0 ??4QBuffer@@QAEAAV0@ABV0@@Z
        559  22E 000175B0 ??4QByteArray@@QAEAAV0@ABV0@@Z
        560  22F 000187C0 ??4QByteArray@@QAEAAV0@PBD@Z
        561  230 0001AEE0 ??4QByteArrayMatcher@@QAEAAV0@ABV0@@Z
        562  231 00110C30 ??4QByteRef@@QAEAAV0@ABV0@@Z
        563  232 00018E30 ??4QByteRef@@QAEAAV0@D@Z
        564  233 00110AF0 ??4QChar@@QAEAAV0@ABV0@@Z
        565  234 001116A0 ??4QCharRef@@QAEAAV0@ABV0@@Z
        566  235 0001E560 ??4QCharRef@@QAEAAV0@ABVQChar@@@Z
        567  236 00111640 ??4QCharRef@@QAEAAV0@D@Z
        568  237 00111640 ??4QCharRef@@QAEAAV0@E@Z
        569  238 00039210 ??4QCharRef@@QAEAAV0@F@Z
        570  239 00039210 ??4QCharRef@@QAEAAV0@G@Z
        571  23A 00039210 ??4QCharRef@@QAEAAV0@H@Z
        572  23B 00039210 ??4QCharRef@@QAEAAV0@I@Z
        573  23C 00112EA0 ??4QChildEvent@@QAEAAV0@ABV0@@Z
        574  23D 000CD9D0 ??4QCoreApplication@@QAEAAV0@ABV0@@Z
        575  23E 00039170 ??4QCryptographicHash@@QAEAAV0@ABV0@@Z
        576  23F 00112EE0 ??4QCustomEvent@@QAEAAV0@ABV0@@Z
        577  240 001133C0 ??4QDataStream@@QAEAAV0@ABV0@@Z
        578  241 00039170 ??4QDate@@QAEAAV0@ABV0@@Z
        579  242 0001EDD0 ??4QDateTime@@QAEAAV0@ABV0@@Z
        580  243 00025090 ??4QDateTimeParser@@QAEAAV0@ABV0@@Z
        581  244 000054E0 ??4QDebug@@QAEAAV0@ABV0@@Z
        582  245 0007FDC0 ??4QDir@@QAEAAV0@ABV0@@Z
        583  246 00081E20 ??4QDir@@QAEAAV0@ABVQString@@@Z
        584  247 000CD9D0 ??4QDirIterator@@QAEAAV0@ABV0@@Z
        585  248 00112F50 ??4QDynamicPropertyChangeEvent@@QAEAAV0@ABV0@@Z
        586  249 00002D50 ??4QEvent@@QAEAAV0@ABV0@@Z
        587  24A 000CD9D0 ??4QEventDispatcherWin32@@QAEAAV0@ABV0@@Z
        588  24B 000CD9D0 ??4QEventLoop@@QAEAAV0@ABV0@@Z
        589  24C 000CD9D0 ??4QFSFileEngine@@QAEAAV0@ABV0@@Z
        590  24D 000FE090 ??4QFactoryInterface@@QAEAAU0@ABU0@@Z
        591  24E 000CD9D0 ??4QFactoryLoader@@QAEAAV0@ABV0@@Z
        592  24F 000CD9D0 ??4QFile@@QAEAAV0@ABV0@@Z
        593  250 00087F20 ??4QFileInfo@@QAEAAV0@ABV0@@Z
        594  251 000CD9D0 ??4QFileSystemWatcher@@QAEAAV0@ABV0@@Z
        595  252 00039170 ??4QFlag@@QAEAAV0@ABV0@@Z
        596  253 00007440 ??4QFutureInterfaceBase@@QAEAAV0@ABV0@@Z
        597  254 000CD9D0 ??4QFutureWatcherBase@@QAEAAV0@ABV0@@Z
        598  255 00009B10 ??4QFutureWatcherBasePrivate@@QAEAAV0@ABV0@@Z
        599  256 00110990 ??4QGenericArgument@@QAEAAV0@ABV0@@Z
        600  257 00110990 ??4QGenericReturnArgument@@QAEAAV0@ABV0@@Z
        601  258 00001220 ??4QHashData@@QAEAAU0@ABU0@@Z
        602  259 000CD9D0 ??4QIODevice@@QAEAAV0@ABV0@@Z
        603  25A 0007B690 ??4QIODevicePrivate@@QAEAAV0@ABV0@@Z
        604  25B 000FE090 ??4QInternal@@QAEAAV0@ABV0@@Z
        605  25C 00039170 ??4QLatin1String@@QAEAAV0@ABV0@@Z
        606  25D 000C5FE0 ??4QLibrary@@QAEAAV0@ABV0@@Z
        607  25E 000FE090 ??4QLibraryInfo@@QAEAAV0@ABV0@@Z
        608  25F 00012390 ??4QLine@@QAEAAV0@ABV0@@Z
        609  260 00001220 ??4QLineF@@QAEAAV0@ABV0@@Z
        610  261 00038800 ??4QLinkedListData@@QAEAAU0@ABU0@@Z
        611  262 00039170 ??4QListData@@QAEAAU0@ABU0@@Z
        612  263 00039170 ??4QLocale@@QAEAAV0@ABV0@@Z
        613  264 00016890 ??4QLocalePrivate@@QAEAAU0@ABU0@@Z
        614  265 00113400 ??4QMapData@@QAEAAU0@ABU0@@Z
        615  266 00003800 ??4QMetaCallEvent@@QAEAAV0@ABV0@@Z
        616  267 00110990 ??4QMetaClassInfo@@QAEAAV0@ABV0@@Z
        617  268 00110990 ??4QMetaEnum@@QAEAAV0@ABV0@@Z
        618  269 00110990 ??4QMetaMethod@@QAEAAV0@ABV0@@Z
        619  26A 00012390 ??4QMetaObject@@QAEAAU0@ABU0@@Z
        620  26B 00038800 ??4QMetaProperty@@QAEAAV0@ABV0@@Z
        621  26C 000FE090 ??4QMetaType@@QAEAAV0@ABV0@@Z
        622  26D 000CD9D0 ??4QMimeData@@QAEAAV0@ABV0@@Z
        623  26E 00012390 ??4QModelIndex@@QAEAAV0@ABV0@@Z
        624  26F 00039170 ??4QMutex@@QAEAAV0@ABV0@@Z
        625  270 00039170 ??4QMutexLocker@@QAEAAV0@ABV0@@Z
        626  271 00012390 ??4QMutexPool@@QAEAAV0@ABV0@@Z
        627  272 000CD9D0 ??4QObject@@QAEAAV0@ABV0@@Z
        628  273 000E81B0 ??4QObjectCleanupHandler@@QAEAAV0@ABV0@@Z
        629  274 00008680 ??4QObjectPrivate@@QAEAAV0@ABV0@@Z
        630  275 000FE090 ??4QObjectUserData@@QAEAAV0@ABV0@@Z
        631  276 000D4180 ??4QPersistentModelIndex@@QAEAAV0@ABV0@@Z
        632  277 000D41D0 ??4QPersistentModelIndex@@QAEAAV0@ABVQModelIndex@@@Z
        633  278 000CD1F0 ??4QPersistentModelIndexData@@QAEAAV0@ABV0@@Z
        634  279 000C5FE0 ??4QPluginLoader@@QAEAAV0@ABV0@@Z
        635  27A 00110990 ??4QPoint@@QAEAAV0@ABV0@@Z
        636  27B 00012390 ??4QPointF@@QAEAAV0@ABV0@@Z
        637  27C 000CD9D0 ??4QProcess@@QAEAAV0@ABV0@@Z
        638  27D 00039170 ??4QReadLocker@@QAEAAV0@ABV0@@Z
        639  27E 00039170 ??4QReadWriteLock@@QAEAAV0@ABV0@@Z
        640  27F 00012390 ??4QRect@@QAEAAV0@ABV0@@Z
        641  280 00001220 ??4QRectF@@QAEAAV0@ABV0@@Z
        642  281 0004DB20 ??4QRegExp@@QAEAAV0@ABV0@@Z
        643  282 00039170 ??4QResource@@QAEAAV0@ABV0@@Z
        644  283 0007B260 ??4QRingBuffer@@QAEAAV0@ABV0@@Z
        645  284 00039170 ??4QSemaphore@@QAEAAV0@ABV0@@Z
        646  285 000CD9D0 ??4QSettings@@QAEAAV0@ABV0@@Z
        647  286 000CD9D0 ??4QSharedMemory@@QAEAAV0@ABV0@@Z
        648  287 000CD9D0 ??4QSignalMapper@@QAEAAV0@ABV0@@Z
        649  288 00110990 ??4QSize@@QAEAAV0@ABV0@@Z
        650  289 00012390 ??4QSizeF@@QAEAAV0@ABV0@@Z
        651  28A 0008B630 ??4QSocketNotifier@@QAEAAV0@ABV0@@Z
        652  28B 00114170 ??4QString@@QAEAAV0@ABUNull@0@@Z
        653  28C 00052550 ??4QString@@QAEAAV0@ABV0@@Z
        654  28D 00113AD0 ??4QString@@QAEAAV0@ABVQByteArray@@@Z
        655  28E 0000FCE0 ??4QString@@QAEAAV0@ABVQLatin1String@@@Z
        656  28F 001111F0 ??4QString@@QAEAAV0@D@Z
        657  290 00113A50 ??4QString@@QAEAAV0@PBD@Z
        658  291 00053390 ??4QString@@QAEAAV0@VQChar@@@Z
        659  292 000531C0 ??4QStringMatcher@@QAEAAV0@ABV0@@Z
        660  293 000FE750 ??4QStringRef@@QAEAAV0@ABV0@@Z
        661  294 000FE7A0 ??4QStringRef@@QAEAAV0@PBVQString@@@Z
        662  295 000FE090 ??4QSysInfo@@QAEAAV0@ABV0@@Z
        663  296 000FE090 ??4QSystemLocale@@QAEAAV0@ABV0@@Z
        664  297 00039170 ??4QSystemSemaphore@@QAEAAV0@ABV0@@Z
        665  298 000CD9D0 ??4QTemporaryFile@@QAEAAV0@ABV0@@Z
        666  299 0005AC90 ??4QTextBoundaryFinder@@QAEAAV0@ABV0@@Z
        667  29A 000FE090 ??4QTextCodec@@QAEAAV0@ABV0@@Z
        668  29B 000FE090 ??4QTextCodecFactoryInterface@@QAEAAU0@ABU0@@Z
        669  29C 000CD9D0 ??4QTextCodecPlugin@@QAEAAV0@ABV0@@Z
        670  29D 00114D90 ??4QTextDecoder@@QAEAAV0@ABV0@@Z
        671  29E 00114D90 ??4QTextEncoder@@QAEAAV0@ABV0@@Z
        672  29F 000CD9D0 ??4QTextIStream@@QAEAAV0@ABV0@@Z
        673  2A0 000CD9D0 ??4QTextOStream@@QAEAAV0@ABV0@@Z
        674  2A1 000CD9D0 ??4QTextStream@@QAEAAV0@ABV0@@Z
        675  2A2 00012390 ??4QTextStreamManipulator@@QAEAAV0@ABV0@@Z
        676  2A3 000CD9D0 ??4QThread@@QAEAAV0@ABV0@@Z
        677  2A4 0000E3F0 ??4QThreadData@@QAEAAV0@ABV0@@Z
        678  2A5 000CD9D0 ??4QThreadPool@@QAEAAV0@ABV0@@Z
        679  2A6 00039170 ??4QThreadStorageData@@QAEAAV0@ABV0@@Z
        680  2A7 00039170 ??4QTime@@QAEAAV0@ABV0@@Z
        681  2A8 000CD9D0 ??4QTimeLine@@QAEAAV0@ABV0@@Z
        682  2A9 0008B770 ??4QTimer@@QAEAAV0@ABV0@@Z
        683  2AA 00112EA0 ??4QTimerEvent@@QAEAAV0@ABV0@@Z
        684  2AB 000CD9D0 ??4QTranslator@@QAEAAV0@ABV0@@Z
        685  2AC 000FE090 ??4QTsciiCodec@@QAEAAV0@ABV0@@Z
        686  2AD 0009DEE0 ??4QUrl@@QAEAAV0@ABV0@@Z
        687  2AE 000A2350 ??4QUrl@@QAEAAV0@ABVQString@@@Z
        688  2AF 00012390 ??4QUuid@@QAEAAU0@ABU0@@Z
        689  2B0 000C89F0 ??4QUuid@@QAEAAU0@ABU_GUID@@@Z
        690  2B1 000ED190 ??4QVariant@@QAEAAV0@ABV0@@Z
        691  2B2 00012390 ??4QVectorData@@QAEAAU0@ABU0@@Z
        692  2B3 00039170 ??4QWaitCondition@@QAEAAV0@ABV0@@Z
        693  2B4 000C5FE0 ??4QWinEventNotifier@@QAEAAV0@ABV0@@Z
        694  2B5 000B8B40 ??4QWindowsPipeWriter@@QAEAAV0@ABV0@@Z
        695  2B6 00039170 ??4QWriteLocker@@QAEAAV0@ABV0@@Z
        696  2B7 000FE3F0 ??4QXmlStreamAttribute@@QAEAAV0@ABV0@@Z
        697  2B8 00107780 ??4QXmlStreamAttributes@@QAEAAV0@ABV0@@Z
        698  2B9 000FE510 ??4QXmlStreamEntityDeclaration@@QAEAAV0@ABV0@@Z
        699  2BA 000FE090 ??4QXmlStreamEntityResolver@@QAEAAV0@ABV0@@Z
        700  2BB 000FE4D0 ??4QXmlStreamNamespaceDeclaration@@QAEAAV0@ABV0@@Z
        701  2BC 000FE470 ??4QXmlStreamNotationDeclaration@@QAEAAV0@ABV0@@Z
        702  2BD 00039170 ??4QXmlStreamReader@@QAEAAV0@ABV0@@Z
        703  2BE 000FE030 ??4QXmlStreamStringRef@@QAEAAV0@ABV0@@Z
        704  2BF 00039170 ??4QXmlStreamWriter@@QAEAAV0@ABV0@@Z
        705  2C0 000FE090 ??4QXmlUtils@@QAEAAV0@ABV0@@Z
        706  2C1 00110990 ??4ResultIteratorBase@QtConcurrent@@QAEAAV01@ABV01@@Z
        707  2C2 00007130 ??4ResultStoreBase@QtConcurrent@@QAEAAV01@ABV01@@Z
        708  2C3 0000A840 ??4ThreadEngineBase@QtConcurrent@@QAEAAV01@ABV01@@Z
        709  2C4 00001140 ??4UnhandledException@QtConcurrent@@QAEAAV01@ABV01@@Z
        710  2C5 000C9640 ??5@YAAAVQDataStream@@AAV0@AAUQUuid@@@Z
        711  2C6 00016350 ??5@YAAAVQDataStream@@AAV0@AAVQBitArray@@@Z
        712  2C7 00018FF0 ??5@YAAAVQDataStream@@AAV0@AAVQByteArray@@@Z
        713  2C8 000508D0 ??5@YAAAVQDataStream@@AAV0@AAVQChar@@@Z
        714  2C9 000ED770 ??5@YAAAVQDataStream@@AAV0@AAVQDate@@@Z
        715  2CA 0001EF70 ??5@YAAAVQDataStream@@AAV0@AAVQDateTime@@@Z
        716  2CB 00037B60 ??5@YAAAVQDataStream@@AAV0@AAVQLine@@@Z
        717  2CC 00037E80 ??5@YAAAVQDataStream@@AAV0@AAVQLineF@@@Z
        718  2CD 0003ECC0 ??5@YAAAVQDataStream@@AAV0@AAVQLocale@@@Z
        719  2CE 00043540 ??5@YAAAVQDataStream@@AAV0@AAVQPoint@@@Z
        720  2CF 00043500 ??5@YAAAVQDataStream@@AAV0@AAVQPointF@@@Z
        721  2D0 000453D0 ??5@YAAAVQDataStream@@AAV0@AAVQRect@@@Z
        722  2D1 00044D50 ??5@YAAAVQDataStream@@AAV0@AAVQRectF@@@Z
        723  2D2 0004E160 ??5@YAAAVQDataStream@@AAV0@AAVQRegExp@@@Z
        724  2D3 00043540 ??5@YAAAVQDataStream@@AAV0@AAVQSize@@@Z
        725  2D4 00043500 ??5@YAAAVQDataStream@@AAV0@AAVQSizeF@@@Z
        726  2D5 00056BE0 ??5@YAAAVQDataStream@@AAV0@AAVQString@@@Z
        727  2D6 000ED770 ??5@YAAAVQDataStream@@AAV0@AAVQTime@@@Z
        728  2D7 0009FBA0 ??5@YAAAVQDataStream@@AAV0@AAVQUrl@@@Z
        729  2D8 000ED730 ??5@YAAAVQDataStream@@AAV0@AAVQVariant@@@Z
        730  2D9 000ED770 ??5@YAAAVQDataStream@@AAV0@AAW4Type@QVariant@@@Z
        731  2DA 0007B930 ??5QDataStream@@QAEAAV0@AAC@Z
        732  2DB 00045F50 ??5QDataStream@@QAEAAV0@AAE@Z
        733  2DC 0007B980 ??5QDataStream@@QAEAAV0@AAF@Z
        734  2DD 00050870 ??5QDataStream@@QAEAAV0@AAG@Z
        735  2DE 0007B9F0 ??5QDataStream@@QAEAAV0@AAH@Z
        736  2DF 000159B0 ??5QDataStream@@QAEAAV0@AAI@Z
        737  2E0 0007BAD0 ??5QDataStream@@QAEAAV0@AAM@Z
        738  2E1 0007BB50 ??5QDataStream@@QAEAAV0@AAN@Z
        739  2E2 0007C580 ??5QDataStream@@QAEAAV0@AAPAD@Z
        740  2E3 0007C0E0 ??5QDataStream@@QAEAAV0@AA_J@Z
        741  2E4 000DC700 ??5QDataStream@@QAEAAV0@AA_K@Z
        742  2E5 0007BA70 ??5QDataStream@@QAEAAV0@AA_N@Z
        743  2E6 00090720 ??5QTextStream@@QAEAAV0@AAD@Z
        744  2E7 00090760 ??5QTextStream@@QAEAAV0@AAF@Z
        745  2E8 00090760 ??5QTextStream@@QAEAAV0@AAG@Z
        746  2E9 000907E0 ??5QTextStream@@QAEAAV0@AAH@Z
        747  2EA 000907E0 ??5QTextStream@@QAEAAV0@AAI@Z
        748  2EB 000907E0 ??5QTextStream@@QAEAAV0@AAJ@Z
        749  2EC 000907E0 ??5QTextStream@@QAEAAV0@AAK@Z
        750  2ED 000908F0 ??5QTextStream@@QAEAAV0@AAM@Z
        751  2EE 00090970 ??5QTextStream@@QAEAAV0@AAN@Z
        752  2EF 00090B10 ??5QTextStream@@QAEAAV0@AAVQByteArray@@@Z
        753  2F0 000906B0 ??5QTextStream@@QAEAAV0@AAVQChar@@@Z
        754  2F1 000909F0 ??5QTextStream@@QAEAAV0@AAVQString@@@Z
        755  2F2 00090860 ??5QTextStream@@QAEAAV0@AA_J@Z
        756  2F3 00090860 ??5QTextStream@@QAEAAV0@AA_K@Z
        757  2F4 00090C10 ??5QTextStream@@QAEAAV0@PAD@Z
        758  2F5 00006650 ??6?$QVector@VQPoint@@@@QAEAAV0@ABV0@@Z
        759  2F6 00006630 ??6?$QVector@VQPoint@@@@QAEAAV0@ABVQPoint@@@Z
        760  2F7 00006420 ??6?$QVector@VQPointF@@@@QAEAAV0@ABV0@@Z
        761  2F8 00006400 ??6?$QVector@VQPointF@@@@QAEAAV0@ABVQPointF@@@Z
        762  2F9 00106FF0 ??6?$QVector@VQXmlStreamAttribute@@@@QAEAAV0@ABV0@@Z
        763  2FA 00106FD0 ??6?$QVector@VQXmlStreamAttribute@@@@QAEAAV0@ABVQXmlStreamAttribute@@@Z
        764  2FB 000F73A0 ??6@YA?AVQDebug@@V0@ABUtagMSG@@@Z
        765  2FC 000230A0 ??6@YA?AVQDebug@@V0@ABVQDate@@@Z
        766  2FD 000232C0 ??6@YA?AVQDebug@@V0@ABVQDateTime@@@Z
        767  2FE 00080A60 ??6@YA?AVQDebug@@V0@ABVQDir@@@Z
        768  2FF 000385B0 ??6@YA?AVQDebug@@V0@ABVQLine@@@Z
        769  300 000386D0 ??6@YA?AVQDebug@@V0@ABVQLineF@@@Z
        770  301 000CE700 ??6@YA?AVQDebug@@V0@ABVQModelIndex@@@Z
        771  302 000CE870 ??6@YA?AVQDebug@@V0@ABVQPersistentModelIndex@@@Z
        772  303 000435D0 ??6@YA?AVQDebug@@V0@ABVQPoint@@@Z
        773  304 000436E0 ??6@YA?AVQDebug@@V0@ABVQPointF@@@Z
        774  305 00045A00 ??6@YA?AVQDebug@@V0@ABVQRect@@@Z
        775  306 00045BA0 ??6@YA?AVQDebug@@V0@ABVQRectF@@@Z
        776  307 0004E520 ??6@YA?AVQDebug@@V0@ABVQSize@@@Z
        777  308 0004E630 ??6@YA?AVQDebug@@V0@ABVQSizeF@@@Z
        778  309 000231B0 ??6@YA?AVQDebug@@V0@ABVQTime@@@Z
        779  30A 000A44B0 ??6@YA?AVQDebug@@V0@ABVQUrl@@@Z
        780  30B 000EEA10 ??6@YA?AVQDebug@@V0@ABVQVariant@@@Z
        781  30C 000E2730 ??6@YA?AVQDebug@@V0@PBVQObject@@@Z
        782  30D 00080060 ??6@YA?AVQDebug@@V0@V?$QFlags@W4Filter@QDir@@@@@Z
        783  30E 0008AB10 ??6@YA?AVQDebug@@V0@V?$QFlags@W4OpenModeFlag@QIODevice@@@@@Z
        784  30F 000EEB30 ??6@YA?AVQDebug@@V0@W4Type@QVariant@@@Z
        785  310 000C95F0 ??6@YAAAVQDataStream@@AAV0@ABUQUuid@@@Z
        786  311 00016300 ??6@YAAAVQDataStream@@AAV0@ABVQBitArray@@@Z
        787  312 00017E20 ??6@YAAAVQDataStream@@AAV0@ABVQByteArray@@@Z
        788  313 000508B0 ??6@YAAAVQDataStream@@AAV0@ABVQChar@@@Z
        789  314 0001EF10 ??6@YAAAVQDataStream@@AAV0@ABVQDate@@@Z
        790  315 0001EF30 ??6@YAAAVQDataStream@@AAV0@ABVQDateTime@@@Z
        791  316 00037B10 ??6@YAAAVQDataStream@@AAV0@ABVQLine@@@Z
        792  317 00037E10 ??6@YAAAVQDataStream@@AAV0@ABVQLineF@@@Z
        793  318 0003EC40 ??6@YAAAVQDataStream@@AAV0@ABVQLocale@@@Z
        794  319 0004E4E0 ??6@YAAAVQDataStream@@AAV0@ABVQPoint@@@Z
        795  31A 0004E4B0 ??6@YAAAVQDataStream@@AAV0@ABVQPointF@@@Z
        796  31B 00045370 ??6@YAAAVQDataStream@@AAV0@ABVQRect@@@Z
        797  31C 00044D00 ??6@YAAAVQDataStream@@AAV0@ABVQRectF@@@Z
        798  31D 000465C0 ??6@YAAAVQDataStream@@AAV0@ABVQRegExp@@@Z
        799  31E 0004E4E0 ??6@YAAAVQDataStream@@AAV0@ABVQSize@@@Z
        800  31F 0004E4B0 ??6@YAAAVQDataStream@@AAV0@ABVQSizeF@@@Z
        801  320 00051BA0 ??6@YAAAVQDataStream@@AAV0@ABVQString@@@Z
        802  321 0001EF10 ??6@YAAAVQDataStream@@AAV0@ABVQTime@@@Z
        803  322 000A4420 ??6@YAAAVQDataStream@@AAV0@ABVQUrl@@@Z
        804  323 000ED750 ??6@YAAAVQDataStream@@AAV0@ABVQVariant@@@Z
        805  324 000ED790 ??6@YAAAVQDataStream@@AAV0@W4Type@QVariant@@@Z
        806  325 0007BD10 ??6QDataStream@@QAEAAV0@C@Z
        807  326 00045F60 ??6QDataStream@@QAEAAV0@E@Z
        808  327 0007BC60 ??6QDataStream@@QAEAAV0@F@Z
        809  328 00050880 ??6QDataStream@@QAEAAV0@G@Z
        810  329 0007BCB0 ??6QDataStream@@QAEAAV0@H@Z
        811  32A 000159C0 ??6QDataStream@@QAEAAV0@I@Z
        812  32B 0007BD30 ??6QDataStream@@QAEAAV0@M@Z
        813  32C 0007BDA0 ??6QDataStream@@QAEAAV0@N@Z
        814  32D 0007C3C0 ??6QDataStream@@QAEAAV0@PBD@Z
        815  32E 0007C300 ??6QDataStream@@QAEAAV0@_J@Z
        816  32F 000DC710 ??6QDataStream@@QAEAAV0@_K@Z
        817  330 0007BD10 ??6QDataStream@@QAEAAV0@_N@Z
        818  331 00001AF0 ??6QDebug@@QAEAAV0@ABVQByteArray@@@Z
        819  332 00003520 ??6QDebug@@QAEAAV0@ABVQLatin1String@@@Z
        820  333 00001AB0 ??6QDebug@@QAEAAV0@ABVQString@@@Z
        821  334 00001940 ??6QDebug@@QAEAAV0@D@Z
        822  335 00001970 ??6QDebug@@QAEAAV0@F@Z
        823  336 000019A0 ??6QDebug@@QAEAAV0@G@Z
        824  337 00001A00 ??6QDebug@@QAEAAV0@H@Z
        825  338 000019D0 ??6QDebug@@QAEAAV0@I@Z
        826  339 00001A00 ??6QDebug@@QAEAAV0@J@Z
        827  33A 000019D0 ??6QDebug@@QAEAAV0@K@Z
        828  33B 00001A50 ??6QDebug@@QAEAAV0@M@Z
        829  33C 00001A80 ??6QDebug@@QAEAAV0@N@Z
        830  33D 00001B80 ??6QDebug@@QAEAAV0@P6AAAVQTextStream@@AAV1@@Z@Z
        831  33E 00003490 ??6QDebug@@QAEAAV0@PBD@Z
        832  33F 00001B50 ??6QDebug@@QAEAAV0@PBX@Z
        833  340 000018C0 ??6QDebug@@QAEAAV0@VQChar@@@Z
        834  341 00001BA0 ??6QDebug@@QAEAAV0@VQTextStreamManipulator@@@Z
        835  342 00003350 ??6QDebug@@QAEAAV0@_J@Z
        836  343 000033F0 ??6QDebug@@QAEAAV0@_K@Z
        837  344 00001900 ??6QDebug@@QAEAAV0@_N@Z
        838  345 00091290 ??6QTextStream@@QAEAAV0@ABVQByteArray@@@Z
        839  346 00091250 ??6QTextStream@@QAEAAV0@ABVQString@@@Z
        840  347 00090FC0 ??6QTextStream@@QAEAAV0@D@Z
        841  348 00091070 ??6QTextStream@@QAEAAV0@F@Z
        842  349 000910D0 ??6QTextStream@@QAEAAV0@G@Z
        843  34A 00091150 ??6QTextStream@@QAEAAV0@H@Z
        844  34B 00091110 ??6QTextStream@@QAEAAV0@I@Z
        845  34C 00091150 ??6QTextStream@@QAEAAV0@J@Z
        846  34D 00091110 ??6QTextStream@@QAEAAV0@K@Z
        847  34E 00091920 ??6QTextStream@@QAEAAV0@M@Z
        848  34F 00091670 ??6QTextStream@@QAEAAV0@N@Z
        849  350 00091340 ??6QTextStream@@QAEAAV0@PBD@Z
        850  351 000913E0 ??6QTextStream@@QAEAAV0@PBX@Z
        851  352 00091650 ??6QTextStream@@QAEAAV0@VQBool@@@Z
        852  353 00090F20 ??6QTextStream@@QAEAAV0@VQChar@@@Z
        853  354 000911B0 ??6QTextStream@@QAEAAV0@_J@Z
        854  355 00091210 ??6QTextStream@@QAEAAV0@_K@Z
        855  356 00110B00 ??7QBasicAtomicInt@@QBE_NXZ
        856  357 00015AC0 ??7QBitRef@@QBE_NXZ
        857  358 000028C0 ??8?$QVector@VQPoint@@@@QBE_NABV0@@Z
        858  359 00004260 ??8?$QVector@VQPointF@@@@QBE_NABV0@@Z
        859  35A 00101AF0 ??8?$QVector@VQXmlStreamAttribute@@@@QBE_NABV0@@Z
        860  35B 0001EA60 ??8@YA_NABUSectionNode@QDateTimeParser@@0@Z
        861  35C 00051ED0 ??8@YA_NABVQLatin1String@@ABVQStringRef@@@Z
        862  35D 00044130 ??8@YA_NABVQRect@@0@Z
        863  35E 00044F90 ??8@YA_NABVQRectF@@0@Z
        864  35F 00051E00 ??8@YA_NABVQString@@ABVQStringRef@@@Z
        865  360 00051D20 ??8@YA_NABVQStringRef@@0@Z
        866  361 00001600 ??8QBasicAtomicInt@@QBE_NH@Z
        867  362 00015A20 ??8QBitArray@@QBE_NABV0@@Z
        868  363 00112170 ??8QByteArray@@QBE_NABVQString@@@Z
        869  364 00110C80 ??8QByteRef@@QBE_ND@Z
        870  365 00001F20 ??8QDate@@QBE_NABV0@@Z
        871  366 00025730 ??8QDateTime@@QBE_NABV0@@Z
        872  367 0007FC40 ??8QDir@@QBE_NABV0@@Z
        873  368 00088D50 ??8QFileInfo@@QAE_NABV0@@Z
        874  369 00088B60 ??8QFileInfo@@QBE_NABV0@@Z
        875  36A 00001BD0 ??8QFutureInterfaceBase@@QBE_NABV0@@Z
        876  36B 00111530 ??8QLatin1String@@QBE_NABVQString@@@Z
        877  36C 001144A0 ??8QLatin1String@@QBE_NPBD@Z
        878  36D 00037770 ??8QLine@@QBE_NABV0@@Z
        879  36E 00037F30 ??8QLineF@@QBE_NABV0@@Z
        880  36F 00017220 ??8QLocale@@QBE_NABV0@@Z
        881  370 000CCDE0 ??8QModelIndex@@QBE_NABV0@@Z
        882  371 000CD2A0 ??8QPersistentModelIndex@@QBE_NABV0@@Z
        883  372 000CD320 ??8QPersistentModelIndex@@QBE_NABVQModelIndex@@@Z
        884  373 00045DE0 ??8QRegExp@@QBE_NABV0@@Z
        885  374 00050B20 ??8QString@@QBE_NABV0@@Z
        886  375 00112130 ??8QString@@QBE_NABVQByteArray@@@Z
        887  376 00050BD0 ??8QString@@QBE_NABVQLatin1String@@@Z
        888  377 00111EB0 ??8QString@@QBE_NPBD@Z
        889  378 00001F20 ??8QTime@@QBE_NABV0@@Z
        890  379 000A4090 ??8QUrl@@QBE_NABV0@@Z
        891  37A 000C8910 ??8QUuid@@QBE_NABU0@@Z
        892  37B 000C8A90 ??8QUuid@@QBE_NABU_GUID@@@Z
        893  37C 000CD7C0 ??8QVariant@@QBE_NABV0@@Z
        894  37D 000FEC00 ??8QXmlStreamAttribute@@QBE_NABV0@@Z
        895  37E 000FEF20 ??8QXmlStreamEntityDeclaration@@QBE_NABV0@@Z
        896  37F 000FED30 ??8QXmlStreamNamespaceDeclaration@@QBE_NABV0@@Z
        897  380 000FEE00 ??8QXmlStreamNotationDeclaration@@QBE_NABV0@@Z
        898  381 00009B90 ??8ResultIteratorBase@QtConcurrent@@QBE_NABV01@@Z
        899  382 00004150 ??9?$QVector@VQPoint@@@@QBE_NABV0@@Z
        900  383 00004BD0 ??9?$QVector@VQPointF@@@@QBE_NABV0@@Z
        901  384 00103570 ??9?$QVector@VQXmlStreamAttribute@@@@QBE_NABV0@@Z
        902  385 00044160 ??9@YA_NABVQRect@@0@Z
        903  386 00045010 ??9@YA_NABVQRectF@@0@Z
        904  387 00001610 ??9QBasicAtomicInt@@QBE_NH@Z
        905  388 00015A40 ??9QBitArray@@QBE_NABV0@@Z
        906  389 00112190 ??9QByteArray@@QBE_NABVQString@@@Z
        907  38A 00110CA0 ??9QByteRef@@QBE_ND@Z
        908  38B 00001F40 ??9QDate@@QBE_NABV0@@Z
        909  38C 00002170 ??9QDateTime@@QBE_NABV0@@Z
        910  38D 0000E810 ??9QDir@@QBE_NABV0@@Z
        911  38E 0000E780 ??9QFileInfo@@QAE_NABV0@@Z
        912  38F 0000E7A0 ??9QFileInfo@@QBE_NABV0@@Z
        913  390 00001BF0 ??9QFutureInterfaceBase@@QBE_NABV0@@Z
        914  391 00111540 ??9QLatin1String@@QBE_NABVQString@@@Z
        915  392 00114530 ??9QLatin1String@@QBE_NPBD@Z
        916  393 00037EE0 ??9QLine@@QBE_NABV0@@Z
        917  394 00038510 ??9QLineF@@QBE_NABV0@@Z
        918  395 00017280 ??9QLocale@@QBE_NABV0@@Z
        919  396 000CCE10 ??9QModelIndex@@QBE_NABV0@@Z
        920  397 000CD890 ??9QPersistentModelIndex@@QBE_NABV0@@Z
        921  398 000CD390 ??9QPersistentModelIndex@@QBE_NABVQModelIndex@@@Z
        922  399 001135B0 ??9QRegExp@@QBE_NABV0@@Z
        923  39A 00009210 ??9QString@@QBE_NABV0@@Z
        924  39B 00112150 ??9QString@@QBE_NABVQByteArray@@@Z
        925  39C 0007C6F0 ??9QString@@QBE_NABVQLatin1String@@@Z
        926  39D 00111ED0 ??9QString@@QBE_NPBD@Z
        927  39E 00001F40 ??9QTime@@QBE_NABV0@@Z
        928  39F 000A40E0 ??9QUrl@@QBE_NABV0@@Z
        929  3A0 000C8970 ??9QUuid@@QBE_NABU0@@Z
        930  3A1 000C8AD0 ??9QUuid@@QBE_NABU_GUID@@@Z
        931  3A2 000EE510 ??9QVariant@@QBE_NABV0@@Z
        932  3A3 000FECE0 ??9QXmlStreamAttribute@@QBE_NABV0@@Z
        933  3A4 000FF010 ??9QXmlStreamEntityDeclaration@@QBE_NABV0@@Z
        934  3A5 000FEDB0 ??9QXmlStreamNamespaceDeclaration@@QBE_NABV0@@Z
        935  3A6 000FEEA0 ??9QXmlStreamNotationDeclaration@@QBE_NABV0@@Z
        936  3A7 00009BB0 ??9ResultIteratorBase@QtConcurrent@@QBE_NABV01@@Z
        937  3A8 00006BA0 ??A?$QVector@VQPoint@@@@QAEAAVQPoint@@H@Z
        938  3A9 00002910 ??A?$QVector@VQPoint@@@@QBEABVQPoint@@H@Z
        939  3AA 00006780 ??A?$QVector@VQPointF@@@@QAEAAVQPointF@@H@Z
        940  3AB 000027F0 ??A?$QVector@VQPointF@@@@QBEABVQPointF@@H@Z
        941  3AC 00107120 ??A?$QVector@VQXmlStreamAttribute@@@@QAEAAVQXmlStreamAttribute@@H@Z
        942  3AD 000FE8E0 ??A?$QVector@VQXmlStreamAttribute@@@@QBEABVQXmlStreamAttribute@@H@Z
        943  3AE 00111DA0 ??AQBitArray@@QAE?AVQBitRef@@H@Z
        944  3AF 00111DA0 ??AQBitArray@@QAE?AVQBitRef@@I@Z
        945  3B0 00015A60 ??AQBitArray@@QBE_NH@Z
        946  3B1 00015A60 ??AQBitArray@@QBE_NI@Z
        947  3B2 00111DA0 ??AQByteArray@@QAE?AVQByteRef@@H@Z
        948  3B3 00111DA0 ??AQByteArray@@QAE?AVQByteRef@@I@Z
        949  3B4 00110BB0 ??AQByteArray@@QBE?BDH@Z
        950  3B5 00110BB0 ??AQByteArray@@QBE?BDI@Z
        951  3B6 0007F960 ??AQDir@@QBE?AVQString@@H@Z
        952  3B7 00111DA0 ??AQString@@QAE?AVQCharRef@@H@Z
        953  3B8 00111DA0 ??AQString@@QAE?AVQCharRef@@I@Z
        954  3B9 001115C0 ??AQString@@QBE?BVQChar@@H@Z
        955  3BA 001115C0 ??AQString@@QBE?BVQChar@@I@Z
        956  3BB 00037680 ??BQBasicAtomicInt@@QBEHXZ
        957  3BC 00015A90 ??BQBitRef@@QBE_NXZ
        958  3BD 00016B80 ??BQByteArray@@QBEPBDXZ
        959  3BE 00016B80 ??BQByteArray@@QBEPBXXZ
        960  3BF 00110C10 ??BQByteRef@@QBE?BDXZ
        961  3C0 00045E60 ??BQCharRef@@QBE?AVQChar@@XZ
        962  3C1 00037680 ??BQFlag@@QBEHXZ
        963  3C2 000CDDC0 ??BQPersistentModelIndex@@QBEABVQModelIndex@@XZ
        964  3C3 00111290 ??BQString@@QBEPBDXZ
        965  3C4 000A4620 ??BQUrl@@QBE?AVQString@@XZ
        966  3C5 000C8A30 ??BQUuid@@QBE?AU_GUID@@XZ
        967  3C6 000C96C0 ??BQUuid@@QBE?AVQString@@XZ
        968  3C7 000FEB40 ??BQXmlStreamStringRef@@QBE?AVQStringRef@@XZ
        969  3C8 00009EE0 ??EResultIteratorBase@QtConcurrent@@QAE?AV01@XZ
        970  3C9 000065A0 ??H?$QVector@VQPoint@@@@QBE?AV0@ABV0@@Z
        971  3CA 00006370 ??H?$QVector@VQPointF@@@@QBE?AV0@ABV0@@Z
        972  3CB 00106F40 ??H?$QVector@VQXmlStreamAttribute@@@@QBE?AV0@ABV0@@Z
        973  3CC 000161B0 ??I@YA?AVQBitArray@@ABV0@0@Z
        974  3CD 00045190 ??IQRect@@QBE?AV0@ABV0@@Z
        975  3CE 000455E0 ??IQRectF@@QBE?AV0@ABV0@@Z
        976  3CF 00051F40 ??M@YA_NABVQStringRef@@0@Z
        977  3D0 001121B0 ??MQByteArray@@QBE_NABVQString@@@Z
        978  3D1 00110D00 ??MQByteRef@@QBE_ND@Z
        979  3D2 00001F60 ??MQDate@@QBE_NABV0@@Z
        980  3D3 00025800 ??MQDateTime@@QBE_NABV0@@Z
        981  3D4 00111570 ??MQLatin1String@@QBE_NABVQString@@@Z
        982  3D5 001145C0 ??MQLatin1String@@QBE_NPBD@Z
        983  3D6 000CCE60 ??MQModelIndex@@QBE_NABV0@@Z
        984  3D7 000CD2F0 ??MQPersistentModelIndex@@QBE_NABV0@@Z
        985  3D8 00050C20 ??MQString@@QBE_NABV0@@Z
        986  3D9 00113F30 ??MQString@@QBE_NABVQByteArray@@@Z
        987  3DA 00050C50 ??MQString@@QBE_NABVQLatin1String@@@Z
        988  3DB 00111EF0 ??MQString@@QBE_NPBD@Z
        989  3DC 00002080 ??MQTime@@QBE_NABV0@@Z
        990  3DD 000A4040 ??MQUrl@@QBE_NABV0@@Z
        991  3DE 000C8C60 ??MQUuid@@QBE_NABU0@@Z
        992  3DF 001122D0 ??NQByteArray@@QBE_NABVQString@@@Z
        993  3E0 00110D20 ??NQByteRef@@QBE_ND@Z
        994  3E1 00001F70 ??NQDate@@QBE_NABV0@@Z
        995  3E2 00002190 ??NQDateTime@@QBE_NABV0@@Z
        996  3E3 001115A0 ??NQLatin1String@@QBE_NABVQString@@@Z
        997  3E4 001146E0 ??NQLatin1String@@QBE_NPBD@Z
        998  3E5 00111100 ??NQString@@QBE_NABV0@@Z
        999  3E6 00114050 ??NQString@@QBE_NABVQByteArray@@@Z
       1000  3E7 00111140 ??NQString@@QBE_NABVQLatin1String@@@Z
       1001  3E8 00112010 ??NQString@@QBE_NPBD@Z
       1002  3E9 000020A0 ??NQTime@@QBE_NABV0@@Z
       1003  3EA 00112240 ??OQByteArray@@QBE_NABVQString@@@Z
       1004  3EB 00110CC0 ??OQByteRef@@QBE_ND@Z
       1005  3EC 00001FE0 ??OQDate@@QBE_NABV0@@Z
       1006  3ED 000021B0 ??OQDateTime@@QBE_NABV0@@Z
       1007  3EE 00111560 ??OQLatin1String@@QBE_NABVQString@@@Z
       1008  3EF 00114650 ??OQLatin1String@@QBE_NPBD@Z
       1009  3F0 001110F0 ??OQString@@QBE_NABV0@@Z
       1010  3F1 00113FC0 ??OQString@@QBE_NABVQByteArray@@@Z
       1011  3F2 00050CC0 ??OQString@@QBE_NABVQLatin1String@@@Z
       1012  3F3 00111F80 ??OQString@@QBE_NPBD@Z
       1013  3F4 000020C0 ??OQTime@@QBE_NABV0@@Z
       1014  3F5 000C8D00 ??OQUuid@@QBE_NABU0@@Z
       1015  3F6 00112360 ??PQByteArray@@QBE_NABVQString@@@Z
       1016  3F7 00110CE0 ??PQByteRef@@QBE_ND@Z
       1017  3F8 00001FF0 ??PQDate@@QBE_NABV0@@Z
       1018  3F9 000021C0 ??PQDateTime@@QBE_NABV0@@Z
       1019  3FA 00111580 ??PQLatin1String@@QBE_NABVQString@@@Z
       1020  3FB 00114770 ??PQLatin1String@@QBE_NPBD@Z
       1021  3FC 00111120 ??PQString@@QBE_NABV0@@Z
       1022  3FD 001140E0 ??PQString@@QBE_NABVQByteArray@@@Z
       1023  3FE 00111160 ??PQString@@QBE_NABVQLatin1String@@@Z
       1024  3FF 001120A0 ??PQString@@QBE_NPBD@Z
       1025  400 00002100 ??PQTime@@QBE_NABV0@@Z
       1026  401 000160B0 ??SQBitArray@@QBE?AV0@XZ
       1027  402 00016290 ??T@YA?AVQBitArray@@ABV0@0@Z
       1028  403 00016220 ??U@YA?AVQBitArray@@ABV0@0@Z
       1029  404 00045090 ??UQRect@@QBE?AV0@ABV0@@Z
       1030  405 00045490 ??UQRectF@@QBE?AV0@ABV0@@Z
       1031  406 00001540 ??XQPoint@@QAEAAV0@N@Z
       1032  407 00043B10 ??XQPointF@@QAEAAV0@N@Z
       1033  408 00001540 ??XQSize@@QAEAAV0@N@Z
       1034  409 00043B10 ??XQSizeF@@QAEAAV0@N@Z
       1035  40A 000051C0 ??Y?$QVector@VQPoint@@@@QAEAAV0@ABV0@@Z
       1036  40B 00006630 ??Y?$QVector@VQPoint@@@@QAEAAV0@ABVQPoint@@@Z
       1037  40C 00004F10 ??Y?$QVector@VQPointF@@@@QAEAAV0@ABV0@@Z
       1038  40D 00006400 ??Y?$QVector@VQPointF@@@@QAEAAV0@ABVQPointF@@@Z
       1039  40E 001062E0 ??Y?$QVector@VQXmlStreamAttribute@@@@QAEAAV0@ABV0@@Z
       1040  40F 00106FD0 ??Y?$QVector@VQXmlStreamAttribute@@@@QAEAAV0@ABVQXmlStreamAttribute@@@Z
       1041  410 00038F60 ??YQByteArray@@QAEAAV0@ABV0@@Z
       1042  411 00112670 ??YQByteArray@@QAEAAV0@ABVQString@@@Z
       1043  412 00110DC0 ??YQByteArray@@QAEAAV0@D@Z
       1044  413 00110DD0 ??YQByteArray@@QAEAAV0@PBD@Z
       1045  414 000439F0 ??YQPoint@@QAEAAV0@ABV0@@Z
       1046  415 00001780 ??YQPointF@@QAEAAV0@ABV0@@Z
       1047  416 000439F0 ??YQSize@@QAEAAV0@ABV0@@Z
       1048  417 00001780 ??YQSizeF@@QAEAAV0@ABV0@@Z
       1049  418 00111250 ??YQString@@QAEAAV0@ABV0@@Z
       1050  419 00113E80 ??YQString@@QAEAAV0@ABVQByteArray@@@Z
       1051  41A 0001E530 ??YQString@@QAEAAV0@ABVQLatin1String@@@Z
       1052  41B 00111060 ??YQString@@QAEAAV0@ABVQStringRef@@@Z
       1053  41C 00111220 ??YQString@@QAEAAV0@D@Z
       1054  41D 00113E00 ??YQString@@QAEAAV0@PBD@Z
       1055  41E 0000EDF0 ??YQString@@QAEAAV0@VQChar@@@Z
       1056  41F 00111050 ??YQString@@QAEAAV0@W4SpecialCharacter@QChar@@@Z
       1057  420 00043A10 ??ZQPoint@@QAEAAV0@ABV0@@Z
       1058  421 00043AF0 ??ZQPointF@@QAEAAV0@ABV0@@Z
       1059  422 00043A10 ??ZQSize@@QAEAAV0@ABV0@@Z
       1060  423 00043AF0 ??ZQSizeF@@QAEAAV0@ABV0@@Z
       1061  424 00001630 ??_0QPoint@@QAEAAV0@N@Z
       1062  425 00043B30 ??_0QPointF@@QAEAAV0@N@Z
       1063  426 00001630 ??_0QSize@@QAEAAV0@N@Z
       1064  427 00043B30 ??_0QSizeF@@QAEAAV0@N@Z
       1065  428 00015EB0 ??_4QBitArray@@QAEAAV0@ABV0@@Z
       1066  429 000458E0 ??_4QRect@@QAEAAV0@ABV0@@Z
       1067  42A 00045990 ??_4QRectF@@QAEAAV0@ABV0@@Z
       1068  42B 00015F70 ??_5QBitArray@@QAEAAV0@ABV0@@Z
       1069  42C 000458A0 ??_5QRect@@QAEAAV0@ABV0@@Z
       1070  42D 00045960 ??_5QRectF@@QAEAAV0@ABV0@@Z
       1071  42E 00016010 ??_6QBitArray@@QAEAAV0@ABV0@@Z
       1072  42F 00131514 ??_7Exception@QtConcurrent@@6B@
       1073  430 001334EC ??_7QAbstractEventDispatcher@@6B@
       1074  431 00168CB4 ??_7QAbstractFileEngine@@6B@
       1075  432 00168D3C ??_7QAbstractFileEngineHandler@@6B@
       1076  433 00168D48 ??_7QAbstractFileEngineIterator@@6B@
       1077  434 0017259C ??_7QAbstractItemModel@@6B@
       1078  435 001727F8 ??_7QAbstractItemModelPrivate@@6B@
       1079  436 0017272C ??_7QAbstractListModel@@6B@
       1080  437 0017268C ??_7QAbstractTableModel@@6B@
       1081  438 00168E74 ??_7QBuffer@@6B@
       1082  439 00172F9C ??_7QChildEvent@@6B@
       1083  43A 00172F48 ??_7QCoreApplication@@6B@
       1084  43B 00133914 ??_7QCoreApplicationPrivate@@6B@
       1085  43C 00172FA4 ??_7QCustomEvent@@6B@
       1086  43D 00168FE0 ??_7QDataStream@@6B@
       1087  43E 00134128 ??_7QDateTimeParser@@6B@
       1088  43F 00168D64 ??_7QDirIterator@@6B@
       1089  440 00172FAC ??_7QDynamicPropertyChangeEvent@@6B@
       1090  441 001315FC ??_7QEvent@@6B@
       1091  442 00133724 ??_7QEventDispatcherWin32@@6B@
       1092  443 001728AC ??_7QEventLoop@@6B@
       1093  444 00168D74 ??_7QFSFileEngine@@6B@
       1094  445 00172164 ??_7QFactoryInterface@@6B@
       1095  446 00172194 ??_7QFactoryLoader@@6B@
       1096  447 001332C4 ??_7QFile@@6B@
       1097  448 00171744 ??_7QFileSystemWatcher@@6B@
       1098  449 001315B0 ??_7QFutureInterfaceBase@@6B@
       1099  44A 001316C0 ??_7QFutureWatcherBase@@6B@
       1100  44B 001316F8 ??_7QFutureWatcherBasePrivate@@6BQFutureCallOutInterface@@@
       1101  44C 00131708 ??_7QFutureWatcherBasePrivate@@6BQObjectPrivate@@@
       1102  44D 00133254 ??_7QIODevice@@6B@
       1103  44E 00168FD4 ??_7QIODevicePrivate@@6B@
       1104  44F 00171184 ??_7QLibrary@@6B@
       1105  450 00131670 ??_7QMetaCallEvent@@6B@
       1106  451 0017263C ??_7QMimeData@@6B@
       1107  452 001315CC ??_7QObject@@6B@
       1108  453 00173E84 ??_7QObjectCleanupHandler@@6B@
       1109  454 00131694 ??_7QObjectPrivate@@6B@
       1110  455 00173968 ??_7QObjectUserData@@6B@
       1111  456 001720F4 ??_7QPluginLoader@@6B@
       1112  457 00169A8C ??_7QProcess@@6B@
       1113  458 00133338 ??_7QSettings@@6B@
       1114  459 0017442C ??_7QSharedMemory@@6B@
       1115  45A 00174034 ??_7QSignalMapper@@6B@
       1116  45B 00169B00 ??_7QSocketNotifier@@6B@
       1117  45C 00133A4C ??_7QSystemLocale@@6B@
       1118  45D 00169454 ??_7QTemporaryFile@@6B@
       1119  45E 001791B4 ??_7QTextCodec@@6B@
       1120  45F 00179178 ??_7QTextCodecFactoryInterface@@6B@
       1121  460 001791E4 ??_7QTextCodecPlugin@@6BQObject@@@
       1122  461 001791D0 ??_7QTextCodecPlugin@@6BQTextCodecFactoryInterface@@@
       1123  462 00131560 ??_7QTextIStream@@6B@
       1124  463 00131568 ??_7QTextOStream@@6B@
       1125  464 00131558 ??_7QTextStream@@6B@
       1126  465 0013160C ??_7QThread@@6B@
       1127  466 00131640 ??_7QThreadPool@@6B@
       1128  467 00162948 ??_7QTimeLine@@6B@
       1129  468 00169B30 ??_7QTimer@@6B@
       1130  469 00172F94 ??_7QTimerEvent@@6B@
       1131  46A 001336EC ??_7QTranslator@@6B@
       1132  46B 00179310 ??_7QTsciiCodec@@6B@
       1133  46C 00169B60 ??_7QWinEventNotifier@@6B@
       1134  46D 00171C5C ??_7QWindowsPipeWriter@@6B@
       1135  46E 0017E054 ??_7QXmlStreamEntityResolver@@6B@
       1136  46F 00131684 ??_7ResultStoreBase@QtConcurrent@@6B@
       1137  470 0013171C ??_7ThreadEngineBase@QtConcurrent@@6B@
       1138  471 00131544 ??_7UnhandledException@QtConcurrent@@6B@
       1139  472 00012BF0 ??_FQAbstractEventDispatcher@@QAEXXZ
       1140  473 000D3DF0 ??_FQAbstractItemModel@@QAEXXZ
       1141  474 000D3E20 ??_FQAbstractListModel@@QAEXXZ
       1142  475 000D3E00 ??_FQAbstractTableModel@@QAEXXZ
       1143  476 00110B30 ??_FQAtomicInt@@QAEXXZ
       1144  477 0007A320 ??_FQBuffer@@QAEXXZ
       1145  478 0000F690 ??_FQDir@@QAEXXZ
       1146  479 000140C0 ??_FQEventDispatcherWin32@@QAEXXZ
       1147  47A 00113060 ??_FQEventLoop@@QAEXXZ
       1148  47B 000B1910 ??_FQFileSystemWatcher@@QAEXXZ
       1149  47C 00007CF0 ??_FQFutureInterfaceBase@@QAEXXZ
       1150  47D 00009A40 ??_FQFutureWatcherBase@@QAEXXZ
       1151  47E 001109B0 ??_FQGenericArgument@@QAEXXZ
       1152  47F 001109B0 ??_FQGenericReturnArgument@@QAEXXZ
       1153  480 000A4A20 ??_FQLibrary@@QAEXXZ
       1154  481 00001020 ??_FQMutex@@QAEXXZ
       1155  482 00012450 ??_FQMutexPool@@QAEXXZ
       1156  483 00112D80 ??_FQObject@@QAEXXZ
       1157  484 00001E00 ??_FQObjectPrivate@@QAEXXZ
       1158  485 000C6000 ??_FQPluginLoader@@QAEXXZ
       1159  486 0008DBF0 ??_FQProcess@@QAEXXZ
       1160  487 0007C7F0 ??_FQResource@@QAEXXZ
       1161  488 0007B7C0 ??_FQRingBuffer@@QAEXXZ
       1162  489 00012BC0 ??_FQSemaphore@@QAEXXZ
       1163  48A 0000ED50 ??_FQSettings@@QAEXXZ
       1164  48B 000F1B70 ??_FQSharedMemory@@QAEXXZ
       1165  48C 000E9250 ??_FQSignalMapper@@QAEXXZ
       1166  48D 000FA090 ??_FQTextCodecPlugin@@QAEXXZ
       1167  48E 00001C30 ??_FQThread@@QAEXXZ
       1168  48F 0000CF50 ??_FQThreadData@@QAEXXZ
       1169  490 00001CB0 ??_FQThreadPool@@QAEXXZ
       1170  491 0005BB90 ??_FQTimeLine@@QAEXXZ
       1171  492 0008AF70 ??_FQTimer@@QAEXXZ
       1172  493 00013FD0 ??_FQTranslator@@QAEXXZ
       1173  494 0008B000 ??_FQWinEventNotifier@@QAEXXZ
       1174  495 0005A5A0 ?QStringList_contains@QtPrivate@@YA?AVQBool@@PBVQStringList@@ABVQString@@W4CaseSensitivity@Qt@@@Z
       1175  496 0005AA70 ?QStringList_filter@QtPrivate@@YA?AVQStringList@@PBV2@ABVQRegExp@@@Z
       1176  497 0005A970 ?QStringList_filter@QtPrivate@@YA?AVQStringList@@PBV2@ABVQString@@W4CaseSensitivity@Qt@@@Z
       1177  498 0005A730 ?QStringList_indexOf@QtPrivate@@YAHPBVQStringList@@ABVQRegExp@@H@Z
       1178  499 0005A680 ?QStringList_join@QtPrivate@@YA?AVQString@@PBVQStringList@@ABV2@@Z
       1179  49A 0005A7B0 ?QStringList_lastIndexOf@QtPrivate@@YAHPBVQStringList@@ABVQRegExp@@H@Z
       1180  49B 0005AB90 ?QStringList_replaceInStrings@QtPrivate@@YAXPAVQStringList@@ABVQRegExp@@ABVQString@@@Z
       1181  49C 0005AB30 ?QStringList_replaceInStrings@QtPrivate@@YAXPAVQStringList@@ABVQString@@1W4CaseSensitivity@Qt@@@Z
       1182  49D 0005AC70 ?QStringList_sort@QtPrivate@@YAXPAVQStringList@@@Z
       1183  49E 001DDBF4 ?WindowsVersion@QSysInfo@@2W4WinVersion@1@B
       1184  49F 000E38D0 ?_q_reregisterTimers@QObjectPrivate@@QAEXPAX@Z
       1185  4A0 0010F720 ?aboutToBlock@QAbstractEventDispatcher@@IAEXXZ
       1186  4A1 0010EE80 ?aboutToClose@QIODevice@@IAEXXZ
       1187  4A2 0010FF90 ?aboutToQuit@QCoreApplication@@IAEXXZ
       1188  4A3 0000F5E0 ?absFilePath@QDir@@QBE?AVQString@@ABV2@_N@Z
       1189  4A4 0000F310 ?absFilePath@QFileInfo@@QBE?AVQString@@XZ
       1190  4A5 0000F5C0 ?absPath@QDir@@QBE?AVQString@@XZ
       1191  4A6 00088680 ?absoluteDir@QFileInfo@@QBE?AVQDir@@XZ
       1192  4A7 0007CBF0 ?absoluteFilePath@QDir@@QBE?AVQString@@ABV2@@Z
       1193  4A8 00087F70 ?absoluteFilePath@QFileInfo@@QBE?AVQString@@XZ
       1194  4A9 00095C70 ?absoluteFilePath@QResource@@QBE?AVQString@@XZ
       1195  4AA 00022AF0 ?absoluteMax@QDateTimeParser@@QBEHHABVQDateTime@@@Z
       1196  4AB 00022D10 ?absoluteMin@QDateTimeParser@@QBEHH@Z
       1197  4AC 0007F160 ?absolutePath@QDir@@QBE?AVQString@@XZ
       1198  4AD 00088010 ?absolutePath@QFileInfo@@QBE?AVQString@@XZ
       1199  4AE 0005B740 ?accept@QEvent@@QAEXXZ
       1200  4AF 000D9950 ?access@QMetaMethod@@QBE?AW4Access@1@XZ
       1201  4B0 00012890 ?acquire@QSemaphore@@QAEXH@Z
       1202  4B1 000F2A80 ?acquire@QSystemSemaphore@@QAE_NXZ
       1203  4B2 000E5630 ?activate@QMetaObject@@SAXPAVQObject@@HHPAPAX@Z
       1204  4B3 000E5990 ?activate@QMetaObject@@SAXPAVQObject@@HPAPAX@Z
       1205  4B4 000E5A30 ?activate@QMetaObject@@SAXPAVQObject@@PBU1@HHPAPAX@Z
       1206  4B5 000E59E0 ?activate@QMetaObject@@SAXPAVQObject@@PBU1@HPAPAX@Z
       1207  4B6 0000E610 ?activateCallbacks@QInternal@@SA_NW4Callback@1@PAPAX@Z
       1208  4B7 000F3670 ?activateEventNotifiers@QEventDispatcherWin32@@QAEXXZ
       1209  4B8 001102E0 ?activated@QSocketNotifier@@IAEXH@Z
       1210  4B9 00110840 ?activated@QWinEventNotifier@@IAEXPAX@Z
       1211  4BA 0000BB50 ?activeThreadCount@QThreadPool@@QBEHXZ
       1212  4BB 000E81D0 ?add@QObjectCleanupHandler@@QAEPAVQObject@@PAV2@@Z
       1213  4BC 000E5D80 ?addConnection@QObjectPrivate@@QAEXHPAUConnection@1@@Z
       1214  4BD 00044EB0 ?addCoords@QRect@@QAEXHHHH@Z
       1215  4BE 0001D720 ?addData@QCryptographicHash@@QAEXABVQByteArray@@@Z
       1216  4BF 0001D690 ?addData@QCryptographicHash@@QAEXPBDH@Z
       1217  4C0 000FE140 ?addData@QXmlStreamReader@@QAEXABVQByteArray@@@Z
       1218  4C1 000FE160 ?addData@QXmlStreamReader@@QAEXABVQString@@@Z
       1219  4C2 000FE200 ?addData@QXmlStreamReader@@QAEXPBD@Z
       1220  4C3 0001E020 ?addDays@QDate@@QBE?AV1@H@Z
       1221  4C4 000216A0 ?addDays@QDateTime@@QBE?AV1@H@Z
       1222  4C5 0009F5F0 ?addEncodedQueryItem@QUrl@@QAEXABVQByteArray@@0@Z
       1223  4C6 001045A0 ?addExtraNamespaceDeclaration@QXmlStreamReader@@QAEXABVQXmlStreamNamespaceDeclaration@@@Z
       1224  4C7 00104620 ?addExtraNamespaceDeclarations@QXmlStreamReader@@QAEXABV?$QVector@VQXmlStreamNamespaceDeclaration@@@@@Z
       1225  4C8 000E5180 ?addGuard@QMetaObject@@SAXPAPAVQObject@@@Z
       1226  4C9 000D83E0 ?addLibraryPath@QCoreApplication@@SAXABVQString@@@Z
       1227  4CA 00026650 ?addMSecs@QDateTime@@QBE?AV1@_J@Z
       1228  4CB 0001E210 ?addMSecs@QTime@@QBE?AV1@H@Z
       1229  4CC 000252C0 ?addMonths@QDate@@QBE?AV1@H@Z
       1230  4CD 000254B0 ?addMonths@QDateTime@@QBE?AV1@H@Z
       1231  4CE 000B3120 ?addPath@QFileSystemWatcher@@QAEXABVQString@@@Z
       1232  4CF 0009FEF0 ?addPath@QUrl@@QAEXABVQString@@@Z
       1233  4D0 000B24B0 ?addPaths@QFileSystemWatcher@@QAEXABVQStringList@@@Z
       1234  4D1 000D2F80 ?addPersistentIndexData@QAbstractItemModelPrivate@@QAEXPAVQPersistentModelIndexData@@@Z
       1235  4D2 0009F3F0 ?addQueryItem@QUrl@@QAEXABVQString@@0@Z
       1236  4D3 0007C600 ?addResourceSearchPath@QDir@@SAXABVQString@@@Z
       1237  4D4 0000A2A0 ?addResult@ResultStoreBase@QtConcurrent@@QAEHHPBX@Z
       1238  4D5 0000A2D0 ?addResults@ResultStoreBase@QtConcurrent@@QAEHHPBXHH@Z
       1239  4D6 00082250 ?addSearchPath@QDir@@SAXABVQString@@0@Z
       1240  4D7 00095D70 ?addSearchPath@QResource@@SAXABVQString@@@Z
       1241  4D8 00026610 ?addSecs@QDateTime@@QBE?AV1@H@Z
       1242  4D9 0001EDB0 ?addSecs@QTime@@QBE?AV1@H@Z
       1243  4DA 00025360 ?addYears@QDate@@QBE?AV1@H@Z
       1244  4DB 00025510 ?addYears@QDateTime@@QBE?AV1@H@Z
       1245  4DC 00112E30 ?added@QChildEvent@@QBE_NXZ
       1246  4DD 00044EB0 ?adjust@QRect@@QAEXHHHH@Z
       1247  4DE 00044700 ?adjust@QRectF@@QAEXNNNN@Z
       1248  4DF 00044090 ?adjusted@QRect@@QBE?AV1@HHHH@Z
       1249  4E0 00044740 ?adjusted@QRectF@@QBE?AV1@NNNN@Z
       1250  4E1 000FDB10 ?aliases@QTextCodec@@UBE?AV?$QList@VQByteArray@@@@XZ
       1251  4E2 000A1EA0 ?allEncodedQueryItemValues@QUrl@@QBE?AV?$QList@VQByteArray@@@@ABVQByteArray@@@Z
       1252  4E3 000AADA0 ?allKeys@QSettings@@QBE?AVQStringList@@XZ
       1253  4E4 000A1D80 ?allQueryItemValues@QUrl@@QBE?AVQStringList@@ABVQString@@@Z
       1254  4E5 000371E0 ?allocateNode@QHashData@@QAEPAXXZ
       1255  4E6 000383D0 ?angle@QLineF@@QBENABV1@@Z
       1256  4E7 00037FD0 ?angle@QLineF@@QBENXZ
       1257  4E8 000382E0 ?angleTo@QLineF@@QBENABV1@@Z
       1258  4E9 001DEDA8 ?appCmdShow@@3HA
       1259  4EA 001DECA0 ?appFileName@@3PADA
       1260  4EB 001DEDA0 ?appInst@@3PAUHINSTANCE__@@A
       1261  4EC 000F5B80 ?appName@QCoreApplicationPrivate@@UBE?AVQString@@XZ
       1262  4ED 001DEDA4 ?appPrevInst@@3PAUHINSTANCE__@@A
       1263  4EE 00005020 ?append@?$QVector@VQPoint@@@@QAEXABVQPoint@@@Z
       1264  4EF 00004CF0 ?append@?$QVector@VQPointF@@@@QAEXABVQPointF@@@Z
       1265  4F0 00105FE0 ?append@?$QVector@VQXmlStreamAttribute@@@@QAEXABVQXmlStreamAttribute@@@Z
       1266  4F1 00017930 ?append@QByteArray@@QAEAAV1@ABV1@@Z
       1267  4F2 001123F0 ?append@QByteArray@@QAEAAV1@ABVQString@@@Z
       1268  4F3 00017A80 ?append@QByteArray@@QAEAAV1@D@Z
       1269  4F4 00017A00 ?append@QByteArray@@QAEAAV1@PBD@Z
       1270  4F5 00038D10 ?append@QListData@@QAEPAPAXABU1@@Z
       1271  4F6 00038C70 ?append@QListData@@QAEPAPAXXZ
       1272  4F7 000525A0 ?append@QString@@QAEAAV1@ABV1@@Z
       1273  4F8 00113D50 ?append@QString@@QAEAAV1@ABVQByteArray@@@Z
       1274  4F9 00052650 ?append@QString@@QAEAAV1@ABVQLatin1String@@@Z
       1275  4FA 00056F00 ?append@QString@@QAEAAV1@ABVQStringRef@@@Z
       1276  4FB 00113CD0 ?append@QString@@QAEAAV1@PBD@Z
       1277  4FC 000526D0 ?append@QString@@QAEAAV1@VQChar@@@Z
       1278  4FD 00106C50 ?append@QXmlStreamAttributes@@QAEXABVQString@@00@Z
       1279  4FE 00106CD0 ?append@QXmlStreamAttributes@@QAEXABVQString@@0@Z
       1280  4FF 000D7BC0 ?appendApplicationPathToLibraryPaths@QCoreApplicationPrivate@@QAEXXZ
       1281  500 00056EA0 ?appendTo@QStringRef@@QBE?AV1@PAVQString@@@Z
       1282  501 000D5B70 ?applicationDirPath@QCoreApplication@@SA?AVQString@@XZ
       1283  502 000D4DF0 ?applicationFilePath@QCoreApplication@@SA?AVQString@@XZ
       1284  503 000D7F20 ?applicationName@QCoreApplication@@SA?AVQString@@XZ
       1285  504 000A5580 ?applicationName@QSettings@@QBE?AVQString@@XZ
       1286  505 000D4A50 ?applicationPid@QCoreApplication@@SA_JXZ
       1287  506 000D7F70 ?applicationVersion@QCoreApplication@@SA?AVQString@@XZ
       1288  507 00114B10 ?arg@QString@@QBE?AV1@ABV1@00000000@Z
       1289  508 00114AA0 ?arg@QString@@QBE?AV1@ABV1@0000000@Z
       1290  509 00114A40 ?arg@QString@@QBE?AV1@ABV1@000000@Z
       1291  50A 001149E0 ?arg@QString@@QBE?AV1@ABV1@00000@Z
       1292  50B 00114990 ?arg@QString@@QBE?AV1@ABV1@0000@Z
       1293  50C 00114940 ?arg@QString@@QBE?AV1@ABV1@000@Z
       1294  50D 00114900 ?arg@QString@@QBE?AV1@ABV1@00@Z
       1295  50E 001148C0 ?arg@QString@@QBE?AV1@ABV1@0@Z
       1296  50F 00055FE0 ?arg@QString@@QBE?AV1@ABV1@HABVQChar@@@Z
       1297  510 000567E0 ?arg@QString@@QBE?AV1@DHABVQChar@@@Z
       1298  511 00114840 ?arg@QString@@QBE?AV1@FHHABVQChar@@@Z
       1299  512 00114880 ?arg@QString@@QBE?AV1@GHHABVQChar@@@Z
       1300  513 00114800 ?arg@QString@@QBE?AV1@HHHABVQChar@@@Z
       1301  514 000C9AE0 ?arg@QString@@QBE?AV1@IHHABVQChar@@@Z
       1302  515 00114800 ?arg@QString@@QBE?AV1@JHHABVQChar@@@Z
       1303  516 000C9AE0 ?arg@QString@@QBE?AV1@KHHABVQChar@@@Z
       1304  517 000568C0 ?arg@QString@@QBE?AV1@NHDHABVQChar@@@Z
       1305  518 00056710 ?arg@QString@@QBE?AV1@VQChar@@HABV2@@Z
       1306  519 00056170 ?arg@QString@@QBE?AV1@_JHHABVQChar@@@Z
       1307  51A 00056440 ?arg@QString@@QBE?AV1@_KHHABVQChar@@@Z
       1308  51B 000D5190 ?argc@QCoreApplication@@SAHXZ
       1309  51C 00001E70 ?args@QMetaCallEvent@@QBEPAPAXXZ
       1310  51D 000D7420 ?arguments@QCoreApplication@@SA?AVQStringList@@XZ
       1311  51E 000D51C0 ?argv@QCoreApplication@@SAPAPADXZ
       1312  51F 001134E0 ?asBitArray@QVariant@@QAEAAVQBitArray@@XZ
       1313  520 001134B0 ?asBool@QVariant@@QAEAA_NXZ
       1314  521 001134D0 ?asByteArray@QVariant@@QAEAAVQByteArray@@XZ
       1315  522 001134D0 ?asCString@QVariant@@QAEAAVQByteArray@@XZ
       1316  523 00113510 ?asDate@QVariant@@QAEAAVQDate@@XZ
       1317  524 00113530 ?asDateTime@QVariant@@QAEAAVQDateTime@@XZ
       1318  525 001134C0 ?asDouble@QVariant@@QAEAANXZ
       1319  526 00113470 ?asInt@QVariant@@QAEAAHXZ
       1320  527 00113540 ?asList@QVariant@@QAEAAV?$QList@VQVariant@@@@XZ
       1321  528 00113490 ?asLongLong@QVariant@@QAEAA_JXZ
       1322  529 00113550 ?asMap@QVariant@@QAEAAV?$QMap@VQString@@VQVariant@@@@XZ
       1323  52A 00113560 ?asPoint@QVariant@@QAEAAVQPoint@@XZ
       1324  52B 00113570 ?asRect@QVariant@@QAEAAVQRect@@XZ
       1325  52C 00113580 ?asSize@QVariant@@QAEAAVQSize@@XZ
       1326  52D 001134F0 ?asString@QVariant@@QAEAAVQString@@XZ
       1327  52E 00113500 ?asStringList@QVariant@@QAEAAVQStringList@@XZ
       1328  52F 00113520 ?asTime@QVariant@@QAEAAVQTime@@XZ
       1329  530 00113480 ?asUInt@QVariant@@QAEAAIXZ
       1330  531 001134A0 ?asULongLong@QVariant@@QAEAA_KXZ
       1331  532 00110AE0 ?ascii@QChar@@QBE?BDXZ
       1332  533 00111D50 ?ascii@QCharRef@@QBE?BDXZ
       1333  534 00111290 ?ascii@QString@@QBEPBDXZ
       1334  535 00052740 ?ascii_helper@QString@@IBEPBDXZ
       1335  536 00002910 ?at@?$QVector@VQPoint@@@@QBEABVQPoint@@H@Z
       1336  537 000027F0 ?at@?$QVector@VQPointF@@@@QBEABVQPointF@@H@Z
       1337  538 000FE8E0 ?at@?$QVector@VQXmlStreamAttribute@@@@QBEABVQXmlStreamAttribute@@H@Z
       1338  539 00015A60 ?at@QBitArray@@QBE_NH@Z
       1339  53A 00110BB0 ?at@QByteArray@@QBE?BDH@Z
       1340  53B 00113260 ?at@QIODevice@@QAE_N_J@Z
       1341  53C 00113250 ?at@QIODevice@@QBE_JXZ
       1342  53D 00002C40 ?at@QListData@@QBEPAPAXH@Z
       1343  53E 001115C0 ?at@QString@@QBE?BVQChar@@H@Z
       1344  53F 0010DD90 ?at@QStringRef@@QBE?BVQChar@@H@Z
       1345  540 00078B10 ?atEnd@QAbstractFileEngine@@QBE_NXZ
       1346  541 0007A110 ?atEnd@QBuffer@@UBE_NXZ
       1347  542 0007B8C0 ?atEnd@QDataStream@@QBE_NXZ
       1348  543 00085800 ?atEnd@QFile@@UBE_NXZ
       1349  544 000893E0 ?atEnd@QIODevice@@UBE_NXZ
       1350  545 0008B150 ?atEnd@QProcess@@UBE_NXZ
       1351  546 0008E2F0 ?atEnd@QTextStream@@QBE_NXZ
       1352  547 000FE290 ?atEnd@QXmlStreamReader@@QBE_NXZ
       1353  548 000F2660 ?attach@QSharedMemory@@QAE_NW4AccessMode@1@@Z
       1354  549 001DEAB4 ?attribs@QCoreApplicationPrivate@@2IA
       1355  54A 000D9930 ?attributes@QMetaMethod@@QBEHXZ
       1356  54B 00108CF0 ?attributes@QXmlStreamReader@@QBE?AVQXmlStreamAttributes@@XZ
       1357  54C 000A3480 ?authority@QUrl@@QBE?AVQString@@XZ
       1358  54D 0008DE80 ?autoDetectUnicode@QTextStream@@QBE_NXZ
       1359  54E 000FE6B0 ?autoFormatting@QXmlStreamWriter@@QBE_NXZ
       1360  54F 000FE740 ?autoFormattingIndent@QXmlStreamWriter@@QBEHXZ
       1361  550 00091B50 ?autoRemove@QTemporaryFile@@QBE_NXZ
       1362  551 000129D0 ?available@QSemaphore@@QBEHXZ
       1363  552 000FBFD0 ?availableCodecs@QTextCodec@@SA?AV?$QList@VQByteArray@@@@XZ
       1364  553 000FC2D0 ?availableMibs@QTextCodec@@SA?AV?$QList@H@@XZ
       1365  554 0010F740 ?awake@QAbstractEventDispatcher@@IAEXXZ
       1366  555 00006530 ?back@?$QVector@VQPoint@@@@QAEAAVQPoint@@XZ
       1367  556 00002680 ?back@?$QVector@VQPoint@@@@QBEABVQPoint@@XZ
       1368  557 00006330 ?back@?$QVector@VQPointF@@@@QAEAAVQPointF@@XZ
       1369  558 00002630 ?back@?$QVector@VQPointF@@@@QBEABVQPointF@@XZ
       1370  559 00106F00 ?back@?$QVector@VQXmlStreamAttribute@@@@QAEAAVQXmlStreamAttribute@@XZ
       1371  55A 000FE810 ?back@?$QVector@VQXmlStreamAttribute@@@@QBEABVQXmlStreamAttribute@@XZ
       1372  55B 0000F2B0 ?baseName@QFileInfo@@QAE?AVQString@@_N@Z
       1373  55C 000881F0 ?baseName@QFileInfo@@QBE?AVQString@@XZ
       1374  55D 00009D00 ?batchSize@ResultIteratorBase@QtConcurrent@@QBEHXZ
       1375  55E 00009B80 ?batchedAdvance@ResultIteratorBase@QtConcurrent@@QAEXXZ
       1376  55F 00006570 ?begin@?$QVector@VQPoint@@@@QAEPAVQPoint@@XZ
       1377  560 00002620 ?begin@?$QVector@VQPoint@@@@QBEPBVQPoint@@XZ
       1378  561 000062B0 ?begin@?$QVector@VQPointF@@@@QAEPAVQPointF@@XZ
       1379  562 00002620 ?begin@?$QVector@VQPointF@@@@QBEPBVQPointF@@XZ
       1380  563 00106E60 ?begin@?$QVector@VQXmlStreamAttribute@@@@QAEPAVQXmlStreamAttribute@@XZ
       1381  564 00002620 ?begin@?$QVector@VQXmlStreamAttribute@@@@QBEPBVQXmlStreamAttribute@@XZ
       1382  565 00110D40 ?begin@QByteArray@@QAEPADXZ
       1383  566 00016B80 ?begin@QByteArray@@QBEPBDXZ
       1384  567 00002C50 ?begin@QListData@@QBEPAPAXXZ
       1385  568 0003E270 ?begin@QString@@QAEPAVQChar@@XZ
       1386  569 00016B80 ?begin@QString@@QBEPBVQChar@@XZ
       1387  56A 00009C90 ?begin@ResultStoreBase@QtConcurrent@@QBE?AVResultIteratorBase@2@XZ
       1388  56B 00078BA0 ?beginEntryList@QAbstractFileEngine@@UAEPAVQAbstractFileEngineIterator@@V?$QFlags@W4Filter@QDir@@@@ABVQStringList@@@Z
       1389  56C 000AFDF0 ?beginEntryList@QFSFileEngine@@UAEPAVQAbstractFileEngineIterator@@V?$QFlags@W4Filter@QDir@@@@ABVQStringList@@@Z
       1390  56D 000A9780 ?beginGroup@QSettings@@QAEXABVQString@@@Z
       1391  56E 000D1C50 ?beginInsertColumns@QAbstractItemModel@@IAEXABVQModelIndex@@HH@Z
       1392  56F 000D1AF0 ?beginInsertRows@QAbstractItemModel@@IAEXABVQModelIndex@@HH@Z
       1393  570 000A9840 ?beginReadArray@QSettings@@QAEHABVQString@@@Z
       1394  571 000D1D00 ?beginRemoveColumns@QAbstractItemModel@@IAEXABVQModelIndex@@HH@Z
       1395  572 000D1BA0 ?beginRemoveRows@QAbstractItemModel@@IAEXABVQModelIndex@@HH@Z
       1396  573 000A9990 ?beginWriteArray@QSettings@@QAEXABVQString@@H@Z
       1397  574 0008DD40 ?bin@@YAAAVQTextStream@@AAV1@@Z
       1398  575 000E16C0 ?blockSignals@QObject@@QAE_N_N@Z
       1399  576 0000ACA0 ?blockSize@BlockSizeManager@QtConcurrent@@QAEHXZ
       1400  577 0000AC90 ?blockSizeMaxed@BlockSizeManager@QtConcurrent@@AAE_NXZ
       1401  578 0008EC90 ?bom@@YAAAVQTextStream@@AAV1@@Z
       1402  579 000CCDB0 ?bottom@QRect@@QBEHXZ
       1403  57A 000441B0 ?bottom@QRectF@@QBENXZ
       1404  57B 00043D50 ?bottomLeft@QRect@@QBE?AVQPoint@@XZ
       1405  57C 00044220 ?bottomLeft@QRectF@@QBE?AVQPointF@@XZ
       1406  57D 00043D10 ?bottomRight@QRect@@QBE?AVQPoint@@XZ
       1407  57E 000441E0 ?bottomRight@QRectF@@QBE?AVQPointF@@XZ
       1408  57F 0005B300 ?boundaryReasons@QTextBoundaryFinder@@QBE?AV?$QFlags@W4BoundaryReason@QTextBoundaryFinder@@@@XZ
       1409  580 00044DE0 ?boundedTo@QSize@@QBE?AV1@ABV1@@Z
       1410  581 00044E50 ?boundedTo@QSizeF@@QBE?AV1@ABV1@@Z
       1411  582 000CD620 ?buddy@QAbstractItemModel@@UBE?AVQModelIndex@@ABV2@@Z
       1412  583 0007A0A0 ?buffer@QBuffer@@QAEAAVQByteArray@@XZ
       1413  584 0007A0A0 ?buffer@QBuffer@@QBEABVQByteArray@@XZ
       1414  585 0000FCB0 ?buildKey@QLibraryInfo@@SA?AVQString@@XZ
       1415  586 000881A0 ?bundleName@QFileInfo@@QBE?AVQString@@XZ
       1416  587 0005AD20 ?byteOrder@QDataStream@@QBE?AW4ByteOrder@1@XZ
       1417  588 0003E580 ?bytearrayToDouble@QLocalePrivate@@SANPBDPA_N1@Z
       1418  589 0003E690 ?bytearrayToLongLong@QLocalePrivate@@SA_JPBDHPA_N1@Z
       1419  58A 0003E720 ?bytearrayToUnsLongLong@QLocalePrivate@@SA_KPBDHPA_N@Z
       1420  58B 00089410 ?bytesAvailable@QIODevice@@UBE_JXZ
       1421  58C 0008B1A0 ?bytesAvailable@QProcess@@UBE_JXZ
       1422  58D 00078AE0 ?bytesToWrite@QIODevice@@UBE_JXZ
       1423  58E 0008B1E0 ?bytesToWrite@QProcess@@UBE_JXZ
       1424  58F 000B8AA0 ?bytesToWrite@QWindowsPipeWriter@@QBE_JXZ
       1425  590 0010EE50 ?bytesWritten@QIODevice@@IAEX_J@Z
       1426  591 00016860 ?c@QLocale@@SA?AV1@XZ
       1427  592 00086F10 ?caching@QFileInfo@@QBE_NXZ
       1428  593 0000D320 ?callFunction@QInternal@@SA_NW4InternalFunction@1@PAPAX@Z
       1429  594 000091F0 ?callOutInterfaceDisconnected@QFutureWatcherBasePrivate@@UAEXXZ
       1430  595 00113420 ?canCast@QVariant@@QBE_NW4Type@1@@Z
       1431  596 000EDE80 ?canConvert@QVariant@@QBE_NW4Type@1@@Z
       1432  597 000FADF0 ?canEncode@QTextCodec@@QBE_NABVQString@@@Z
       1433  598 000FAD30 ?canEncode@QTextCodec@@QBE_NVQChar@@@Z
       1434  599 00092C10 ?canFetchMore@QAbstractItemModel@@UBE_NABVQModelIndex@@@Z
       1435  59A 00009D30 ?canIncrementVectorIndex@ResultIteratorBase@QtConcurrent@@QBE_NXZ
       1436  59B 0007A120 ?canReadLine@QBuffer@@UBE_NXZ
       1437  59C 00089540 ?canReadLine@QIODevice@@UBE_NXZ
       1438  59D 0008BCF0 ?canReadLine@QProcess@@UBE_NXZ
       1439  59E 0007A9A0 ?canReadLine@QRingBuffer@@QBE_NXZ
       1440  59F 0010F2B0 ?canWrite@QWindowsPipeWriter@@IAEXXZ
       1441  5A0 00005760 ?cancel@QFutureInterfaceBase@@QAEXXZ
       1442  5A1 00009000 ?cancel@QFutureWatcherBase@@QAEXXZ
       1443  5A2 0010E2E0 ?canceled@QFutureWatcherBase@@IAEXXZ
       1444  5A3 00087FC0 ?canonicalFilePath@QFileInfo@@QBE?AVQString@@XZ
       1445  5A4 0007F280 ?canonicalPath@QDir@@QBE?AVQString@@XZ
       1446  5A5 00088060 ?canonicalPath@QFileInfo@@QBE?AVQString@@XZ
       1447  5A6 0004E040 ?cap@QRegExp@@QAE?AVQString@@H@Z
       1448  5A7 00002600 ?capacity@?$QVector@VQPoint@@@@QBEHXZ
       1449  5A8 00002600 ?capacity@?$QVector@VQPointF@@@@QBEHXZ
       1450  5A9 00002600 ?capacity@?$QVector@VQXmlStreamAttribute@@@@QBEHXZ
       1451  5AA 00002600 ?capacity@QByteArray@@QBEHXZ
       1452  5AB 00002600 ?capacity@QString@@QBEHXZ
       1453  5AC 0004DEC0 ?capturedTexts@QRegExp@@QAE?AVQStringList@@XZ
       1454  5AD 0000A400 ?caseSensitive@QAbstractFileEngine@@UBE_NXZ
       1455  5AE 0000A400 ?caseSensitive@QFSFileEngine@@UBE_NXZ
       1456  5AF 001135D0 ?caseSensitive@QRegExp@@QBE_NXZ
       1457  5B0 00016B80 ?caseSensitivity@QRegExp@@QBE?AW4CaseSensitivity@Qt@@XZ
       1458  5B1 0008AF30 ?caseSensitivity@QStringMatcher@@QBE?AW4CaseSensitivity@Qt@@XZ
       1459  5B2 000D9050 ?cast@QMetaObject@@QBEPAVQObject@@PAV2@@Z
       1460  5B3 00113430 ?cast@QVariant@@QAE_NW4Type@1@@Z
       1461  5B4 000EE470 ?castOrDetach@QVariant@@IAEPAXW4Type@1@@Z
       1462  5B5 0004EB90 ?category@QChar@@QBE?AW4Category@1@XZ
       1463  5B6 0004EBE0 ?category@QChar@@SA?AW4Category@1@G@Z
       1464  5B7 0004EBC0 ?category@QChar@@SA?AW4Category@1@I@Z
       1465  5B8 00111A70 ?category@QCharRef@@QBE?AW4Category@QChar@@XZ
       1466  5B9 00081AA0 ?cd@QDir@@QAE_NABVQString@@@Z
       1467  5BA 00081D90 ?cdUp@QDir@@QAE_NXZ
       1468  5BB 000A4650 ?cdUp@QUrl@@QAE_NXZ
       1469  5BC 0004E790 ?cell@QChar@@QBEEXZ
       1470  5BD 00111C90 ?cell@QCharRef@@QBEEXZ
       1471  5BE 0008DE40 ?center@@YAAAVQTextStream@@AAV1@@Z
       1472  5BF 00043D70 ?center@QRect@@QBE?AVQPoint@@XZ
       1473  5C0 00044480 ?center@QRectF@@QBE?AVQPointF@@XZ
       1474  5C1 001DEDE4 ?cftr@QTextCodec@@0PAV1@A
       1475  5C2 000E5330 ?changeGuard@QMetaObject@@SAXPAPAVQObject@@PAV2@@Z
       1476  5C3 0008AF50 ?changeInterval@QTimer@@QAEXH@Z
       1477  5C4 000D0170 ?changePersistentIndex@QAbstractItemModel@@IAEXABVQModelIndex@@0@Z
       1478  5C5 000D02F0 ?changePersistentIndexList@QAbstractItemModel@@IAEXABV?$QList@VQModelIndex@@@@0@Z
       1479  5C6 000FE3B0 ?characterOffset@QXmlStreamReader@@QBE_JXZ
       1480  5C7 000D9760 ?checkConnectArgs@QMetaObject@@SA_NPBD0@Z
       1481  5C8 00112D30 ?checkConnectArgs@QObject@@IAE_NPBDPBV1@0@Z
       1482  5C9 000D4910 ?checkInstance@QCoreApplicationPrivate@@SA_NPBD@Z
       1483  5CA 00026680 ?checkIntermediate@QDateTimeParser@@QBE?AW4State@1@ABVQDateTime@@ABVQString@@@Z
       1484  5CB 000CCDB0 ?child@QChildEvent@@QBEPAVQObject@@XZ
       1485  5CC 000CD100 ?child@QModelIndex@@QBE?AV1@HH@Z
       1486  5CD 000E2070 ?child@QObject@@QBEPAV1@PBD0_N@Z
       1487  5CE 000CD4D0 ?child@QPersistentModelIndex@@QBE?AVQModelIndex@@HH@Z
       1488  5CF 00111D90 ?childEvent@QObject@@MAEXPAVQChildEvent@@@Z
       1489  5D0 000AAE00 ?childGroups@QSettings@@QBE?AVQStringList@@XZ
       1490  5D1 000AADD0 ?childKeys@QSettings@@QBE?AVQStringList@@XZ
       1491  5D2 00029080 ?children@QObject@@QBEABV?$QList@PAVQObject@@@@XZ
       1492  5D3 00095D30 ?children@QResource@@IBE?AVQStringList@@XZ
       1493  5D4 00019F10 ?chop@QByteArray@@QAEXH@Z
       1494  5D5 0007ADA0 ?chop@QRingBuffer@@QAEXH@Z
       1495  5D6 00054C20 ?chop@QString@@QAEXH@Z
       1496  5D7 000D96F0 ?classInfo@QMetaObject@@QBE?AVQMetaClassInfo@@H@Z
       1497  5D8 000D9160 ?classInfoCount@QMetaObject@@QBEHXZ
       1498  5D9 000D90E0 ?classInfoOffset@QMetaObject@@QBEHXZ
       1499  5DA 00001CA0 ?className@QMetaObject@@QBEPBDXZ
       1500  5DB 00112B90 ?className@QObject@@QBEPBDXZ
       1501  5DC 0000F660 ?cleanDirPath@QDir@@SA?AVQString@@ABV2@@Z
       1502  5DD 0007E990 ?cleanPath@QDir@@SA?AVQString@@ABV2@@Z
       1503  5DE 00012CF0 ?cleanup@QThread@@CAXXZ
       1504  5DF 00006AE0 ?clear@?$QVector@VQPoint@@@@QAEXXZ
       1505  5E0 000066C0 ?clear@?$QVector@VQPointF@@@@QAEXXZ
       1506  5E1 00107060 ?clear@?$QVector@VQXmlStreamAttribute@@@@QAEXXZ
       1507  5E2 000158F0 ?clear@QBitArray@@QAEXXZ
       1508  5E3 00016EA0 ?clear@QByteArray@@QAEXXZ
       1509  5E4 000E0B60 ?clear@QMimeData@@QAEXXZ
       1510  5E5 000E82C0 ?clear@QObjectCleanupHandler@@QAEXXZ
       1511  5E6 0007B4C0 ?clear@QRingBuffer@@QAEXXZ
       1512  5E7 000A5520 ?clear@QSettings@@QAEXXZ
       1513  5E8 0001F770 ?clear@QString@@QAEXXZ
       1514  5E9 000FE770 ?clear@QStringRef@@QAEXXZ
       1515  5EA 0009E880 ?clear@QUrl@@QAEXXZ
       1516  5EB 000EB390 ?clear@QVariant@@QAEXXZ
       1517  5EC 00109770 ?clear@QXmlStreamReader@@QAEXXZ
       1518  5ED 00102080 ?clear@QXmlStreamStringRef@@QAEXXZ
       1519  5EE 000165B0 ?clearBit@QBitArray@@QAEXH@Z
       1520  5EF 000AD030 ?clearCache@QConfFile@@SAXXZ
       1521  5F0 000E5450 ?clearGuards@QObjectPrivate@@SAXPAVQObject@@@Z
       1522  5F1 0000B620 ?clone@Exception@QtConcurrent@@UBEPAV12@XZ
       1523  5F2 0000B700 ?clone@UnhandledException@QtConcurrent@@UBEPAVException@2@XZ
       1524  5F3 0000A400 ?close@QAbstractFileEngine@@UAE_NXZ
       1525  5F4 0007A0F0 ?close@QBuffer@@UAEXXZ
       1526  5F5 000AF3E0 ?close@QFSFileEngine@@UAE_NXZ
       1527  5F6 000855B0 ?close@QFile@@UAEXXZ
       1528  5F7 00089D60 ?close@QIODevice@@UAEXXZ
       1529  5F8 0008C070 ?close@QProcess@@UAEXXZ
       1530  5F9 0008B0E0 ?closeReadChannel@QProcess@@QAEXW4ProcessChannel@1@@Z
       1531  5FA 0008B100 ?closeWriteChannel@QProcess@@QAEXXZ
       1532  5FB 000D8AA0 ?closingDown@QAbstractEventDispatcher@@UAEXXZ
       1533  5FC 000D4A40 ?closingDown@QCoreApplication@@SA_NXZ
       1534  5FD 000F4D20 ?closingDown@QEventDispatcherWin32@@UAEXXZ
       1535  5FE 000EE220 ?cmp@QVariant@@IBE_NABV1@@Z
       1536  5FF 0008DE60 ?codec@QTextStream@@QBEPAVQTextCodec@@XZ
       1537  600 000FE680 ?codec@QXmlStreamWriter@@QBEPAVQTextCodec@@XZ
       1538  601 001DE708 ?codecForCStrings@QString@@0PAVQTextCodec@@A
       1539  602 00050890 ?codecForCStrings@QTextCodec@@SAPAV1@XZ
       1540  603 001136D0 ?codecForContent@QTextCodec@@SAPAV1@PBDH@Z
       1541  604 000FC6E0 ?codecForHtml@QTextCodec@@SAPAV1@ABVQByteArray@@@Z
       1542  605 000FC550 ?codecForHtml@QTextCodec@@SAPAV1@ABVQByteArray@@PAV1@@Z
       1543  606 00114DD0 ?codecForIndex@QTextCodec@@SAPAV1@H@Z
       1544  607 000FC530 ?codecForLocale@QTextCodec@@SAPAV1@XZ
       1545  608 000FBF60 ?codecForMib@QTextCodec@@SAPAV1@H@Z
       1546  609 000FBD60 ?codecForName@QTextCodec@@SAPAV1@ABVQByteArray@@@Z
       1547  60A 0008DF20 ?codecForName@QTextCodec@@SAPAV1@PBD@Z
       1548  60B 001136E0 ?codecForName@QTextCodec@@SAPAV1@PBDH@Z
       1549  60C 000D4A90 ?codecForTr@QTextCodec@@SAPAV1@XZ
       1550  60D 000E0990 ?colorData@QMimeData@@QBE?AVQVariant@@XZ
       1551  60E 00001CA0 ?column@QModelIndex@@QBEHXZ
       1552  60F 000CD410 ?column@QPersistentModelIndex@@QBEHXZ
       1553  610 000CD700 ?columnCount@QAbstractListModel@@EBEHABVQModelIndex@@@Z
       1554  611 000FE390 ?columnNumber@QXmlStreamReader@@QBE_JXZ
       1555  612 0010F9E0 ?columnsAboutToBeInserted@QAbstractItemModel@@AAEXABVQModelIndex@@HH@Z
       1556  613 000D0F00 ?columnsAboutToBeInserted@QAbstractItemModelPrivate@@QAEXABVQModelIndex@@HH@Z
       1557  614 0010FA60 ?columnsAboutToBeRemoved@QAbstractItemModel@@AAEXABVQModelIndex@@HH@Z
       1558  615 000D1080 ?columnsAboutToBeRemoved@QAbstractItemModelPrivate@@QAEXABVQModelIndex@@HH@Z
       1559  616 0010FA20 ?columnsInserted@QAbstractItemModel@@AAEXABVQModelIndex@@HH@Z
       1560  617 000D35F0 ?columnsInserted@QAbstractItemModelPrivate@@QAEXABVQModelIndex@@HH@Z
       1561  618 0010FAA0 ?columnsRemoved@QAbstractItemModel@@AAEXABVQModelIndex@@HH@Z
       1562  619 000D3760 ?columnsRemoved@QAbstractItemModelPrivate@@QAEXABVQModelIndex@@HH@Z
       1563  61A 0004EF70 ?combiningClass@QChar@@QBEEXZ
       1564  61B 0004EFC0 ?combiningClass@QChar@@SAEG@Z
       1565  61C 0004EFA0 ?combiningClass@QChar@@SAEI@Z
       1566  61D 00111BF0 ?combiningClass@QCharRef@@QBEEXZ
       1567  61E 00051AB0 ?compare@QString@@QBEHABV1@@Z
       1568  61F 00051AE0 ?compare@QString@@QBEHABV1@W4CaseSensitivity@Qt@@@Z
       1569  620 00051B30 ?compare@QString@@QBEHABVQLatin1String@@W4CaseSensitivity@Qt@@@Z
       1570  621 00111070 ?compare@QString@@SAHABV1@0@Z
       1571  622 00111080 ?compare@QString@@SAHABV1@0W4CaseSensitivity@Qt@@@Z
       1572  623 001110A0 ?compare@QString@@SAHABV1@ABVQLatin1String@@W4CaseSensitivity@Qt@@@Z
       1573  624 001110C0 ?compare@QString@@SAHABVQLatin1String@@ABV1@W4CaseSensitivity@Qt@@@Z
       1574  625 000882D0 ?completeBaseName@QFileInfo@@QBE?AVQString@@XZ
       1575  626 000883F0 ?completeSuffix@QFileInfo@@QBE?AVQString@@XZ
       1576  627 000D5590 ?compressEvent@QCoreApplication@@MAE_NPAVQEvent@@PAVQObject@@PAVQPostEventList@@@Z
       1577  628 000E5FC0 ?connect@QMetaObject@@SA_NPBVQObject@@H0HHPAH@Z
       1578  629 000B1070 ?connect@QObject@@QBE_NPBV1@PBD1W4ConnectionType@Qt@@@Z
       1579  62A 000E6DA0 ?connect@QObject@@SA_NPBV1@PBD01W4ConnectionType@Qt@@@Z
       1580  62B 00009160 ?connectNotify@QFutureWatcherBase@@MAEXPBD@Z
       1581  62C 00111D90 ?connectNotify@QObject@@MAEXPBD@Z
       1582  62D 000091C0 ?connectOutputInterface@QFutureWatcherBase@@IAEXXZ
       1583  62E 000E6560 ?connectSlotsByName@QMetaObject@@SAXPAVQObject@@@Z
       1584  62F 00002620 ?constBegin@?$QVector@VQPoint@@@@QBEPBVQPoint@@XZ
       1585  630 00002620 ?constBegin@?$QVector@VQPointF@@@@QBEPBVQPointF@@XZ
       1586  631 00002620 ?constBegin@?$QVector@VQXmlStreamAttribute@@@@QBEPBVQXmlStreamAttribute@@XZ
       1587  632 00016B80 ?constBegin@QByteArray@@QBEPBDXZ
       1588  633 00016B80 ?constBegin@QString@@QBEPBVQChar@@XZ
       1589  634 00002620 ?constData@?$QVector@VQPoint@@@@QBEPBVQPoint@@XZ
       1590  635 00002620 ?constData@?$QVector@VQPointF@@@@QBEPBVQPointF@@XZ
       1591  636 00002620 ?constData@?$QVector@VQXmlStreamAttribute@@@@QBEPBVQXmlStreamAttribute@@XZ
       1592  637 00016B80 ?constData@QByteArray@@QBEPBDXZ
       1593  638 000F1A80 ?constData@QSharedMemory@@QBEPBXXZ
       1594  639 00016B80 ?constData@QString@@QBEPBVQChar@@XZ
       1595  63A 00112A10 ?constData@QStringRef@@QBEPBVQChar@@XZ
       1596  63B 000EB4E0 ?constData@QVariant@@QBEPBXXZ
       1597  63C 00002670 ?constEnd@?$QVector@VQPoint@@@@QBEPBVQPoint@@XZ
       1598  63D 00002610 ?constEnd@?$QVector@VQPointF@@@@QBEPBVQPointF@@XZ
       1599  63E 000FE7F0 ?constEnd@?$QVector@VQXmlStreamAttribute@@@@QBEPBVQXmlStreamAttribute@@XZ
       1600  63F 00110DB0 ?constEnd@QByteArray@@QBEPBDXZ
       1601  640 00111DE0 ?constEnd@QString@@QBEPBVQChar@@XZ
       1602  641 001115C0 ?constref@QString@@QBE?AVQChar@@I@Z
       1603  642 000DDAD0 ?construct@QMetaType@@SAPAXHPBX@Z
       1604  643 00002980 ?contains@?$QVector@VQPoint@@@@QBE_NABVQPoint@@@Z
       1605  644 00004410 ?contains@?$QVector@VQPointF@@@@QBE_NABVQPointF@@@Z
       1606  645 00101C70 ?contains@?$QVector@VQXmlStreamAttribute@@@@QBE_NABVQXmlStreamAttribute@@@Z
       1607  646 00096D10 ?contains@QByteArray@@QBE?AVQBool@@ABV1@@Z
       1608  647 00096D30 ?contains@QByteArray@@QBE?AVQBool@@D@Z
       1609  648 00097070 ?contains@QByteArray@@QBE?AVQBool@@PBD@Z
       1610  649 000449E0 ?contains@QRect@@QBE_NABV1@_N@Z
       1611  64A 00044980 ?contains@QRect@@QBE_NABVQPoint@@_N@Z
       1612  64B 00044F00 ?contains@QRect@@QBE_NHH@Z
       1613  64C 00044ED0 ?contains@QRect@@QBE_NHH_N@Z
       1614  64D 00044B90 ?contains@QRectF@@QBE_NABV1@@Z
       1615  64E 00044B00 ?contains@QRectF@@QBE_NABVQPointF@@@Z
       1616  64F 00044F60 ?contains@QRectF@@QBE_NNN@Z
       1617  650 000A7E70 ?contains@QSettings@@QBE_NABVQString@@@Z
       1618  651 00091C50 ?contains@QString@@QBE?AVQBool@@ABV1@W4CaseSensitivity@Qt@@@Z
       1619  652 00114230 ?contains@QString@@QBE?AVQBool@@ABV1@_N@Z
       1620  653 0005A580 ?contains@QString@@QBE?AVQBool@@ABVQRegExp@@@Z
       1621  654 0001E5A0 ?contains@QString@@QBE?AVQBool@@VQChar@@W4CaseSensitivity@Qt@@@Z
       1622  655 00114200 ?contains@QString@@QBE?AVQBool@@VQChar@@_N@Z
       1623  656 00009E20 ?contains@ResultStoreBase@QtConcurrent@@QBE_NH@Z
       1624  657 000437E0 ?continueFreeData@QMapData@@QAEXH@Z
       1625  658 000EE090 ?convert@QVariant@@QAE_NW4Type@1@@Z
       1626  659 000FC810 ?convertFromUnicode@QTsciiCodec@@UBE?AVQByteArray@@PBVQChar@@HPAUConverterState@QTextCodec@@@Z
       1627  65A 0007DDF0 ?convertSeparators@QDir@@SA?AVQString@@ABV2@@Z
       1628  65B 0000E850 ?convertToAbs@QDir@@QAEXXZ
       1629  65C 0000E7D0 ?convertToAbs@QFileInfo@@QAE_NXZ
       1630  65D 000FC9A0 ?convertToUnicode@QTsciiCodec@@UBE?AVQString@@PBDHPAUConverterState@QTextCodec@@@Z
       1631  65E 00044040 ?coords@QRect@@QBEXPAH000@Z
       1632  65F 00092C10 ?copy@QAbstractFileEngine@@UAE_NABVQString@@@Z
       1633  660 000BF350 ?copy@QFSFileEngine@@UAE_NABVQString@@@Z
       1634  661 00086830 ?copy@QFile@@QAE_NABVQString@@@Z
       1635  662 00086DF0 ?copy@QFile@@SA_NABVQString@@0@Z
       1636  663 000A5930 ?copy@QString@@QBE?AV1@XZ
       1637  664 000029C0 ?count@?$QVector@VQPoint@@@@QBEHABVQPoint@@@Z
       1638  665 000025E0 ?count@?$QVector@VQPoint@@@@QBEHXZ
       1639  666 000044F0 ?count@?$QVector@VQPointF@@@@QBEHABVQPointF@@@Z
       1640  667 000025E0 ?count@?$QVector@VQPointF@@@@QBEHXZ
       1641  668 00101CC0 ?count@?$QVector@VQXmlStreamAttribute@@@@QBEHABVQXmlStreamAttribute@@@Z
       1642  669 000025E0 ?count@?$QVector@VQXmlStreamAttribute@@@@QBEHXZ
       1643  66A 000159F0 ?count@QBitArray@@QBEHXZ
       1644  66B 00015C00 ?count@QBitArray@@QBEH_N@Z
       1645  66C 00018D40 ?count@QByteArray@@QBEHABV1@@Z
       1646  66D 00016B90 ?count@QByteArray@@QBEHD@Z
       1647  66E 0001A650 ?count@QByteArray@@QBEHPBD@Z
       1648  66F 000025E0 ?count@QByteArray@@QBEHXZ
       1649  670 0007E7C0 ?count@QDir@@QBEIXZ
       1650  671 00053FC0 ?count@QString@@QBEHABV1@W4CaseSensitivity@Qt@@@Z
       1651  672 000511D0 ?count@QString@@QBEHABVQRegExp@@@Z
       1652  673 0004FDC0 ?count@QString@@QBEHVQChar@@W4CaseSensitivity@Qt@@@Z
       1653  674 000025E0 ?count@QString@@QBEHXZ
       1654  675 0008AF30 ?count@QStringRef@@QBEHXZ
       1655  676 000CCDB0 ?count@ResultStoreBase@QtConcurrent@@QBEHXZ
       1656  677 00043170 ?countriesForLanguage@QLocale@@SA?AV?$QList@W4Country@QLocale@@@@W4Language@1@@Z
       1657  678 000391B0 ?country@QLocale@@QBE?AW4Country@1@XZ
       1658  679 00001CA0 ?countryId@QLocalePrivate@@QBEIXZ
       1659  67A 0003DCE0 ?countryToString@QLocale@@SA?AVQString@@W4Country@1@@Z
       1660  67B 00079400 ?create@QAbstractFileEngine@@SAPAV1@ABVQString@@@Z
       1661  67C 000D3F20 ?create@QPersistentModelIndexData@@SAPAV1@ABVQModelIndex@@@Z
       1662  67D 000F2440 ?create@QSharedMemory@@QAE_NHW4AccessMode@1@@Z
       1663  67E 000FDC40 ?create@QTextCodecPlugin@@EAEPAVQTextCodec@@ABVQString@@@Z
       1664  67F 000EB2F0 ?create@QVariant@@IAEXHPBX@Z
       1665  680 00043940 ?createData@QMapData@@SAPAU1@XZ
       1666  681 000D4980 ?createEventDispatcher@QCoreApplicationPrivate@@UAEXXZ
       1667  682 000CD9E0 ?createIndex@QAbstractItemModel@@IBE?AVQModelIndex@@HHH@Z
       1668  683 000CD9E0 ?createIndex@QAbstractItemModel@@IBE?AVQModelIndex@@HHI@Z
       1669  684 000CD9E0 ?createIndex@QAbstractItemModel@@IBE?AVQModelIndex@@HHPAX@Z
       1670  685 000CDCB0 ?createIndex@QAbstractItemModelPrivate@@QBE?AVQModelIndex@@HHH@Z
       1671  686 000CDCB0 ?createIndex@QAbstractItemModelPrivate@@QBE?AVQModelIndex@@HHPAX@Z
       1672  687 000F5000 ?createInternalHwnd@QEventDispatcherWin32@@AAEXXZ
       1673  688 00092760 ?createLocalFile@QTemporaryFile@@SAPAV1@AAVQFile@@@Z
       1674  689 000867C0 ?createLocalFile@QTemporaryFile@@SAPAV1@ABVQString@@@Z
       1675  68A 000C8DA0 ?createUuid@QUuid@@SA?AU1@XZ
       1676  68B 00087430 ?created@QFileInfo@@QBE?AVQDateTime@@XZ
       1677  68C 0000F380 ?current@QDir@@SA?AV1@XZ
       1678  68D 000150B0 ?current@QThreadData@@SAPAV1@XZ
       1679  68E 00002300 ?currentDate@QDate@@SA?AV1@W4TimeSpec@Qt@@@Z
       1680  68F 0001E060 ?currentDate@QDate@@SA?AV1@XZ
       1681  690 00002260 ?currentDateTime@QDateTime@@SA?AV1@W4TimeSpec@Qt@@@Z
       1682  691 00021710 ?currentDateTime@QDateTime@@SA?AV1@XZ
       1683  692 0000F600 ?currentDirPath@QDir@@SA?AVQString@@XZ
       1684  693 00078F60 ?currentFileInfo@QAbstractFileEngineIterator@@UBE?AVQFileInfo@@XZ
       1685  694 00078E70 ?currentFilePath@QAbstractFileEngineIterator@@QBE?AVQString@@XZ
       1686  695 0005B9F0 ?currentFrame@QTimeLine@@QBEHXZ
       1687  696 0007D560 ?currentPath@QDir@@SA?AVQString@@XZ
       1688  697 000BC880 ?currentPath@QFSFileEngine@@SA?AVQString@@ABV2@@Z
       1689  698 00012C90 ?currentThread@QThread@@SAPAV1@XZ
       1690  699 00013F20 ?currentThreadId@QThread@@SAPAXXZ
       1691  69A 000023B0 ?currentTime@QTime@@SA?AV1@W4TimeSpec@Qt@@@Z
       1692  69B 0001E2C0 ?currentTime@QTime@@SA?AV1@XZ
       1693  69C 0005B570 ?currentTime@QTimeLine@@QBEHXZ
       1694  69D 0005B580 ?currentValue@QTimeLine@@QBENXZ
       1695  69E 0001DB90 ?cursorPosition@QDateTimeParser@@UBEHXZ
       1696  69F 0005B550 ?curveShape@QTimeLine@@QBE?AW4CurveShape@1@XZ
       1697  6A0 00111D90 ?customEvent@QObject@@MAEXPAVQEvent@@@Z
       1698  6A1 00039140 ?d@QLocale@@ABEPBUQLocalePrivate@@XZ
       1699  6A2 00001CA0 ?d_func@QAbstractEventDispatcher@@AAEPAVQAbstractEventDispatcherPrivate@@XZ
       1700  6A3 00001CA0 ?d_func@QAbstractEventDispatcher@@ABEPBVQAbstractEventDispatcherPrivate@@XZ
       1701  6A4 00001CA0 ?d_func@QAbstractFileEngine@@AAEPAVQAbstractFileEnginePrivate@@XZ
       1702  6A5 00001CA0 ?d_func@QAbstractFileEngine@@ABEPBVQAbstractFileEnginePrivate@@XZ
       1703  6A6 00001CA0 ?d_func@QAbstractItemModel@@AAEPAVQAbstractItemModelPrivate@@XZ
       1704  6A7 00001CA0 ?d_func@QAbstractItemModel@@ABEPBVQAbstractItemModelPrivate@@XZ
       1705  6A8 00001CA0 ?d_func@QBuffer@@AAEPAVQBufferPrivate@@XZ
       1706  6A9 00001CA0 ?d_func@QBuffer@@ABEPBVQBufferPrivate@@XZ
       1707  6AA 00001CA0 ?d_func@QCoreApplication@@AAEPAVQCoreApplicationPrivate@@XZ
       1708  6AB 00001CA0 ?d_func@QCoreApplication@@ABEPBVQCoreApplicationPrivate@@XZ
       1709  6AC 00037680 ?d_func@QDir@@AAEPAVQDirPrivate@@XZ
       1710  6AD 00037680 ?d_func@QDir@@ABEPBVQDirPrivate@@XZ
       1711  6AE 00001CA0 ?d_func@QEventDispatcherWin32@@AAEPAVQEventDispatcherWin32Private@@XZ
       1712  6AF 00001CA0 ?d_func@QEventDispatcherWin32@@ABEPBVQEventDispatcherWin32Private@@XZ
       1713  6B0 00001CA0 ?d_func@QEventLoop@@AAEPAVQEventLoopPrivate@@XZ
       1714  6B1 00001CA0 ?d_func@QEventLoop@@ABEPBVQEventLoopPrivate@@XZ
       1715  6B2 00001CA0 ?d_func@QFSFileEngine@@AAEPAVQFSFileEnginePrivate@@XZ
       1716  6B3 00001CA0 ?d_func@QFSFileEngine@@ABEPBVQFSFileEnginePrivate@@XZ
       1717  6B4 00001CA0 ?d_func@QFactoryLoader@@AAEPAVQFactoryLoaderPrivate@@XZ
       1718  6B5 00001CA0 ?d_func@QFactoryLoader@@ABEPBVQFactoryLoaderPrivate@@XZ
       1719  6B6 00001CA0 ?d_func@QFile@@AAEPAVQFilePrivate@@XZ
       1720  6B7 00001CA0 ?d_func@QFile@@ABEPBVQFilePrivate@@XZ
       1721  6B8 00037680 ?d_func@QFileInfo@@AAEPAVQFileInfoPrivate@@XZ
       1722  6B9 00037680 ?d_func@QFileInfo@@ABEPBVQFileInfoPrivate@@XZ
       1723  6BA 00001CA0 ?d_func@QFileSystemWatcher@@AAEPAVQFileSystemWatcherPrivate@@XZ
       1724  6BB 00001CA0 ?d_func@QFileSystemWatcher@@ABEPBVQFileSystemWatcherPrivate@@XZ
       1725  6BC 00001CA0 ?d_func@QFutureWatcherBase@@AAEPAVQFutureWatcherBasePrivate@@XZ
       1726  6BD 00001CA0 ?d_func@QFutureWatcherBase@@ABEPBVQFutureWatcherBasePrivate@@XZ
       1727  6BE 00001CA0 ?d_func@QIODevice@@AAEPAVQIODevicePrivate@@XZ
       1728  6BF 00001CA0 ?d_func@QIODevice@@ABEPBVQIODevicePrivate@@XZ
       1729  6C0 00001CA0 ?d_func@QMimeData@@AAEPAVQMimeDataPrivate@@XZ
       1730  6C1 00001CA0 ?d_func@QMimeData@@ABEPBVQMimeDataPrivate@@XZ
       1731  6C2 00001CA0 ?d_func@QObject@@AAEPAVQObjectPrivate@@XZ
       1732  6C3 00001CA0 ?d_func@QObject@@ABEPBVQObjectPrivate@@XZ
       1733  6C4 00001CA0 ?d_func@QProcess@@AAEPAVQProcessPrivate@@XZ
       1734  6C5 00001CA0 ?d_func@QProcess@@ABEPBVQProcessPrivate@@XZ
       1735  6C6 00037680 ?d_func@QResource@@AAEPAVQResourcePrivate@@XZ
       1736  6C7 00037680 ?d_func@QResource@@ABEPBVQResourcePrivate@@XZ
       1737  6C8 00001CA0 ?d_func@QSettings@@AAEPAVQSettingsPrivate@@XZ
       1738  6C9 00001CA0 ?d_func@QSettings@@ABEPBVQSettingsPrivate@@XZ
       1739  6CA 00001CA0 ?d_func@QSharedMemory@@AAEPAVQSharedMemoryPrivate@@XZ
       1740  6CB 00001CA0 ?d_func@QSharedMemory@@ABEPBVQSharedMemoryPrivate@@XZ
       1741  6CC 00001CA0 ?d_func@QSignalMapper@@AAEPAVQSignalMapperPrivate@@XZ
       1742  6CD 00001CA0 ?d_func@QSignalMapper@@ABEPBVQSignalMapperPrivate@@XZ
       1743  6CE 00001CA0 ?d_func@QSocketNotifier@@AAEPAVQObjectPrivate@@XZ
       1744  6CF 00001CA0 ?d_func@QSocketNotifier@@ABEPBVQObjectPrivate@@XZ
       1745  6D0 00001CA0 ?d_func@QTemporaryFile@@AAEPAVQTemporaryFilePrivate@@XZ
       1746  6D1 00001CA0 ?d_func@QTemporaryFile@@ABEPBVQTemporaryFilePrivate@@XZ
       1747  6D2 00001CA0 ?d_func@QTextStream@@AAEPAVQTextStreamPrivate@@XZ
       1748  6D3 00001CA0 ?d_func@QTextStream@@ABEPBVQTextStreamPrivate@@XZ
       1749  6D4 00001CA0 ?d_func@QThread@@AAEPAVQThreadPrivate@@XZ
       1750  6D5 00001CA0 ?d_func@QThread@@ABEPBVQThreadPrivate@@XZ
       1751  6D6 00001CA0 ?d_func@QThreadPool@@AAEPAVQThreadPoolPrivate@@XZ
       1752  6D7 00001CA0 ?d_func@QThreadPool@@ABEPBVQThreadPoolPrivate@@XZ
       1753  6D8 00001CA0 ?d_func@QTimeLine@@AAEPAVQTimeLinePrivate@@XZ
       1754  6D9 00001CA0 ?d_func@QTimeLine@@ABEPBVQTimeLinePrivate@@XZ
       1755  6DA 00001CA0 ?d_func@QTranslator@@AAEPAVQTranslatorPrivate@@XZ
       1756  6DB 00001CA0 ?d_func@QTranslator@@ABEPBVQTranslatorPrivate@@XZ
       1757  6DC 00001CA0 ?d_func@QWinEventNotifier@@AAEPAVQObjectPrivate@@XZ
       1758  6DD 00001CA0 ?d_func@QWinEventNotifier@@ABEPBVQObjectPrivate@@XZ
       1759  6DE 00037680 ?d_func@QXmlStreamReader@@AAEPAVQXmlStreamReaderPrivate@@XZ
       1760  6DF 00037680 ?d_func@QXmlStreamReader@@ABEPBVQXmlStreamReaderPrivate@@XZ
       1761  6E0 00037680 ?d_func@QXmlStreamWriter@@AAEPAVQXmlStreamWriterPrivate@@XZ
       1762  6E1 00037680 ?d_func@QXmlStreamWriter@@ABEPBVQXmlStreamWriterPrivate@@XZ
       1763  6E2 00006570 ?data@?$QVector@VQPoint@@@@QAEPAVQPoint@@XZ
       1764  6E3 00002620 ?data@?$QVector@VQPoint@@@@QBEPBVQPoint@@XZ
       1765  6E4 000062B0 ?data@?$QVector@VQPointF@@@@QAEPAVQPointF@@XZ
       1766  6E5 00002620 ?data@?$QVector@VQPointF@@@@QBEPBVQPointF@@XZ
       1767  6E6 00106E60 ?data@?$QVector@VQXmlStreamAttribute@@@@QAEPAVQXmlStreamAttribute@@XZ
       1768  6E7 00002620 ?data@?$QVector@VQXmlStreamAttribute@@@@QBEPBVQXmlStreamAttribute@@XZ
       1769  6E8 0007A0A0 ?data@QBuffer@@QBEABVQByteArray@@XZ
       1770  6E9 00110D40 ?data@QByteArray@@QAEPADXZ
       1771  6EA 00016B80 ?data@QByteArray@@QBEPBDXZ
       1772  6EB 00001CA0 ?data@QCustomEvent@@QBEPAXXZ
       1773  6EC 00037680 ?data@QGenericArgument@@QBEPAXXZ
       1774  6ED 000E0A30 ?data@QMimeData@@QBE?AVQByteArray@@ABVQString@@@Z
       1775  6EE 000CDB90 ?data@QModelIndex@@QBE?AVQVariant@@H@Z
       1776  6EF 000CDE20 ?data@QPersistentModelIndex@@QBE?AVQVariant@@H@Z
       1777  6F0 00095D00 ?data@QResource@@QBEPBEXZ
       1778  6F1 000F1A80 ?data@QSharedMemory@@QAEPAXXZ
       1779  6F2 000F1A80 ?data@QSharedMemory@@QBEPBXXZ
       1780  6F3 0003E270 ?data@QString@@QAEPAVQChar@@XZ
       1781  6F4 00016B80 ?data@QString@@QBEPBVQChar@@XZ
       1782  6F5 00112A10 ?data@QStringRef@@QBEPBVQChar@@XZ
       1783  6F6 000EDC30 ?data@QVariant@@QAEPAXXZ
       1784  6F7 00113460 ?data@QVariant@@QBEPBXXZ
       1785  6F8 0010F820 ?dataChanged@QAbstractItemModel@@IAEXABVQModelIndex@@0@Z
       1786  6F9 00043B70 ?data_ptr@QBitArray@@QAEAAPAUData@QByteArray@@XZ
       1787  6FA 00043B70 ?data_ptr@QByteArray@@QAEAAPAUData@1@XZ
       1788  6FB 00043B70 ?data_ptr@QString@@QAEAAPAUData@1@XZ
       1789  6FC 00043B70 ?data_ptr@QUrl@@QAEAAPAVQUrlPrivate@@XZ
       1790  6FD 00043B70 ?data_ptr@QVariant@@QAEAAUPrivate@1@XZ
       1791  6FE 0001E4A0 ?date@QDateTime@@QBE?AVQDate@@XZ
       1792  6FF 00040BA0 ?dateFormat@QLocale@@QBE?AVQString@@W4FormatType@1@@Z
       1793  700 00040E80 ?dateTimeFormat@QLocale@@QBE?AVQString@@W4FormatType@1@@Z
       1794  701 000416A0 ?dateTimeToString@QLocalePrivate@@QBE?AVQString@@ABV2@PBVQDate@@PBVQTime@@PBVQLocale@@@Z
       1795  702 0001DF10 ?day@QDate@@QBEHXZ
       1796  703 00003870 ?dayName@QDate@@SA?AVQString@@H@Z
       1797  704 00041260 ?dayName@QLocale@@QBE?AVQString@@HW4FormatType@1@@Z
       1798  705 0001DF30 ?dayOfWeek@QDate@@QBEHXZ
       1799  706 0001DF50 ?dayOfYear@QDate@@QBEHXZ
       1800  707 000204F0 ?daysInMonth@QDate@@QBEHXZ
       1801  708 00020540 ?daysInYear@QDate@@QBEHXZ
       1802  709 0001E050 ?daysTo@QDate@@QBEHABV1@@Z
       1803  70A 0001E4E0 ?daysTo@QDateTime@@QBEHABV1@@Z
       1804  70B 0008DD80 ?dec@@YAAAVQTextStream@@AAV1@@Z
       1805  70C 000172E0 ?decimal@QLocalePrivate@@QBE?AVQChar@@XZ
       1806  70D 0003DE60 ?decimalPoint@QLocale@@QBE?AVQChar@@XZ
       1807  70E 000997D0 ?decode@QUrl@@SAXAAVQString@@@Z
       1808  70F 000D13A0 ?decodeData@QAbstractItemModel@@IAE_NHHABVQModelIndex@@AAVQDataStream@@@Z
       1809  710 000F6150 ?decodeMSG@@YA?AVQString@@ABUtagMSG@@@Z
       1810  711 00084860 ?decodeName@QFile@@SA?AVQString@@ABVQByteArray@@@Z
       1811  712 0000F130 ?decodeName@QFile@@SA?AVQString@@PBD@Z
       1812  713 000596F0 ?decomposition@QChar@@QBE?AVQString@@XZ
       1813  714 00056FA0 ?decomposition@QChar@@SA?AVQString@@I@Z
       1814  715 00114B80 ?decomposition@QCharRef@@QBE?AVQString@@XZ
       1815  716 000508A0 ?decompositionTag@QChar@@QBE?AW4Decomposition@1@XZ
       1816  717 0004EF10 ?decompositionTag@QChar@@SA?AW4Decomposition@1@I@Z
       1817  718 00111BB0 ?decompositionTag@QCharRef@@QBE?AW4Decomposition@QChar@@XZ
       1818  719 000A5670 ?defaultFormat@QSettings@@SA?AW4Format@1@XZ
       1819  71A 000E3CD0 ?deleteChildren@QObjectPrivate@@QAEXXZ
       1820  71B 000E1310 ?deleteLater@QObject@@QAEXXZ
       1821  71C 00001700 ?deref@QBasicAtomicInt@@QAE_NXZ
       1822  71D 00013670 ?deref@QThreadData@@QAEXXZ
       1823  71E 000E32E0 ?derefSender@QObjectPrivate@@QAEXPAVQObject@@H@Z
       1824  71F 000DE670 ?destroy@QMetaType@@SAXHPAX@Z
       1825  720 000D40C0 ?destroy@QPersistentModelIndexData@@SAXPAV1@@Z
       1826  721 000373F0 ?destroyAndFree@QHashData@@QAEXXZ
       1827  722 000E5B50 ?destroyed@QObject@@IAEXPAV1@@Z
       1828  723 00038BA0 ?detach2@QListData@@QAEPAUData@1@XZ
       1829  724 00006480 ?detach@?$QVector@VQPoint@@@@QAEXXZ
       1830  725 00006250 ?detach@?$QVector@VQPointF@@@@QAEXXZ
       1831  726 00106E00 ?detach@?$QVector@VQXmlStreamAttribute@@@@QAEXXZ
       1832  727 00001B30 ?detach@QBitArray@@QAEXXZ
       1833  728 00001B30 ?detach@QByteArray@@QAEXXZ
       1834  729 0001EF00 ?detach@QDateTime@@AAEXXZ
       1835  72A 00088E00 ?detach@QFileInfo@@QAEXXZ
       1836  72B 00038B10 ?detach@QListData@@QAEPAUData@1@XZ
       1837  72C 000F2760 ?detach@QSharedMemory@@QAE_NXZ
       1838  72D 000391F0 ?detach@QString@@QAEXXZ
       1839  72E 0009DF30 ?detach@QUrl@@QAEXXZ
       1840  72F 000ED270 ?detach@QVariant@@QAEXXZ
       1841  730 00005220 ?detach_helper@?$QVector@VQPoint@@@@AAEXXZ
       1842  731 00004F80 ?detach_helper@?$QVector@VQPointF@@@@AAEXXZ
       1843  732 001063A0 ?detach_helper@?$QVector@VQXmlStreamAttribute@@@@AAEXXZ
       1844  733 00037530 ?detach_helper@QHashData@@QAEPAU1@P6AXPAUNode@1@PAX@ZH@Z
       1845  734 0008AF30 ?device@QDataStream@@QBEPAVQIODevice@@XZ
       1846  735 0008DC00 ?device@QTextStream@@QBEPAVQIODevice@@XZ
       1847  736 000FE130 ?device@QXmlStreamReader@@QBEPAVQIODevice@@XZ
       1848  737 000FE630 ?device@QXmlStreamWriter@@QBEPAVQIODevice@@XZ
       1849  738 00017360 ?digitToCLocale@QLocalePrivate@@QBEDABVQChar@@@Z
       1850  739 0004EAF0 ?digitValue@QChar@@QBEHXZ
       1851  73A 0004EB30 ?digitValue@QChar@@SAHG@Z
       1852  73B 0004EB70 ?digitValue@QChar@@SAHI@Z
       1853  73C 001119F0 ?digitValue@QCharRef@@QBEHXZ
       1854  73D 000885F0 ?dir@QFileInfo@@QBE?AVQDir@@XZ
       1855  73E 00088710 ?dir@QFileInfo@@QBE?AVQDir@@_N@Z
       1856  73F 0007CA50 ?dirName@QDir@@QBE?AVQString@@XZ
       1857  740 0000F330 ?dirPath@QFileInfo@@QBE?AVQString@@_N@Z
       1858  741 0009E2C0 ?dirPath@QUrl@@QBE?AVQString@@XZ
       1859  742 0004EC10 ?direction@QChar@@QBE?AW4Direction@1@XZ
       1860  743 0004EC60 ?direction@QChar@@SA?AW4Direction@1@G@Z
       1861  744 0004EC40 ?direction@QChar@@SA?AW4Direction@1@I@Z
       1862  745 00111AB0 ?direction@QCharRef@@QBE?AW4Direction@QChar@@XZ
       1863  746 0005B480 ?direction@QTimeLine@@QBE?AW4Direction@1@XZ
       1864  747 000B1CE0 ?directories@QFileSystemWatcher@@QBE?AVQStringList@@XZ
       1865  748 000B0FD0 ?directoryChanged@QFileSystemWatcher@@IAEXABVQString@@@Z
       1866  749 000E60E0 ?disconnect@QMetaObject@@SA_NPBVQObject@@H0H@Z
       1867  74A 0008DF00 ?disconnect@QObject@@QAE_NPBDPBV1@0@Z
       1868  74B 00112B00 ?disconnect@QObject@@QAE_NPBV1@PBD@Z
       1869  74C 000E7220 ?disconnect@QObject@@SA_NPBV1@PBD01@Z
       1870  74D 00009190 ?disconnectNotify@QFutureWatcherBase@@MAEXPBD@Z
       1871  74E 00111D90 ?disconnectNotify@QObject@@MAEXPBD@Z
       1872  74F 000099E0 ?disconnectOutputInterface@QFutureWatcherBase@@IAEX_N@Z
       1873  750 0001EBB0 ?displayText@QDateTimeParser@@UBE?AVQString@@XZ
       1874  751 00100CF0 ?documentEncoding@QXmlStreamReader@@QBE?AVQStringRef@@XZ
       1875  752 00100CB0 ?documentVersion@QXmlStreamReader@@QBE?AVQStringRef@@XZ
       1876  753 000421F0 ?doubleToString@QLocalePrivate@@QBE?AVQString@@NHW4DoubleForm@1@HI@Z
       1877  754 0007E070 ?drives@QDir@@SA?AV?$QList@VQFileInfo@@@@XZ
       1878  755 000C1B70 ?drives@QFSFileEngine@@SA?AV?$QList@VQFileInfo@@@@XZ
       1879  756 000D39F0 ?dropMimeData@QAbstractItemModel@@UAE_NPBVQMimeData@@W4DropAction@Qt@@HHABVQModelIndex@@@Z
       1880  757 000D22E0 ?dropMimeData@QAbstractListModel@@UAE_NPBVQMimeData@@W4DropAction@Qt@@HHABVQModelIndex@@@Z
       1881  758 000D1DB0 ?dropMimeData@QAbstractTableModel@@UAE_NPBVQMimeData@@W4DropAction@Qt@@HHABVQModelIndex@@@Z
       1882  759 00002120 ?ds@QTime@@ABEHXZ
       1883  75A 000FFA70 ?dtdName@QXmlStreamReader@@QBE?AVQStringRef@@XZ
       1884  75B 000FFAB0 ?dtdPublicId@QXmlStreamReader@@QBE?AVQStringRef@@XZ
       1885  75C 000FFAF0 ?dtdSystemId@QXmlStreamReader@@QBE?AVQStringRef@@XZ
       1886  75D 000D8AA0 ?dumpObjectInfo@QObject@@QAEXXZ
       1887  75E 000D8AA0 ?dumpObjectTree@QObject@@QAEXXZ
       1888  75F 00110B40 ?duplicate@QByteArray@@QAEAAV1@ABV1@@Z
       1889  760 00113810 ?duplicate@QByteArray@@QAEAAV1@PBDI@Z
       1890  761 000A5570 ?duration@QTimeLine@@QBEHXZ
       1891  762 000376B0 ?dx@QLine@@QBEHXZ
       1892  763 000378A0 ?dx@QLineF@@QBENXZ
       1893  764 000376C0 ?dy@QLine@@QBEHXZ
       1894  765 000378B0 ?dy@QLineF@@QBENXZ
       1895  766 000E4D00 ?dynamicPropertyNames@QObject@@QBE?AV?$QList@VQByteArray@@@@XZ
       1896  767 0001E3C0 ?elapsed@QTime@@QBEHXZ
       1897  768 000025F0 ?empty@?$QVector@VQPoint@@@@QBE_NXZ
       1898  769 000025F0 ?empty@?$QVector@VQPointF@@@@QBE_NXZ
       1899  76A 000025F0 ?empty@?$QVector@VQXmlStreamAttribute@@@@QBE_NXZ
       1900  76B 00037680 ?enclosingMetaObject@QMetaClassInfo@@QBEPBUQMetaObject@@XZ
       1901  76C 00037680 ?enclosingMetaObject@QMetaEnum@@QBEPBUQMetaObject@@XZ
       1902  76D 00037680 ?enclosingMetaObject@QMetaMethod@@QBEPBUQMetaObject@@XZ
       1903  76E 00037680 ?enclosingMetaObject@QMetaProperty@@QBEPBUQMetaObject@@XZ
       1904  76F 00099880 ?encode@QUrl@@SAXAAVQString@@@Z
       1905  770 000CE990 ?encodeData@QAbstractItemModel@@IBEXABV?$QList@VQModelIndex@@@@AAVQDataStream@@@Z
       1906  771 00084260 ?encodeName@QFile@@SA?AVQByteArray@@ABVQString@@@Z
       1907  772 0009DE50 ?encodedFragment@QUrl@@QBE?AVQByteArray@@XZ
       1908  773 000A35C0 ?encodedHost@QUrl@@QBE?AVQByteArray@@XZ
       1909  774 0009DBB0 ?encodedPassword@QUrl@@QBE?AVQByteArray@@XZ
       1910  775 0009DCE0 ?encodedPath@QUrl@@QBE?AVQByteArray@@XZ
       1911  776 0009DD40 ?encodedQuery@QUrl@@QBE?AVQByteArray@@XZ
       1912  777 000A0A20 ?encodedQueryItemValue@QUrl@@QBE?AVQByteArray@@ABV2@@Z
       1913  778 000A06A0 ?encodedQueryItems@QUrl@@QBE?AV?$QList@U?$QPair@VQByteArray@@V1@@@@@XZ
       1914  779 0009DB00 ?encodedUserName@QUrl@@QBE?AVQByteArray@@XZ
       1915  77A 000064E0 ?end@?$QVector@VQPoint@@@@QAEPAVQPoint@@XZ
       1916  77B 00002670 ?end@?$QVector@VQPoint@@@@QBEPBVQPoint@@XZ
       1917  77C 000062E0 ?end@?$QVector@VQPointF@@@@QAEPAVQPointF@@XZ
       1918  77D 00002610 ?end@?$QVector@VQPointF@@@@QBEPBVQPointF@@XZ
       1919  77E 00106E90 ?end@?$QVector@VQXmlStreamAttribute@@@@QAEPAVQXmlStreamAttribute@@XZ
       1920  77F 000FE7F0 ?end@?$QVector@VQXmlStreamAttribute@@@@QBEPBVQXmlStreamAttribute@@XZ
       1921  780 00110D80 ?end@QByteArray@@QAEPADXZ
       1922  781 00110DB0 ?end@QByteArray@@QBEPBDXZ
       1923  782 00002C60 ?end@QListData@@QBEPAPAXXZ
       1924  783 00111DB0 ?end@QString@@QAEPAVQChar@@XZ
       1925  784 00111DE0 ?end@QString@@QBEPBVQChar@@XZ
       1926  785 00009CB0 ?end@ResultStoreBase@QtConcurrent@@QBE?AVResultIteratorBase@2@XZ
       1927  786 000AAA80 ?endArray@QSettings@@QAEXXZ
       1928  787 001136D0 ?endEntryList@QAbstractFileEngine@@UAEPAVQAbstractFileEngineIterator@@XZ
       1929  788 001136D0 ?endEntryList@QFSFileEngine@@UAEPAVQAbstractFileEngineIterator@@XZ
       1930  789 0005B500 ?endFrame@QTimeLine@@QBEHXZ
       1931  78A 000AA9A0 ?endGroup@QSettings@@QAEXXZ
       1932  78B 000D3CB0 ?endInsertColumns@QAbstractItemModel@@IAEXXZ
       1933  78C 000D3BB0 ?endInsertRows@QAbstractItemModel@@IAEXXZ
       1934  78D 000D3D30 ?endRemoveColumns@QAbstractItemModel@@IAEXXZ
       1935  78E 000D3C30 ?endRemoveRows@QAbstractItemModel@@IAEXXZ
       1936  78F 000918C0 ?endl@@YAAAVQTextStream@@AAV1@@Z
       1937  790 00016D20 ?endsWith@QByteArray@@QBE_NABV1@@Z
       1938  791 00016E70 ?endsWith@QByteArray@@QBE_ND@Z
       1939  792 00016E00 ?endsWith@QByteArray@@QBE_NPBD@Z
       1940  793 00051380 ?endsWith@QString@@QBE_NABV1@W4CaseSensitivity@Qt@@@Z
       1941  794 001114C0 ?endsWith@QString@@QBE_NABV1@_N@Z
       1942  795 000500E0 ?endsWith@QString@@QBE_NABVQChar@@W4CaseSensitivity@Qt@@@Z
       1943  796 000514F0 ?endsWith@QString@@QBE_NABVQLatin1String@@W4CaseSensitivity@Qt@@@Z
       1944  797 000D5230 ?enter_loop@QCoreApplication@@SAHXZ
       1945  798 0010A3B0 ?entityDeclarations@QXmlStreamReader@@QBE?AV?$QVector@VQXmlStreamEntityDeclaration@@@@XZ
       1946  799 000FE120 ?entityResolver@QXmlStreamReader@@QBEPAVQXmlStreamEntityResolver@@XZ
       1947  79A 00078E20 ?entryInfo@QAbstractFileEngineIterator@@MBE?AVQVariant@@W4EntryInfoType@1@@Z
       1948  79B 00010120 ?entryInfoList@QDir@@QBE?AV?$QList@VQFileInfo@@@@ABVQString@@V?$QFlags@W4Filter@QDir@@@@V?$QFlags@W4SortFlag@QDir@@@@@Z
       1949  79C 0007E7E0 ?entryInfoList@QDir@@QBE?AV?$QList@VQFileInfo@@@@ABVQStringList@@V?$QFlags@W4Filter@QDir@@@@V?$QFlags@W4SortFlag@QDir@@@@@Z
       1950  79D 0007F9B0 ?entryInfoList@QDir@@QBE?AV?$QList@VQFileInfo@@@@V?$QFlags@W4Filter@QDir@@@@V?$QFlags@W4SortFlag@QDir@@@@@Z
       1951  79E 00079990 ?entryList@QAbstractFileEngine@@UBE?AVQStringList@@V?$QFlags@W4Filter@QDir@@@@ABV2@@Z
       1952  79F 0007F9F0 ?entryList@QDir@@QBE?AVQStringList@@ABV2@V?$QFlags@W4Filter@QDir@@@@V?$QFlags@W4SortFlag@QDir@@@@@Z
       1953  7A0 00010040 ?entryList@QDir@@QBE?AVQStringList@@ABVQString@@V?$QFlags@W4Filter@QDir@@@@V?$QFlags@W4SortFlag@QDir@@@@@Z
       1954  7A1 000810A0 ?entryList@QDir@@QBE?AVQStringList@@V?$QFlags@W4Filter@QDir@@@@V?$QFlags@W4SortFlag@QDir@@@@@Z
       1955  7A2 000B0690 ?entryList@QFSFileEngine@@UBE?AVQStringList@@V?$QFlags@W4Filter@QDir@@@@ABV2@@Z
       1956  7A3 00010440 ?entryList@QSettings@@QBE?AVQStringList@@ABVQString@@@Z
       1957  7A4 000D9680 ?enumerator@QMetaObject@@QBE?AVQMetaEnum@@H@Z
       1958  7A5 000D9F20 ?enumerator@QMetaProperty@@QBE?AVQMetaEnum@@XZ
       1959  7A6 000D9120 ?enumeratorCount@QMetaObject@@QBEHXZ
       1960  7A7 000D90A0 ?enumeratorOffset@QMetaObject@@QBEHXZ
       1961  7A8 0008CEC0 ?environment@QProcess@@QBE?AVQStringList@@XZ
       1962  7A9 00113330 ?eof@QDataStream@@QBE_NXZ
       1963  7AA 00006CD0 ?erase@?$QVector@VQPoint@@@@QAEPAVQPoint@@PAV2@0@Z
       1964  7AB 00007520 ?erase@?$QVector@VQPoint@@@@QAEPAVQPoint@@PAV2@@Z
       1965  7AC 000068D0 ?erase@?$QVector@VQPointF@@@@QAEPAVQPointF@@PAV2@0@Z
       1966  7AD 00007490 ?erase@?$QVector@VQPointF@@@@QAEPAVQPointF@@PAV2@@Z
       1967  7AE 001072E0 ?erase@?$QVector@VQXmlStreamAttribute@@@@QAEPAVQXmlStreamAttribute@@PAV2@0@Z
       1968  7AF 00109220 ?erase@?$QVector@VQXmlStreamAttribute@@@@QAEPAVQXmlStreamAttribute@@PAV2@@Z
       1969  7B0 00038AD0 ?erase@QListData@@QAEPAPAXPAPAX@Z
       1970  7B1 00078C40 ?error@QAbstractFileEngine@@QBE?AW4FileError@QFile@@XZ
       1971  7B2 00084420 ?error@QFile@@QBE?AW4FileError@1@XZ
       1972  7B3 0008B3C0 ?error@QProcess@@IAEXW4ProcessError@1@@Z
       1973  7B4 0008B210 ?error@QProcess@@QBE?AW4ProcessError@1@XZ
       1974  7B5 0005B500 ?error@QSharedMemory@@QBE?AW4SharedMemoryError@1@XZ
       1975  7B6 000F2AC0 ?error@QSystemSemaphore@@QBE?AW4SystemSemaphoreError@1@XZ
       1976  7B7 000FE3D0 ?error@QXmlStreamReader@@QBE?AW4Error@1@XZ
       1977  7B8 00078E40 ?errorString@QAbstractFileEngine@@QBE?AVQString@@XZ
       1978  7B9 000894C0 ?errorString@QIODevice@@QBE?AVQString@@XZ
       1979  7BA 000C9A00 ?errorString@QLibrary@@QBE?AVQString@@XZ
       1980  7BB 000C6310 ?errorString@QPluginLoader@@QBE?AVQString@@XZ
       1981  7BC 0004E0F0 ?errorString@QRegExp@@QAE?AVQString@@XZ
       1982  7BD 000F22B0 ?errorString@QSharedMemory@@QBE?AVQString@@XZ
       1983  7BE 000F2D40 ?errorString@QSystemSemaphore@@QBE?AVQString@@XZ
       1984  7BF 0009C5A0 ?errorString@QUrl@@QBE?AVQString@@XZ
       1985  7C0 000FFB50 ?errorString@QXmlStreamReader@@QBE?AVQString@@XZ
       1986  7C1 000464F0 ?escape@QRegExp@@SA?AVQString@@ABV2@@Z
       1987  7C2 000D5770 ?event@QCoreApplication@@MAE_NPAVQEvent@@@Z
       1988  7C3 000F3A90 ?event@QEventDispatcherWin32@@UAE_NPAVQEvent@@@Z
       1989  7C4 00009910 ?event@QFutureWatcherBase@@UAE_NPAVQEvent@@@Z
       1990  7C5 000E34B0 ?event@QObject@@UAE_NPAVQEvent@@@Z
       1991  7C6 000A5630 ?event@QSettings@@MAE_NPAVQEvent@@@Z
       1992  7C7 000E9610 ?event@QSocketNotifier@@MAE_NPAVQEvent@@@Z
       1993  7C8 000F78D0 ?event@QWinEventNotifier@@MAE_NPAVQEvent@@@Z
       1994  7C9 001DEAD8 ?eventDispatcher@QCoreApplicationPrivate@@2PAVQAbstractEventDispatcher@@A
       1995  7CA 00092BD0 ?eventFilter@QObject@@UAE_NPAV1@PAVQEvent@@@Z
       1996  7CB 0004DC60 ?exactMatch@QRegExp@@QBE_NABVQString@@@Z
       1997  7CC 0000B960 ?exception@ExceptionStore@internal@QtConcurrent@@QAE?AVExceptionHolder@23@XZ
       1998  7CD 000024D0 ?exceptionStore@QFutureInterfaceBase@@QAEAAVExceptionStore@internal@QtConcurrent@@XZ
       1999  7CE 000D79C0 ?exec@QCoreApplication@@SAHXZ
       2000  7CF 000D4770 ?exec@QEventLoop@@QAEHV?$QFlags@W4ProcessEventsFlag@QEventLoop@@@@@Z
       2001  7D0 00001430 ?exec@QTextStreamManipulator@@QAEXAAVQTextStream@@@Z
       2002  7D1 00012FA0 ?exec@QThread@@IAEHXZ
       2003  7D2 0008D9A0 ?execute@QProcess@@SAHABVQString@@@Z
       2004  7D3 0008D8D0 ?execute@QProcess@@SAHABVQString@@ABVQStringList@@@Z
       2005  7D4 0007D4B0 ?exists@QDir@@QBE_NABVQString@@@Z
       2006  7D5 0007DE70 ?exists@QDir@@QBE_NXZ
       2007  7D6 000849C0 ?exists@QFile@@QBE_NXZ
       2008  7D7 00084310 ?exists@QFile@@SA_NABVQString@@@Z
       2009  7D8 000871D0 ?exists@QFileInfo@@QBE_NXZ
       2010  7D9 000D4D50 ?exit@QCoreApplication@@SAXH@Z
       2011  7DA 000D4580 ?exit@QEventLoop@@QAEXH@Z
       2012  7DB 00013030 ?exit@QThread@@QAEXH@Z
       2013  7DC 0008B290 ?exitCode@QProcess@@QBEHXZ
       2014  7DD 0008B2A0 ?exitStatus@QProcess@@QBE?AW4ExitStatus@1@XZ
       2015  7DE 000D6410 ?exit_loop@QCoreApplication@@SAXXZ
       2016  7DF 00018970 ?expand@QByteArray@@AAEXH@Z
       2017  7E0 00053320 ?expand@QString@@AAEXH@Z
       2018  7E1 00044DB0 ?expandedTo@QSize@@QBE?AV1@ABV1@@Z
       2019  7E2 00044E10 ?expandedTo@QSizeF@@QBE?AV1@ABV1@@Z
       2020  7E3 0005B500 ?expectedResultCount@QFutureInterfaceBase@@QAEHXZ
       2021  7E4 0005B570 ?expiryTimeout@QThreadPool@@QBEHXZ
       2022  7E5 0003DFA0 ?exponential@QLocale@@QBE?AVQChar@@XZ
       2023  7E6 00017350 ?exponential@QLocalePrivate@@QBE?AVQChar@@XZ
       2024  7E7 000CD610 ?extension@QAbstractFileEngine@@UAE_NW4Extension@1@PBVExtensionOption@1@PAVExtensionReturn@1@@Z
       2025  7E8 000AF270 ?extension@QFSFileEngine@@UAE_NW4Extension@QAbstractFileEngine@@PBVExtensionOption@3@PAVExtensionReturn@3@@Z
       2026  7E9 0000F2E0 ?extension@QFileInfo@@QBE?AVQString@@_N@Z
       2027  7EA 0003FCC0 ?fallbackLocale@QSystemLocale@@UBE?AVQLocale@@XZ
       2028  7EB 000A5620 ?fallbacksEnabled@QSettings@@QBE_NXZ
       2029  7EC 00008F50 ?fetchAndAddAcquire@QBasicAtomicInt@@QAEHH@Z
       2030  7ED 00008F50 ?fetchAndAddOrdered@QBasicAtomicInt@@QAEHH@Z
       2031  7EE 00008F50 ?fetchAndAddRelaxed@QBasicAtomicInt@@QAEHH@Z
       2032  7EF 00008F50 ?fetchAndAddRelease@QBasicAtomicInt@@QAEHH@Z
       2033  7F0 00110B20 ?fetchAndStoreAcquire@QBasicAtomicInt@@QAEHH@Z
       2034  7F1 00110B20 ?fetchAndStoreOrdered@QBasicAtomicInt@@QAEHH@Z
       2035  7F2 00110B20 ?fetchAndStoreRelaxed@QBasicAtomicInt@@QAEHH@Z
       2036  7F3 00110B20 ?fetchAndStoreRelease@QBasicAtomicInt@@QAEHH@Z
       2037  7F4 00111D90 ?fetchMore@QAbstractItemModel@@UAEXABVQModelIndex@@@Z
       2038  7F5 00084420 ?fieldAlignment@QTextStream@@QBE?AW4FieldAlignment@1@XZ
       2039  7F6 0001FD60 ?fieldInfo@QDateTimeParser@@QBE?AV?$QFlags@W4FieldInfoFlag@QDateTimeParser@@@@H@Z
       2040  7F7 0008DC70 ?fieldWidth@QTextStream@@QBEHXZ
       2041  7F8 000B0FA0 ?fileChanged@QFileSystemWatcher@@IAEXABVQString@@@Z
       2042  7F9 000843F0 ?fileEngine@QFile@@UBEPAVQAbstractFileEngine@@XZ
       2043  7FA 00091BA0 ?fileEngine@QTemporaryFile@@UBEPAVQAbstractFileEngine@@XZ
       2044  7FB 00078DB0 ?fileFlags@QAbstractFileEngine@@UBE?AV?$QFlags@W4FileFlag@QAbstractFileEngine@@@@V2@@Z
       2045  7FC 000C2560 ?fileFlags@QFSFileEngine@@UBE?AV?$QFlags@W4FileFlag@QAbstractFileEngine@@@@V2@@Z
       2046  7FD 000824B0 ?fileInfo@QDirIterator@@QBE?AVQFileInfo@@XZ
       2047  7FE 00078DC0 ?fileName@QAbstractFileEngine@@UBE?AVQString@@W4FileName@1@@Z
       2048  7FF 000823D0 ?fileName@QDirIterator@@QBE?AVQString@@XZ
       2049  800 000C0520 ?fileName@QFSFileEngine@@UBE?AVQString@@W4FileName@QAbstractFileEngine@@@Z
       2050  801 00084730 ?fileName@QFile@@QBE?AVQString@@XZ
       2051  802 00088150 ?fileName@QFileInfo@@QBE?AVQString@@XZ
       2052  803 000C9950 ?fileName@QLibrary@@QBE?AVQString@@XZ
       2053  804 000C62D0 ?fileName@QPluginLoader@@QBE?AVQString@@XZ
       2054  805 00095C40 ?fileName@QResource@@QBE?AVQString@@XZ
       2055  806 000A5550 ?fileName@QSettings@@QBE?AVQString@@XZ
       2056  807 000925A0 ?fileName@QTemporaryFile@@QBE?AVQString@@XZ
       2057  808 0009E220 ?fileName@QUrl@@QBE?AVQString@@XZ
       2058  809 0007CAC0 ?filePath@QDir@@QBE?AVQString@@ABV2@@Z
       2059  80A 00082480 ?filePath@QDirIterator@@QBE?AVQString@@XZ
       2060  80B 00088100 ?filePath@QFileInfo@@QBE?AVQString@@XZ
       2061  80C 00092600 ?fileTemplate@QTemporaryFile@@QBE?AVQString@@XZ
       2062  80D 00078AF0 ?fileTime@QAbstractFileEngine@@UBE?AVQDateTime@@W4FileTime@1@@Z
       2063  80E 000C0B50 ?fileTime@QFSFileEngine@@UBE?AVQDateTime@@W4FileTime@QAbstractFileEngine@@@Z
       2064  80F 000B1D20 ?files@QFileSystemWatcher@@QBE?AVQStringList@@XZ
       2065  810 00005170 ?fill@?$QVector@VQPoint@@@@QAEAAV1@ABVQPoint@@H@Z
       2066  811 00004EA0 ?fill@?$QVector@VQPointF@@@@QAEAAV1@ABVQPointF@@H@Z
       2067  812 00106230 ?fill@?$QVector@VQXmlStreamAttribute@@@@QAEAAV1@ABVQXmlStreamAttribute@@H@Z
       2068  813 00016750 ?fill@QBitArray@@QAEX_NHH@Z
       2069  814 000164C0 ?fill@QBitArray@@QAE_N_NH@Z
       2070  815 00018930 ?fill@QByteArray@@QAEAAV1@DH@Z
       2071  816 00054C40 ?fill@QString@@QAEAAV1@VQChar@@H@Z
       2072  817 00002F80 ?fill@QTextStream@@QAEHH@Z
       2073  818 0007CF80 ?filter@QDir@@QBE?AV?$QFlags@W4Filter@QDir@@@@XZ
       2074  819 000CCD50 ?filterEvent@QAbstractEventDispatcher@@QAE_NPAX@Z
       2075  81A 000D51F0 ?filterEvent@QCoreApplication@@QAE_NPAXPAJ@Z
       2076  81B 00009B60 ?filterMode@ResultStoreBase@QtConcurrent@@QBE_NXZ
       2077  81C 00078E10 ?filters@QAbstractFileEngineIterator@@QBE?AV?$QFlags@W4Filter@QDir@@@@XZ
       2078  81D 00110B80 ?find@QByteArray@@QBEHABV1@H@Z
       2079  81E 001127F0 ?find@QByteArray@@QBEHABVQString@@H@Z
       2080  81F 00110B70 ?find@QByteArray@@QBEHDH@Z
       2081  820 001139A0 ?find@QByteArray@@QBEHPBDH@Z
       2082  821 00111420 ?find@QString@@QBEHABV1@H_N@Z
       2083  822 00111480 ?find@QString@@QBEHABVQRegExp@@H@Z
       2084  823 00111400 ?find@QString@@QBEHVQChar@@H_N@Z
       2085  824 00014390 ?find@QTranslator@@QBE?AVQString@@PBD00@Z
       2086  825 000238C0 ?findAmPm@QDateTimeParser@@QBEHAAVQString@@HPAH@Z
       2087  826 0001F840 ?findDay@QDateTimeParser@@QBEHABVQString@@HHPAV2@PAH@Z
       2088  827 00023580 ?findMonth@QDateTimeParser@@QBEHABVQString@@HHPAV2@PAH@Z
       2089  828 00110BA0 ?findRev@QByteArray@@QBEHABV1@H@Z
       2090  829 00112870 ?findRev@QByteArray@@QBEHABVQString@@H@Z
       2091  82A 00110B90 ?findRev@QByteArray@@QBEHDH@Z
       2092  82B 001139B0 ?findRev@QByteArray@@QBEHPBDH@Z
       2093  82C 00111460 ?findRev@QString@@QBEHABV1@H_N@Z
       2094  82D 00111490 ?findRev@QString@@QBEHABVQRegExp@@H@Z
       2095  82E 00111440 ?findRev@QString@@QBEHVQChar@@H_N@Z
       2096  82F 00013E20 ?finish@QThreadStorageData@@SAXPAPAX@Z
       2097  830 000D8AA0 ?finish@ThreadEngineBase@QtConcurrent@@MAEXXZ
       2098  831 0010E2C0 ?finished@QFutureWatcherBase@@IAEXXZ
       2099  832 0008B350 ?finished@QProcess@@IAEXH@Z
       2100  833 0008B380 ?finished@QProcess@@IAEXHW4ExitStatus@1@@Z
       2101  834 0010E810 ?finished@QThread@@IAEXXZ
       2102  835 00001C10 ?finished@QThread@@QBE_NXZ
       2103  836 0010EA40 ?finished@QTimeLine@@IAEXXZ
       2104  837 00006570 ?first@?$QVector@VQPoint@@@@QAEAAVQPoint@@XZ
       2105  838 00002620 ?first@?$QVector@VQPoint@@@@QBEABVQPoint@@XZ
       2106  839 000062B0 ?first@?$QVector@VQPointF@@@@QAEAAVQPointF@@XZ
       2107  83A 00002620 ?first@?$QVector@VQPointF@@@@QBEABVQPointF@@XZ
       2108  83B 00106E60 ?first@?$QVector@VQXmlStreamAttribute@@@@QAEAAVQXmlStreamAttribute@@XZ
       2109  83C 00002620 ?first@?$QVector@VQXmlStreamAttribute@@@@QBEABVQXmlStreamAttribute@@XZ
       2110  83D 00001280 ?firstNode@QHashData@@QAEPAUNode@1@XZ
       2111  83E 0008DDC0 ?fixed@@YAAAVQTextStream@@AAV1@@Z
       2112  83F 000CE410 ?flags@QAbstractItemModel@@UBE?AV?$QFlags@W4ItemFlag@Qt@@@@ABVQModelIndex@@@Z
       2113  840 00114C10 ?flags@QIODevice@@QBEHXZ
       2114  841 000CDC70 ?flags@QModelIndex@@QBE?AV?$QFlags@W4ItemFlag@Qt@@@@XZ
       2115  842 000CDE60 ?flags@QPersistentModelIndex@@QBE?AV?$QFlags@W4ItemFlag@Qt@@@@XZ
       2116  843 000012C0 ?flags@QTextStream@@QAEHH@Z
       2117  844 000012B0 ?flags@QTextStream@@QBEHXZ
       2118  845 0008E530 ?flagsInternal@QTextStream@@AAEHH@Z
       2119  846 0008E460 ?flagsInternal@QTextStream@@ABEHXZ
       2120  847 00091450 ?flush@@YAAAVQTextStream@@AAV1@@Z
       2121  848 0000A400 ?flush@QAbstractFileEngine@@UAE_NXZ
       2122  849 000D4C10 ?flush@QCoreApplication@@SAXXZ
       2123  84A 000D8AA0 ?flush@QEventDispatcherWin32@@UAEXXZ
       2124  84B 000B0030 ?flush@QFSFileEngine@@UAE_NXZ
       2125  84C 000853B0 ?flush@QFile@@QAE_NXZ
       2126  84D 0008F790 ?flush@QTextStream@@QAEXXZ
       2127  84E 0008E370 ?forcepoint@@YAAAVQTextStream@@AAV1@@Z
       2128  84F 0008E360 ?forcesign@@YAAAVQTextStream@@AAV1@@Z
       2129  850 000F1A80 ?format@QSettings@@QBE?AW4Format@1@XZ
       2130  851 000E0AC0 ?formats@QMimeData@@UBE?AVQStringList@@XZ
       2131  852 0009DD80 ?fragment@QUrl@@QBE?AVQString@@XZ
       2132  853 0010E9E0 ?frameChanged@QTimeLine@@IAEXH@Z
       2133  854 0005B590 ?frameForTime@QTimeLine@@QBEHH@Z
       2134  855 000028B0 ?free@?$QVector@VQPoint@@@@AAEXPAU?$QVectorTypedData@VQPoint@@@@@Z
       2135  856 000028B0 ?free@?$QVector@VQPointF@@@@AAEXPAU?$QVectorTypedData@VQPointF@@@@@Z
       2136  857 001036A0 ?free@?$QVector@VQXmlStreamAttribute@@@@AAEXPAU?$QVectorTypedData@VQXmlStreamAttribute@@@@@Z
       2137  858 0007ACC0 ?free@QRingBuffer@@QAEXH@Z
       2138  859 000523C0 ?free@QString@@CAXPAUData@1@@Z
       2139  85A 000028B0 ?freeNode@QHashData@@QAEXPAX@Z
       2140  85B 000A3F40 ?fromAce@QUrl@@SA?AVQString@@ABVQByteArray@@@Z
       2141  85C 00053080 ?fromAscii@QChar@@SA?AV1@D@Z
       2142  85D 00054830 ?fromAscii@QString@@SA?AV1@PBDH@Z
       2143  85E 000544F0 ?fromAscii_helper@QString@@CAPAUData@1@PBDH@Z
       2144  85F 0001A880 ?fromBase64@QByteArray@@SA?AV1@ABV1@@Z
       2145  860 0009F6B0 ?fromEncoded@QUrl@@SA?AV1@ABVQByteArray@@@Z
       2146  861 0009F740 ?fromEncoded@QUrl@@SA?AV1@ABVQByteArray@@W4ParsingMode@1@@Z
       2147  862 0001AA20 ?fromHex@QByteArray@@SA?AV1@ABV1@@Z
       2148  863 00002020 ?fromJulianDay@QDate@@SA?AV1@H@Z
       2149  864 00038F30 ?fromLatin1@QChar@@SA?AV1@D@Z
       2150  865 00054590 ?fromLatin1@QString@@SA?AV1@PBDH@Z
       2151  866 00050190 ?fromLatin1_helper@QString@@CAPAUData@1@PBDH@Z
       2152  867 000079B0 ?fromList@?$QVector@VQPoint@@@@SA?AV1@ABV?$QList@VQPoint@@@@@Z
       2153  868 000077B0 ?fromList@?$QVector@VQPointF@@@@SA?AV1@ABV?$QList@VQPointF@@@@@Z
       2154  869 001093E0 ?fromList@?$QVector@VQXmlStreamAttribute@@@@SA?AV1@ABV?$QList@VQXmlStreamAttribute@@@@@Z
       2155  86A 00054770 ?fromLocal8Bit@QString@@SA?AV1@PBDH@Z
       2156  86B 0009F7D0 ?fromLocalFile@QUrl@@SA?AV1@ABVQString@@@Z
       2157  86C 000ACED0 ?fromName@QConfFile@@SAPAV1@ABVQString@@_N@Z
       2158  86D 0007CEC0 ?fromNativeSeparators@QDir@@SA?AVQString@@ABV2@@Z
       2159  86E 000197C0 ?fromPercentEncoding@QByteArray@@SA?AV1@ABV1@D@Z
       2160  86F 00098DD0 ?fromPercentEncoding@QUrl@@SA?AVQString@@ABVQByteArray@@@Z
       2161  870 00037C50 ?fromPolar@QLineF@@SA?AV1@NN@Z
       2162  871 00099310 ?fromPunycode@QUrl@@SA?AVQString@@ABVQByteArray@@@Z
       2163  872 00017080 ?fromRawData@QByteArray@@SA?AV1@PBDH@Z
       2164  873 00052D90 ?fromRawData@QString@@SA?AV1@PBVQChar@@H@Z
       2165  874 00112990 ?fromStdString@QString@@SA?AV1@ABV?$basic_string@DU?$char_traits@D@std@@V?$allocator@D@2@@std@@@Z
       2166  875 00008370 ?fromStdVector@?$QVector@VQPoint@@@@SA?AV1@ABV?$vector@VQPoint@@V?$allocator@VQPoint@@@std@@@std@@@Z
       2167  876 000082C0 ?fromStdVector@?$QVector@VQPointF@@@@SA?AV1@ABV?$vector@VQPointF@@V?$allocator@VQPointF@@@std@@@std@@@Z
       2168  877 0010A410 ?fromStdVector@?$QVector@VQXmlStreamAttribute@@@@SA?AV1@ABV?$vector@VQXmlStreamAttribute@@V?$allocator@VQXmlStreamAttribute@@@std@@@std@@@Z
       2169  878 001129D0 ?fromStdWString@QString@@SA?AV1@ABV?$basic_string@GU?$char_traits@G@std@@V?$allocator@G@2@@std@@@Z
       2170  879 00027D40 ?fromString@QDate@@SA?AV1@ABVQString@@0@Z
       2171  87A 00027F50 ?fromString@QDate@@SA?AV1@ABVQString@@W4DateFormat@Qt@@@Z
       2172  87B 00027E60 ?fromString@QDateTime@@SA?AV1@ABVQString@@0@Z
       2173  87C 00028700 ?fromString@QDateTime@@SA?AV1@ABVQString@@W4DateFormat@Qt@@@Z
       2174  87D 00027BD0 ?fromString@QDateTimeParser@@QBE_NABVQString@@PAVQDate@@PAVQTime@@@Z
       2175  87E 00027DD0 ?fromString@QTime@@SA?AV1@ABVQString@@0@Z
       2176  87F 000283A0 ?fromString@QTime@@SA?AV1@ABVQString@@W4DateFormat@Qt@@@Z
       2177  880 000258C0 ?fromTime_t@QDateTime@@SA?AV1@I@Z
       2178  881 00114350 ?fromUcs2@QString@@SA?AV1@PBGH@Z
       2179  882 00054900 ?fromUcs4@QString@@SA?AV1@PBIH@Z
       2180  883 000FA590 ?fromUnicode@QTextCodec@@QBE?AVQByteArray@@ABVQString@@@Z
       2181  884 000FA6E0 ?fromUnicode@QTextCodec@@QBE?AVQByteArray@@ABVQString@@AAH@Z
       2182  885 0008DFB0 ?fromUnicode@QTextCodec@@QBE?AVQByteArray@@PBVQChar@@HPAUConverterState@1@@Z
       2183  886 000FA7B0 ?fromUnicode@QTextEncoder@@QAE?AVQByteArray@@ABVQString@@@Z
       2184  887 000FA810 ?fromUnicode@QTextEncoder@@QAE?AVQByteArray@@ABVQString@@AAH@Z
       2185  888 000FA7E0 ?fromUnicode@QTextEncoder@@QAE?AVQByteArray@@PBVQChar@@H@Z
       2186  889 000548A0 ?fromUtf16@QString@@SA?AV1@PBGH@Z
       2187  88A 00058150 ?fromUtf8@QString@@SA?AV1@PBDH@Z
       2188  88B 00114350 ?fromWCharArray@QString@@SA?AV1@PBGH@Z
       2189  88C 00006570 ?front@?$QVector@VQPoint@@@@QAEAAVQPoint@@XZ
       2190  88D 00002620 ?front@?$QVector@VQPoint@@@@QBEABVQPoint@@XZ
       2191  88E 000062B0 ?front@?$QVector@VQPointF@@@@QAEAAVQPointF@@XZ
       2192  88F 00002620 ?front@?$QVector@VQPointF@@@@QBEABVQPointF@@XZ
       2193  890 00106E60 ?front@?$QVector@VQXmlStreamAttribute@@@@QAEAAVQXmlStreamAttribute@@XZ
       2194  891 00002620 ?front@?$QVector@VQXmlStreamAttribute@@@@QBEABVQXmlStreamAttribute@@XZ
       2195  892 0008ECB0 ?generateByteOrderMark@QTextStream@@QBE_NXZ
       2196  893 00012C60 ?get2@QThreadData@@SAPAV1@PAVQThread@@@Z
       2197  894 00012540 ?get@QMutexPool@@QAEPAVQMutex@@PBX@Z
       2198  895 000037A0 ?get@QObjectPrivate@@SAPAV1@PAVQObject@@@Z
       2199  896 00013CD0 ?get@QThreadStorageData@@QBEPAPAXXZ
       2200  897 0001E9E0 ?getAmPmText@QDateTimeParser@@UBE?AVQString@@W4AmPm@1@W4Case@1@@Z
       2201  898 0008A700 ?getChar@QIODevice@@QAE_NPAD@Z
       2202  899 0007AE60 ?getChar@QRingBuffer@@QAEHXZ
       2203  89A 00044040 ?getCoords@QRect@@QBEXPAH000@Z
       2204  89B 000446A0 ?getCoords@QRectF@@QBEXPAN000@Z
       2205  89C 000227B0 ?getDigit@QDateTimeParser@@QBEHABVQDateTime@@H@Z
       2206  89D 00024DD0 ?getMaximum@QDateTimeParser@@UBE?AVQDateTime@@XZ
       2207  89E 00024D90 ?getMinimum@QDateTimeParser@@UBE?AVQDateTime@@XZ
       2208  89F 00043FD0 ?getRect@QRect@@QBEXPAH000@Z
       2209  8A0 00044650 ?getRect@QRectF@@QBEXPAN000@Z
       2210  8A1 001132C0 ?getch@QIODevice@@QAEHXZ
       2211  8A2 0000C430 ?globalInstance@QThreadPool@@SAPAV1@XZ
       2212  8A3 00012740 ?globalInstanceGet@QMutexPool@@SAPAVQMutex@@PBX@Z
       2213  8A4 0001E0B0 ?gregorianToJulian@QDate@@SAIHHH@Z
       2214  8A5 00087370 ?group@QFileInfo@@QBE?AVQString@@XZ
       2215  8A6 000172F0 ?group@QLocalePrivate@@QBE?AVQChar@@XZ
       2216  8A7 000A55C0 ?group@QSettings@@QBE?AVQString@@XZ
       2217  8A8 00086EA0 ?groupId@QFileInfo@@QBEIXZ
       2218  8A9 0003DEA0 ?groupSeparator@QLocale@@QBE?AVQChar@@XZ
       2219  8AA 0004FB00 ?grow@QString@@CAHH@Z
       2220  8AB 0005BE60 ?grow@QVectorData@@SAHHHH_N@Z
       2221  8AC 000B86B0 ?hadWritten@QWindowsPipeWriter@@QBE_NXZ
       2222  8AD 0001DB90 ?handle@QAbstractFileEngine@@UBEHXZ
       2223  8AE 000AF150 ?handle@QFSFileEngine@@UBEHXZ
       2224  8AF 000843B0 ?handle@QFile@@QBEHXZ
       2225  8B0 0008AF30 ?handle@QWinEventNotifier@@QBEPAXXZ
       2226  8B1 0000A5D0 ?handleException@ThreadEngineBase@QtConcurrent@@AAEXABVException@2@@Z
       2227  8B2 001DCFC4 ?handler@QVariant@@1PBUHandler@1@B
       2228  8B3 000CD5D0 ?hasChildren@QAbstractItemModel@@UBE_NABVQModelIndex@@@Z
       2229  8B4 000CD740 ?hasChildren@QAbstractListModel@@EBE_NABVQModelIndex@@@Z
       2230  8B5 000CD680 ?hasChildren@QAbstractTableModel@@EBE_NABVQModelIndex@@@Z
       2231  8B6 000DF5F0 ?hasColor@QMimeData@@QBE_NXZ
       2232  8B7 000A0900 ?hasEncodedQueryItem@QUrl@@QBE_NABVQByteArray@@@Z
       2233  8B8 000FF120 ?hasError@QXmlStreamReader@@QBE_NXZ
       2234  8B9 0000B770 ?hasException@ExceptionStore@internal@QtConcurrent@@QBE_NXZ
       2235  8BA 000FA2C0 ?hasFailure@QTextDecoder@@QBE_NXZ
       2236  8BB 000DFCE0 ?hasFormat@QMimeData@@UBE_NABVQString@@@Z
       2237  8BC 0009DE90 ?hasFragment@QUrl@@QBE_NXZ
       2238  8BD 000A45E0 ?hasHost@QUrl@@QBE_NXZ
       2239  8BE 000DF4D0 ?hasHtml@QMimeData@@QBE_NXZ
       2240  8BF 000DF560 ?hasImage@QMimeData@@QBE_NXZ
       2241  8C0 000CD570 ?hasIndex@QAbstractItemModel@@QBE_NHHABVQModelIndex@@@Z
       2242  8C1 0004ED10 ?hasMirrored@QChar@@QBE_NXZ
       2243  8C2 00111B30 ?hasMirrored@QCharRef@@QBE_NXZ
       2244  8C3 00083AE0 ?hasNext@QDirIterator@@QBE_NXZ
       2245  8C4 00009CD0 ?hasNextResult@ResultStoreBase@QtConcurrent@@QBE_NXZ
       2246  8C5 0009E540 ?hasPassword@QUrl@@QBE_NXZ
       2247  8C6 0009E580 ?hasPath@QUrl@@QBE_NXZ
       2248  8C7 000D4A60 ?hasPendingEvents@QCoreApplication@@SA_NXZ
       2249  8C8 000F3210 ?hasPendingEvents@QEventDispatcherWin32@@UAE_NXZ
       2250  8C9 000A49D0 ?hasPort@QUrl@@QBE_NXZ
       2251  8CA 0009DD20 ?hasQuery@QUrl@@QBE_NXZ
       2252  8CB 000A1AF0 ?hasQueryItem@QUrl@@QBE_NABVQString@@@Z
       2253  8CC 0009E670 ?hasRef@QUrl@@QBE_NXZ
       2254  8CD 00002F30 ?hasShrunk@QHashData@@QAEXXZ
       2255  8CE 000D9F00 ?hasStdCppSet@QMetaProperty@@QBE_NXZ
       2256  8CF 000DF440 ?hasText@QMimeData@@QBE_NXZ
       2257  8D0 0000B7B0 ?hasThrown@ExceptionStore@internal@QtConcurrent@@QBE_NXZ
       2258  8D1 000DF3B0 ?hasUrls@QMimeData@@QBE_NXZ
       2259  8D2 0009E500 ?hasUser@QUrl@@QBE_NXZ
       2260  8D3 0001DAB0 ?hash@QCryptographicHash@@SA?AVQByteArray@@ABV2@W4Algorithm@1@@Z
       2261  8D4 000CDEF0 ?headerData@QAbstractItemModel@@UBE?AVQVariant@@HW4Orientation@Qt@@H@Z
       2262  8D5 0010F860 ?headerDataChanged@QAbstractItemModel@@IAEXW4Orientation@Qt@@HH@Z
       2263  8D6 00043DB0 ?height@QRect@@QBEHXZ
       2264  8D7 00037850 ?height@QRectF@@QBENXZ
       2265  8D8 00001CA0 ?height@QSize@@QBEHXZ
       2266  8D9 00044390 ?height@QSizeF@@QBENXZ
       2267  8DA 0008DDA0 ?hex@@YAAAVQTextStream@@AAV1@@Z
       2268  8DB 0004E7B0 ?highSurrogate@QChar@@SAGI@Z
       2269  8DC 0000F410 ?home@QDir@@SA?AV1@XZ
       2270  8DD 0000F620 ?homeDirPath@QDir@@SA?AVQString@@XZ
       2271  8DE 0007FE20 ?homePath@QDir@@SA?AVQString@@XZ
       2272  8DF 000C0ED0 ?homePath@QFSFileEngine@@SA?AVQString@@XZ
       2273  8E0 000A34C0 ?host@QUrl@@QBE?AVQString@@XZ
       2274  8E1 0001E110 ?hour@QTime@@QBEHXZ
       2275  8E2 000E0830 ?html@QMimeData@@QBE?AVQString@@XZ
       2276  8E3 000CCDB0 ?id@QMetaCallEvent@@QBEHXZ
       2277  8E4 00014260 ?idealThreadCount@QThread@@SAHXZ
       2278  8E5 000A3FE0 ?idnWhitelist@QUrl@@SA?AVQStringList@@XZ
       2279  8E6 0005B750 ?ignore@QEvent@@QAEXXZ
       2280  8E7 000E08F0 ?imageData@QMimeData@@QBE?AVQVariant@@XZ
       2281  8E8 000CDF30 ?index@QAbstractListModel@@UBE?AVQModelIndex@@HHABV2@@Z
       2282  8E9 000CDF30 ?index@QAbstractTableModel@@UBE?AVQModelIndex@@HHABV2@@Z
       2283  8EA 0001B070 ?indexIn@QByteArrayMatcher@@QBEHABVQByteArray@@H@Z
       2284  8EB 0004DD20 ?indexIn@QRegExp@@QBEHABVQString@@HW4CaretMode@1@@Z
       2285  8EC 00050930 ?indexIn@QStringMatcher@@QBEHABVQString@@H@Z
       2286  8ED 00004800 ?indexOf@?$QVector@VQPoint@@@@QBEHABVQPoint@@H@Z
       2287  8EE 000042E0 ?indexOf@?$QVector@VQPointF@@@@QBEHABVQPointF@@H@Z
       2288  8EF 00101B60 ?indexOf@?$QVector@VQXmlStreamAttribute@@@@QBEHABVQXmlStreamAttribute@@H@Z
       2289  8F0 00018B20 ?indexOf@QByteArray@@QBEHABV1@H@Z
       2290  8F1 001126F0 ?indexOf@QByteArray@@QBEHABVQString@@H@Z
       2291  8F2 00017AE0 ?indexOf@QByteArray@@QBEHDH@Z
       2292  8F3 000194F0 ?indexOf@QByteArray@@QBEHPBDH@Z
       2293  8F4 0007A750 ?indexOf@QRingBuffer@@QBEHD@Z
       2294  8F5 00052010 ?indexOf@QString@@QBEHABV1@HW4CaseSensitivity@Qt@@@Z
       2295  8F6 0004FE80 ?indexOf@QString@@QBEHABVQRegExp@@H@Z
       2296  8F7 00050F50 ?indexOf@QString@@QBEHVQChar@@HW4CaseSensitivity@Qt@@@Z
       2297  8F8 000D9560 ?indexOfClassInfo@QMetaObject@@QBEHPBD@Z
       2298  8F9 000D9420 ?indexOfEnumerator@QMetaObject@@QBEHPBD@Z
       2299  8FA 000D9180 ?indexOfMethod@QMetaObject@@QBEHPBD@Z
       2300  8FB 000D94C0 ?indexOfProperty@QMetaObject@@QBEHPBD@Z
       2301  8FC 000D9220 ?indexOfSignal@QMetaObject@@QBEHPBD@Z
       2302  8FD 000D92E0 ?indexOfSlot@QMetaObject@@QBEHPBD@Z
       2303  8FE 000CD1C0 ?indexValid@QAbstractItemModelPrivate@@QBE_NABVQModelIndex@@@Z
       2304  8FF 000E1530 ?inherits@QObject@@QBE_NPBD@Z
       2305  900 000D8700 ?init@QCoreApplication@@AAEXXZ
       2306  901 00012CD0 ?initialize@QThread@@CAXXZ
       2307  902 00006510 ?insert@?$QVector@VQPoint@@@@QAEPAVQPoint@@PAV2@ABV2@@Z
       2308  903 000050B0 ?insert@?$QVector@VQPoint@@@@QAEPAVQPoint@@PAV2@HABV2@@Z
       2309  904 00006C50 ?insert@?$QVector@VQPoint@@@@QAEXHABVQPoint@@@Z
       2310  905 00006C10 ?insert@?$QVector@VQPoint@@@@QAEXHHABVQPoint@@@Z
       2311  906 00006310 ?insert@?$QVector@VQPointF@@@@QAEPAVQPointF@@PAV2@ABV2@@Z
       2312  907 00004DB0 ?insert@?$QVector@VQPointF@@@@QAEPAVQPointF@@PAV2@HABV2@@Z
       2313  908 00006830 ?insert@?$QVector@VQPointF@@@@QAEXHABVQPointF@@@Z
       2314  909 000067F0 ?insert@?$QVector@VQPointF@@@@QAEXHHABVQPointF@@@Z
       2315  90A 00106ED0 ?insert@?$QVector@VQXmlStreamAttribute@@@@QAEPAVQXmlStreamAttribute@@PAV2@ABV2@@Z
       2316  90B 001060E0 ?insert@?$QVector@VQXmlStreamAttribute@@@@QAEPAVQXmlStreamAttribute@@PAV2@HABV2@@Z
       2317  90C 001071F0 ?insert@?$QVector@VQXmlStreamAttribute@@@@QAEXHABVQXmlStreamAttribute@@@Z
       2318  90D 001071A0 ?insert@?$QVector@VQXmlStreamAttribute@@@@QAEXHHABVQXmlStreamAttribute@@@Z
       2319  90E 00019FD0 ?insert@QByteArray@@QAEAAV1@HABV1@@Z
       2320  90F 00112470 ?insert@QByteArray@@QAEAAV1@HABVQString@@@Z
       2321  910 0001A0B0 ?insert@QByteArray@@QAEAAV1@HD@Z
       2322  911 0001A060 ?insert@QByteArray@@QAEAAV1@HPBD@Z
       2323  912 00038E50 ?insert@QListData@@QAEPAPAXH@Z
       2324  913 00054860 ?insert@QString@@QAEAAV1@HABV1@@Z
       2325  914 00053430 ?insert@QString@@QAEAAV1@HABVQLatin1String@@@Z
       2326  915 000534F0 ?insert@QString@@QAEAAV1@HPBVQChar@@H@Z
       2327  916 000535C0 ?insert@QString@@QAEAAV1@HVQChar@@@Z
       2328  917 00112B20 ?insertChild@QObject@@QAEXPAV1@@Z
       2329  918 000CCF50 ?insertColumn@QAbstractItemModel@@QAE_NHABVQModelIndex@@@Z
       2330  919 000CD610 ?insertColumns@QAbstractItemModel@@UAE_NHHABVQModelIndex@@@Z
       2331  91A 0000A1C0 ?insertResultItem@ResultStoreBase@QtConcurrent@@IAEHHAAVResultItem@2@@Z
       2332  91B 00009F80 ?insertResultItemIfValid@ResultStoreBase@QtConcurrent@@IAEXHAAVResultItem@2@@Z
       2333  91C 000CCF30 ?insertRow@QAbstractItemModel@@QAE_NHABVQModelIndex@@@Z
       2334  91D 000CD610 ?insertRows@QAbstractItemModel@@UAE_NHHABVQModelIndex@@@Z
       2335  91E 0000ED10 ?insertSearchPath@QSettings@@QAEXW4System@1@ABVQString@@@Z
       2336  91F 00112E40 ?inserted@QChildEvent@@QBE_NXZ
       2337  920 000E7E70 ?installEventFilter@QObject@@QAEXPAV1@@Z
       2338  921 000D6270 ?installTranslator@QCoreApplication@@SAXPAVQTranslator@@@Z
       2339  922 000CCCF0 ?instance@QAbstractEventDispatcher@@SAPAV1@PAVQThread@@@Z
       2340  923 0000EF60 ?instance@QCoreApplication@@SAPAV1@XZ
       2341  924 000C71A0 ?instance@QFactoryLoader@@QBEPAVQObject@@ABVQString@@@Z
       2342  925 00012730 ?instance@QMutexPool@@SAPAV1@XZ
       2343  926 000C6430 ?instance@QPluginLoader@@QAEPAVQObject@@XZ
       2344  927 0008DC90 ?integerBase@QTextStream@@QBEHXZ
       2345  928 000CCDA0 ?internalId@QModelIndex@@QBE_JXZ
       2346  929 000CD430 ?internalId@QPersistentModelIndex@@QBE_JXZ
       2347  92A 0008AF30 ?internalPointer@QModelIndex@@QBEPAXXZ
       2348  92B 000CD420 ?internalPointer@QPersistentModelIndex@@QBEPAXXZ
       2349  92C 000F3260 ?interrupt@QEventDispatcherWin32@@UAEXXZ
       2350  92D 00038030 ?intersect@QLineF@@QBE?AW4IntersectType@1@ABV1@PAVQPointF@@@Z
       2351  92E 00045920 ?intersect@QRect@@QBE?AV1@ABV1@@Z
       2352  92F 000459C0 ?intersect@QRectF@@QBE?AV1@ABV1@@Z
       2353  930 00045920 ?intersected@QRect@@QBE?AV1@ABV1@@Z
       2354  931 000459C0 ?intersected@QRectF@@QBE?AV1@ABV1@@Z
       2355  932 000452B0 ?intersects@QRect@@QBE_NABV1@@Z
       2356  933 00045770 ?intersects@QRectF@@QBE_NABV1@@Z
       2357  934 000CCDB0 ?interval@QTimer@@QBEHXZ
       2358  935 000CF650 ?invalidatePersistentIndexes@QAbstractItemModelPrivate@@QAEXXZ
       2359  936 000B0CB0 ?invokeMethod@QMetaObject@@SA_NPAVQObject@@PBDVQGenericArgument@@222222222@Z
       2360  937 001109C0 ?invokeMethod@QMetaObject@@SA_NPAVQObject@@PBDVQGenericReturnArgument@@VQGenericArgument@@333333333@Z
       2361  938 00079C80 ?invokeMethod@QMetaObject@@SA_NPAVQObject@@PBDW4ConnectionType@Qt@@VQGenericArgument@@333333333@Z
       2362  939 000DB4E0 ?invokeMethod@QMetaObject@@SA_NPAVQObject@@PBDW4ConnectionType@Qt@@VQGenericReturnArgument@@VQGenericArgument@@444444444@Z
       2363  93A 00112B60 ?isA@QObject@@QBE_NPBD@Z
       2364  93B 0000E800 ?isAbsolute@QDir@@QBE_NXZ
       2365  93C 0000E7C0 ?isAbsolute@QFileInfo@@QBE_NXZ
       2366  93D 0000E7E0 ?isAbsolutePath@QDir@@SA_NABVQString@@@Z
       2367  93E 00112DF0 ?isAccepted@QEvent@@QBE_NXZ
       2368  93F 0008AF10 ?isActive@QBasicTimer@@QBE_NXZ
       2369  940 0008AF20 ?isActive@QTimer@@QBE_NXZ
       2370  941 0000A400 ?isAsynchronous@QIODevice@@QBE_NXZ
       2371  942 0005AED0 ?isAtBoundary@QTextBoundaryFinder@@QBE_NXZ
       2372  943 00089380 ?isAttached@QSharedMemory@@QBE_NXZ
       2373  944 0010DE90 ?isBaseChar@QXmlUtils@@CA_NVQChar@@@Z
       2374  945 00110B10 ?isBuffered@QIODevice@@QBE_NXZ
       2375  946 00087290 ?isBundle@QFileInfo@@QBE_NXZ
       2376  947 000FE5C0 ?isCDATA@QXmlStreamReader@@QBE_NXZ
       2377  948 00003AD0 ?isCanceled@QFutureInterfaceBase@@QBE_NXZ
       2378  949 00009100 ?isCanceled@QFutureWatcherBase@@QBE_NXZ
       2379  94A 0000A590 ?isCanceled@ThreadEngineBase@QtConcurrent@@QAE_NXZ
       2380  94B 0010DFA0 ?isChar@QXmlUtils@@SA_NVQChar@@@Z
       2381  94C 000FF0D0 ?isCharacters@QXmlStreamReader@@QBE_NXZ
       2382  94D 0000A400 ?isCombinedAccess@QIODevice@@QBE_NXZ
       2383  94E 0010DE30 ?isCombiningChar@QXmlUtils@@CA_NVQChar@@@Z
       2384  94F 000FF0E0 ?isComment@QXmlStreamReader@@QBE_NXZ
       2385  950 00095CC0 ?isCompressed@QResource@@QBE_NXZ
       2386  951 000FF0F0 ?isDTD@QXmlStreamReader@@QBE_NXZ
       2387  952 000FE060 ?isDefault@QXmlStreamAttribute@@QBE_NXZ
       2388  953 000D9FA0 ?isDesignable@QMetaProperty@@QBE_NPBVQObject@@@Z
       2389  954 00015A10 ?isDetached@?$QVector@VQPoint@@@@QBE_NXZ
       2390  955 00015A10 ?isDetached@?$QVector@VQPointF@@@@QBE_NXZ
       2391  956 00015A10 ?isDetached@?$QVector@VQXmlStreamAttribute@@@@QBE_NXZ
       2392  957 00015A10 ?isDetached@QBitArray@@QBE_NXZ
       2393  958 00015A10 ?isDetached@QByteArray@@QBE_NXZ
       2394  959 00015A10 ?isDetached@QString@@QBE_NXZ
       2395  95A 00015A10 ?isDetached@QUrl@@QBE_NXZ
       2396  95B 00113590 ?isDetached@QVariant@@QBE_NXZ
       2397  95C 0004EA70 ?isDigit@QChar@@QBE_NXZ
       2398  95D 001118F0 ?isDigit@QCharRef@@QBE_NXZ
       2399  95E 0010DE50 ?isDigit@QXmlUtils@@CA_NVQChar@@@Z
       2400  95F 00087260 ?isDir@QFileInfo@@QBE_NXZ
       2401  960 00095D10 ?isDir@QResource@@IBE_NXZ
       2402  961 00113220 ?isDirectAccess@QIODevice@@QBE_NXZ
       2403  962 000DA160 ?isEditable@QMetaProperty@@QBE_NPBVQObject@@@Z
       2404  963 000025F0 ?isEmpty@?$QVector@VQPoint@@@@QBE_NXZ
       2405  964 000025F0 ?isEmpty@?$QVector@VQPointF@@@@QBE_NXZ
       2406  965 000025F0 ?isEmpty@?$QVector@VQXmlStreamAttribute@@@@QBE_NXZ
       2407  966 000025F0 ?isEmpty@QBitArray@@QBE_NXZ
       2408  967 000025F0 ?isEmpty@QByteArray@@QBE_NXZ
       2409  968 00002C30 ?isEmpty@QListData@@QBE_NXZ
       2410  969 000E80C0 ?isEmpty@QObjectCleanupHandler@@QBE_NXZ
       2411  96A 00043C30 ?isEmpty@QRect@@QBE_NXZ
       2412  96B 00044330 ?isEmpty@QRectF@@QBE_NXZ
       2413  96C 00046480 ?isEmpty@QRegExp@@QBE_NXZ
       2414  96D 00079C40 ?isEmpty@QRingBuffer@@QBE_NXZ
       2415  96E 00043980 ?isEmpty@QSize@@QBE_NXZ
       2416  96F 00043A80 ?isEmpty@QSizeF@@QBE_NXZ
       2417  970 000025F0 ?isEmpty@QString@@QBE_NXZ
       2418  971 000507F0 ?isEmpty@QStringRef@@QBE_NXZ
       2419  972 000EA060 ?isEmpty@QTranslator@@UBE_NXZ
       2420  973 0009C490 ?isEmpty@QUrl@@QBE_NXZ
       2421  974 00009B60 ?isEnabled@QSocketNotifier@@QBE_NXZ
       2422  975 000F77F0 ?isEnabled@QWinEventNotifier@@QBE_NXZ
       2423  976 0010DEB0 ?isEncName@QXmlUtils@@SA_NABVQString@@@Z
       2424  977 000FF0A0 ?isEndDocument@QXmlStreamReader@@QBE_NXZ
       2425  978 000FF0C0 ?isEndElement@QXmlStreamReader@@QBE_NXZ
       2426  979 000FF100 ?isEntityReference@QXmlStreamReader@@QBE_NXZ
       2427  97A 000D9EC0 ?isEnumType@QMetaProperty@@QBE_NXZ
       2428  97B 00087AA0 ?isExecutable@QFileInfo@@QBE_NXZ
       2429  97C 0010DE70 ?isExtender@QXmlUtils@@CA_NVQChar@@@Z
       2430  97D 00110B10 ?isFetchAndAddNative@QBasicAtomicInt@@SA_NXZ
       2431  97E 00110B10 ?isFetchAndAddWaitFree@QBasicAtomicInt@@SA_NXZ
       2432  97F 00110B10 ?isFetchAndStoreNative@QBasicAtomicInt@@SA_NXZ
       2433  980 00110B10 ?isFetchAndStoreWaitFree@QBasicAtomicInt@@SA_NXZ
       2434  981 00087230 ?isFile@QFileInfo@@QBE_NXZ
       2435  982 0007C5A0 ?isFile@QResource@@IBE_NXZ
       2436  983 00003AE0 ?isFinished@QFutureInterfaceBase@@QBE_NXZ
       2437  984 000090D0 ?isFinished@QFutureWatcherBase@@QBE_NXZ
       2438  985 00012EA0 ?isFinished@QThread@@QBE_NXZ
       2439  986 000D9A30 ?isFlag@QMetaEnum@@QBE_NXZ
       2440  987 000DB190 ?isFlagType@QMetaProperty@@QBE_NXZ
       2441  988 00087200 ?isHidden@QFileInfo@@QBE_NXZ
       2442  989 0004E750 ?isHighSurrogate@QChar@@QBE_NXZ
       2443  98A 0010DE10 ?isIdeographic@QXmlUtils@@CA_NVQChar@@@Z
       2444  98B 00113240 ?isInactive@QIODevice@@QBE_NXZ
       2445  98C 0001ECD0 ?isLeapYear@QDate@@SA_NH@Z
       2446  98D 0004E9B0 ?isLetter@QChar@@QBE_NXZ
       2447  98E 00111830 ?isLetter@QCharRef@@QBE_NXZ
       2448  98F 0010DF60 ?isLetter@QXmlUtils@@SA_NVQChar@@@Z
       2449  990 0004EA30 ?isLetterOrNumber@QChar@@QBE_NXZ
       2450  991 001118B0 ?isLetterOrNumber@QCharRef@@QAE_NXZ
       2451  992 000C98F0 ?isLibrary@QLibrary@@SA_NABVQString@@@Z
       2452  993 000C97A0 ?isLoaded@QLibrary@@QBE_NXZ
       2453  994 000C5ED0 ?isLoaded@QPluginLoader@@QBE_NXZ
       2454  995 0004E770 ?isLowSurrogate@QChar@@QBE_NXZ
       2455  996 00110A50 ?isLower@QChar@@QBE_NXZ
       2456  997 00111930 ?isLower@QCharRef@@QBE_NXZ
       2457  998 0004E930 ?isMark@QChar@@QBE_NXZ
       2458  999 001117F0 ?isMark@QCharRef@@QBE_NXZ
       2459  99A 00045E40 ?isMinimal@QRegExp@@QBE_NXZ
       2460  99B 000FF150 ?isNCName@QXmlUtils@@SA_NABVQString@@@Z
       2461  99C 0010E170 ?isNCName@QXmlUtils@@SA_NABVQStringRef@@@Z
       2462  99D 0010DFE0 ?isNameChar@QXmlUtils@@SA_NVQChar@@@Z
       2463  99E 000158E0 ?isNull@QBitArray@@QBE_NXZ
       2464  99F 00016ED0 ?isNull@QByteArray@@QBE_NXZ
       2465  9A0 0001DB70 ?isNull@QChar@@QBE_NXZ
       2466  9A1 00111700 ?isNull@QCharRef@@QBE_NXZ
       2467  9A2 00001F10 ?isNull@QDate@@QBE_NXZ
       2468  9A3 0001E460 ?isNull@QDateTime@@QBE_NXZ
       2469  9A4 00037660 ?isNull@QLine@@QBE_NXZ
       2470  9A5 00037F90 ?isNull@QLineF@@QBE_NXZ
       2471  9A6 00001520 ?isNull@QPoint@@QBE_NXZ
       2472  9A7 00001710 ?isNull@QPointF@@QBE_NXZ
       2473  9A8 00043C10 ?isNull@QRect@@QBE_NXZ
       2474  9A9 00044300 ?isNull@QRectF@@QBE_NXZ
       2475  9AA 00001520 ?isNull@QSize@@QBE_NXZ
       2476  9AB 00001710 ?isNull@QSizeF@@QBE_NXZ
       2477  9AC 0000EE50 ?isNull@QString@@QBE_NXZ
       2478  9AD 000FE780 ?isNull@QStringRef@@QBE_NXZ
       2479  9AE 00002070 ?isNull@QTime@@QBE_NXZ
       2480  9AF 000C8B20 ?isNull@QUuid@@QBE_NXZ
       2481  9B0 000EB530 ?isNull@QVariant@@QBE_NXZ
       2482  9B1 0004E9F0 ?isNumber@QChar@@QBE_NXZ
       2483  9B2 00111870 ?isNumber@QCharRef@@QBE_NXZ
       2484  9B3 00089380 ?isOpen@QIODevice@@QBE_NXZ
       2485  9B4 000A4130 ?isParentOf@QUrl@@QBE_NABV1@@Z
       2486  9B5 00003AF0 ?isPaused@QFutureInterfaceBase@@QBE_NXZ
       2487  9B6 00009120 ?isPaused@QFutureWatcherBase@@QBE_NXZ
       2488  9B7 0004E8A0 ?isPrint@QChar@@QBE_NXZ
       2489  9B8 00111730 ?isPrint@QCharRef@@QBE_NXZ
       2490  9B9 0000A400 ?isPrintableData@QDataStream@@QBE_NXZ
       2491  9BA 000FF110 ?isProcessingInstruction@QXmlStreamReader@@QBE_NXZ
       2492  9BB 0000A5A0 ?isProgressReportingEnabled@ThreadEngineBase@QtConcurrent@@QAE_NXZ
       2493  9BC 00003E10 ?isProgressUpdateNeeded@QFutureInterfaceBase@@QBE_NXZ
       2494  9BD 0010E0A0 ?isPublicID@QXmlUtils@@SA_NABVQString@@@Z
       2495  9BE 0004E970 ?isPunct@QChar@@QBE_NXZ
       2496  9BF 00111770 ?isPunct@QCharRef@@QBE_NXZ
       2497  9C0 0000A400 ?isRaw@QIODevice@@QBE_NXZ
       2498  9C1 0007DE20 ?isReadable@QDir@@QBE_NXZ
       2499  9C2 00087880 ?isReadable@QFileInfo@@QBE_NXZ
       2500  9C3 00089520 ?isReadable@QIODevice@@QBE_NXZ
       2501  9C4 000D9F60 ?isReadable@QMetaProperty@@QBE_NXZ
       2502  9C5 00110B10 ?isReferenceCountingNative@QBasicAtomicInt@@SA_NXZ
       2503  9C6 00110B10 ?isReferenceCountingWaitFree@QBasicAtomicInt@@SA_NXZ
       2504  9C7 000DD4A0 ?isRegistered@QMetaType@@SA_NH@Z
       2505  9C8 0007C610 ?isRelative@QDir@@QBE_NXZ
       2506  9C9 00086E60 ?isRelative@QFileInfo@@QBE_NXZ
       2507  9CA 0009DEB0 ?isRelative@QUrl@@QBE_NXZ
       2508  9CB 0000A400 ?isRelativePath@QAbstractFileEngine@@UBE_NXZ
       2509  9CC 0007C650 ?isRelativePath@QDir@@SA_NABVQString@@@Z
       2510  9CD 000BE1B0 ?isRelativePath@QFSFileEngine@@UBE_NXZ
       2511  9CE 000A2490 ?isRelativeUrl@QUrl@@SA_NABVQString@@@Z
       2512  9CF 000D9F40 ?isResettable@QMetaProperty@@QBE_NXZ
       2513  9D0 00003B10 ?isResultReadyAt@QFutureInterfaceBase@@QBE_NH@Z
       2514  9D1 00111510 ?isRightToLeft@QString@@QBE_NXZ
       2515  9D2 0007DEC0 ?isRoot@QDir@@QBE_NXZ
       2516  9D3 000872F0 ?isRoot@QFileInfo@@QBE_NXZ
       2517  9D4 000D45B0 ?isRunning@QEventLoop@@QBE_NXZ
       2518  9D5 00003AB0 ?isRunning@QFutureInterfaceBase@@QBE_NXZ
       2519  9D6 000090E0 ?isRunning@QFutureWatcherBase@@QBE_NXZ
       2520  9D7 00012EE0 ?isRunning@QThread@@QBE_NXZ
       2521  9D8 000DA010 ?isScriptable@QMetaProperty@@QBE_NPBVQObject@@@Z
       2522  9D9 000E1D90 ?isSender@QObjectPrivate@@QBE_NPBVQObject@@PBD@Z
       2523  9DA 0000A400 ?isSequential@QAbstractFileEngine@@UBE_NXZ
       2524  9DB 000AF220 ?isSequential@QFSFileEngine@@UBE_NXZ
       2525  9DC 00084380 ?isSequential@QFile@@UBE_NXZ
       2526  9DD 0000A400 ?isSequential@QIODevice@@UBE_NXZ
       2527  9DE 00079D10 ?isSequential@QIODevicePrivate@@QBE_NXZ
       2528  9DF 00110B10 ?isSequential@QProcess@@UBE_NXZ
       2529  9E0 00113230 ?isSequentialAccess@QIODevice@@QBE_NXZ
       2530  9E1 001114F0 ?isSimpleText@QString@@QBE_NXZ
       2531  9E2 0008AF40 ?isSingleShot@QTimer@@QBE_NXZ
       2532  9E3 0004E8E0 ?isSpace@QChar@@QBE_NXZ
       2533  9E4 001117B0 ?isSpace@QCharRef@@QBE_NXZ
       2534  9E5 000FE5E0 ?isStandaloneDocument@QXmlStreamReader@@QBE_NXZ
       2535  9E6 000FF090 ?isStartDocument@QXmlStreamReader@@QBE_NXZ
       2536  9E7 000FF0B0 ?isStartElement@QXmlStreamReader@@QBE_NXZ
       2537  9E8 00003AC0 ?isStarted@QFutureInterfaceBase@@QBE_NXZ
       2538  9E9 000090B0 ?isStarted@QFutureWatcherBase@@QBE_NXZ
       2539  9EA 000DA080 ?isStored@QMetaProperty@@QBE_NPBVQObject@@@Z
       2540  9EB 000872C0 ?isSymLink@QFileInfo@@QBE_NXZ
       2541  9EC 0004EAB0 ?isSymbol@QChar@@QBE_NXZ
       2542  9ED 00110B10 ?isSynchronous@QIODevice@@QBE_NXZ
       2543  9EE 00110B10 ?isTestAndSetNative@QBasicAtomicInt@@SA_NXZ
       2544  9EF 00110B10 ?isTestAndSetWaitFree@QBasicAtomicInt@@SA_NXZ
       2545  9F0 00089510 ?isTextModeEnabled@QIODevice@@QBE_NXZ
       2546  9F1 00003B00 ?isThrottled@QFutureInterfaceBase@@QBE_NXZ
       2547  9F2 00110A60 ?isTitleCase@QChar@@QBE_NXZ
       2548  9F3 001119B0 ?isTitleCase@QCharRef@@QBE_NXZ
       2549  9F4 00114D70 ?isTranslated@QIODevice@@QBE_NXZ
       2550  9F5 000D4DB0 ?isTranslatorInstalled@QCoreApplicationPrivate@@SA_NPAVQTranslator@@@Z
       2551  9F6 0001DB80 ?isUpper@QChar@@QBE_NXZ
       2552  9F7 00111970 ?isUpper@QCharRef@@QBE_NXZ
       2553  9F8 000DA0F0 ?isUser@QMetaProperty@@QBE_NPBVQObject@@@Z
       2554  9F9 0008AF10 ?isValid@QDate@@QBE_NXZ
       2555  9FA 00020B00 ?isValid@QDate@@SA_NHHH@Z
       2556  9FB 0001E480 ?isValid@QDateTime@@QBE_NXZ
       2557  9FC 00028C90 ?isValid@QMetaEnum@@QBE_NXZ
       2558  9FD 00028CA0 ?isValid@QMetaProperty@@QBE_NXZ
       2559  9FE 000CCDC0 ?isValid@QModelIndex@@QBE_NXZ
       2560  9FF 000CD530 ?isValid@QPersistentModelIndex@@QBE_NXZ
       2561  A00 00043C50 ?isValid@QRect@@QBE_NXZ
       2562  A01 00044360 ?isValid@QRectF@@QBE_NXZ
       2563  A02 0004DC30 ?isValid@QRegExp@@QBE_NXZ
       2564  A03 00095CA0 ?isValid@QResource@@QBE_NXZ
       2565  A04 000439A0 ?isValid@QSize@@QBE_NXZ
       2566  A05 00043AA0 ?isValid@QSizeF@@QBE_NXZ
       2567  A06 0005AC80 ?isValid@QTextBoundaryFinder@@QBE_NXZ
       2568  A07 0001E0F0 ?isValid@QTime@@QBE_NXZ
       2569  A08 0001E330 ?isValid@QTime@@SA_NHHHH@Z
       2570  A09 000A4970 ?isValid@QUrl@@QBE_NXZ
       2571  A0A 000E15B0 ?isValid@QVariant@@QBE_NXZ
       2572  A0B 00009D20 ?isVector@ResultIteratorBase@QtConcurrent@@QBE_NXZ
       2573  A0C 000FE5A0 ?isWhitespace@QXmlStreamReader@@QBE_NXZ
       2574  A0D 000D4A80 ?isWidgetType@QObject@@QBE_NXZ
       2575  A0E 000A5B30 ?isWritable@QConfFile@@QBE_NXZ
       2576  A0F 000878A0 ?isWritable@QFileInfo@@QBE_NXZ
       2577  A10 00089530 ?isWritable@QIODevice@@QBE_NXZ
       2578  A11 000D9F80 ?isWritable@QMetaProperty@@QBE_NXZ
       2579  A12 000A55F0 ?isWritable@QSettings@@QBE_NXZ
       2580  A13 001DEAD1 ?is_app_closing@QCoreApplicationPrivate@@2_NA
       2581  A14 001DEAD0 ?is_app_running@QCoreApplicationPrivate@@2_NA
       2582  A15 000CF800 ?itemData@QAbstractItemModel@@UBE?AV?$QMap@HVQVariant@@@@ABVQModelIndex@@@Z
       2583  A16 0004EC90 ?joining@QChar@@QBE?AW4Joining@1@XZ
       2584  A17 0004ECE0 ?joining@QChar@@SA?AW4Joining@1@G@Z
       2585  A18 0004ECC0 ?joining@QChar@@SA?AW4Joining@1@I@Z
       2586  A19 00111AF0 ?joining@QCharRef@@QBE?AW4Joining@QChar@@XZ
       2587  A1A 0001E0D0 ?julianToGregorian@QDate@@SAXIAAH00@Z
       2588  A1B 000D99B0 ?key@QMetaEnum@@QBEPBDH@Z
       2589  A1C 000F2020 ?key@QSharedMemory@@QBE?AVQString@@XZ
       2590  A1D 000F2D20 ?key@QSystemSemaphore@@QBE?AVQString@@XZ
       2591  A1E 000D9990 ?keyCount@QMetaEnum@@QBEHXZ
       2592  A1F 000D9A60 ?keyToValue@QMetaEnum@@QBEHPBD@Z
       2593  A20 000C75A0 ?keys@QFactoryLoader@@QBE?AVQStringList@@XZ
       2594  A21 000FDD40 ?keys@QTextCodecPlugin@@EBE?AVQStringList@@XZ
       2595  A22 000DBD40 ?keysToValue@QMetaEnum@@QBEHPBD@Z
       2596  A23 0008B280 ?kill@QProcess@@QAEXXZ
       2597  A24 000E1750 ?killTimer@QObject@@QAEXH@Z
       2598  A25 00111D90 ?killTimer@QTimer@@AAEXH@Z
       2599  A26 00039180 ?language@QLocale@@QBE?AW4Language@1@XZ
       2600  A27 00037680 ?languageId@QLocalePrivate@@QBEIXZ
       2601  A28 0003DC90 ?languageToString@QLocale@@SA?AVQString@@W4Language@1@@Z
       2602  A29 00006530 ?last@?$QVector@VQPoint@@@@QAEAAVQPoint@@XZ
       2603  A2A 00002680 ?last@?$QVector@VQPoint@@@@QBEABVQPoint@@XZ
       2604  A2B 00006330 ?last@?$QVector@VQPointF@@@@QAEAAVQPointF@@XZ
       2605  A2C 00002630 ?last@?$QVector@VQPointF@@@@QBEABVQPointF@@XZ
       2606  A2D 00106F00 ?last@?$QVector@VQXmlStreamAttribute@@@@QAEAAVQXmlStreamAttribute@@XZ
       2607  A2E 000FE810 ?last@?$QVector@VQXmlStreamAttribute@@@@QBEABVQXmlStreamAttribute@@XZ
       2608  A2F 0004DDB0 ?lastIndexIn@QRegExp@@QBEHABVQString@@HW4CaretMode@1@@Z
       2609  A30 00002920 ?lastIndexOf@?$QVector@VQPoint@@@@QBEHABVQPoint@@H@Z
       2610  A31 00004390 ?lastIndexOf@?$QVector@VQPointF@@@@QBEHABVQPointF@@H@Z
       2611  A32 00101C00 ?lastIndexOf@?$QVector@VQXmlStreamAttribute@@@@QBEHABVQXmlStreamAttribute@@H@Z
       2612  A33 00017B40 ?lastIndexOf@QByteArray@@QBEHABV1@H@Z
       2613  A34 00112770 ?lastIndexOf@QByteArray@@QBEHABVQString@@H@Z
       2614  A35 00016B30 ?lastIndexOf@QByteArray@@QBEHDH@Z
       2615  A36 00096FD0 ?lastIndexOf@QByteArray@@QBEHPBDH@Z
       2616  A37 00050F80 ?lastIndexOf@QString@@QBEHABV1@HW4CaseSensitivity@Qt@@@Z
       2617  A38 0004FEA0 ?lastIndexOf@QString@@QBEHABVQRegExp@@H@Z
       2618  A39 0004FD00 ?lastIndexOf@QString@@QBEHVQChar@@HW4CaseSensitivity@Qt@@@Z
       2619  A3A 00087470 ?lastModified@QFileInfo@@QBE?AVQDateTime@@XZ
       2620  A3B 000874B0 ?lastRead@QFileInfo@@QBE?AVQDateTime@@XZ
       2621  A3C 001137A0 ?latin1@QChar@@QBE?BDXZ
       2622  A3D 00111D30 ?latin1@QCharRef@@QBE?BDXZ
       2623  A3E 00037680 ?latin1@QLatin1String@@QBEPBDXZ
       2624  A3F 001112A0 ?latin1@QString@@QBEPBDXZ
       2625  A40 000528A0 ?latin1_helper@QString@@IBEPBDXZ
       2626  A41 0010F8C0 ?layoutAboutToBeChanged@QAbstractItemModel@@IAEXXZ
       2627  A42 0010F8A0 ?layoutChanged@QAbstractItemModel@@IAEXXZ
       2628  A43 00002000 ?leapYear@QDate@@SA_NH@Z
       2629  A44 0008DE00 ?left@@YAAAVQTextStream@@AAV1@@Z
       2630  A45 00017CE0 ?left@QByteArray@@QBE?AV1@H@Z
       2631  A46 00037680 ?left@QRect@@QBEHXZ
       2632  A47 00001740 ?left@QRectF@@QBENXZ
       2633  A48 00054240 ?left@QString@@QBE?AV1@H@Z
       2634  A49 00019250 ?leftJustified@QByteArray@@QBE?AV1@HD_N@Z
       2635  A4A 00054EE0 ?leftJustified@QString@@QBE?AV1@HVQChar@@_N@Z
       2636  A4B 001137B0 ?leftJustify@QByteArray@@QBE?AV1@ID_N@Z
       2637  A4C 00114260 ?leftJustify@QString@@QBE?AV1@HVQChar@@_N@Z
       2638  A4D 00051F60 ?leftRef@QString@@QBE?AVQStringRef@@H@Z
       2639  A4E 000025E0 ?length@QByteArray@@QBEHXZ
       2640  A4F 00037BC0 ?length@QLineF@@QBENXZ
       2641  A50 000025E0 ?length@QString@@QBEHXZ
       2642  A51 0008AF30 ?length@QStringRef@@QBEHXZ
       2643  A52 000A5AE0 ?library@QLibrary@@QBE?AVQString@@XZ
       2644  A53 000D7FA0 ?libraryPaths@QCoreApplication@@SA?AVQStringList@@XZ
       2645  A54 0000FC80 ?licensedProducts@QLibraryInfo@@SA?AVQString@@XZ
       2646  A55 0000FC50 ?licensee@QLibraryInfo@@SA?AVQString@@XZ
       2647  A56 0004F620 ?lineBreakClass@QUnicodeTables@@YA?AW4LineBreakClass@1@I@Z
       2648  A57 000FE370 ?lineNumber@QXmlStreamReader@@QBE_JXZ
       2649  A58 00092C10 ?link@QAbstractFileEngine@@UAE_NABVQString@@@Z
       2650  A59 000BD560 ?link@QFSFileEngine@@UAE_NABVQString@@@Z
       2651  A5A 00084AD0 ?link@QFile@@QAE_NABVQString@@@Z
       2652  A5B 000865C0 ?link@QFile@@SA_NABVQString@@0@Z
       2653  A5C 00017300 ?list@QLocalePrivate@@QBE?AVQChar@@XZ
       2654  A5D 000C9910 ?load@QLibrary@@QAE_NXZ
       2655  A5E 000DEDB0 ?load@QMetaType@@SA_NAAVQDataStream@@HPAX@Z
       2656  A5F 000C6080 ?load@QPluginLoader@@QAE_NXZ
       2657  A60 000EAA00 ?load@QTranslator@@QAE_NABVQString@@000@Z
       2658  A61 000EB020 ?load@QTranslator@@QAE_NPBEH@Z
       2659  A62 000ED310 ?load@QVariant@@QAEXAAVQDataStream@@@Z
       2660  A63 000C9AB0 ?loadHints@QLibrary@@QBE?AV?$QFlags@W4LoadHint@QLibrary@@@@XZ
       2661  A64 000C6560 ?loadHints@QPluginLoader@@QBE?AV?$QFlags@W4LoadHint@QLibrary@@@@XZ
       2662  A65 001112D0 ?local8Bit@QString@@QBE?AVQByteArray@@XZ
       2663  A66 0001DBA0 ?locale@QDateTimeParser@@UBE?AVQLocale@@XZ
       2664  A67 00092960 ?locale@QResource@@QBE?AVQLocale@@XZ
       2665  A68 000FA5F0 ?locale@QTextCodec@@SAPBDXZ
       2666  A69 00054C80 ?localeAwareCompare@QString@@QBEHABV1@@Z
       2667  A6A 001110E0 ?localeAwareCompare@QString@@SAHABV1@0@Z
       2668  A6B 00010600 ?location@QLibraryInfo@@SA?AVQString@@W4LibraryLocation@1@@Z
       2669  A6C 000D8AA0 ?lock@QCoreApplication@@QAEXXZ
       2670  A6D 000114C0 ?lock@QMutex@@QAEXXZ
       2671  A6E 000F2050 ?lock@QSharedMemory@@QAE_NXZ
       2672  A6F 00011DD0 ?lockForRead@QReadWriteLock@@QAEXXZ
       2673  A70 000116B0 ?lockForWrite@QReadWriteLock@@QAEXXZ
       2674  A71 0000A400 ?locked@QCoreApplication@@QAE_NXZ
       2675  A72 00001000 ?locked@QMutex@@QAE_NXZ
       2676  A73 0001EC90 ?longDayName@QDate@@SA?AVQString@@H@Z
       2677  A74 0003EDA0 ?longLongToString@QLocalePrivate@@QBE?AVQString@@_JHHHI@Z
       2678  A75 0001EC10 ?longMonthName@QDate@@SA?AVQString@@H@Z
       2679  A76 0005B460 ?loopCount@QTimeLine@@QBEHXZ
       2680  A77 000D5310 ?loopLevel@QCoreApplication@@SAHXZ
       2681  A78 0004E7C0 ?lowSurrogate@QChar@@SAGI@Z
       2682  A79 00113920 ?lower@QByteArray@@QBE?AV1@XZ
       2683  A7A 00110AA0 ?lower@QChar@@QBE?AV1@XZ
       2684  A7B 00111CB0 ?lower@QCharRef@@QBE?AVQChar@@XZ
       2685  A7C 001142C0 ?lower@QString@@QBE?AV1@XZ
       2686  A7D 0008E3D0 ?lowercasebase@@YAAAVQTextStream@@AAV1@@Z
       2687  A7E 0008E3E0 ?lowercasedigits@@YAAAVQTextStream@@AAV1@@Z
       2688  A7F 000D49F0 ?mainThread@QCoreApplicationPrivate@@SAPAVQThread@@XZ
       2689  A80 000810E0 ?makeAbsolute@QDir@@QAE_NXZ
       2690  A81 000891C0 ?makeAbsolute@QFileInfo@@QAE_NXZ
       2691  A82 000FAD00 ?makeDecoder@QTextCodec@@QBEPAVQTextDecoder@@XZ
       2692  A83 000FAD00 ?makeEncoder@QTextCodec@@QBEPAVQTextEncoder@@XZ
       2693  A84 00002A70 ?malloc@?$QVector@VQPoint@@@@AAEPAUQVectorData@@H@Z
       2694  A85 00002890 ?malloc@?$QVector@VQPointF@@@@AAEPAUQVectorData@@H@Z
       2695  A86 000FE900 ?malloc@?$QVector@VQXmlStreamAttribute@@@@AAEPAUQVectorData@@H@Z
       2696  A87 0005BEA0 ?malloc@QVectorData@@SAPAU1@HHHPAU1@@Z
       2697  A88 000435B0 ?manhattanLength@QPoint@@QBEHXZ
       2698  A89 00078B20 ?map@QAbstractFileEngine@@QAEPAE_J0W4MemoryMapFlags@QFile@@@Z
       2699  A8A 00085070 ?map@QFile@@QAEPAE_J0W4MemoryMapFlags@1@@Z
       2700  A8B 000E8870 ?map@QSignalMapper@@QAEXPAVQObject@@@Z
       2701  A8C 000E8C70 ?map@QSignalMapper@@QAEXXZ
       2702  A8D 000E84A0 ?mapped@QSignalMapper@@IAEXABVQString@@@Z
       2703  A8E 000E8470 ?mapped@QSignalMapper@@IAEXH@Z
       2704  A8F 000E8500 ?mapped@QSignalMapper@@IAEXPAVQObject@@@Z
       2705  A90 000E84D0 ?mapped@QSignalMapper@@IAEXPAVQWidget@@@Z
       2706  A91 000E8BE0 ?mapping@QSignalMapper@@QBEPAVQObject@@ABVQString@@@Z
       2707  A92 000E8BB0 ?mapping@QSignalMapper@@QBEPAVQObject@@H@Z
       2708  A93 000E8C40 ?mapping@QSignalMapper@@QBEPAVQObject@@PAV2@@Z
       2709  A94 000E8C10 ?mapping@QSignalMapper@@QBEPAVQObject@@PAVQWidget@@@Z
       2710  A95 000CFB00 ?match@QAbstractItemModel@@UBE?AV?$QList@VQModelIndex@@@@ABVQModelIndex@@HABVQVariant@@HV?$QFlags@W4MatchFlag@Qt@@@@@Z
       2711  A96 00081220 ?match@QDir@@SA_NABVQString@@0@Z
       2712  A97 0007DF00 ?match@QDir@@SA_NABVQStringList@@ABVQString@@@Z
       2713  A98 0007C6D0 ?matchAllDirs@QDir@@QBE_NXZ
       2714  A99 000464B0 ?matchedLength@QRegExp@@QBEHXZ
       2715  A9A 0001FB30 ?maxChange@QDateTimeParser@@QBEHH@Z
       2716  A9B 0000B9E0 ?maxThreadCount@QThreadPool@@QBEHXZ
       2717  A9C 000018A0 ?maybeSpace@QDebug@@QAEAAV1@XZ
       2718  A9D 00041430 ?measurementSystem@QLocale@@QBE?AW4MeasurementSystem@1@XZ
       2719  A9E 00016880 ?measurementSystem@QLocalePrivate@@QBE?AW4MeasurementSystem@QLocale@@XZ
       2720  A9F 000AA2E0 ?mergedKeyMap@QConfFile@@QBE?AV?$QMap@VQSettingsKey@@VQVariant@@@@XZ
       2721  AA0 0010F6B0 ?metaObject@QAbstractEventDispatcher@@UBEPBUQMetaObject@@XZ
       2722  AA1 0010F7B0 ?metaObject@QAbstractItemModel@@UBEPBUQMetaObject@@XZ
       2723  AA2 0010FB90 ?metaObject@QAbstractListModel@@UBEPBUQMetaObject@@XZ
       2724  AA3 0010FB20 ?metaObject@QAbstractTableModel@@UBEPBUQMetaObject@@XZ
       2725  AA4 0007A170 ?metaObject@QBuffer@@UBEPBUQMetaObject@@XZ
       2726  AA5 0010FF20 ?metaObject@QCoreApplication@@UBEPBUQMetaObject@@XZ
       2727  AA6 00110750 ?metaObject@QEventDispatcherWin32@@UBEPBUQMetaObject@@XZ
       2728  AA7 0010FE70 ?metaObject@QEventLoop@@UBEPBUQMetaObject@@XZ
       2729  AA8 0010F640 ?metaObject@QFactoryLoader@@UBEPBUQMetaObject@@XZ
       2730  AA9 0010ED40 ?metaObject@QFile@@UBEPBUQMetaObject@@XZ
       2731  AAA 000B0F30 ?metaObject@QFileSystemWatcher@@UBEPBUQMetaObject@@XZ
       2732  AAB 0010E230 ?metaObject@QFutureWatcherBase@@UBEPBUQMetaObject@@XZ
       2733  AAC 0010EDC0 ?metaObject@QIODevice@@UBEPBUQMetaObject@@XZ
       2734  AAD 0010F4B0 ?metaObject@QLibrary@@UBEPBUQMetaObject@@XZ
       2735  AAE 00110200 ?metaObject@QMimeData@@UBEPBUQMetaObject@@XZ
       2736  AAF 000E14D0 ?metaObject@QObject@@UBEPBUQMetaObject@@XZ
       2737  AB0 00110620 ?metaObject@QObjectCleanupHandler@@UBEPBUQMetaObject@@XZ
       2738  AB1 0010F320 ?metaObject@QPluginLoader@@UBEPBUQMetaObject@@XZ
       2739  AB2 0008B2C0 ?metaObject@QProcess@@UBEPBUQMetaObject@@XZ
       2740  AB3 0010EFE0 ?metaObject@QSettings@@UBEPBUQMetaObject@@XZ
       2741  AB4 001106E0 ?metaObject@QSharedMemory@@UBEPBUQMetaObject@@XZ
       2742  AB5 000E8400 ?metaObject@QSignalMapper@@UBEPBUQMetaObject@@XZ
       2743  AB6 00110270 ?metaObject@QSocketNotifier@@UBEPBUQMetaObject@@XZ
       2744  AB7 0010EF60 ?metaObject@QTemporaryFile@@UBEPBUQMetaObject@@XZ
       2745  AB8 001108D0 ?metaObject@QTextCodecPlugin@@UBEPBUQMetaObject@@XZ
       2746  AB9 0010E780 ?metaObject@QThread@@UBEPBUQMetaObject@@XZ
       2747  ABA 0010E620 ?metaObject@QThreadPool@@UBEPBUQMetaObject@@XZ
       2748  ABB 0010E940 ?metaObject@QTimeLine@@UBEPBUQMetaObject@@XZ
       2749  ABC 00110370 ?metaObject@QTimer@@UBEPBUQMetaObject@@XZ
       2750  ABD 001105B0 ?metaObject@QTranslator@@UBEPBUQMetaObject@@XZ
       2751  ABE 001107D0 ?metaObject@QWinEventNotifier@@UBEPBUQMetaObject@@XZ
       2752  ABF 0010F240 ?metaObject@QWindowsPipeWriter@@UBEPBUQMetaObject@@XZ
       2753  AC0 000D9610 ?method@QMetaObject@@QBE?AVQMetaMethod@@H@Z
       2754  AC1 000D9100 ?methodCount@QMetaObject@@QBEHXZ
       2755  AC2 000D9080 ?methodOffset@QMetaObject@@QBEHXZ
       2756  AC3 000D9970 ?methodType@QMetaMethod@@QBE?AW4MethodType@1@XZ
       2757  AC4 000FC710 ?mibEnum@QTsciiCodec@@UBEHXZ
       2758  AC5 00006D50 ?mid@?$QVector@VQPoint@@@@QBE?AV1@HH@Z
       2759  AC6 00006950 ?mid@?$QVector@VQPointF@@@@QBE?AV1@HH@Z
       2760  AC7 001073E0 ?mid@?$QVector@VQXmlStreamAttribute@@@@QBE?AV1@HH@Z
       2761  AC8 00017D80 ?mid@QByteArray@@QBE?AV1@HH@Z
       2762  AC9 000542E0 ?mid@QString@@QBE?AV1@HH@Z
       2763  ACA 00050800 ?midRef@QString@@QBE?AVQStringRef@@HH@Z
       2764  ACB 00001240 ?mightGrow@QHashData@@QAEXXZ
       2765  ACC 000CF910 ?mimeData@QAbstractItemModel@@UBEPAVQMimeData@@ABV?$QList@VQModelIndex@@@@@Z
       2766  ACD 00113760 ?mimeName@QTextCodec@@QBE?AVQByteArray@@XZ
       2767  ACE 000D12F0 ?mimeTypes@QAbstractItemModel@@UBE?AVQStringList@@XZ
       2768  ACF 00113630 ?minimal@QRegExp@@QBE_NXZ
       2769  AD0 00017340 ?minus@QLocalePrivate@@QBE?AVQChar@@XZ
       2770  AD1 0001E130 ?minute@QTime@@QBEHXZ
       2771  AD2 00110A90 ?mirrored@QChar@@QBE_NXZ
       2772  AD3 00111B30 ?mirrored@QCharRef@@QBE_NXZ
       2773  AD4 0004ED50 ?mirroredChar@QChar@@QBE?AV1@XZ
       2774  AD5 0004EDB0 ?mirroredChar@QChar@@SAGG@Z
       2775  AD6 0004ED90 ?mirroredChar@QChar@@SAII@Z
       2776  AD7 00111B70 ?mirroredChar@QCharRef@@QBE?AVQChar@@XZ
       2777  AD8 00092BD0 ?mkdir@QAbstractFileEngine@@UBE_NABVQString@@_N@Z
       2778  AD9 0007CFC0 ?mkdir@QDir@@QBE_NABVQString@@@Z
       2779  ADA 0000E830 ?mkdir@QDir@@QBE_NABVQString@@_N@Z
       2780  ADB 000BFF40 ?mkdir@QFSFileEngine@@UBE_NABVQString@@_N@Z
       2781  ADC 0007D140 ?mkpath@QDir@@QBE_NABVQString@@@Z
       2782  ADD 00114C10 ?mode@QIODevice@@QBEHXZ
       2783  ADE 000CCDB0 ?model@QModelIndex@@QBEPBVQAbstractItemModel@@XZ
       2784  ADF 000CD520 ?model@QPersistentModelIndex@@QBEPBVQAbstractItemModel@@XZ
       2785  AE0 0010FAE0 ?modelAboutToBeReset@QAbstractItemModel@@AAEXXZ
       2786  AE1 0010FB00 ?modelReset@QAbstractItemModel@@AAEXXZ
       2787  AE2 0001DEE0 ?month@QDate@@QBEHXZ
       2788  AE3 00003840 ?monthName@QDate@@SA?AVQString@@H@Z
       2789  AE4 000410A0 ?monthName@QLocale@@QBE?AVQString@@HW4FormatType@1@@Z
       2790  AE5 00038950 ?move@QListData@@QAEXHH@Z
       2791  AE6 00043EF0 ?moveBottom@QRect@@QAEXH@Z
       2792  AE7 000444C0 ?moveBottom@QRectF@@QAEXN@Z
       2793  AE8 00043FA0 ?moveBottomLeft@QRect@@QAEXABVQPoint@@@Z
       2794  AE9 000444F0 ?moveBottomLeft@QRectF@@QAEXABVQPointF@@@Z
       2795  AEA 00043F40 ?moveBottomRight@QRect@@QAEXABVQPoint@@@Z
       2796  AEB 00044510 ?moveBottomRight@QRectF@@QAEXABVQPointF@@@Z
       2797  AEC 000376D0 ?moveBy@QRect@@QAEXABVQPoint@@@Z
       2798  AED 00043DE0 ?moveBy@QRect@@QAEXHH@Z
       2799  AEE 00044940 ?moveCenter@QRect@@QAEXABVQPoint@@@Z
       2800  AEF 00044530 ?moveCenter@QRectF@@QAEXABVQPointF@@@Z
       2801  AF0 00043EA0 ?moveLeft@QRect@@QAEXH@Z
       2802  AF1 00001750 ?moveLeft@QRectF@@QAEXN@Z
       2803  AF2 00043ED0 ?moveRight@QRect@@QAEXH@Z
       2804  AF3 000444B0 ?moveRight@QRectF@@QAEXN@Z
       2805  AF4 00043E70 ?moveTo@QRect@@QAEXABVQPoint@@@Z
       2806  AF5 00043E40 ?moveTo@QRect@@QAEXHH@Z
       2807  AF6 000445D0 ?moveTo@QRectF@@QAEXABVQPointF@@@Z
       2808  AF7 000445C0 ?moveTo@QRectF@@QAEXNN@Z
       2809  AF8 000E4810 ?moveToThread@QObject@@QAEXPAVQThread@@@Z
       2810  AF9 000E20A0 ?moveToThread_helper@QObjectPrivate@@QAEXXZ
       2811  AFA 00043EB0 ?moveTop@QRect@@QAEXH@Z
       2812  AFB 00001760 ?moveTop@QRectF@@QAEXN@Z
       2813  AFC 00043F10 ?moveTopLeft@QRect@@QAEXABVQPoint@@@Z
       2814  AFD 000445D0 ?moveTopLeft@QRectF@@QAEXABVQPointF@@@Z
       2815  AFE 00043F70 ?moveTopRight@QRect@@QAEXABVQPoint@@@Z
       2816  AFF 000444D0 ?moveTopRight@QRectF@@QAEXABVQPointF@@@Z
       2817  B00 0001E1A0 ?msec@QTime@@QBEHXZ
       2818  B01 0001E290 ?msecsTo@QTime@@QBEHABV1@@Z
       2819  B02 000142A0 ?msleep@QThread@@KAXK@Z
       2820  B03 00052A50 ?multiArg@QString@@ABE?AV1@HPAPBV1@@Z
       2821  B04 000024C0 ?mutex@QFutureInterfaceBase@@QBEPAVQMutex@@XZ
       2822  B05 00001050 ?mutex@QMutexLocker@@QBEPAVQMutex@@XZ
       2823  B06 0000F210 ?name@QFile@@QBE?AVQString@@XZ
       2824  B07 00001CA0 ?name@QGenericArgument@@QBEPBDXZ
       2825  B08 0003DB40 ?name@QLocale@@QBE?AVQString@@XZ
       2826  B09 000D98D0 ?name@QMetaClassInfo@@QBEPBDXZ
       2827  B0A 000D98D0 ?name@QMetaEnum@@QBEPBDXZ
       2828  B0B 000D9E80 ?name@QMetaProperty@@QBEPBDXZ
       2829  B0C 00112C20 ?name@QObject@@QBEPBDPBD@Z
       2830  B0D 00112BA0 ?name@QObject@@QBEPBDXZ
       2831  B0E 000FC7E0 ?name@QTsciiCodec@@UBE?AVQByteArray@@XZ
       2832  B0F 000FED00 ?name@QXmlStreamAttribute@@QBE?AVQStringRef@@XZ
       2833  B10 000FED00 ?name@QXmlStreamEntityDeclaration@@QBE?AVQStringRef@@XZ
       2834  B11 000FED00 ?name@QXmlStreamNotationDeclaration@@QBE?AVQStringRef@@XZ
       2835  B12 000FFBF0 ?name@QXmlStreamReader@@QBE?AVQStringRef@@XZ
       2836  B13 0007FF70 ?nameFilter@QDir@@QBE?AVQString@@XZ
       2837  B14 00079B70 ?nameFilters@QAbstractFileEngineIterator@@QBE?AVQStringList@@XZ
       2838  B15 0007F920 ?nameFilters@QDir@@QBE?AVQStringList@@XZ
       2839  B16 0007FF40 ?nameFiltersFromString@QDir@@SA?AVQStringList@@ABVQString@@@Z
       2840  B17 000EB3F0 ?nameToType@QVariant@@SA?AW4Type@1@PBD@Z
       2841  B18 00108C90 ?namespaceDeclarations@QXmlStreamReader@@QBE?AV?$QVector@VQXmlStreamNamespaceDeclaration@@@@XZ
       2842  B19 000FE310 ?namespaceProcessing@QXmlStreamReader@@QBE_NXZ
       2843  B1A 000FEDD0 ?namespaceUri@QXmlStreamAttribute@@QBE?AVQStringRef@@XZ
       2844  B1B 000FEDD0 ?namespaceUri@QXmlStreamNamespaceDeclaration@@QBE?AVQStringRef@@XZ
       2845  B1C 000FFC20 ?namespaceUri@QXmlStreamReader@@QBE?AVQStringRef@@XZ
       2846  B1D 0003DF60 ?negativeSign@QLocale@@QBE?AVQChar@@XZ
       2847  B1E 0000A400 ?networkOrdered@QChar@@SA_NXZ
       2848  B1F 00084130 ?next@QDirIterator@@QAE?AVQString@@XZ
       2849  B20 0007AA60 ?nextDataBlockSize@QRingBuffer@@QBEHXZ
       2850  B21 000371F0 ?nextNode@QHashData@@SAPAUNode@1@PAU21@@Z
       2851  B22 00043820 ?node_create@QMapData@@QAEPAUNode@1@QAPAU21@H@Z
       2852  B23 000438E0 ?node_delete@QMapData@@QAEXQAPAUNode@1@HPAU21@@Z
       2853  B24 0008E3A0 ?noforcepoint@@YAAAVQTextStream@@AAV1@@Z
       2854  B25 0008E390 ?noforcesign@@YAAAVQTextStream@@AAV1@@Z
       2855  B26 000378C0 ?normalVector@QLineF@@QBE?AV1@XZ
       2856  B27 00044E90 ?normalize@QRect@@QBE?AV1@XZ
       2857  B28 00112D50 ?normalizeSignalSlot@QObject@@KA?AVQByteArray@@PBD@Z
       2858  B29 000448E0 ?normalized@QRect@@QBE?AV1@XZ
       2859  B2A 00044AB0 ?normalized@QRectF@@QBE?AV1@XZ
       2860  B2B 00059740 ?normalized@QString@@QBE?AV1@W4NormalizationForm@1@@Z
       2861  B2C 00059310 ?normalized@QString@@QBE?AV1@W4NormalizationForm@1@W4UnicodeVersion@QChar@@@Z
       2862  B2D 000DADE0 ?normalizedSignature@QMetaObject@@SA?AVQByteArray@@PBD@Z
       2863  B2E 000DAC60 ?normalizedType@QMetaObject@@SA?AVQByteArray@@PBD@Z
       2864  B2F 0008E380 ?noshowbase@@YAAAVQTextStream@@AAV1@@Z
       2865  B30 00001890 ?nospace@QDebug@@QAEAAV1@XZ
       2866  B31 0010A350 ?notationDeclarations@QXmlStreamReader@@QBE?AV?$QVector@VQXmlStreamNotationDeclaration@@@@XZ
       2867  B32 000FEDD0 ?notationName@QXmlStreamEntityDeclaration@@QBE?AVQStringRef@@XZ
       2868  B33 000D5DC0 ?notify@QCoreApplication@@UAE_NPAVQObject@@PAVQEvent@@@Z
       2869  B34 000D4C30 ?notifyInternal@QCoreApplication@@AAE_NPAVQObject@@PAVQEvent@@@Z
       2870  B35 000D5550 ?notify_helper@QCoreApplicationPrivate@@QAE_NPAVQObject@@PAVQEvent@@@Z
       2871  B36 001540AE ?null@QString@@2UNull@1@B
       2872  B37 0004DEA0 ?numCaptures@QRegExp@@QBEHXZ
       2873  B38 000195D0 ?number@QByteArray@@SA?AV1@HH@Z
       2874  B39 00019650 ?number@QByteArray@@SA?AV1@IH@Z
       2875  B3A 00018380 ?number@QByteArray@@SA?AV1@NDH@Z
       2876  B3B 00018280 ?number@QByteArray@@SA?AV1@_JH@Z
       2877  B3C 00018300 ?number@QByteArray@@SA?AV1@_KH@Z
       2878  B3D 00059210 ?number@QString@@SA?AV1@HH@Z
       2879  B3E 00059290 ?number@QString@@SA?AV1@IH@Z
       2880  B3F 00059110 ?number@QString@@SA?AV1@JH@Z
       2881  B40 00059190 ?number@QString@@SA?AV1@KH@Z
       2882  B41 00055BF0 ?number@QString@@SA?AV1@NDH@Z
       2883  B42 00055AF0 ?number@QString@@SA?AV1@_JH@Z
       2884  B43 00055B70 ?number@QString@@SA?AV1@_KH@Z
       2885  B44 0008E2D0 ?numberFlags@QTextStream@@QBE?AV?$QFlags@W4NumberFlag@QTextStream@@@@XZ
       2886  B45 0003DAE0 ?numberOptions@QLocale@@QBE?AV?$QFlags@W4NumberOption@QLocale@@@@XZ
       2887  B46 0003F310 ?numberToCLocale@QLocalePrivate@@QBE_NABVQString@@W4GroupSeparatorMode@1@PAV?$QVarLengthArray@D$0BAA@@@@Z
       2888  B47 000E82B0 ?objectDestroyed@QObjectCleanupHandler@@AAEXPAVQObject@@@Z
       2889  B48 000E1680 ?objectName@QObject@@QBE?AVQString@@XZ
       2890  B49 0008DD60 ?oct@@YAAAVQTextStream@@AAV1@@Z
       2891  B4A 00092C10 ?open@QAbstractFileEngine@@UAE_NV?$QFlags@W4OpenModeFlag@QIODevice@@@@@Z
       2892  B4B 0007A9C0 ?open@QBuffer@@UAE_NV?$QFlags@W4OpenModeFlag@QIODevice@@@@@Z
       2893  B4C 000B03F0 ?open@QFSFileEngine@@QAE_NV?$QFlags@W4OpenModeFlag@QIODevice@@@@H@Z
       2894  B4D 000B0390 ?open@QFSFileEngine@@QAE_NV?$QFlags@W4OpenModeFlag@QIODevice@@@@PAU_iobuf@@@Z
       2895  B4E 000B02A0 ?open@QFSFileEngine@@UAE_NV?$QFlags@W4OpenModeFlag@QIODevice@@@@@Z
       2896  B4F 00084F20 ?open@QFile@@QAE_NHV?$QFlags@W4OpenModeFlag@QIODevice@@@@@Z
       2897  B50 00084DC0 ?open@QFile@@QAE_NPAU_iobuf@@V?$QFlags@W4OpenModeFlag@QIODevice@@@@@Z
       2898  B51 0000F250 ?open@QFile@@QAE_NV?$QFlags@W4OpenModeFlag@QIODevice@@@@H@Z
       2899  B52 0000F230 ?open@QFile@@QAE_NV?$QFlags@W4OpenModeFlag@QIODevice@@@@PAU_iobuf@@@Z
       2900  B53 00084C00 ?open@QFile@@UAE_NV?$QFlags@W4OpenModeFlag@QIODevice@@@@@Z
       2901  B54 00089D20 ?open@QIODevice@@UAE_NV?$QFlags@W4OpenModeFlag@QIODevice@@@@@Z
       2902  B55 00092630 ?open@QTemporaryFile@@MAE_NV?$QFlags@W4OpenModeFlag@QIODevice@@@@@Z
       2903  B56 000844F0 ?open@QTemporaryFile@@QAE_NXZ
       2904  B57 00089330 ?openMode@QIODevice@@QBE?AV?$QFlags@W4OpenModeFlag@QIODevice@@@@XZ
       2905  B58 000D7ED0 ?organizationDomain@QCoreApplication@@SA?AVQString@@XZ
       2906  B59 000D7E90 ?organizationName@QCoreApplication@@SA?AVQString@@XZ
       2907  B5A 000F2020 ?organizationName@QSettings@@QBE?AVQString@@XZ
       2908  B5B 00078DC0 ?owner@QAbstractFileEngine@@UBE?AVQString@@W4FileOwner@1@@Z
       2909  B5C 000BE220 ?owner@QFSFileEngine@@UBE?AVQString@@W4FileOwner@QAbstractFileEngine@@@Z
       2910  B5D 00087320 ?owner@QFileInfo@@QBE?AVQString@@XZ
       2911  B5E 000D4290 ?ownerId@QAbstractFileEngine@@UBEIW4FileOwner@1@@Z
       2912  B5F 000BB470 ?ownerId@QFSFileEngine@@UBEIW4FileOwner@QAbstractFileEngine@@@Z
       2913  B60 00086E80 ?ownerId@QFileInfo@@QBEIXZ
       2914  B61 00037690 ?p1@QLine@@QBE?AVQPoint@@XZ
       2915  B62 00037860 ?p1@QLineF@@QBE?AVQPointF@@XZ
       2916  B63 00043D10 ?p2@QLine@@QBE?AVQPoint@@XZ
       2917  B64 00037880 ?p2@QLineF@@QBE?AVQPointF@@XZ
       2918  B65 0008DC40 ?padChar@QTextStream@@QBE?AVQChar@@XZ
       2919  B66 000DC530 ?parameterNames@QMetaMethod@@QBE?AV?$QList@VQByteArray@@@@XZ
       2920  B67 000DC380 ?parameterTypes@QMetaMethod@@QBE?AV?$QList@VQByteArray@@@@XZ
       2921  B68 000CD6D0 ?parent@QAbstractListModel@@EBE?AVQModelIndex@@ABV2@@Z
       2922  B69 000CD6D0 ?parent@QAbstractTableModel@@EBE?AVQModelIndex@@ABV2@@Z
       2923  B6A 000CCFD0 ?parent@QModelIndex@@QBE?AV1@XZ
       2924  B6B 00029090 ?parent@QObject@@QBEPAV1@XZ
       2925  B6C 000CD440 ?parent@QPersistentModelIndex@@QBE?AVQModelIndex@@XZ
       2926  B6D 00026E00 ?parse@QDateTimeParser@@QBE?AUStateNode@1@ABVQString@@ABVQDateTime@@_N@Z
       2927  B6E 00025A20 ?parseFormat@QDateTimeParser@@QAE_NABVQString@@@Z
       2928  B6F 00024690 ?parseSection@QDateTimeParser@@QBEHABVQDateTime@@HAAVQString@@HAAW4State@1@PAH@Z
       2929  B70 0009DB40 ?password@QUrl@@QBE?AVQString@@XZ
       2930  B71 00078DF0 ?path@QAbstractFileEngineIterator@@QBE?AVQString@@XZ
       2931  B72 0007CA20 ?path@QDir@@QBE?AVQString@@XZ
       2932  B73 00082570 ?path@QDirIterator@@QBE?AVQString@@XZ
       2933  B74 000880B0 ?path@QFileInfo@@QBE?AVQString@@XZ
       2934  B75 0009DC20 ?path@QUrl@@QBE?AVQString@@XZ
       2935  B76 00017110 ?pattern@QByteArrayMatcher@@QBE?AVQByteArray@@XZ
       2936  B77 00046490 ?pattern@QRegExp@@QBE?AVQString@@XZ
       2937  B78 00017110 ?pattern@QStringMatcher@@QBE?AVQString@@XZ
       2938  B79 000025E0 ?patternSyntax@QRegExp@@QBE?AW4PatternSyntax@1@XZ
       2939  B7A 00009030 ?pause@QFutureWatcherBase@@QAEXXZ
       2940  B7B 0010E300 ?paused@QFutureWatcherBase@@IAEXXZ
       2941  B7C 0008A890 ?peek@QIODevice@@QAE?AVQByteArray@@_J@Z
       2942  B7D 0008A7E0 ?peek@QIODevice@@QAE_JPAD_J@Z
       2943  B7E 0007A7F0 ?peek@QRingBuffer@@QBE?AVQByteArray@@H@Z
       2944  B7F 0003DEE0 ?percent@QLocale@@QBE?AVQChar@@XZ
       2945  B80 00017310 ?percent@QLocalePrivate@@QBE?AVQChar@@XZ
       2946  B81 000873C0 ?permission@QFileInfo@@QBE_NV?$QFlags@W4Permission@QFile@@@@@Z
       2947  B82 0000F360 ?permission@QFileInfo@@QBE_NV?$QFlags@W4Permission@QFileInfo@@@@@Z
       2948  B83 000849F0 ?permissions@QFile@@QBE?AV?$QFlags@W4Permission@QFile@@@@XZ
       2949  B84 000866B0 ?permissions@QFile@@SA?AV?$QFlags@W4Permission@QFile@@@@ABVQString@@@Z
       2950  B85 000873F0 ?permissions@QFileInfo@@QBE?AV?$QFlags@W4Permission@QFile@@@@XZ
       2951  B86 000D0630 ?persistentIndexList@QAbstractItemModel@@IBE?AV?$QList@VQModelIndex@@@@XZ
       2952  B87 0008B140 ?pid@QProcess@@QBEPAU_PROCESS_INFORMATION@@XZ
       2953  B88 000E1280 ?placeMetaCall@QMetaCallEvent@@UAEHPAVQObject@@@Z
       2954  B89 00017330 ?plus@QLocalePrivate@@QBE?AVQChar@@XZ
       2955  B8A 000379D0 ?pointAt@QLineF@@QBE?AVQPointF@@N@Z
       2956  B8B 00112E50 ?polished@QChildEvent@@QBE_NXZ
       2957  B8C 00007540 ?pop_back@?$QVector@VQPoint@@@@QAEXXZ
       2958  B8D 000074B0 ?pop_back@?$QVector@VQPointF@@@@QAEXXZ
       2959  B8E 00109240 ?pop_back@?$QVector@VQXmlStreamAttribute@@@@QAEXXZ
       2960  B8F 00007580 ?pop_front@?$QVector@VQPoint@@@@QAEXXZ
       2961  B90 000074F0 ?pop_front@?$QVector@VQPointF@@@@QAEXXZ
       2962  B91 00109280 ?pop_front@?$QVector@VQXmlStreamAttribute@@@@QAEXXZ
       2963  B92 0009DBF0 ?port@QUrl@@QBEHH@Z
       2964  B93 000A49A0 ?port@QUrl@@QBEHXZ
       2965  B94 00078AE0 ?pos@QAbstractFileEngine@@UBE_JXZ
       2966  B95 000843E0 ?pos@QBuffer@@UBE_JXZ
       2967  B96 000AF0F0 ?pos@QFSFileEngine@@UBE_JXZ
       2968  B97 000843E0 ?pos@QFile@@UBE_JXZ
       2969  B98 00089390 ?pos@QIODevice@@UBE_JXZ
       2970  B99 000464C0 ?pos@QRegExp@@QAEHH@Z
       2971  B9A 0008F8B0 ?pos@QTextStream@@QBE_JXZ
       2972  B9B 00001CA0 ?position@QStringRef@@QBEHXZ
       2973  B9C 0005AD20 ?position@QTextBoundaryFinder@@QBEHXZ
       2974  B9D 00001CA0 ?position@QXmlStreamStringRef@@QBEHXZ
       2975  B9E 000095D0 ?postCallOutEvent@QFutureWatcherBasePrivate@@UAEXABVQFutureCallOutEvent@@@Z
       2976  B9F 000D7320 ?postEvent@QCoreApplication@@SAXPAVQObject@@PAVQEvent@@@Z
       2977  BA0 000D6970 ?postEvent@QCoreApplication@@SAXPAVQObject@@PAVQEvent@@H@Z
       2978  BA1 00020140 ?potentialValue@QDateTimeParser@@QBE_NABVQString@@HHHABVQDateTime@@H@Z
       2979  BA2 00001380 ?precision@QTextStream@@QAEHH@Z
       2980  BA3 000FEB90 ?prefix@QXmlStreamAttribute@@QBE?AVQStringRef@@XZ
       2981  BA4 000FED00 ?prefix@QXmlStreamNamespaceDeclaration@@QBE?AVQStringRef@@XZ
       2982  BA5 000FFC80 ?prefix@QXmlStreamReader@@QBE?AVQStringRef@@XZ
       2983  BA6 00006BD0 ?prepend@?$QVector@VQPoint@@@@QAEXABVQPoint@@@Z
       2984  BA7 000067B0 ?prepend@?$QVector@VQPointF@@@@QAEXABVQPointF@@@Z
       2985  BA8 00107160 ?prepend@?$QVector@VQXmlStreamAttribute@@@@QAEXABVQXmlStreamAttribute@@@Z
       2986  BA9 000189A0 ?prepend@QByteArray@@QAEAAV1@ABV1@@Z
       2987  BAA 000178C0 ?prepend@QByteArray@@QAEAAV1@D@Z
       2988  BAB 00017830 ?prepend@QByteArray@@QAEAAV1@PBD@Z
       2989  BAC 00038DA0 ?prepend@QListData@@QAEPAPAXXZ
       2990  BAD 00054880 ?prepend@QString@@QAEAAV1@ABV1@@Z
       2991  BAE 00113C10 ?prepend@QString@@QAEAAV1@ABVQByteArray@@@Z
       2992  BAF 000391E0 ?prepend@QString@@QAEAAV1@ABVQLatin1String@@@Z
       2993  BB0 00113B80 ?prepend@QString@@QAEAAV1@PBD@Z
       2994  BB1 00111260 ?prepend@QString@@QAEAAV1@VQChar@@@Z
       2995  BB2 00037230 ?previousNode@QHashData@@SAPAUNode@1@PAU21@@Z
       2996  BB3 00013110 ?priority@QThread@@QBE?AW4Priority@1@XZ
       2997  BB4 0008B8A0 ?processChannelMode@QProcess@@QBE?AW4ProcessChannelMode@1@XZ
       2998  BB5 000D78F0 ?processEvents@QCoreApplication@@SAXV?$QFlags@W4ProcessEventsFlag@QEventLoop@@@@@Z
       2999  BB6 000D7930 ?processEvents@QCoreApplication@@SAXV?$QFlags@W4ProcessEventsFlag@QEventLoop@@@@H@Z
       3000  BB7 000F52C0 ?processEvents@QEventDispatcherWin32@@UAE_NV?$QFlags@W4ProcessEventsFlag@QEventLoop@@@@@Z
       3001  BB8 000D4660 ?processEvents@QEventLoop@@QAEXV?$QFlags@W4ProcessEventsFlag@QEventLoop@@@@H@Z
       3002  BB9 000D4610 ?processEvents@QEventLoop@@QAE_NV?$QFlags@W4ProcessEventsFlag@QEventLoop@@@@@Z
       3003  BBA 00114C00 ?processOneEvent@QCoreApplication@@SAXXZ
       3004  BBB 000FFBC0 ?processingInstructionData@QXmlStreamReader@@QBE?AVQStringRef@@XZ
       3005  BBC 000FFB90 ?processingInstructionTarget@QXmlStreamReader@@QBE?AVQStringRef@@XZ
       3006  BBD 000024A0 ?progressMaximum@QFutureInterfaceBase@@QBEHXZ
       3007  BBE 000090A0 ?progressMaximum@QFutureWatcherBase@@QBEHXZ
       3008  BBF 00002490 ?progressMinimum@QFutureInterfaceBase@@QBEHXZ
       3009  BC0 00009090 ?progressMinimum@QFutureWatcherBase@@QBEHXZ
       3010  BC1 0010E3B0 ?progressRangeChanged@QFutureWatcherBase@@IAEXHH@Z
       3011  BC2 00003D70 ?progressText@QFutureInterfaceBase@@QBE?AVQString@@XZ
       3012  BC3 00009320 ?progressText@QFutureWatcherBase@@QBE?AVQString@@XZ
       3013  BC4 0010E420 ?progressTextChanged@QFutureWatcherBase@@IAEXABVQString@@@Z
       3014  BC5 00002480 ?progressValue@QFutureInterfaceBase@@QBEHXZ
       3015  BC6 00009080 ?progressValue@QFutureWatcherBase@@QBEHXZ
       3016  BC7 0010E3F0 ?progressValueChanged@QFutureWatcherBase@@IAEXH@Z
       3017  BC8 0004E870 ?properties@QUnicodeTables@@YAPBUProperties@1@G@Z
       3018  BC9 0004E820 ?properties@QUnicodeTables@@YAPBUProperties@1@I@Z
       3019  BCA 000DA890 ?property@QMetaObject@@QBE?AVQMetaProperty@@H@Z
       3020  BCB 000E2460 ?property@QObject@@QBE?AVQVariant@@PBD@Z
       3021  BCC 000D9140 ?propertyCount@QMetaObject@@QBEHXZ
       3022  BCD 00112F00 ?propertyName@QDynamicPropertyChangeEvent@@QBE?AVQByteArray@@XZ
       3023  BCE 000D90C0 ?propertyOffset@QMetaObject@@QBEHXZ
       3024  BCF 0009E4C0 ?protocol@QUrl@@QBE?AVQString@@XZ
       3025  BD0 000FEBD0 ?publicId@QXmlStreamEntityDeclaration@@QBE?AVQStringRef@@XZ
       3026  BD1 000FEEC0 ?publicId@QXmlStreamNotationDeclaration@@QBE?AVQStringRef@@XZ
       3027  BD2 00006560 ?push_back@?$QVector@VQPoint@@@@QAEXABVQPoint@@@Z
       3028  BD3 00006360 ?push_back@?$QVector@VQPointF@@@@QAEXABVQPointF@@@Z
       3029  BD4 00106EF0 ?push_back@?$QVector@VQXmlStreamAttribute@@@@QAEXABVQXmlStreamAttribute@@@Z
       3030  BD5 00038F60 ?push_back@QByteArray@@QAEXABV1@@Z
       3031  BD6 00110DC0 ?push_back@QByteArray@@QAEXD@Z
       3032  BD7 00110DD0 ?push_back@QByteArray@@QAEXPBD@Z
       3033  BD8 00111250 ?push_back@QString@@QAEXABV1@@Z
       3034  BD9 00111050 ?push_back@QString@@QAEXVQChar@@@Z
       3035  BDA 00006BD0 ?push_front@?$QVector@VQPoint@@@@QAEXABVQPoint@@@Z
       3036  BDB 000067B0 ?push_front@?$QVector@VQPointF@@@@QAEXABVQPointF@@@Z
       3037  BDC 00107160 ?push_front@?$QVector@VQXmlStreamAttribute@@@@QAEXABVQXmlStreamAttribute@@@Z
       3038  BDD 00110E00 ?push_front@QByteArray@@QAEXABV1@@Z
       3039  BDE 00110DE0 ?push_front@QByteArray@@QAEXD@Z
       3040  BDF 00110DF0 ?push_front@QByteArray@@QAEXPBD@Z
       3041  BE0 00054880 ?push_front@QString@@QAEXABV1@@Z
       3042  BE1 00111260 ?push_front@QString@@QAEXVQChar@@@Z
       3043  BE2 000894A0 ?putChar@QIODevice@@QAE_ND@Z
       3044  BE3 0007B4B0 ?putChar@QRingBuffer@@QAEXD@Z
       3045  BE4 00089CF0 ?putCharHelper@QIODevicePrivate@@UAE_ND@Z
       3046  BE5 001132E0 ?putch@QIODevice@@QAEHH@Z
       3047  BE6 000D6900 ?qAddPostRoutine@@YAXP6AXXZ@Z
       3048  BE7 000168B0 ?qAllocMore@@YAHHH@Z
       3049  BE8 000F5B50 ?qAppFileName@@YA?AVQString@@XZ
       3050  BE9 000D4BB0 ?qAppName@@YA?AVQString@@XZ
       3051  BEA 00016A80 ?qChecksum@@YAGPBDI@Z
       3052  BEB 000199C0 ?qCompress@@YA?AVQByteArray@@PBEHH@Z
       3053  BEC 000054C0 ?qCritical@@YA?AVQDebug@@XZ
       3054  BED 0000D6C0 ?qCritical@@YAXPBDZZ
       3055  BEE 00005510 ?qDebug@@YA?AVQDebug@@XZ
       3056  BEF 0000D5E0 ?qDebug@@YAXPBDZZ
       3057  BF0 000E14B0 ?qDeleteInEventHandler@@YAXPAVQObject@@@Z
       3058  BF1 0000DED0 ?qErrnoWarning@@YAXHPBDZZ
       3059  BF2 0000DDB0 ?qErrnoWarning@@YAXPBDZZ
       3060  BF3 0000D730 ?qFatal@@YAXPBDZZ
       3061  BF4 000112F0 ?qFree@@YAXPAX@Z
       3062  BF5 00078920 ?qGetCharAttributes@@YAXPBGIPBUHB_ScriptItem@@IPAUHB_CharAttributes@@@Z
       3063  BF6 000D5430 ?qGlobalPostedEventsCount@@YAIXZ
       3064  BF7 00078950 ?qHBFreeFace@@YAXPAUHB_FaceRec_@@@Z
       3065  BF8 00078940 ?qHBNewFace@@YAPAUHB_FaceRec_@@PAXP6A?AW4HB_Error@@0IPAEPAI@Z@Z
       3066  BF9 000374C0 ?qHash@@YAIABVQBitArray@@@Z
       3067  BFA 00037450 ?qHash@@YAIABVQByteArray@@@Z
       3068  BFB 00037470 ?qHash@@YAIABVQString@@@Z
       3069  BFC 00037490 ?qHash@@YAIABVQStringRef@@@Z
       3070  BFD 00011400 ?qInf@@YANXZ
       3071  BFE 00093490 ?qInitResourceIO@@YAXXZ
       3072  BFF 0000CFF0 ?qInstallMsgHandler@@YAP6AXW4QtMsgType@@PBD@ZP6AX01@Z@Z
       3073  C00 0000D290 ?qInstallPath@@YAPBDXZ
       3074  C01 0000D2D0 ?qInstallPathBins@@YAPBDXZ
       3075  C02 0000D2F0 ?qInstallPathData@@YAPBDXZ
       3076  C03 0000D2A0 ?qInstallPathDocs@@YAPBDXZ
       3077  C04 0000D2B0 ?qInstallPathHeaders@@YAPBDXZ
       3078  C05 0000D2C0 ?qInstallPathLibs@@YAPBDXZ
       3079  C06 0000D2E0 ?qInstallPathPlugins@@YAPBDXZ
       3080  C07 0000D310 ?qInstallPathSysconf@@YAPBDXZ
       3081  C08 0000D300 ?qInstallPathTranslations@@YAPBDXZ
       3082  C09 000113C0 ?qIsFinite@@YA_NM@Z
       3083  C0A 00011350 ?qIsFinite@@YA_NN@Z
       3084  C0B 00011380 ?qIsInf@@YA_NM@Z
       3085  C0C 00011310 ?qIsInf@@YA_NN@Z
       3086  C0D 000113A0 ?qIsNaN@@YA_NM@Z
       3087  C0E 00011330 ?qIsNaN@@YA_NN@Z
       3088  C0F 000112E0 ?qMalloc@@YAPAXI@Z
       3089  C10 0000CFD0 ?qMemCopy@@YAPAXPAXPBXI@Z
       3090  C11 0000CFE0 ?qMemSet@@YAPAXPAXHI@Z
       3091  C12 001DEB18 ?qMetaTypeGuiHelper@@3PBUQMetaTypeGuiHelper@@B
       3092  C13 000113F0 ?qQNaN@@YANXZ
       3093  C14 00011300 ?qRealloc@@YAPAXPAXI@Z
       3094  C15 000939C0 ?qRegisterResourceData@@YA_NHPBE00@Z
       3095  C16 000C6740 ?qRegisterStaticPluginInstanceFunction@@YAXP6APAVQObject@@XZ@Z
       3096  C17 000D6950 ?qRemovePostRoutine@@YAXP6AXXZ@Z
       3097  C18 000113E0 ?qSNaN@@YANXZ
       3098  C19 00078930 ?qShapeItem@@YAEPAUHB_ShaperItem@@@Z
       3099  C1A 00110B10 ?qSharedBuild@@YA_NXZ
       3100  C1B 0000DCF0 ?qSystemWarning@@YAXPBDH@Z
       3101  C1C 00019C80 ?qUncompress@@YA?AVQByteArray@@PBEH@Z
       3102  C1D 00093B70 ?qUnregisterResourceData@@YA_NHPBE00@Z
       3103  C1E 0000CF60 ?qVersion@@YAPBDXZ
       3104  C1F 00005530 ?qWarning@@YA?AVQDebug@@XZ
       3105  C20 0000D650 ?qWarning@@YAXPBDZZ
       3106  C21 000F5A50 ?qWinAppInst@@YAPAUHINSTANCE__@@XZ
       3107  C22 000F5A60 ?qWinAppPrevInst@@YAPAUHINSTANCE__@@XZ
       3108  C23 000F76C0 ?qWinMain@@YAXPAUHINSTANCE__@@0PADHAAHAAV?$QVector@PAD@@@Z
       3109  C24 000F5BC0 ?qWinMsgHandler@@YAXW4QtMsgType@@PBD@Z
       3110  C25 00001CA0 ?q_func@QAbstractItemModelPrivate@@AAEPAVQAbstractItemModel@@XZ
       3111  C26 00001CA0 ?q_func@QAbstractItemModelPrivate@@ABEPBVQAbstractItemModel@@XZ
       3112  C27 00001CA0 ?q_func@QCoreApplicationPrivate@@AAEPAVQCoreApplication@@XZ
       3113  C28 00001CA0 ?q_func@QCoreApplicationPrivate@@ABEPBVQCoreApplication@@XZ
       3114  C29 00001CA0 ?q_func@QFutureWatcherBasePrivate@@AAEPAVQFutureWatcherBase@@XZ
       3115  C2A 00001CA0 ?q_func@QFutureWatcherBasePrivate@@ABEPBVQFutureWatcherBase@@XZ
       3116  C2B 00001CA0 ?q_func@QIODevicePrivate@@AAEPAVQIODevice@@XZ
       3117  C2C 00001CA0 ?q_func@QIODevicePrivate@@ABEPBVQIODevice@@XZ
       3118  C2D 00001CA0 ?q_func@QObjectPrivate@@AAEPAVQObject@@XZ
       3119  C2E 00001CA0 ?q_func@QObjectPrivate@@ABEPBVQObject@@XZ
       3120  C2F 000EB2E0 ?qcoreVariantHandler@@YAPBUHandler@QVariant@@XZ
       3121  C30 0003E7B0 ?qdtoa@@YAPADNHHPAH0PAPAD1@Z
       3122  C31 0000D060 ?qgetenv@@YA?AVQByteArray@@PBD@Z
       3123  C32 0000D020 ?qputenv@@YA_NPBDABVQByteArray@@@Z
       3124  C33 0000D050 ?qrand@@YAHXZ
       3125  C34 0005BF20 ?qsnprintf@@YAHPADIPBDZZ
       3126  C35 0000D040 ?qsrand@@YAXI@Z
       3127  C36 000174F0 ?qstrcmp@@YAHABVQByteArray@@0@Z
       3128  C37 00017490 ?qstrcmp@@YAHABVQByteArray@@PBD@Z
       3129  C38 00016940 ?qstrcmp@@YAHPBD0@Z
       3130  C39 00017450 ?qstrcpy@@YAPADPADPBD@Z
       3131  C3A 00018760 ?qstrdup@@YAPADPBD@Z
       3132  C3B 00016990 ?qstricmp@@YAHPBD0@Z
       3133  C3C 00016900 ?qstrncpy@@YAPADPADPBDI@Z
       3134  C3D 00016A10 ?qstrnicmp@@YAHPBD0I@Z
       3135  C3E 0003A480 ?qstrtod@@YANPBDPAPBDPA_N@Z
       3136  C3F 00039460 ?qstrtoll@@YA_JPBDPAPBDHPA_N@Z
       3137  C40 0000D950 ?qt_assert@@YAXPBD0H@Z
       3138  C41 0000D970 ?qt_assert_x@@YAXPBD00H@Z
       3139  C42 000D71C0 ?qt_call_post_routines@@YAXXZ
       3140  C43 0000D930 ?qt_check_pointer@@YAXPBDH@Z
       3141  C44 0000D9A0 ?qt_error_string@@YA?AVQString@@H@Z
       3142  C45 001DDC18 ?qt_global_mutexpool@@3PAVQMutexPool@@A
       3143  C46 0000CF70 ?qt_int_sqrt@@YAII@Z
       3144  C47 0003FC10 ?qt_localeFromLCID@@YA?AVQLocale@@K@Z
       3145  C48 0000D4E0 ?qt_message_output@@YAXW4QtMsgType@@PBD@Z
       3146  C49 0010F760 ?qt_metacall@QAbstractEventDispatcher@@UAEHW4Call@QMetaObject@@HPAPAX@Z
       3147  C4A 0010FC00 ?qt_metacall@QAbstractItemModel@@UAEHW4Call@QMetaObject@@HPAPAX@Z
       3148  C4B 0010FE60 ?qt_metacall@QAbstractListModel@@UAEHW4Call@QMetaObject@@HPAPAX@Z
       3149  C4C 0010FE60 ?qt_metacall@QAbstractTableModel@@UAEHW4Call@QMetaObject@@HPAPAX@Z
       3150  C4D 0007A1E0 ?qt_metacall@QBuffer@@UAEHW4Call@QMetaObject@@HPAPAX@Z
       3151  C4E 0010FFE0 ?qt_metacall@QCoreApplication@@UAEHW4Call@QMetaObject@@HPAPAX@Z
       3152  C4F 001107C0 ?qt_metacall@QEventDispatcherWin32@@UAEHW4Call@QMetaObject@@HPAPAX@Z
       3153  C50 0010FEE0 ?qt_metacall@QEventLoop@@UAEHW4Call@QMetaObject@@HPAPAX@Z
       3154  C51 0010F050 ?qt_metacall@QFactoryLoader@@UAEHW4Call@QMetaObject@@HPAPAX@Z
       3155  C52 0010EDB0 ?qt_metacall@QFile@@UAEHW4Call@QMetaObject@@HPAPAX@Z
       3156  C53 000B1D60 ?qt_metacall@QFileSystemWatcher@@UAEHW4Call@QMetaObject@@HPAPAX@Z
       3157  C54 0010E450 ?qt_metacall@QFutureWatcherBase@@UAEHW4Call@QMetaObject@@HPAPAX@Z
       3158  C55 0010EEC0 ?qt_metacall@QIODevice@@UAEHW4Call@QMetaObject@@HPAPAX@Z
       3159  C56 0010F520 ?qt_metacall@QLibrary@@UAEHW4Call@QMetaObject@@HPAPAX@Z
       3160  C57 0010F050 ?qt_metacall@QMimeData@@UAEHW4Call@QMetaObject@@HPAPAX@Z
       3161  C58 000E5B80 ?qt_metacall@QObject@@UAEHW4Call@QMetaObject@@HPAPAX@Z
       3162  C59 00110690 ?qt_metacall@QObjectCleanupHandler@@UAEHW4Call@QMetaObject@@HPAPAX@Z
       3163  C5A 0010F390 ?qt_metacall@QPluginLoader@@UAEHW4Call@QMetaObject@@HPAPAX@Z
       3164  C5B 0008D310 ?qt_metacall@QProcess@@UAEHW4Call@QMetaObject@@HPAPAX@Z
       3165  C5C 0010F050 ?qt_metacall@QSettings@@UAEHW4Call@QMetaObject@@HPAPAX@Z
       3166  C5D 0010F050 ?qt_metacall@QSharedMemory@@UAEHW4Call@QMetaObject@@HPAPAX@Z
       3167  C5E 000E92B0 ?qt_metacall@QSignalMapper@@UAEHW4Call@QMetaObject@@HPAPAX@Z
       3168  C5F 00110310 ?qt_metacall@QSocketNotifier@@UAEHW4Call@QMetaObject@@HPAPAX@Z
       3169  C60 0010EFD0 ?qt_metacall@QTemporaryFile@@UAEHW4Call@QMetaObject@@HPAPAX@Z
       3170  C61 0010F050 ?qt_metacall@QTextCodecPlugin@@UAEHW4Call@QMetaObject@@HPAPAX@Z
       3171  C62 0010E850 ?qt_metacall@QThread@@UAEHW4Call@QMetaObject@@HPAPAX@Z
       3172  C63 0010E690 ?qt_metacall@QThreadPool@@UAEHW4Call@QMetaObject@@HPAPAX@Z
       3173  C64 0010EA60 ?qt_metacall@QTimeLine@@UAEHW4Call@QMetaObject@@HPAPAX@Z
       3174  C65 00110400 ?qt_metacall@QTimer@@UAEHW4Call@QMetaObject@@HPAPAX@Z
       3175  C66 0010F050 ?qt_metacall@QTranslator@@UAEHW4Call@QMetaObject@@HPAPAX@Z
       3176  C67 00110870 ?qt_metacall@QWinEventNotifier@@UAEHW4Call@QMetaObject@@HPAPAX@Z
       3177  C68 0010F2D0 ?qt_metacall@QWindowsPipeWriter@@UAEHW4Call@QMetaObject@@HPAPAX@Z
       3178  C69 0010F6C0 ?qt_metacast@QAbstractEventDispatcher@@UAEPAXPBD@Z
       3179  C6A 0010F7C0 ?qt_metacast@QAbstractItemModel@@UAEPAXPBD@Z
       3180  C6B 0010FBA0 ?qt_metacast@QAbstractListModel@@UAEPAXPBD@Z
       3181  C6C 0010FB30 ?qt_metacast@QAbstractTableModel@@UAEPAXPBD@Z
       3182  C6D 0007A180 ?qt_metacast@QBuffer@@UAEPAXPBD@Z
       3183  C6E 0010FF30 ?qt_metacast@QCoreApplication@@UAEPAXPBD@Z
       3184  C6F 00110760 ?qt_metacast@QEventDispatcherWin32@@UAEPAXPBD@Z
       3185  C70 0010FE80 ?qt_metacast@QEventLoop@@UAEPAXPBD@Z
       3186  C71 0010F650 ?qt_metacast@QFactoryLoader@@UAEPAXPBD@Z
       3187  C72 0010ED50 ?qt_metacast@QFile@@UAEPAXPBD@Z
       3188  C73 000B0F40 ?qt_metacast@QFileSystemWatcher@@UAEPAXPBD@Z
       3189  C74 0010E240 ?qt_metacast@QFutureWatcherBase@@UAEPAXPBD@Z
       3190  C75 0010EDD0 ?qt_metacast@QIODevice@@UAEPAXPBD@Z
       3191  C76 0010F4C0 ?qt_metacast@QLibrary@@UAEPAXPBD@Z
       3192  C77 00110210 ?qt_metacast@QMimeData@@UAEPAXPBD@Z
       3193  C78 000E14E0 ?qt_metacast@QObject@@UAEPAXPBD@Z
       3194  C79 00110630 ?qt_metacast@QObjectCleanupHandler@@UAEPAXPBD@Z
       3195  C7A 0010F330 ?qt_metacast@QPluginLoader@@UAEPAXPBD@Z
       3196  C7B 0008B2D0 ?qt_metacast@QProcess@@UAEPAXPBD@Z
       3197  C7C 0010EFF0 ?qt_metacast@QSettings@@UAEPAXPBD@Z
       3198  C7D 001106F0 ?qt_metacast@QSharedMemory@@UAEPAXPBD@Z
       3199  C7E 000E8410 ?qt_metacast@QSignalMapper@@UAEPAXPBD@Z
       3200  C7F 00110280 ?qt_metacast@QSocketNotifier@@UAEPAXPBD@Z
       3201  C80 0010EF70 ?qt_metacast@QTemporaryFile@@UAEPAXPBD@Z
       3202  C81 001108E0 ?qt_metacast@QTextCodecPlugin@@UAEPAXPBD@Z
       3203  C82 0010E790 ?qt_metacast@QThread@@UAEPAXPBD@Z
       3204  C83 0010E630 ?qt_metacast@QThreadPool@@UAEPAXPBD@Z
       3205  C84 0010E950 ?qt_metacast@QTimeLine@@UAEPAXPBD@Z
       3206  C85 00110380 ?qt_metacast@QTimer@@UAEPAXPBD@Z
       3207  C86 001105C0 ?qt_metacast@QTranslator@@UAEPAXPBD@Z
       3208  C87 001107E0 ?qt_metacast@QWinEventNotifier@@UAEPAXPBD@Z
       3209  C88 0010F250 ?qt_metacast@QWindowsPipeWriter@@UAEPAXPBD@Z
       3210  C89 001DE7FC ?qt_ntfs_permission_lookup@@3HA
       3211  C8A 000E2150 ?qt_qFindChild_helper@@YAPAVQObject@@PBV1@ABVQString@@ABUQMetaObject@@@Z
       3212  C8B 000E4960 ?qt_qFindChildren_helper@@YAXPBVQObject@@ABVQString@@PBVQRegExp@@ABUQMetaObject@@PAV?$QList@PAX@@@Z
       3213  C8C 000D4940 ?qt_register_signal_spy_callbacks@@YAXABUQSignalSpyCallbackSet@@@Z
       3214  C8D 001DEAB8 ?qt_signal_spy_callback_set@@3UQSignalSpyCallbackSet@@A
       3215  C8E 000545C0 ?qt_winMB2QString@@YA?AVQString@@PBDH@Z
       3216  C8F 00052050 ?qt_winQString2MB@@YA?AVQByteArray@@ABVQString@@H@Z
       3217  C90 00051940 ?qt_winQString2MB@@YA?AVQByteArray@@PBVQChar@@H@Z
       3218  C91 000FEEC0 ?qualifiedName@QXmlStreamAttribute@@QBE?AVQStringRef@@XZ
       3219  C92 000FFC50 ?qualifiedName@QXmlStreamReader@@QBE?AVQStringRef@@XZ
       3220  C93 0003FD70 ?query@QSystemLocale@@UBE?AVQVariant@@W4QueryType@1@V2@@Z
       3221  C94 0009E5C0 ?query@QUrl@@QBE?AVQString@@XZ
       3222  C95 000A1C20 ?queryItemValue@QUrl@@QBE?AVQString@@ABV2@@Z
       3223  C96 000A1960 ?queryItems@QUrl@@QBE?AV?$QList@U?$QPair@VQString@@V1@@@@@XZ
       3224  C97 000E3BA0 ?queryList@QObject@@QBE?AV?$QList@PAVQObject@@@@PBD0_N1@Z
       3225  C98 00098D30 ?queryPairDelimiter@QUrl@@QBEDXZ
       3226  C99 000024B0 ?queryState@QFutureInterfaceBase@@QBE_NW4State@1@@Z
       3227  C9A 00098D40 ?queryValueDelimiter@QUrl@@QBEDXZ
       3228  C9B 000D4DA0 ?quit@QCoreApplication@@SAXXZ
       3229  C9C 000D45E0 ?quit@QEventLoop@@QAEXXZ
       3230  C9D 000130F0 ?quit@QThread@@QAEXXZ
       3231  C9E 0005BEF0 ?qvsnprintf@@YAHPADIPBD0@Z
       3232  C9F 00043B90 ?rBottom@QRect@@QAEAAHXZ
       3233  CA0 00043B70 ?rLeft@QRect@@QAEAAHXZ
       3234  CA1 00001770 ?rRight@QRect@@QAEAAHXZ
       3235  CA2 00043B80 ?rTop@QRect@@QAEAAHXZ
       3236  CA3 0000B5B0 ?raise@Exception@QtConcurrent@@UBEXXZ
       3237  CA4 0000B690 ?raise@UnhandledException@QtConcurrent@@UBEXXZ
       3238  CA5 000FFB30 ?raiseError@QXmlStreamReader@@QAEXABVQString@@@Z
       3239  CA6 0010DDB0 ?rangeContains@QXmlUtils@@CA_NPBVQXmlCharRange@@0VQChar@@@Z
       3240  CA7 00078BB0 ?read@QAbstractFileEngine@@UAE_JPAD_J@Z
       3241  CA8 000AF160 ?read@QFSFileEngine@@UAE_JPAD_J@Z
       3242  CA9 0008A280 ?read@QIODevice@@QAE?AVQByteArray@@_J@Z
       3243  CAA 00089ED0 ?read@QIODevice@@QAE_JPAD_J@Z
       3244  CAB 000DB1E0 ?read@QMetaProperty@@QBE?AVQVariant@@PBVQObject@@@Z
       3245  CAC 0007B040 ?read@QRingBuffer@@QAE?AVQByteArray@@H@Z
       3246  CAD 0007AFB0 ?read@QRingBuffer@@QAEHPADH@Z
       3247  CAE 00002FB0 ?read@QTextStream@@QAE?AVQString@@XZ
       3248  CAF 0008FD60 ?read@QTextStream@@QAE?AVQString@@_J@Z
       3249  CB0 0008A460 ?readAll@QIODevice@@QAE?AVQByteArray@@XZ
       3250  CB1 0007B100 ?readAll@QRingBuffer@@QAE?AVQByteArray@@XZ
       3251  CB2 0008FAE0 ?readAll@QTextStream@@QAE?AVQString@@XZ
       3252  CB3 0008C8A0 ?readAllStandardError@QProcess@@QAE?AVQByteArray@@XZ
       3253  CB4 0008C810 ?readAllStandardOutput@QProcess@@QAE?AVQByteArray@@XZ
       3254  CB5 00113280 ?readBlock@QIODevice@@QAE_JPAD_K@Z
       3255  CB6 0000EC50 ?readBoolEntry@QSettings@@QAE_NABVQString@@_NPA_N@Z
       3256  CB7 0007C1F0 ?readBytes@QDataStream@@QAEAAV1@AAPADAAI@Z
       3257  CB8 0008B0D0 ?readChannel@QProcess@@QBE?AW4ProcessChannel@1@XZ
       3258  CB9 0010EEA0 ?readChannelFinished@QIODevice@@IAEXXZ
       3259  CBA 0008B8A0 ?readChannelMode@QProcess@@QBE?AW4ProcessChannelMode@1@XZ
       3260  CBB 0007A5A0 ?readData@QBuffer@@MAE_JPAD_J@Z
       3261  CBC 00085A40 ?readData@QFile@@MAE_JPAD_J@Z
       3262  CBD 0008C6B0 ?readData@QProcess@@MAE_JPAD_J@Z
       3263  CBE 0000EB90 ?readDoubleEntry@QSettings@@QAENABVQString@@NPA_N@Z
       3264  CBF 0010D9A0 ?readElementText@QXmlStreamReader@@QAE?AVQString@@XZ
       3265  CC0 0000F960 ?readEntry@QSettings@@QAE?AVQString@@ABV2@0PA_N@Z
       3266  CC1 00078BC0 ?readLine@QAbstractFileEngine@@UAE_JPAD_J@Z
       3267  CC2 000AF1A0 ?readLine@QFSFileEngine@@UAE_JPAD_J@Z
       3268  CC3 00089840 ?readLine@QIODevice@@QAE?AVQByteArray@@_J@Z
       3269  CC4 00089660 ?readLine@QIODevice@@QAE_JPAD_J@Z
       3270  CC5 0007B130 ?readLine@QRingBuffer@@QAEHPADH@Z
       3271  CC6 0008FC20 ?readLine@QTextStream@@QAE?AVQString@@_J@Z
       3272  CC7 000859B0 ?readLineData@QFile@@MAE_JPAD_J@Z
       3273  CC8 0008A650 ?readLineData@QIODevice@@MAE_JPAD_J@Z
       3274  CC9 00084910 ?readLink@QFile@@QBE?AVQString@@XZ
       3275  CCA 00084940 ?readLink@QFile@@SA?AVQString@@ABV2@@Z
       3276  CCB 00088740 ?readLink@QFileInfo@@QBE?AVQString@@XZ
       3277  CCC 00010200 ?readListEntry@QSettings@@QAE?AVQStringList@@ABVQString@@PA_N@Z
       3278  CCD 000102C0 ?readListEntry@QSettings@@QAE?AVQStringList@@ABVQString@@VQChar@@PA_N@Z
       3279  CCE 0010D860 ?readNext@QXmlStreamReader@@QAE?AW4TokenType@1@XZ
       3280  CCF 0000EAE0 ?readNumEntry@QSettings@@QAEHABVQString@@HPA_N@Z
       3281  CD0 0007AA80 ?readPointer@QRingBuffer@@QBEPBDXZ
       3282  CD1 00113340 ?readRawBytes@QDataStream@@QAEAAV1@PADI@Z
       3283  CD2 0007BC30 ?readRawData@QDataStream@@QAEHPADH@Z
       3284  CD3 00001050 ?readWriteLock@QReadLocker@@QBEPAVQReadWriteLock@@XZ
       3285  CD4 00001050 ?readWriteLock@QWriteLocker@@QBEPAVQReadWriteLock@@XZ
       3286  CD5 0010EE30 ?readyRead@QIODevice@@IAEXXZ
       3287  CD6 0008B440 ?readyReadStandardError@QProcess@@IAEXXZ
       3288  CD7 0008B420 ?readyReadStandardOutput@QProcess@@IAEXXZ
       3289  CD8 0008DCB0 ?realNumberNotation@QTextStream@@QBE?AW4RealNumberNotation@1@XZ
       3290  CD9 0008B140 ?realNumberPrecision@QTextStream@@QBEHXZ
       3291  CDA 00004870 ?realloc@?$QVector@VQPoint@@@@AAEXHH@Z
       3292  CDB 000045D0 ?realloc@?$QVector@VQPointF@@@@AAEXHH@Z
       3293  CDC 00105210 ?realloc@?$QVector@VQXmlStreamAttribute@@@@AAEXHH@Z
       3294  CDD 00017780 ?realloc@QByteArray@@AAEXH@Z
       3295  CDE 00038C20 ?realloc@QListData@@QAEXH@Z
       3296  CDF 000523F0 ?realloc@QString@@AAEXH@Z
       3297  CE0 00052540 ?realloc@QString@@AAEXXZ
       3298  CE1 000E44A0 ?receiverList@QObjectPrivate@@QBE?AV?$QList@PAVQObject@@@@PBD@Z
       3299  CE2 000E2320 ?receivers@QObject@@IBEHPBD@Z
       3300  CE3 00043FD0 ?rect@QRect@@QBEXPAH000@Z
       3301  CE4 000016E0 ?ref@QBasicAtomicInt@@QAE_NXZ
       3302  CE5 00114BC0 ?ref@QString@@QAEAAVQChar@@I@Z
       3303  CE6 00012C70 ?ref@QThreadData@@QAEXXZ
       3304  CE7 0009E650 ?ref@QUrl@@QBE?AVQString@@XZ
       3305  CE8 000E31C0 ?refSender@QObjectPrivate@@QAEXPAVQObject@@H@Z
       3306  CE9 000024F0 ?referenceCountIsOne@QFutureInterfaceBase@@IBE_NXZ
       3307  CEA 0007C6C0 ?refresh@QDir@@QBEXXZ
       3308  CEB 00089270 ?refresh@QFileInfo@@QAEXXZ
       3309  CEC 000C8690 ?refreshAll@QFactoryLoader@@SAXXZ
       3310  CED 0000E570 ?registerCallback@QInternal@@SA_NW4Callback@1@P6A_NPAPAX@Z@Z
       3311  CEE 000F4BE0 ?registerEventNotifier@QEventDispatcherWin32@@QAE_NPAVQWinEventNotifier@@@Z
       3312  CEF 000D8E50 ?registerEventType@QEvent@@SAHH@Z
       3313  CF0 000AAE30 ?registerFormat@QSettings@@SA?AW4Format@1@ABVQString@@P6A_NAAVQIODevice@@AAV?$QMap@VQString@@VQVariant@@@@@ZP6A_N1ABV5@@ZW4CaseSensitivity@Qt@@@Z
       3314  CF1 00093D20 ?registerResource@QResource@@SA_NABVQString@@0@Z
       3315  CF2 00094270 ?registerResource@QResource@@SA_NPBEABVQString@@@Z
       3316  CF3 000F41A0 ?registerSocketNotifier@QEventDispatcherWin32@@UAEXPAVQSocketNotifier@@@Z
       3317  CF4 000DEA50 ?registerStreamOperators@QMetaType@@SAXPBDP6AXAAVQDataStream@@PBX@ZP6AX1PAX@Z@Z
       3318  CF5 000CCD10 ?registerTimer@QAbstractEventDispatcher@@QAEHHPAVQObject@@@Z
       3319  CF6 000F47D0 ?registerTimer@QEventDispatcherWin32@@UAEXHHPAVQObject@@@Z
       3320  CF7 000DEB30 ?registerType@QMetaType@@SAHPBDP6AXPAX@ZP6APAXPBX@Z@Z
       3321  CF8 000E1480 ?registerUserData@QObject@@SAIXZ
       3322  CF9 000F4A40 ?registeredTimers@QEventDispatcherWin32@@UBE?AV?$QList@U?$QPair@HH@@@@PAVQObject@@@Z
       3323  CFA 00037290 ?rehash@QHashData@@QAEXH@Z
       3324  CFB 0007F350 ?relativeFilePath@QDir@@QBE?AVQString@@ABV2@@Z
       3325  CFC 00012940 ?release@QSemaphore@@QAEXH@Z
       3326  CFD 000F2A90 ?release@QSystemSemaphore@@QAE_NH@Z
       3327  CFE 0000CE80 ?releaseThread@QThreadPool@@QAEXXZ
       3328  CFF 00001030 ?relock@QMutexLocker@@QAEXXZ
       3329  D00 00001D80 ?relock@QReadLocker@@QAEXXZ
       3330  D01 00001DC0 ?relock@QWriteLocker@@QAEXXZ
       3331  D02 00007830 ?remove@?$QVector@VQPoint@@@@QAEXH@Z
       3332  D03 000077D0 ?remove@?$QVector@VQPoint@@@@QAEXHH@Z
       3333  D04 00007620 ?remove@?$QVector@VQPointF@@@@QAEXH@Z
       3334  D05 000075B0 ?remove@?$QVector@VQPointF@@@@QAEXHH@Z
       3335  D06 00109370 ?remove@?$QVector@VQXmlStreamAttribute@@@@QAEXH@Z
       3336  D07 00109300 ?remove@?$QVector@VQXmlStreamAttribute@@@@QAEXHH@Z
       3337  D08 0000A400 ?remove@QAbstractFileEngine@@UAE_NXZ
       3338  D09 00018A90 ?remove@QByteArray@@QAEAAV1@HH@Z
       3339  D0A 0007D2C0 ?remove@QDir@@QAE_NABVQString@@@Z
       3340  D0B 000BF210 ?remove@QFSFileEngine@@UAE_NXZ
       3341  D0C 00084A50 ?remove@QFile@@QAE_NXZ
       3342  D0D 00086100 ?remove@QFile@@SA_NABVQString@@@Z
       3343  D0E 00038850 ?remove@QListData@@QAEXH@Z
       3344  D0F 000388C0 ?remove@QListData@@QAEXHH@Z
       3345  D10 000E8240 ?remove@QObjectCleanupHandler@@QAEXPAVQObject@@@Z
       3346  D11 000A63D0 ?remove@QSettings@@QAEXABVQString@@@Z
       3347  D12 000536B0 ?remove@QString@@QAEAAV1@ABV1@W4CaseSensitivity@Qt@@@Z
       3348  D13 00111320 ?remove@QString@@QAEAAV1@ABV1@_N@Z
       3349  D14 001139C0 ?remove@QString@@QAEAAV1@ABVQRegExp@@@Z
       3350  D15 00053630 ?remove@QString@@QAEAAV1@HH@Z
       3351  D16 00053740 ?remove@QString@@QAEAAV1@VQChar@@W4CaseSensitivity@Qt@@@Z
       3352  D17 00111300 ?remove@QString@@QAEAAV1@VQChar@@_N@Z
       3353  D18 000A0CF0 ?removeAllEncodedQueryItems@QUrl@@QAEXABVQByteArray@@@Z
       3354  D19 000A2180 ?removeAllQueryItems@QUrl@@QAEXABVQString@@@Z
       3355  D1A 00112B40 ?removeChild@QObject@@QAEXPAV1@@Z
       3356  D1B 000CCF90 ?removeColumn@QAbstractItemModel@@QAE_NHABVQModelIndex@@@Z
       3357  D1C 000CD610 ?removeColumns@QAbstractItemModel@@UAE_NHHABVQModelIndex@@@Z
       3358  D1D 000A0B30 ?removeEncodedQueryItem@QUrl@@QAEXABVQByteArray@@@Z
       3359  D1E 0000ED00 ?removeEntry@QSettings@@QAE_NABVQString@@@Z
       3360  D1F 000E7F90 ?removeEventFilter@QObject@@QAEXPAV1@@Z
       3361  D20 000E0B70 ?removeFormat@QMimeData@@QAEXABVQString@@@Z
       3362  D21 000E5240 ?removeGuard@QMetaObject@@SAXPAPAVQObject@@@Z
       3363  D22 000D8560 ?removeLibraryPath@QCoreApplication@@SAXABVQString@@@Z
       3364  D23 000E9210 ?removeMappings@QSignalMapper@@QAEXPAVQObject@@@Z
       3365  D24 000B1F80 ?removePath@QFileSystemWatcher@@QAEXABVQString@@@Z
       3366  D25 000B1AB0 ?removePaths@QFileSystemWatcher@@QAEXABVQStringList@@@Z
       3367  D26 000E3130 ?removePendingChildInsertedEvents@QObjectPrivate@@QAEXPAVQObject@@@Z
       3368  D27 000D2C10 ?removePersistentIndexData@QAbstractItemModelPrivate@@QAEXPAVQPersistentModelIndexData@@@Z
       3369  D28 000D5670 ?removePostedEvent@QCoreApplicationPrivate@@SAXPAVQEvent@@@Z
       3370  D29 000D7B20 ?removePostedEvents@QCoreApplication@@SAXPAVQObject@@@Z
       3371  D2A 000D7360 ?removePostedEvents@QCoreApplication@@SAXPAVQObject@@H@Z
       3372  D2B 000D6E90 ?removePostedEvents_unlocked@QCoreApplicationPrivate@@SAXPAVQObject@@HPAVQThreadData@@@Z
       3373  D2C 000F6040 ?removePostedTimerEvent@QCoreApplicationPrivate@@SAXPAVQObject@@H@Z
       3374  D2D 000A1FC0 ?removeQueryItem@QUrl@@QAEXABVQString@@@Z
       3375  D2E 000E5F10 ?removeReceiver@QObjectPrivate@@QAEXHPAVQObject@@@Z
       3376  D2F 000CCF70 ?removeRow@QAbstractItemModel@@QAE_NHABVQModelIndex@@@Z
       3377  D30 000CD610 ?removeRows@QAbstractItemModel@@UAE_NHHABVQModelIndex@@@Z
       3378  D31 0000ED10 ?removeSearchPath@QSettings@@QAEXW4System@1@ABVQString@@@Z
       3379  D32 000E33D0 ?removeSender@QObjectPrivate@@QAEXPAVQObject@@H@Z
       3380  D33 000D6340 ?removeTranslator@QCoreApplication@@SAXPAVQTranslator@@@Z
       3381  D34 00112E60 ?removed@QChildEvent@@QBE_NXZ
       3382  D35 00092C10 ?rename@QAbstractFileEngine@@UAE_NABVQString@@@Z
       3383  D36 0007D370 ?rename@QDir@@QAE_NABVQString@@0@Z
       3384  D37 000BF5D0 ?rename@QFSFileEngine@@UAE_NABVQString@@@Z
       3385  D38 00086170 ?rename@QFile@@QAE_NABVQString@@@Z
       3386  D39 00086550 ?rename@QFile@@SA_NABVQString@@0@Z
       3387  D3A 00006C90 ?replace@?$QVector@VQPoint@@@@QAEXHABVQPoint@@@Z
       3388  D3B 00006870 ?replace@?$QVector@VQPointF@@@@QAEXHABVQPointF@@@Z
       3389  D3C 00107240 ?replace@?$QVector@VQXmlStreamAttribute@@@@QAEXHABVQXmlStreamAttribute@@@Z
       3390  D3D 0001A170 ?replace@QByteArray@@QAEAAV1@ABV1@0@Z
       3391  D3E 00110EB0 ?replace@QByteArray@@QAEAAV1@ABV1@PBD@Z
       3392  D3F 001125F0 ?replace@QByteArray@@QAEAAV1@ABVQString@@ABV1@@Z
       3393  D40 00112570 ?replace@QByteArray@@QAEAAV1@ABVQString@@PBD@Z
       3394  D41 0001A550 ?replace@QByteArray@@QAEAAV1@DABV1@@Z
       3395  D42 001124F0 ?replace@QByteArray@@QAEAAV1@DABVQString@@@Z
       3396  D43 0001A5F0 ?replace@QByteArray@@QAEAAV1@DD@Z
       3397  D44 00110E10 ?replace@QByteArray@@QAEAAV1@DPBD@Z
       3398  D45 0001A0D0 ?replace@QByteArray@@QAEAAV1@HHABV1@@Z
       3399  D46 00097120 ?replace@QByteArray@@QAEAAV1@HHPBD@Z
       3400  D47 000971D0 ?replace@QByteArray@@QAEAAV1@PBD0@Z
       3401  D48 00110F50 ?replace@QByteArray@@QAEAAV1@PBDABV1@@Z
       3402  D49 00053A70 ?replace@QString@@QAEAAV1@ABV1@0W4CaseSensitivity@Qt@@@Z
       3403  D4A 00111360 ?replace@QString@@QAEAAV1@ABV1@0_N@Z
       3404  D4B 00057B30 ?replace@QString@@QAEAAV1@ABVQRegExp@@ABV1@@Z
       3405  D4C 001113C0 ?replace@QString@@QAEAAV1@DABV1@W4CaseSensitivity@Qt@@@Z
       3406  D4D 00111380 ?replace@QString@@QAEAAV1@DABV1@_N@Z
       3407  D4E 00053900 ?replace@QString@@QAEAAV1@HHABV1@@Z
       3408  D4F 00053A10 ?replace@QString@@QAEAAV1@HHPBVQChar@@H@Z
       3409  D50 00053A40 ?replace@QString@@QAEAAV1@HHVQChar@@@Z
       3410  D51 00053EB0 ?replace@QString@@QAEAAV1@VQChar@@0W4CaseSensitivity@Qt@@@Z
       3411  D52 00057960 ?replace@QString@@QAEAAV1@VQChar@@ABV1@W4CaseSensitivity@Qt@@@Z
       3412  D53 00111340 ?replace@QString@@QAEAAV1@VQChar@@ABV1@_N@Z
       3413  D54 00005BB0 ?reportCanceled@QFutureInterfaceBase@@QAEXXZ
       3414  D55 00005BC0 ?reportException@QFutureInterfaceBase@@QAEXABVException@QtConcurrent@@@Z
       3415  D56 00005CE0 ?reportFinished@QFutureInterfaceBase@@QAEXXZ
       3416  D57 00005DE0 ?reportResultsReady@QFutureInterfaceBase@@QAEXHH@Z
       3417  D58 00005AF0 ?reportStarted@QFutureInterfaceBase@@QAEXXZ
       3418  D59 00004FF0 ?reserve@?$QVector@VQPoint@@@@QAEXH@Z
       3419  D5A 00004CC0 ?reserve@?$QVector@VQPointF@@@@QAEXH@Z
       3420  D5B 00105FB0 ?reserve@?$QVector@VQXmlStreamAttribute@@@@QAEXH@Z
       3421  D5C 00038F40 ?reserve@QByteArray@@QAEXH@Z
       3422  D5D 0007B2A0 ?reserve@QRingBuffer@@QAEPADH@Z
       3423  D5E 00052A20 ?reserve@QString@@QAEXH@Z
       3424  D5F 0000BA20 ?reserveThread@QThreadPool@@QAEXXZ
       3425  D60 0008E3F0 ?reset@@YAAAVQTextStream@@AAV1@@Z
       3426  D61 000D0150 ?reset@QAbstractItemModel@@IAEXXZ
       3427  D62 000CF6E0 ?reset@QAbstractItemModelPrivate@@QAEXXZ
       3428  D63 0001C0D0 ?reset@QCryptographicHash@@QAEXXZ
       3429  D64 000892F0 ?reset@QIODevice@@UAE_NXZ
       3430  D65 000DB420 ?reset@QMetaProperty@@QBE_NPAVQObject@@@Z
       3431  D66 0008E280 ?reset@QTextStream@@QAEXXZ
       3432  D67 0009E880 ?reset@QUrl@@IAEXXZ
       3433  D68 000E1650 ?resetCurrentSender@QObjectPrivate@@SAXPAVQObject@@PAUSender@1@1@Z
       3434  D69 000E1150 ?resetDeleteWatch@QObjectPrivate@@SAXPAV1@PAHH@Z
       3435  D6A 0000FA20 ?resetGroup@QSettings@@QAEXXZ
       3436  D6B 00110B60 ?resetRawData@QByteArray@@QAEXPBDI@Z
       3437  D6C 0007B8F0 ?resetStatus@QDataStream@@QAEXXZ
       3438  D6D 00089590 ?resetStatus@QIODevice@@QAEXXZ
       3439  D6E 0008DD10 ?resetStatus@QTextStream@@QAEXXZ
       3440  D6F 00004F90 ?resize@?$QVector@VQPoint@@@@QAEXH@Z
       3441  D70 00004C60 ?resize@?$QVector@VQPointF@@@@QAEXH@Z
       3442  D71 00105F50 ?resize@?$QVector@VQXmlStreamAttribute@@@@QAEXH@Z
       3443  D72 00015E20 ?resize@QBitArray@@QAEXH@Z
       3444  D73 00018860 ?resize@QByteArray@@QAEXH@Z
       3445  D74 00085700 ?resize@QFile@@QAE_N_J@Z
       3446  D75 00086630 ?resize@QFile@@SA_NABVQString@@_J@Z
       3447  D76 00053270 ?resize@QString@@QAEXH@Z
       3448  D77 000C99A0 ?resolve@QLibrary@@QAEPAXPBD@Z
       3449  D78 000CBF70 ?resolve@QLibrary@@SAPAXABVQString@@0PBD@Z
       3450  D79 000CBEF0 ?resolve@QLibrary@@SAPAXABVQString@@HPBD@Z
       3451  D7A 000CBE80 ?resolve@QLibrary@@SAPAXABVQString@@PBD@Z
       3452  D7B 000FF590 ?resolveEntity@QXmlStreamEntityResolver@@UAE?AVQString@@ABV2@0@Z
       3453  D7C 00078DC0 ?resolveUndeclaredEntity@QXmlStreamEntityResolver@@UAE?AVQString@@ABV2@@Z
       3454  D7D 000A3650 ?resolved@QUrl@@QBE?AV1@ABV1@@Z
       3455  D7E 0001E380 ?restart@QTime@@QAEHXZ
       3456  D7F 0001D950 ?result@QCryptographicHash@@QBE?AVQByteArray@@XZ
       3457  D80 00009D90 ?resultAt@ResultStoreBase@QtConcurrent@@QBE?AVResultIteratorBase@2@H@Z
       3458  D81 00003CE0 ?resultCount@QFutureInterfaceBase@@QBEHXZ
       3459  D82 00009CF0 ?resultIndex@ResultIteratorBase@QtConcurrent@@QBEHXZ
       3460  D83 0010E340 ?resultReadyAt@QFutureWatcherBase@@IAEXH@Z
       3461  D84 000024E0 ?resultStoreBase@QFutureInterfaceBase@@QAEAAVResultStoreBase@QtConcurrent@@XZ
       3462  D85 000024E0 ?resultStoreBase@QFutureInterfaceBase@@QBEABVResultStoreBase@QtConcurrent@@XZ
       3463  D86 0010E370 ?resultsReadyAt@QFutureWatcherBase@@IAEXHH@Z
       3464  D87 00009050 ?resume@QFutureWatcherBase@@QAEXXZ
       3465  D88 0005B600 ?resume@QTimeLine@@QAEXXZ
       3466  D89 0010E320 ?resumed@QFutureWatcherBase@@IAEXXZ
       3467  D8A 000DF900 ?retrieveData@QMimeData@@MBE?AVQVariant@@ABVQString@@W4Type@2@@Z
       3468  D8B 000D8AA0 ?revert@QAbstractItemModel@@UAEXXZ
       3469  D8C 00043B80 ?rheight@QSize@@QAEAAHXZ
       3470  D8D 00001770 ?rheight@QSizeF@@QAEAANXZ
       3471  D8E 0008DE20 ?right@@YAAAVQTextStream@@AAV1@@Z
       3472  D8F 00017D30 ?right@QByteArray@@QBE?AV1@H@Z
       3473  D90 0008AF30 ?right@QRect@@QBEHXZ
       3474  D91 000441A0 ?right@QRectF@@QBENXZ
       3475  D92 00054290 ?right@QString@@QBE?AV1@H@Z
       3476  D93 000193A0 ?rightJustified@QByteArray@@QBE?AV1@HD_N@Z
       3477  D94 00055020 ?rightJustified@QString@@QBE?AV1@HVQChar@@_N@Z
       3478  D95 001137E0 ?rightJustify@QByteArray@@QBE?AV1@ID_N@Z
       3479  D96 00114290 ?rightJustify@QString@@QBE?AV1@HVQChar@@_N@Z
       3480  D97 00051F90 ?rightRef@QString@@QBE?AVQStringRef@@H@Z
       3481  D98 00092BD0 ?rmdir@QAbstractFileEngine@@UBE_NABVQString@@_N@Z
       3482  D99 0007D080 ?rmdir@QDir@@QBE_NABVQString@@@Z
       3483  D9A 0000E840 ?rmdir@QDir@@QBE_NABVQString@@_N@Z
       3484  D9B 000C01D0 ?rmdir@QFSFileEngine@@UBE_NABVQString@@_N@Z
       3485  D9C 0007D200 ?rmpath@QDir@@QBE_NABVQString@@@Z
       3486  D9D 0000F4A0 ?root@QDir@@SA?AV1@XZ
       3487  D9E 0000F640 ?rootDirPath@QDir@@SA?AVQString@@XZ
       3488  D9F 0007D600 ?rootPath@QDir@@SA?AVQString@@XZ
       3489  DA0 000C0450 ?rootPath@QFSFileEngine@@SA?AVQString@@XZ
       3490  DA1 0004E7A0 ?row@QChar@@QBEEXZ
       3491  DA2 00111C70 ?row@QCharRef@@QBEEXZ
       3492  DA3 00037680 ?row@QModelIndex@@QBEHXZ
       3493  DA4 000CD400 ?row@QPersistentModelIndex@@QBEHXZ
       3494  DA5 0010F8E0 ?rowsAboutToBeInserted@QAbstractItemModel@@AAEXABVQModelIndex@@HH@Z
       3495  DA6 000D0B10 ?rowsAboutToBeInserted@QAbstractItemModelPrivate@@QAEXABVQModelIndex@@HH@Z
       3496  DA7 0010F960 ?rowsAboutToBeRemoved@QAbstractItemModel@@AAEXABVQModelIndex@@HH@Z
       3497  DA8 000D0C90 ?rowsAboutToBeRemoved@QAbstractItemModelPrivate@@QAEXABVQModelIndex@@HH@Z
       3498  DA9 0010F920 ?rowsInserted@QAbstractItemModel@@AAEXABVQModelIndex@@HH@Z
       3499  DAA 000D3270 ?rowsInserted@QAbstractItemModelPrivate@@QAEXABVQModelIndex@@HH@Z
       3500  DAB 0010F9A0 ?rowsRemoved@QAbstractItemModel@@AAEXABVQModelIndex@@HH@Z
       3501  DAC 000D33E0 ?rowsRemoved@QAbstractItemModelPrivate@@QAEXABVQModelIndex@@HH@Z
       3502  DAD 00013100 ?run@QThread@@MAEXXZ
       3503  DAE 000C5B90 ?run@QWindowsPipeWriter@@MAEXXZ
       3504  DAF 0000AA00 ?run@ThreadEngineBase@QtConcurrent@@EAEXXZ
       3505  DB0 00001C20 ?running@QThread@@QBE_NXZ
       3506  DB1 00043B70 ?rwidth@QSize@@QAEAAHXZ
       3507  DB2 00043B70 ?rwidth@QSizeF@@QAEAANXZ
       3508  DB3 00043B70 ?rx@QPoint@@QAEAAHXZ
       3509  DB4 00043B70 ?rx@QPointF@@QAEAANXZ
       3510  DB5 00043B80 ?ry@QPoint@@QAEAAHXZ
       3511  DB6 00001770 ?ry@QPointF@@QAEAANXZ
       3512  DB7 000DD650 ?save@QMetaType@@SA_NAAVQDataStream@@HPBX@Z
       3513  DB8 000ED550 ?save@QVariant@@QBEXAAVQDataStream@@@Z
       3514  DB9 0004E340 ?scale@QSize@@QAEXABV1@W4AspectRatioMode@Qt@@@Z
       3515  DBA 000439C0 ?scale@QSize@@QAEXHHW4AspectRatioMode@Qt@@@Z
       3516  DBB 0004E430 ?scale@QSizeF@@QAEXABV1@W4AspectRatioMode@Qt@@@Z
       3517  DBC 00043AC0 ?scale@QSizeF@@QAEXNNW4AspectRatioMode@Qt@@@Z
       3518  DBD 0009DA10 ?scheme@QUrl@@QBE?AVQString@@XZ
       3519  DBE 0008DDE0 ?scientific@@YAAAVQTextStream@@AAV1@@Z
       3520  DBF 000D9A50 ?scope@QMetaEnum@@QBEPBDXZ
       3521  DC0 000A5570 ?scope@QSettings@@QBE?AW4Scope@1@XZ
       3522  DC1 00017430 ?script@QUnicodeTables@@YAHABVQChar@@@Z
       3523  DC2 0004F5E0 ?script@QUnicodeTables@@YAHI@Z
       3524  DC3 00113640 ?search@QRegExp@@QBEHABVQString@@HW4CaretMode@1@@Z
       3525  DC4 00080F70 ?searchPaths@QDir@@SA?AVQStringList@@ABVQString@@@Z
       3526  DC5 00095EA0 ?searchPaths@QResource@@SA?AVQStringList@@XZ
       3527  DC6 00113650 ?searchRev@QRegExp@@QBEHABVQString@@HW4CaretMode@1@@Z
       3528  DC7 0001E170 ?second@QTime@@QBEHXZ
       3529  DC8 00025590 ?secsTo@QDateTime@@QBEHABV1@@Z
       3530  DC9 0001E1D0 ?secsTo@QTime@@QBEHABV1@@Z
       3531  DCA 00059DC0 ?section@QString@@QBE?AV1@ABV1@HHV?$QFlags@W4SectionFlag@QString@@@@@Z
       3532  DCB 0005A0A0 ?section@QString@@QBE?AV1@ABVQRegExp@@HHV?$QFlags@W4SectionFlag@QString@@@@@Z
       3533  DCC 000874F0 ?section@QString@@QBE?AV1@VQChar@@HHV?$QFlags@W4SectionFlag@QString@@@@@Z
       3534  DCD 00022EA0 ?sectionFormat@QDateTimeParser@@QBE?AVQString@@H@Z
       3535  DCE 0001FEF0 ?sectionFormat@QDateTimeParser@@QBE?AVQString@@W4Section@1@H@Z
       3536  DCF 0001F750 ?sectionMaxSize@QDateTimeParser@@QBEHH@Z
       3537  DD0 0001F390 ?sectionMaxSize@QDateTimeParser@@QBEHW4Section@1@H@Z
       3538  DD1 0001E5C0 ?sectionName@QDateTimeParser@@QBE?AVQString@@H@Z
       3539  DD2 0001F040 ?sectionNode@QDateTimeParser@@QBEABUSectionNode@1@H@Z
       3540  DD3 0001F0A0 ?sectionPos@QDateTimeParser@@QBEHABUSectionNode@1@@Z
       3541  DD4 00022E80 ?sectionPos@QDateTimeParser@@QBEHH@Z
       3542  DD5 000233D0 ?sectionSize@QDateTimeParser@@QBEHH@Z
       3543  DD6 00023510 ?sectionText@QDateTimeParser@@QBE?AVQString@@ABV2@HH@Z
       3544  DD7 0001F090 ?sectionType@QDateTimeParser@@QBE?AW4Section@1@H@Z
       3545  DD8 00092BD0 ?seek@QAbstractFileEngine@@UAE_N_J@Z
       3546  DD9 0007A440 ?seek@QBuffer@@UAE_N_J@Z
       3547  DDA 000AF130 ?seek@QFSFileEngine@@UAE_N_J@Z
       3548  DDB 00085890 ?seek@QFile@@UAE_N_J@Z
       3549  DDC 00089DA0 ?seek@QIODevice@@UAE_N_J@Z
       3550  DDD 0008F7A0 ?seek@QTextStream@@QAE_N_J@Z
       3551  DDE 001DEAD4 ?self@QCoreApplication@@0PAV1@A
       3552  DDF 00009350 ?sendCallOutEvent@QFutureWatcherBasePrivate@@QAEXPAVQFutureCallOutEvent@@@Z
       3553  DE0 000D5350 ?sendEvent@QCoreApplication@@SA_NPAVQObject@@PAVQEvent@@@Z
       3554  DE1 000E3070 ?sendPendingChildInsertedEvents@QObjectPrivate@@QAEXXZ
       3555  DE2 000D7340 ?sendPostedEvents@QCoreApplication@@SAXPAVQObject@@H@Z
       3556  DE3 00113180 ?sendPostedEvents@QCoreApplication@@SAXXZ
       3557  DE4 000D6B30 ?sendPostedEvents@QCoreApplicationPrivate@@SAXPAVQObject@@HPAVQThreadData@@@Z
       3558  DE5 00113150 ?sendSpontaneousEvent@QCoreApplication@@CA_NPAVQObject@@PAVQEvent@@@Z
       3559  DE6 000D5450 ?sendThroughApplicationEventFilters@QCoreApplicationPrivate@@QAE_NPAVQObject@@PAVQEvent@@@Z
       3560  DE7 000D54D0 ?sendThroughObjectEventFilters@QCoreApplicationPrivate@@QAE_NPAVQObject@@PAVQEvent@@@Z
       3561  DE8 0005AD20 ?sender@QMetaCallEvent@@QBEPBVQObject@@XZ
       3562  DE9 000E22A0 ?sender@QObject@@IBEPAV1@XZ
       3563  DEA 000E4670 ?senderList@QObjectPrivate@@QBE?AV?$QList@PAVQObject@@@@XZ
       3564  DEB 0007C630 ?separator@QDir@@SA?AVQChar@@XZ
       3565  DEC 00013D40 ?set@QThreadStorageData@@QAEPAPAXPAX@Z
       3566  DED 00112DC0 ?setAccepted@QEvent@@QAEX_N@Z
       3567  DEE 00037BE0 ?setAngle@QLineF@@QAEXN@Z
       3568  DEF 000D7F00 ?setApplicationName@QCoreApplication@@SAXABVQString@@@Z
       3569  DF0 000D7F50 ?setApplicationVersion@QCoreApplication@@SAXABVQString@@@Z
       3570  DF1 000AAC80 ?setArrayIndex@QSettings@@QAEXH@Z
       3571  DF2 00114380 ?setAscii@QString@@QAEAAV1@PBDH@Z
       3572  DF3 000D4A00 ?setAttribute@QCoreApplication@@SAXW4ApplicationAttribute@Qt@@_N@Z
       3573  DF4 0009EB30 ?setAuthority@QUrl@@QAEXABVQString@@@Z
       3574  DF5 0008DE70 ?setAutoDetectUnicode@QTextStream@@QAEX_N@Z
       3575  DF6 000FE690 ?setAutoFormatting@QXmlStreamWriter@@QAEX_N@Z
       3576  DF7 000FE6C0 ?setAutoFormattingIndent@QXmlStreamWriter@@QAEXH@Z
       3577  DF8 00091B60 ?setAutoRemove@QTemporaryFile@@QAEX_N@Z
       3578  DF9 00111D90 ?setAutoUnload@QLibrary@@QAEX_N@Z
       3579  DFA 00016560 ?setBit@QBitArray@@QAEXH@Z
       3580  DFB 00016600 ?setBit@QBitArray@@QAEXH_N@Z
       3581  DFC 00043CA0 ?setBottom@QRect@@QAEXH@Z
       3582  DFD 000443D0 ?setBottom@QRectF@@QAEXN@Z
       3583  DFE 00043CF0 ?setBottomLeft@QRect@@QAEXABVQPoint@@@Z
       3584  DFF 00044440 ?setBottomLeft@QRectF@@QAEXABVQPointF@@@Z
       3585  E00 00043CB0 ?setBottomRight@QRect@@QAEXABVQPoint@@@Z
       3586  E01 00044460 ?setBottomRight@QRectF@@QAEXABVQPointF@@@Z
       3587  E02 0007A050 ?setBuffer@QBuffer@@QAEXPAVQByteArray@@@Z
       3588  E03 0007B910 ?setByteOrder@QDataStream@@QAEXW4ByteOrder@1@@Z
       3589  E04 00088E10 ?setCaching@QFileInfo@@QAEX_N@Z
       3590  E05 001135E0 ?setCaseSensitive@QRegExp@@QAEX_N@Z
       3591  E06 0004D7A0 ?setCaseSensitivity@QRegExp@@QAEXW4CaseSensitivity@Qt@@@Z
       3592  E07 00050900 ?setCaseSensitivity@QStringMatcher@@QAEXW4CaseSensitivity@Qt@@@Z
       3593  E08 000FCC50 ?setCell@QChar@@QAEXE@Z
       3594  E09 00111D90 ?setCell@QCharRef@@QAEXE@Z
       3595  E0A 000914C0 ?setCodec@QTextStream@@QAEXPAVQTextCodec@@@Z
       3596  E0B 00091520 ?setCodec@QTextStream@@QAEXPBD@Z
       3597  E0C 000FE640 ?setCodec@QXmlStreamWriter@@QAEXPAVQTextCodec@@@Z
       3598  E0D 001013A0 ?setCodec@QXmlStreamWriter@@QAEXPBD@Z
       3599  E0E 00113790 ?setCodecForCStrings@QTextCodec@@SAXPAV1@@Z
       3600  E0F 000FA290 ?setCodecForLocale@QTextCodec@@SAXPAV1@@Z
       3601  E10 00113780 ?setCodecForTr@QTextCodec@@SAXPAV1@@Z
       3602  E11 000E0FD0 ?setColorData@QMimeData@@QAEXABVQVariant@@@Z
       3603  E12 00044070 ?setCoords@QRect@@QAEXHHHH@Z
       3604  E13 000446D0 ?setCoords@QRectF@@QAEXNNNN@Z
       3605  E14 0007C640 ?setCurrent@QDir@@SA_NABVQString@@@Z
       3606  E15 000BC760 ?setCurrentPath@QFSFileEngine@@SA_NABVQString@@@Z
       3607  E16 000E1630 ?setCurrentSender@QObjectPrivate@@SAPAUSender@1@PAVQObject@@PAU21@@Z
       3608  E17 0005BD50 ?setCurrentTime@QTimeLine@@QAEXH@Z
       3609  E18 0005B560 ?setCurveShape@QTimeLine@@QAEXW4CurveShape@1@@Z
       3610  E19 000CD610 ?setData@QAbstractItemModel@@UAE_NABVQModelIndex@@ABVQVariant@@H@Z
       3611  E1A 0007A0B0 ?setData@QBuffer@@QAEXABVQByteArray@@@Z
       3612  E1B 0007A390 ?setData@QBuffer@@QAEXPBDH@Z
       3613  E1C 00043C80 ?setData@QCustomEvent@@QAEXPAX@Z
       3614  E1D 000E1060 ?setData@QMimeData@@QAEXABVQString@@ABVQByteArray@@@Z
       3615  E1E 00022FF0 ?setDate@QDate@@QAE_NHHH@Z
       3616  E1F 00020EE0 ?setDate@QDateTime@@QAEXABVQDate@@@Z
       3617  E20 000848F0 ?setDecodingFunction@QFile@@SAXP6A?AVQString@@ABVQByteArray@@@Z@Z
       3618  E21 0003DAF0 ?setDefault@QLocale@@SAXABV1@@Z
       3619  E22 000A5660 ?setDefaultFormat@QSettings@@SAXW4Format@1@@Z
       3620  E23 000E1140 ?setDeleteWatch@QObjectPrivate@@SAPAHPAV1@PAH@Z
       3621  E24 0007B850 ?setDevice@QDataStream@@QAEXPAVQIODevice@@@Z
       3622  E25 0008F9F0 ?setDevice@QTextStream@@QAEXPAVQIODevice@@@Z
       3623  E26 00109740 ?setDevice@QXmlStreamReader@@QAEXPAVQIODevice@@@Z
       3624  E27 000FE5F0 ?setDevice@QXmlStreamWriter@@QAEXPAVQIODevice@@@Z
       3625  E28 00024210 ?setDigit@QDateTimeParser@@QBE_NAAVQDateTime@@HH@Z
       3626  E29 0005B490 ?setDirection@QTimeLine@@QAEXW4Direction@1@@Z
       3627  E2A 0005B4B0 ?setDuration@QTimeLine@@QAEXH@Z
       3628  E2B 000E9460 ?setEnabled@QSocketNotifier@@QAEX_N@Z
       3629  E2C 000F7880 ?setEnabled@QWinEventNotifier@@QAEX_N@Z
       3630  E2D 0009F670 ?setEncodedFragment@QUrl@@QAEXABVQByteArray@@@Z
       3631  E2E 0009EE40 ?setEncodedHost@QUrl@@QAEXABVQByteArray@@@Z
       3632  E2F 0009ECD0 ?setEncodedPassword@QUrl@@QAEXABVQByteArray@@@Z
       3633  E30 0009EF60 ?setEncodedPath@QUrl@@QAEXABVQByteArray@@@Z
       3634  E31 0009EFD0 ?setEncodedQuery@QUrl@@QAEXABVQByteArray@@@Z
       3635  E32 0009F2B0 ?setEncodedQueryItems@QUrl@@QAEXABV?$QList@U?$QPair@VQByteArray@@V1@@@@@@Z
       3636  E33 000A05A0 ?setEncodedUrl@QUrl@@QAEXABVQByteArray@@@Z
       3637  E34 0009E8A0 ?setEncodedUrl@QUrl@@QAEXABVQByteArray@@W4ParsingMode@1@@Z
       3638  E35 0009EC50 ?setEncodedUserName@QUrl@@QAEXABVQByteArray@@@Z
       3639  E36 00091540 ?setEncoding@QTextStream@@QAEXW4Encoding@1@@Z
       3640  E37 000842F0 ?setEncodingFunction@QFile@@SAXP6A?AVQByteArray@@ABVQString@@@Z@Z
       3641  E38 00009150 ?setEndFrame@QTimeLine@@QAEXH@Z
       3642  E39 000FE110 ?setEntityResolver@QXmlStreamReader@@QAEXPAVQXmlStreamEntityResolver@@@Z
       3643  E3A 0008C6A0 ?setEnvironment@QProcess@@QAEXABVQStringList@@@Z
       3644  E3B 00078C50 ?setError@QAbstractFileEngine@@IAEXW4FileError@QFile@@ABVQString@@@Z
       3645  E3C 000894B0 ?setErrorString@QIODevice@@IAEXABVQString@@@Z
       3646  E3D 000CCD40 ?setEventFilter@QAbstractEventDispatcher@@QAEP6A_NPAX@ZP6A_N0@Z@Z
       3647  E3E 000D51E0 ?setEventFilter@QCoreApplication@@QAEP6A_NPAXPAJ@ZP6A_N01@Z@Z
       3648  E3F 0000B8A0 ?setException@ExceptionStore@internal@QtConcurrent@@QAEXABVException@3@@Z
       3649  E40 00007370 ?setExpectedResultCount@QFutureInterfaceBase@@QAEXH@Z
       3650  E41 0000B9A0 ?setExpiryTimeout@QThreadPool@@QAEXH@Z
       3651  E42 000A5600 ?setFallbacksEnabled@QSettings@@QAEX_N@Z
       3652  E43 0008DC10 ?setFieldAlignment@QTextStream@@QAEXW4FieldAlignment@1@@Z
       3653  E44 0008DC60 ?setFieldWidth@QTextStream@@QAEXH@Z
       3654  E45 00089140 ?setFile@QFileInfo@@QAEXABVQDir@@ABVQString@@@Z
       3655  E46 000890C0 ?setFile@QFileInfo@@QAEXABVQFile@@@Z
       3656  E47 000890B0 ?setFile@QFileInfo@@QAEXABVQString@@@Z
       3657  E48 00111D90 ?setFileName@QAbstractFileEngine@@UAEXABVQString@@@Z
       3658  E49 000AF340 ?setFileName@QFSFileEngine@@UAEXABVQString@@@Z
       3659  E4A 00084760 ?setFileName@QFile@@QAEXABVQString@@@Z
       3660  E4B 000CBAD0 ?setFileName@QLibrary@@QAEXABVQString@@@Z
       3661  E4C 000C6180 ?setFileName@QPluginLoader@@QAEXABVQString@@@Z
       3662  E4D 00093700 ?setFileName@QResource@@QAEXABVQString@@@Z
       3663  E4E 0009FAA0 ?setFileName@QUrl@@QAEXABVQString@@@Z
       3664  E4F 000CBCE0 ?setFileNameAndVersion@QLibrary@@QAEXABVQString@@0@Z
       3665  E50 000CBBA0 ?setFileNameAndVersion@QLibrary@@QAEXABVQString@@H@Z
       3666  E51 00091B70 ?setFileTemplate@QTemporaryFile@@QAEXABVQString@@@Z
       3667  E52 00081020 ?setFilter@QDir@@QAEXV?$QFlags@W4Filter@QDir@@@@@Z
       3668  E53 000040C0 ?setFilterMode@QFutureInterfaceBase@@QAEX_N@Z
       3669  E54 00009B50 ?setFilterMode@ResultStoreBase@QtConcurrent@@QAEX_N@Z
       3670  E55 0009FEA0 ?setFragment@QUrl@@QAEXABVQString@@@Z
       3671  E56 0005B510 ?setFrameRange@QTimeLine@@QAEXHH@Z
       3672  E57 0008E430 ?setGenerateByteOrderMark@QTextStream@@QAEX_N@Z
       3673  E58 0001ED50 ?setHMS@QTime@@QAE_NHHHH@Z
       3674  E59 000F79F0 ?setHandle@QWinEventNotifier@@QAEXPAX@Z
       3675  E5A 000CD670 ?setHeaderData@QAbstractItemModel@@UAE_NHW4Orientation@Qt@@ABVQVariant@@H@Z
       3676  E5B 000440E0 ?setHeight@QRect@@QAEXH@Z
       3677  E5C 00044790 ?setHeight@QRectF@@QAEXN@Z
       3678  E5D 00043C80 ?setHeight@QSize@@QAEXH@Z
       3679  E5E 00001760 ?setHeight@QSizeF@@QAEXN@Z
       3680  E5F 0009ED10 ?setHost@QUrl@@QAEXABVQString@@@Z
       3681  E60 000E0E90 ?setHtml@QMimeData@@QAEXABVQString@@@Z
       3682  E61 000A4020 ?setIdnWhitelist@QUrl@@SAXABVQStringList@@@Z
       3683  E62 000E0F40 ?setImageData@QMimeData@@QAEXABVQVariant@@@Z
       3684  E63 0008DC80 ?setIntegerBase@QTextStream@@QAEXH@Z
       3685  E64 000E98F0 ?setInterval@QTimer@@QAEXH@Z
       3686  E65 000CE940 ?setItemData@QAbstractItemModel@@UAE_NABVQModelIndex@@ABV?$QMap@HVQVariant@@@@@Z
       3687  E66 000F2830 ?setKey@QSharedMemory@@QAEXABVQString@@@Z
       3688  E67 000F2C10 ?setKey@QSystemSemaphore@@QAEXABVQString@@HW4AccessMode@1@@Z
       3689  E68 00114410 ?setLatin1@QString@@QAEAAV1@PBDH@Z
       3690  E69 00043C70 ?setLeft@QRect@@QAEXH@Z
       3691  E6A 00044F40 ?setLeft@QRectF@@QAEXN@Z
       3692  E6B 00038530 ?setLength@QLineF@@QAEXN@Z
       3693  E6C 001112F0 ?setLength@QString@@QAEXH@Z
       3694  E6D 000D8310 ?setLibraryPaths@QCoreApplication@@SAXABVQStringList@@@Z
       3695  E6E 00044070 ?setLine@QLine@@QAEXHHHH@Z
       3696  E6F 00037AD0 ?setLine@QLineF@@QAEXNNNN@Z
       3697  E70 000CA210 ?setLoadHints@QLibrary@@QAEXV?$QFlags@W4LoadHint@QLibrary@@@@@Z
       3698  E71 000C6460 ?setLoadHints@QPluginLoader@@QAEXV?$QFlags@W4LoadHint@QLibrary@@@@@Z
       3699  E72 000936E0 ?setLocale@QResource@@QAEXABVQLocale@@@Z
       3700  E73 0005B470 ?setLoopCount@QTimeLine@@QAEXH@Z
       3701  E74 000E8B70 ?setMapping@QSignalMapper@@QAEXPAVQObject@@0@Z
       3702  E75 000E91D0 ?setMapping@QSignalMapper@@QAEXPAVQObject@@ABVQString@@@Z
       3703  E76 000E8AF0 ?setMapping@QSignalMapper@@QAEXPAVQObject@@H@Z
       3704  E77 000E8B30 ?setMapping@QSignalMapper@@QAEXPAVQObject@@PAVQWidget@@@Z
       3705  E78 0007C6E0 ?setMatchAllDirs@QDir@@QAEX_N@Z
       3706  E79 0000CDF0 ?setMaxThreadCount@QThreadPool@@QAEXH@Z
       3707  E7A 00045E50 ?setMinimal@QRegExp@@QAEX_N@Z
       3708  E7B 0000E710 ?setName@QFile@@QAEXABVQString@@@Z
       3709  E7C 00112CB0 ?setName@QObject@@QAEXPBD@Z
       3710  E7D 000812D0 ?setNameFilter@QDir@@QAEXABVQString@@@Z
       3711  E7E 00080F20 ?setNameFilters@QDir@@QAEXABVQStringList@@@Z
       3712  E7F 000FE2F0 ?setNamespaceProcessing@QXmlStreamReader@@QAEX_N@Z
       3713  E80 00110FF0 ?setNum@QByteArray@@QAEAAV1@FH@Z
       3714  E81 00111010 ?setNum@QByteArray@@QAEAAV1@GH@Z
       3715  E82 00019590 ?setNum@QByteArray@@QAEAAV1@HH@Z
       3716  E83 000195B0 ?setNum@QByteArray@@QAEAAV1@IH@Z
       3717  E84 00111030 ?setNum@QByteArray@@QAEAAV1@MDH@Z
       3718  E85 00018150 ?setNum@QByteArray@@QAEAAV1@NDH@Z
       3719  E86 00017F50 ?setNum@QByteArray@@QAEAAV1@_JH@Z
       3720  E87 00018050 ?setNum@QByteArray@@QAEAAV1@_KH@Z
       3721  E88 001115E0 ?setNum@QString@@QAEAAV1@FH@Z
       3722  E89 00111600 ?setNum@QString@@QAEAAV1@GH@Z
       3723  E8A 000590D0 ?setNum@QString@@QAEAAV1@HH@Z
       3724  E8B 000590F0 ?setNum@QString@@QAEAAV1@IH@Z
       3725  E8C 000590D0 ?setNum@QString@@QAEAAV1@JH@Z
       3726  E8D 000590F0 ?setNum@QString@@QAEAAV1@KH@Z
       3727  E8E 00111620 ?setNum@QString@@QAEAAV1@MDH@Z
       3728  E8F 000559F0 ?setNum@QString@@QAEAAV1@NDH@Z
       3729  E90 00055870 ?setNum@QString@@QAEAAV1@_JH@Z
       3730  E91 00055930 ?setNum@QString@@QAEAAV1@_KH@Z
       3731  E92 0008E2C0 ?setNumberFlags@QTextStream@@QAEXV?$QFlags@W4NumberFlag@QTextStream@@@@@Z
       3732  E93 0003DAD0 ?setNumberOptions@QLocale@@QAEXV?$QFlags@W4NumberOption@QLocale@@@@@Z
       3733  E94 000E16B0 ?setObjectName@QObject@@QAEXABVQString@@@Z
       3734  E95 00089340 ?setOpenMode@QIODevice@@IAEXV?$QFlags@W4OpenModeFlag@QIODevice@@@@@Z
       3735  E96 000D7EB0 ?setOrganizationDomain@QCoreApplication@@SAXABVQString@@@Z
       3736  E97 000D7E70 ?setOrganizationName@QCoreApplication@@SAXABVQString@@@Z
       3737  E98 00037730 ?setP1@QLine@@QAEXABVQPoint@@@Z
       3738  E99 00037A50 ?setP1@QLineF@@QAEXABVQPointF@@@Z
       3739  E9A 00043CB0 ?setP2@QLine@@QAEXABVQPoint@@@Z
       3740  E9B 00037A70 ?setP2@QLineF@@QAEXABVQPointF@@@Z
       3741  E9C 0008DC20 ?setPadChar@QTextStream@@QAEXVQChar@@@Z
       3742  E9D 000E4B00 ?setParent@QObject@@QAEXPAV1@@Z
       3743  E9E 000E3D90 ?setParent_helper@QObjectPrivate@@QAEXPAVQObject@@@Z
       3744  E9F 0009EC90 ?setPassword@QUrl@@QAEXABVQString@@@Z
       3745  EA0 00078B90 ?setPath@QAbstractFileEngineIterator@@AAEXABVQString@@@Z
       3746  EA1 00081A90 ?setPath@QDir@@QAEXABVQString@@@Z
       3747  EA2 0000ED20 ?setPath@QSettings@@QAEXABVQString@@0W4Scope@1@@Z
       3748  EA3 000AC340 ?setPath@QSettings@@SAXW4Format@1@W4Scope@1@ABVQString@@@Z
       3749  EA4 0009EF20 ?setPath@QUrl@@QAEXABVQString@@@Z
       3750  EA5 000AB650 ?setPath_helper@QSettings@@AAEXW4Scope@1@ABVQString@@1@Z
       3751  EA6 0001B040 ?setPattern@QByteArrayMatcher@@QAEXABVQByteArray@@@Z
       3752  EA7 0004D750 ?setPattern@QRegExp@@QAEXABVQString@@@Z
       3753  EA8 00053200 ?setPattern@QStringMatcher@@QAEXABVQString@@@Z
       3754  EA9 0004D7F0 ?setPatternSyntax@QRegExp@@QAEXW4PatternSyntax@1@@Z
       3755  EAA 00005870 ?setPaused@QFutureInterfaceBase@@QAEX_N@Z
       3756  EAB 00009010 ?setPaused@QFutureWatcherBase@@QAEX_N@Z
       3757  EAC 0005B690 ?setPaused@QTimeLine@@QAEX_N@Z
       3758  EAD 00009150 ?setPendingResultsLimit@QFutureWatcherBase@@QAEXH@Z
       3759  EAE 00092C10 ?setPermissions@QAbstractFileEngine@@UAE_NI@Z
       3760  EAF 000BB480 ?setPermissions@QFSFileEngine@@UAE_NI@Z
       3761  EB0 00085250 ?setPermissions@QFile@@QAE_NV?$QFlags@W4Permission@QFile@@@@@Z
       3762  EB1 00086740 ?setPermissions@QFile@@SA_NABVQString@@V?$QFlags@W4Permission@QFile@@@@@Z
       3763  EB2 00037750 ?setPoints@QLine@@QAEXABVQPoint@@0@Z
       3764  EB3 00037A90 ?setPoints@QLineF@@QAEXABVQPointF@@0@Z
       3765  EB4 0009EEC0 ?setPort@QUrl@@QAEXH@Z
       3766  EB5 0005B3B0 ?setPosition@QTextBoundaryFinder@@QAEXH@Z
       3767  EB6 00111D90 ?setPrintableData@QDataStream@@QAEX_N@Z
       3768  EB7 00014870 ?setPriority@QThread@@QAEXW4Priority@1@@Z
       3769  EB8 0008B0C0 ?setProcessChannelMode@QProcess@@QAEXW4ProcessChannelMode@1@@Z
       3770  EB9 0008B8E0 ?setProcessState@QProcess@@IAEXW4ProcessState@1@@Z
       3771  EBA 00005F50 ?setProgressRange@QFutureInterfaceBase@@QAEXHH@Z
       3772  EBB 0000A5C0 ?setProgressRange@ThreadEngineBase@QtConcurrent@@QAEXHH@Z
       3773  EBC 000073B0 ?setProgressValue@QFutureInterfaceBase@@QAEXH@Z
       3774  EBD 0000A5B0 ?setProgressValue@ThreadEngineBase@QtConcurrent@@QAEXH@Z
       3775  EBE 00006050 ?setProgressValueAndText@QFutureInterfaceBase@@QAEXHABVQString@@@Z
       3776  EBF 000E4B10 ?setProperty@QObject@@QAE_NPBDABVQVariant@@@Z
       3777  EC0 0009EAF0 ?setProtocol@QUrl@@QAEXABVQString@@@Z
       3778  EC1 0009FDF0 ?setQuery@QUrl@@QAEXABVQString@@@Z
       3779  EC2 0009EFA0 ?setQueryDelimiters@QUrl@@QAEXDD@Z
       3780  EC3 0009F020 ?setQueryItems@QUrl@@QAEXABV?$QList@U?$QPair@VQString@@V1@@@@@@Z
       3781  EC4 00113890 ?setRawData@QByteArray@@QAEAAV1@PBDI@Z
       3782  EC5 0008C5A0 ?setReadChannel@QProcess@@QAEXW4ProcessChannel@1@@Z
       3783  EC6 0008B0C0 ?setReadChannelMode@QProcess@@QAEXW4ProcessChannelMode@1@@Z
       3784  EC7 0008DCA0 ?setRealNumberNotation@QTextStream@@QAEXW4RealNumberNotation@1@@Z
       3785  EC8 0008DCC0 ?setRealNumberPrecision@QTextStream@@QAEXH@Z
       3786  EC9 00044010 ?setRect@QRect@@QAEXHHHH@Z
       3787  ECA 00044680 ?setRect@QRectF@@QAEXNNNN@Z
       3788  ECB 0009FEA0 ?setRef@QUrl@@QAEXABVQString@@@Z
       3789  ECC 00043C90 ?setRight@QRect@@QAEXH@Z
       3790  ECD 000443A0 ?setRight@QRectF@@QAEXN@Z
       3791  ECE 000FCC60 ?setRow@QChar@@QAEXE@Z
       3792  ECF 00111D90 ?setRow@QCharRef@@QAEXE@Z
       3793  ED0 0009EAF0 ?setScheme@QUrl@@QAEXABVQString@@@Z
       3794  ED1 00082120 ?setSearchPaths@QDir@@SAXABVQString@@ABVQStringList@@@Z
       3795  ED2 000064A0 ?setSharable@?$QVector@VQPoint@@@@QAEX_N@Z
       3796  ED3 00006270 ?setSharable@?$QVector@VQPointF@@@@QAEX_N@Z
       3797  ED4 00106E20 ?setSharable@?$QVector@VQXmlStreamAttribute@@@@QAEX_N@Z
       3798  ED5 0008AFE0 ?setSingleShot@QTimer@@QAEX_N@Z
       3799  ED6 00092BD0 ?setSize@QAbstractFileEngine@@UAE_N_J@Z
       3800  ED7 000BE420 ?setSize@QFSFileEngine@@UAE_N_J@Z
       3801  ED8 00044100 ?setSize@QRect@@QAEXABVQSize@@@Z
       3802  ED9 000447A0 ?setSize@QRectF@@QAEXABVQSizeF@@@Z
       3803  EDA 00081060 ?setSorting@QDir@@QAEXV?$QFlags@W4SortFlag@QDir@@@@@Z
       3804  EDB 00012F20 ?setStackSize@QThread@@QAEXI@Z
       3805  EDC 0008BFC0 ?setStandardErrorFile@QProcess@@QAEXABVQString@@V?$QFlags@W4OpenModeFlag@QIODevice@@@@@Z
       3806  EDD 0008BF20 ?setStandardInputFile@QProcess@@QAEXABVQString@@@Z
       3807  EDE 0008BF60 ?setStandardOutputFile@QProcess@@QAEXABVQString@@V?$QFlags@W4OpenModeFlag@QIODevice@@@@@Z
       3808  EDF 0008C020 ?setStandardOutputProcess@QProcess@@QAEXPAV1@@Z
       3809  EE0 0005B4F0 ?setStartFrame@QTimeLine@@QAEXH@Z
       3810  EE1 0007B900 ?setStatus@QDataStream@@QAEXW4Status@1@@Z
       3811  EE2 0008DD20 ?setStatus@QTextStream@@QAEXW4Status@1@@Z
       3812  EE3 0008FA80 ?setString@QTextStream@@QAEXPAVQString@@V?$QFlags@W4OpenModeFlag@QIODevice@@@@@Z
       3813  EE4 0005B470 ?setSupportedDragActions@QAbstractItemModel@@QAEXV?$QFlags@W4DropAction@Qt@@@@@Z
       3814  EE5 000ACCF0 ?setSystemIniPath@QSettings@@SAXABVQString@@@Z
       3815  EE6 000147A0 ?setTerminationEnabled@QThread@@KAX_N@Z
       3816  EE7 000E0DE0 ?setText@QMimeData@@QAEXABVQString@@@Z
       3817  EE8 00089360 ?setTextModeEnabled@QIODevice@@QAEX_N@Z
       3818  EE9 000E3780 ?setThreadData_helper@QObjectPrivate@@QAEXPAVQThreadData@@0@Z
       3819  EEA 000039F0 ?setThrottled@QFutureInterfaceBase@@QAEX_N@Z
       3820  EEB 00020F30 ?setTime@QDateTime@@QAEXABVQTime@@@Z
       3821  EEC 00020F60 ?setTimeSpec@QDateTime@@QAEXW4TimeSpec@Qt@@@Z
       3822  EED 000253F0 ?setTime_t@QDateTime@@QAEXI@Z
       3823  EEE 000021E0 ?setTime_t@QDateTime@@QAEXIW4TimeSpec@Qt@@@Z
       3824  EEF 00043C80 ?setTop@QRect@@QAEXH@Z
       3825  EF0 000443B0 ?setTop@QRectF@@QAEXN@Z
       3826  EF1 00037730 ?setTopLeft@QRect@@QAEXABVQPoint@@@Z
       3827  EF2 000443E0 ?setTopLeft@QRectF@@QAEXABVQPointF@@@Z
       3828  EF3 00043CD0 ?setTopRight@QRect@@QAEXABVQPoint@@@Z
       3829  EF4 00044410 ?setTopRight@QRectF@@QAEXABVQPointF@@@Z
       3830  EF5 00054A60 ?setUnicode@QString@@QAEAAV1@PBVQChar@@H@Z
       3831  EF6 00114340 ?setUnicodeCodes@QString@@QAEAAV1@PBGH@Z
       3832  EF7 0005B540 ?setUpdateInterval@QTimeLine@@QAEXH@Z
       3833  EF8 000A0690 ?setUrl@QUrl@@QAEXABVQString@@@Z
       3834  EF9 000A0040 ?setUrl@QUrl@@QAEXABVQString@@W4ParsingMode@1@@Z
       3835  EFA 000E0C50 ?setUrls@QMimeData@@QAEXABV?$QList@VQUrl@@@@@Z
       3836  EFB 0009EC10 ?setUser@QUrl@@QAEXABVQString@@@Z
       3837  EFC 000E5AA0 ?setUserData@QObject@@QAEXIPAVQObjectUserData@@@Z
       3838  EFD 0009EB70 ?setUserInfo@QUrl@@QAEXABVQString@@@Z
       3839  EFE 000ACD10 ?setUserIniPath@QSettings@@SAXABVQString@@@Z
       3840  EFF 0009EC10 ?setUserName@QUrl@@QAEXABVQString@@@Z
       3841  F00 000217F0 ?setUtcOffset@QDateTime@@QAEXH@Z
       3842  F01 00054A60 ?setUtf16@QString@@QAEAAV1@PBGH@Z
       3843  F02 000A7DE0 ?setValue@QSettings@@QAEXABVQString@@ABVQVariant@@@Z
       3844  F03 000A5680 ?setVersion@QDataStream@@QAEXH@Z
       3845  F04 000440D0 ?setWidth@QRect@@QAEXH@Z
       3846  F05 00044780 ?setWidth@QRectF@@QAEXN@Z
       3847  F06 00043C70 ?setWidth@QSize@@QAEXH@Z
       3848  F07 00001750 ?setWidth@QSizeF@@QAEXN@Z
       3849  F08 00113610 ?setWildcard@QRegExp@@QAEX_N@Z
       3850  F09 0008B130 ?setWorkingDirectory@QProcess@@QAEXABVQString@@@Z
       3851  F0A 00043C70 ?setX@QPoint@@QAEXH@Z
       3852  F0B 00001750 ?setX@QPointF@@QAEXN@Z
       3853  F0C 00043C70 ?setX@QRect@@QAEXH@Z
       3854  F0D 00044F40 ?setX@QRectF@@QAEXN@Z
       3855  F0E 00043C80 ?setY@QPoint@@QAEXH@Z
       3856  F0F 00001760 ?setY@QPointF@@QAEXN@Z
       3857  F10 00043C80 ?setY@QRect@@QAEXH@Z
       3858  F11 000443B0 ?setY@QRectF@@QAEXN@Z
       3859  F12 00023D70 ?setYMD@QDate@@QAE_NHHH@Z
       3860  F13 000012D0 ?setf@QTextStream@@QAEHH@Z
       3861  F14 00001300 ?setf@QTextStream@@QAEHHH@Z
       3862  F15 000D8AA0 ?setupChildProcess@QProcess@@MAEXXZ
       3863  F16 001DC490 ?shared_empty@QByteArray@@0UData@1@A
       3864  F17 001DC58C ?shared_empty@QString@@0UData@1@A
       3865  F18 001DC47C ?shared_null@QByteArray@@0UData@1@A
       3866  F19 001DC4E0 ?shared_null@QHashData@@2U1@A
       3867  F1A 001DC500 ?shared_null@QLinkedListData@@2U1@A
       3868  F1B 001DC514 ?shared_null@QListData@@2UData@1@A
       3869  F1C 001DC530 ?shared_null@QMapData@@2U1@A
       3870  F1D 001DC578 ?shared_null@QString@@0UData@1@A
       3871  F1E 001DC5E0 ?shared_null@QVectorData@@2U1@A
       3872  F1F 0001EC50 ?shortDayName@QDate@@SA?AVQString@@H@Z
       3873  F20 0001EBD0 ?shortMonthName@QDate@@SA?AVQString@@H@Z
       3874  F21 00110B10 ?shouldStartThread@ThreadEngineBase@QtConcurrent@@MAE_NXZ
       3875  F22 0000A400 ?shouldThrottleThread@ThreadEngineBase@QtConcurrent@@MAE_NXZ
       3876  F23 0008E350 ?showbase@@YAAAVQTextStream@@AAV1@@Z
       3877  F24 000CCEB0 ?sibling@QAbstractItemModel@@QBE?AVQModelIndex@@HHABV2@@Z
       3878  F25 000CD030 ?sibling@QModelIndex@@QBE?AV1@HH@Z
       3879  F26 000CD480 ?sibling@QPersistentModelIndex@@QBE?AVQModelIndex@@HH@Z
       3880  F27 00017100 ?signalId@QMetaCallEvent@@QBEHXZ
       3881  F28 00112AF0 ?signalsBlocked@QObject@@QBE_NXZ
       3882  F29 000D98D0 ?signature@QMetaMethod@@QBEPBDXZ
       3883  F2A 00019100 ?simplified@QByteArray@@QBE?AV1@XZ
       3884  F2B 00058400 ?simplified@QString@@QBE?AV1@XZ
       3885  F2C 00113980 ?simplifyWhiteSpace@QByteArray@@QBE?AV1@XZ
       3886  F2D 00114320 ?simplifyWhiteSpace@QString@@QBE?AV1@XZ
       3887  F2E 000E9880 ?singleShot@QTimer@@SAXHPAVQObject@@PBD@Z
       3888  F2F 000025E0 ?size@?$QVector@VQPoint@@@@QBEHXZ
       3889  F30 000025E0 ?size@?$QVector@VQPointF@@@@QBEHXZ
       3890  F31 000025E0 ?size@?$QVector@VQXmlStreamAttribute@@@@QBEHXZ
       3891  F32 00078AE0 ?size@QAbstractFileEngine@@UBE_JXZ
       3892  F33 000159F0 ?size@QBitArray@@QBEHXZ
       3893  F34 0007A100 ?size@QBuffer@@UBE_JXZ
       3894  F35 000025E0 ?size@QByteArray@@QBEHXZ
       3895  F36 000AF0E0 ?size@QFSFileEngine@@UBE_JXZ
       3896  F37 000857C0 ?size@QFile@@UBE_JXZ
       3897  F38 00086EC0 ?size@QFileInfo@@QBE_JXZ
       3898  F39 000893A0 ?size@QIODevice@@UBE_JXZ
       3899  F3A 00002C20 ?size@QListData@@QBEHXZ
       3900  F3B 00043DC0 ?size@QRect@@QBE?AVQSize@@XZ
       3901  F3C 00044560 ?size@QRectF@@QBE?AVQSizeF@@XZ
       3902  F3D 00095CE0 ?size@QResource@@QBE_JXZ
       3903  F3E 00017100 ?size@QRingBuffer@@QBEHXZ
       3904  F3F 000A5570 ?size@QSharedMemory@@QBEHXZ
       3905  F40 000025E0 ?size@QString@@QBEHXZ
       3906  F41 0008AF30 ?size@QStringRef@@QBEHXZ
       3907  F42 0008AF30 ?size@QXmlStreamStringRef@@QBEHXZ
       3908  F43 00002690 ?sizeOfTypedData@?$QVector@VQPoint@@@@AAEHXZ
       3909  F44 00002640 ?sizeOfTypedData@?$QVector@VQPointF@@@@AAEHXZ
       3910  F45 000FE830 ?sizeOfTypedData@?$QVector@VQXmlStreamAttribute@@@@AAEHXZ
       3911  F46 0007B120 ?skip@QRingBuffer@@QAEHH@Z
       3912  F47 0007C460 ?skipRawData@QDataStream@@QAEHH@Z
       3913  F48 0008F9A0 ?skipWhiteSpace@QTextStream@@QAEXXZ
       3914  F49 00014280 ?sleep@QThread@@KAXK@Z
       3915  F4A 0008AF30 ?socket@QSocketNotifier@@QBEHXZ
       3916  F4B 0000ED10 ?sort@QAbstractItemModel@@UAEXHW4SortOrder@Qt@@@Z
       3917  F4C 0007CFA0 ?sorting@QDir@@QBE?AV?$QFlags@W4SortFlag@QDir@@@@XZ
       3918  F4D 00001870 ?space@QDebug@@QAEAAV1@XZ
       3919  F4E 000CD650 ?span@QAbstractItemModel@@UBE?AVQSize@@ABVQModelIndex@@@Z
       3920  F4F 0001AC80 ?split@QByteArray@@QBE?AV?$QList@VQByteArray@@@@D@Z
       3921  F50 00059820 ?split@QString@@QBE?AVQStringList@@ABV1@W4SplitBehavior@1@W4CaseSensitivity@Qt@@@Z
       3922  F51 000599F0 ?split@QString@@QBE?AVQStringList@@ABVQChar@@W4SplitBehavior@1@W4CaseSensitivity@Qt@@@Z
       3923  F52 00059BA0 ?split@QString@@QBE?AVQStringList@@ABVQRegExp@@W4SplitBehavior@1@@Z
       3924  F53 00112DB0 ?spontaneous@QEvent@@QBE_NXZ
       3925  F54 00059720 ?sprintf@QString@@QAAAAV1@PBDZZ
       3926  F55 00004C10 ?squeeze@?$QVector@VQPoint@@@@QAEXXZ
       3927  F56 00004BF0 ?squeeze@?$QVector@VQPointF@@@@QAEXXZ
       3928  F57 00105F30 ?squeeze@?$QVector@VQXmlStreamAttribute@@@@QAEXXZ
       3929  F58 00110BF0 ?squeeze@QByteArray@@QAEXXZ
       3930  F59 000A4A00 ?squeeze@QString@@QAEXXZ
       3931  F5A 00012F60 ?stackSize@QThread@@QBEIXZ
       3932  F5B 000D4400 ?start@QBasicTimer@@QAEXHPAVQObject@@@Z
       3933  F5C 0008CFA0 ?start@QProcess@@QAEXABVQString@@ABVQStringList@@V?$QFlags@W4OpenModeFlag@QIODevice@@@@@Z
       3934  F5D 0008D780 ?start@QProcess@@QAEXABVQString@@V?$QFlags@W4OpenModeFlag@QIODevice@@@@@Z
       3935  F5E 00014A10 ?start@QThread@@QAEXW4Priority@1@@Z
       3936  F5F 0000CCA0 ?start@QThreadPool@@QAEXPAVQRunnable@@H@Z
       3937  F60 0001E360 ?start@QTime@@QAEXXZ
       3938  F61 0005BD80 ?start@QTimeLine@@QAEXXZ
       3939  F62 000E9AF0 ?start@QTimer@@QAEHH_N@Z
       3940  F63 000E9A80 ?start@QTimer@@QAEXH@Z
       3941  F64 000E9A30 ?start@QTimer@@QAEXXZ
       3942  F65 000D8AA0 ?start@ThreadEngineBase@QtConcurrent@@MAEXXZ
       3943  F66 0000AB50 ?startBlocking@ThreadEngineBase@QtConcurrent@@QAEXXZ
       3944  F67 0008DA70 ?startDetached@QProcess@@SA_NABVQString@@@Z
       3945  F68 0008B2B0 ?startDetached@QProcess@@SA_NABVQString@@ABVQStringList@@0PA_J@Z
       3946  F69 0008B930 ?startDetached@QProcess@@SA_NABVQString@@ABVQStringList@@@Z
       3947  F6A 0005B4E0 ?startFrame@QTimeLine@@QBEHXZ
       3948  F6B 0000A560 ?startSingleThreaded@ThreadEngineBase@QtConcurrent@@QAEXXZ
       3949  F6C 0000AC80 ?startThread@ThreadEngineBase@QtConcurrent@@QAEXXZ
       3950  F6D 0000A8E0 ?startThreadInternal@ThreadEngineBase@QtConcurrent@@AAE_NXZ
       3951  F6E 0000A950 ?startThreads@ThreadEngineBase@QtConcurrent@@AAEXXZ
       3952  F6F 000E1700 ?startTimer@QObject@@QAEHH@Z
       3953  F70 0008AF60 ?startTimer@QTimer@@AAEHH@Z
       3954  F71 0010E2A0 ?started@QFutureWatcherBase@@IAEXXZ
       3955  F72 0008B330 ?started@QProcess@@IAEXXZ
       3956  F73 0010E7F0 ?started@QThread@@IAEXXZ
       3957  F74 000D8AA0 ?startingUp@QAbstractEventDispatcher@@UAEXXZ
       3958  F75 000D4A30 ?startingUp@QCoreApplication@@SA_NXZ
       3959  F76 000F3270 ?startingUp@QEventDispatcherWin32@@UAEXXZ
       3960  F77 00016BC0 ?startsWith@QByteArray@@QBE_NABV1@@Z
       3961  F78 00016D00 ?startsWith@QByteArray@@QBE_ND@Z
       3962  F79 00016C90 ?startsWith@QByteArray@@QBE_NPBD@Z
       3963  F7A 0004FEC0 ?startsWith@QString@@QBE_NABV1@W4CaseSensitivity@Qt@@@Z
       3964  F7B 001114A0 ?startsWith@QString@@QBE_NABV1@_N@Z
       3965  F7C 00050030 ?startsWith@QString@@QBE_NABVQChar@@W4CaseSensitivity@Qt@@@Z
       3966  F7D 00051220 ?startsWith@QString@@QBE_NABVQLatin1String@@W4CaseSensitivity@Qt@@@Z
       3967  F7E 00113320 ?state@QIODevice@@QBEHXZ
       3968  F7F 0008B220 ?state@QProcess@@QBE?AW4ProcessState@1@XZ
       3969  F80 0005B450 ?state@QTimeLine@@QBE?AW4State@1@XZ
       3970  F81 0008B3F0 ?stateChanged@QProcess@@IAEXW4ProcessState@1@@Z
       3971  F82 0010EA10 ?stateChanged@QTimeLine@@IAEXW4State@1@@Z
       3972  F83 0001E8A0 ?stateName@QDateTimeParser@@QBE?AVQString@@H@Z
       3973  F84 000D43C0 ?staticEmptyModel@QAbstractItemModelPrivate@@SAPAVQAbstractItemModel@@XZ
       3974  F85 000C6790 ?staticInstances@QPluginLoader@@SA?AV?$QList@PAVQObject@@@@XZ
       3975  F86 001846A8 ?staticMetaObject@QAbstractEventDispatcher@@2UQMetaObject@@B
       3976  F87 00184A94 ?staticMetaObject@QAbstractItemModel@@2UQMetaObject@@B
       3977  F88 00184B0C ?staticMetaObject@QAbstractListModel@@2UQMetaObject@@B
       3978  F89 00184ABC ?staticMetaObject@QAbstractTableModel@@2UQMetaObject@@B
       3979  F8A 00168E54 ?staticMetaObject@QBuffer@@2UQMetaObject@@B
       3980  F8B 00184CA8 ?staticMetaObject@QCoreApplication@@2UQMetaObject@@B
       3981  F8C 00185064 ?staticMetaObject@QEventDispatcherWin32@@2UQMetaObject@@B
       3982  F8D 00184B74 ?staticMetaObject@QEventLoop@@2UQMetaObject@@B
       3983  F8E 0018460C ?staticMetaObject@QFactoryLoader@@2UQMetaObject@@B
       3984  F8F 001840DC ?staticMetaObject@QFile@@2UQMetaObject@@B
       3985  F90 00171618 ?staticMetaObject@QFileSystemWatcher@@2UQMetaObject@@B
       3986  F91 0017EEAC ?staticMetaObject@QFutureWatcherBase@@2UQMetaObject@@B
       3987  F92 001841C8 ?staticMetaObject@QIODevice@@2UQMetaObject@@B
       3988  F93 001845C0 ?staticMetaObject@QLibrary@@2UQMetaObject@@B
       3989  F94 00183E24 ?staticMetaObject@QLocale@@2UQMetaObject@@B
       3990  F95 00184CF0 ?staticMetaObject@QMimeData@@2UQMetaObject@@B
       3991  F96 001737C8 ?staticMetaObject@QObject@@2UQMetaObject@@B
       3992  F97 00184FC4 ?staticMetaObject@QObjectCleanupHandler@@2UQMetaObject@@B
       3993  F98 00184494 ?staticMetaObject@QPluginLoader@@2UQMetaObject@@B
       3994  F99 00169A78 ?staticMetaObject@QProcess@@2UQMetaObject@@B
       3995  F9A 0018425C ?staticMetaObject@QSettings@@2UQMetaObject@@B
       3996  F9B 00185010 ?staticMetaObject@QSharedMemory@@2UQMetaObject@@B
       3997  F9C 00174020 ?staticMetaObject@QSignalMapper@@2UQMetaObject@@B
       3998  F9D 00184D90 ?staticMetaObject@QSocketNotifier@@2UQMetaObject@@B
       3999  F9E 00184214 ?staticMetaObject@QTemporaryFile@@2UQMetaObject@@B
       4000  F9F 00185168 ?staticMetaObject@QTextCodecPlugin@@2UQMetaObject@@B
       4001  FA0 00182140 ?staticMetaObject@QThread@@2UQMetaObject@@B
       4002  FA1 0017EF50 ?staticMetaObject@QThreadPool@@2UQMetaObject@@B
       4003  FA2 00184098 ?staticMetaObject@QTimeLine@@2UQMetaObject@@B
       4004  FA3 00184EF0 ?staticMetaObject@QTimer@@2UQMetaObject@@B
       4005  FA4 00184F3C ?staticMetaObject@QTranslator@@2UQMetaObject@@B
       4006  FA5 00185118 ?staticMetaObject@QWinEventNotifier@@2UQMetaObject@@B
       4007  FA6 00184400 ?staticMetaObject@QWindowsPipeWriter@@2UQMetaObject@@B
       4008  FA7 00182020 ?staticQtMetaObject@QObject@@1UQMetaObject@@B
       4009  FA8 0007B8E0 ?status@QDataStream@@QBE?AW4Status@1@XZ
       4010  FA9 00089560 ?status@QIODevice@@QBEHXZ
       4011  FAA 000A55B0 ?status@QSettings@@QBE?AW4Status@1@XZ
       4012  FAB 0008DD00 ?status@QTextStream@@QBE?AW4Status@1@XZ
       4013  FAC 000D43D0 ?stop@QBasicTimer@@QAEXXZ
       4014  FAD 0005B650 ?stop@QTimeLine@@QAEXXZ
       4015  FAE 000E96F0 ?stop@QTimer@@QAEXXZ
       4016  FAF 00037680 ?string@QStringRef@@QBEPBVQString@@XZ
       4017  FB0 0005B2B0 ?string@QTextBoundaryFinder@@QBE?AVQString@@XZ
       4018  FB1 00002490 ?string@QTextStream@@QBEPAVQString@@XZ
       4019  FB2 00043B70 ?string@QXmlStreamStringRef@@QBEPBVQString@@XZ
       4020  FB3 0003F510 ?stringToDouble@QLocalePrivate@@QBENABVQString@@PA_NW4GroupSeparatorMode@1@@Z
       4021  FB4 0003F620 ?stringToLongLong@QLocalePrivate@@QBE_JABVQString@@HPA_NW4GroupSeparatorMode@1@@Z
       4022  FB5 0003F760 ?stringToUnsLongLong@QLocalePrivate@@QBE_KABVQString@@HPA_NW4GroupSeparatorMode@1@@Z
       4023  FB6 00113960 ?stripWhiteSpace@QByteArray@@QBE?AV1@XZ
       4024  FB7 00114300 ?stripWhiteSpace@QString@@QBE?AV1@XZ
       4025  FB8 00010520 ?subkeyList@QSettings@@QBE?AVQStringList@@ABVQString@@@Z
       4026  FB9 00110B10 ?submit@QAbstractItemModel@@UAE_NXZ
       4027  FBA 000884F0 ?suffix@QFileInfo@@QBE?AVQString@@XZ
       4028  FBB 00037680 ?superClass@QMetaObject@@QBEPBU1@XZ
       4029  FBC 000D9A50 ?superClassName@QMetaObject@@QBEPBDXZ
       4030  FBD 000CDEC0 ?supportedDragActions@QAbstractItemModel@@QBE?AV?$QFlags@W4DropAction@Qt@@@@XZ
       4031  FBE 000CDEB0 ?supportedDropActions@QAbstractItemModel@@UBE?AV?$QFlags@W4DropAction@Qt@@@@XZ
       4032  FBF 00092C10 ?supportsExtension@QAbstractFileEngine@@UBE_NW4Extension@1@@Z
       4033  FC0 000AF300 ?supportsExtension@QFSFileEngine@@UBE_NW4Extension@QAbstractFileEngine@@@Z
       4034  FC1 00110A70 ?surrogateToUcs4@QChar@@SAIGG@Z
       4035  FC2 00110A70 ?surrogateToUcs4@QChar@@SAIV1@0@Z
       4036  FC3 0000F1C0 ?symLinkTarget@QFile@@QBE?AVQString@@XZ
       4037  FC4 0000F1E0 ?symLinkTarget@QFile@@SA?AVQString@@ABV2@@Z
       4038  FC5 0000F290 ?symLinkTarget@QFileInfo@@QBE?AVQString@@XZ
       4039  FC6 000A5540 ?sync@QSettings@@QAEXXZ
       4040  FC7 0000A0A0 ?syncPendingResults@ResultStoreBase@QtConcurrent@@IAEXXZ
       4041  FC8 00009F20 ?syncResultCount@ResultStoreBase@QtConcurrent@@IAEXXZ
       4042  FC9 00041050 ?system@QLocale@@SA?AV1@XZ
       4043  FCA 0008D240 ?systemEnvironment@QProcess@@SA?AVQStringList@@XZ
       4044  FCB 000FEEC0 ?systemId@QXmlStreamEntityDeclaration@@QBE?AVQStringRef@@XZ
       4045  FCC 000FEDD0 ?systemId@QXmlStreamNotationDeclaration@@QBE?AVQStringRef@@XZ
       4046  FCD 000D9910 ?tag@QMetaMethod@@QBEPBDXZ
       4047  FCE 0000F530 ?temp@QDir@@SA?AV1@XZ
       4048  FCF 0007FEB0 ?tempPath@QDir@@SA?AVQString@@XZ
       4049  FD0 000BCD40 ?tempPath@QFSFileEngine@@SA?AVQString@@XZ
       4050  FD1 0008B270 ?terminate@QProcess@@QAEXXZ
       4051  FD2 00014570 ?terminate@QThread@@QAEXXZ
       4052  FD3 0010E830 ?terminated@QThread@@IAEXXZ
       4053  FD4 00011480 ?testAndSetAcquire@QBasicAtomicInt@@QAE_NHH@Z
       4054  FD5 00011480 ?testAndSetOrdered@QBasicAtomicInt@@QAE_NHH@Z
       4055  FD6 00011480 ?testAndSetRelaxed@QBasicAtomicInt@@QAE_NHH@Z
       4056  FD7 00011480 ?testAndSetRelease@QBasicAtomicInt@@QAE_NHH@Z
       4057  FD8 00014040 ?testAttribute@QCoreApplication@@SA_NW4ApplicationAttribute@Qt@@@Z
       4058  FD9 00014040 ?testAttribute@QCoreApplicationPrivate@@SA_NI@Z
       4059  FDA 00015A60 ?testBit@QBitArray@@QBE_NH@Z
       4060  FDB 000E0770 ?text@QMimeData@@QBE?AVQString@@XZ
       4061  FDC 000FFA40 ?text@QXmlStreamReader@@QBE?AVQStringRef@@XZ
       4062  FDD 001DEBA0 ?theAppName@@3PADA
       4063  FDE 001DEAE4 ?theMainThread@QCoreApplicationPrivate@@2PAVQThread@@A
       4064  FDF 000E16F0 ?thread@QObject@@QBEPAVQThread@@XZ
       4065  FE0 0000A9C0 ?threadExit@ThreadEngineBase@QtConcurrent@@AAEXXZ
       4066  FE1 0000A3F0 ?threadFunction@ThreadEngineBase@QtConcurrent@@MAE?AW4ThreadFunctionResult@2@XZ
       4067  FE2 0000A9F0 ?threadThrottleExit@ThreadEngineBase@QtConcurrent@@AAE_NXZ
       4068  FE3 0000B780 ?throwPossibleException@ExceptionStore@internal@QtConcurrent@@QAEXXZ
       4069  FE4 0001E4B0 ?time@QDateTime@@QBE?AVQTime@@XZ
       4070  FE5 0000B4F0 ?timeAfterUser@BlockSizeManager@QtConcurrent@@QAEXXZ
       4071  FE6 0000B490 ?timeBeforeUser@BlockSizeManager@QtConcurrent@@QAEXXZ
       4072  FE7 00040D10 ?timeFormat@QLocale@@QBE?AVQString@@W4FormatType@1@@Z
       4073  FE8 0001E4C0 ?timeSpec@QDateTime@@QBE?AW4TimeSpec@Qt@@XZ
       4074  FE9 001103E0 ?timeout@QTimer@@IAEXXZ
       4075  FEA 00111D90 ?timerEvent@QObject@@MAEXPAVQTimerEvent@@@Z
       4076  FEB 0005BE00 ?timerEvent@QTimeLine@@MAEXPAVQTimerEvent@@@Z
       4077  FEC 000E9BA0 ?timerEvent@QTimer@@MAEXPAVQTimerEvent@@@Z
       4078  FED 00037680 ?timerId@QBasicTimer@@QBEHXZ
       4079  FEE 0008AF30 ?timerId@QTimer@@QBEHXZ
       4080  FEF 000CCDB0 ?timerId@QTimerEvent@@QBEHXZ
       4081  FF0 000A0EC0 ?toAce@QUrl@@SA?AVQByteArray@@ABVQString@@@Z
       4082  FF1 00044C70 ?toAlignedRect@QRectF@@QBE?AVQRect@@XZ
       4083  FF2 00052F80 ?toAscii@QChar@@QBE?BDXZ
       4084  FF3 00111D50 ?toAscii@QCharRef@@QBE?BDXZ
       4085  FF4 00051730 ?toAscii@QString@@QBE?AVQByteArray@@XZ
       4086  FF5 0001A690 ?toBase64@QByteArray@@QBE?AV1@XZ
       4087  FF6 000EDE50 ?toBitArray@QVariant@@QBE?AVQBitArray@@XZ
       4088  FF7 000EB4A0 ?toBool@QVariant@@QBE_NXZ
       4089  FF8 000ED8B0 ?toByteArray@QVariant@@QBE?AVQByteArray@@XZ
       4090  FF9 00113440 ?toCString@QVariant@@QBE?BVQByteArray@@XZ
       4091  FFA 0004F470 ?toCaseFolded@QChar@@QBE?AV1@XZ
       4092  FFB 0004F4D0 ?toCaseFolded@QChar@@SAGG@Z
       4093  FFC 0004F4B0 ?toCaseFolded@QChar@@SAII@Z
       4094  FFD 00055440 ?toCaseFolded@QString@@QBE?AV1@XZ
       4095  FFE 000EDAA0 ?toChar@QVariant@@QBE?AVQChar@@XZ
       4096  FFF 00042FC0 ?toDate@QLocale@@QBE?AVQDate@@ABVQString@@0@Z
       4097 1000 000433D0 ?toDate@QLocale@@QBE?AVQDate@@ABVQString@@W4FormatType@1@@Z
       4098 1001 000ED7E0 ?toDate@QVariant@@QBE?AVQDate@@XZ
       4099 1002 00043060 ?toDateTime@QLocale@@QBE?AVQDateTime@@ABVQString@@0@Z
       4100 1003 00043460 ?toDateTime@QLocale@@QBE?AVQDateTime@@ABVQString@@W4FormatType@1@@Z
       4101 1004 000ED880 ?toDateTime@QVariant@@QBE?AVQDateTime@@XZ
       4102 1005 00017040 ?toDouble@QByteArray@@QBENPA_N@Z
       4103 1006 00040A80 ?toDouble@QLocale@@QBENABVQString@@PA_N@Z
       4104 1007 00050430 ?toDouble@QString@@QBENPA_N@Z
       4105 1008 000EDBD0 ?toDouble@QVariant@@QBENPA_N@Z
       4106 1009 000A3F10 ?toEncoded@QUrl@@QBE?AVQByteArray@@V?$QFlags@W4FormattingOption@QUrl@@@@@Z
       4107 100A 0005AD10 ?toEnd@QTextBoundaryFinder@@QAEXXZ
       4108 100B 00017060 ?toFloat@QByteArray@@QBEMPA_N@Z
       4109 100C 00042800 ?toFloat@QLocale@@QBEMABVQString@@PA_N@Z
       4110 100D 000504A0 ?toFloat@QString@@QBEMPA_N@Z
       4111 100E 000196D0 ?toHex@QByteArray@@QBE?AV1@XZ
       4112 100F 00016F20 ?toInt@QByteArray@@QBEHPA_NH@Z
       4113 1010 00042730 ?toInt@QLocale@@QBEHABVQString@@PA_NH@Z
       4114 1011 00050350 ?toInt@QString@@QBEHPA_NH@Z
       4115 1012 000EDAF0 ?toInt@QVariant@@QBEHPA_N@Z
       4116 1013 00037680 ?toJulianDay@QDate@@QBEHXZ
       4117 1014 001137A0 ?toLatin1@QChar@@QBE?BDXZ
       4118 1015 00111D30 ?toLatin1@QCharRef@@QBE?BDXZ
       4119 1016 00051650 ?toLatin1@QString@@QBE?AVQByteArray@@XZ
       4120 1017 00037A00 ?toLine@QLineF@@QBE?AVQLine@@XZ
       4121 1018 000ED9A0 ?toLine@QVariant@@QBE?AVQLine@@XZ
       4122 1019 000ED980 ?toLineF@QVariant@@QBE?AVQLineF@@XZ
       4123 101A 00007890 ?toList@?$QVector@VQPoint@@@@QBE?AV?$QList@VQPoint@@@@XZ
       4124 101B 00007680 ?toList@?$QVector@VQPointF@@@@QBE?AV?$QList@VQPointF@@@@XZ
       4125 101C 00107550 ?toList@?$QVector@VQXmlStreamAttribute@@@@QBE?AV?$QList@VQXmlStreamAttribute@@@@XZ
       4126 101D 000EF080 ?toList@QVariant@@QBE?AV?$QList@VQVariant@@@@XZ
       4127 101E 00051770 ?toLocal8Bit@QString@@QBE?AVQByteArray@@XZ
       4128 101F 0009DF40 ?toLocalFile@QUrl@@QBE?AVQString@@XZ
       4129 1020 00002130 ?toLocalTime@QDateTime@@QBE?AV1@XZ
       4130 1021 000EDA10 ?toLocale@QVariant@@QBE?AVQLocale@@XZ
       4131 1022 00016F20 ?toLong@QByteArray@@QBEJPA_NH@Z
       4132 1023 00050350 ?toLong@QString@@QBEJPA_NH@Z
       4133 1024 00016EE0 ?toLongLong@QByteArray@@QBE_JPA_NH@Z
       4134 1025 000409E0 ?toLongLong@QLocale@@QBE_JABVQString@@PA_NH@Z
       4135 1026 00050250 ?toLongLong@QString@@QBE_JPA_NH@Z
       4136 1027 000EDB90 ?toLongLong@QVariant@@QBE_JPA_N@Z
       4137 1028 00018E90 ?toLower@QByteArray@@QBE?AV1@XZ
       4138 1029 0004F090 ?toLower@QChar@@QBE?AV1@XZ
       4139 102A 0004F120 ?toLower@QChar@@SAGG@Z
       4140 102B 0004F0F0 ?toLower@QChar@@SAII@Z
       4141 102C 00111CB0 ?toLower@QCharRef@@QBE?AVQChar@@XZ
       4142 102D 00055160 ?toLower@QString@@QBE?AV1@XZ
       4143 102E 000F0D30 ?toMap@QVariant@@QBE?AV?$QMap@VQString@@VQVariant@@@@XZ
       4144 102F 0007CE00 ?toNativeSeparators@QDir@@SA?AVQString@@ABV2@@Z
       4145 1030 0005AD30 ?toNextBoundary@QTextBoundaryFinder@@QAEHXZ
       4146 1031 00018400 ?toPercentEncoding@QByteArray@@QBE?AV1@ABV1@0D@Z
       4147 1032 00098EA0 ?toPercentEncoding@QUrl@@SA?AVQByteArray@@ABVQString@@ABV2@1@Z
       4148 1033 000017A0 ?toPoint@QPointF@@QBE?AVQPoint@@XZ
       4149 1034 000ED8E0 ?toPoint@QVariant@@QBE?AVQPoint@@XZ
       4150 1035 000ED9C0 ?toPointF@QVariant@@QBE?AVQPointF@@XZ
       4151 1036 0005AE10 ?toPreviousBoundary@QTextBoundaryFinder@@QAEHXZ
       4152 1037 000990B0 ?toPunycode@QUrl@@SA?AVQByteArray@@ABVQString@@@Z
       4153 1038 000447C0 ?toRect@QRectF@@QBE?AVQRect@@XZ
       4154 1039 000ED900 ?toRect@QVariant@@QBE?AVQRect@@XZ
       4155 103A 000ED960 ?toRectF@QVariant@@QBE?AVQRectF@@XZ
       4156 103B 000EDA70 ?toRegExp@QVariant@@QBE?AVQRegExp@@XZ
       4157 103C 00016FB0 ?toShort@QByteArray@@QBEFPA_NH@Z
       4158 103D 00042660 ?toShort@QLocale@@QBEFABVQString@@PA_NH@Z
       4159 103E 000503D0 ?toShort@QString@@QBEFPA_NH@Z
       4160 103F 000017A0 ?toSize@QSizeF@@QBE?AVQSize@@XZ
       4161 1040 000ED920 ?toSize@QVariant@@QBE?AVQSize@@XZ
       4162 1041 000ED940 ?toSizeF@QVariant@@QBE?AVQSizeF@@XZ
       4163 1042 0005AD00 ?toStart@QTextBoundaryFinder@@QAEXXZ
       4164 1043 001128F0 ?toStdString@QString@@QBE?AV?$basic_string@DU?$char_traits@D@std@@V?$allocator@D@2@@std@@XZ
       4165 1044 00008ED0 ?toStdVector@?$QVector@VQPoint@@@@QBE?AV?$vector@VQPoint@@V?$allocator@VQPoint@@@std@@@std@@XZ
       4166 1045 00008E50 ?toStdVector@?$QVector@VQPointF@@@@QBE?AV?$vector@VQPointF@@V?$allocator@VQPointF@@@std@@@std@@XZ
       4167 1046 0010DD00 ?toStdVector@?$QVector@VQXmlStreamAttribute@@@@QBE?AV?$vector@VQXmlStreamAttribute@@V?$allocator@VQXmlStreamAttribute@@@std@@@std@@XZ
       4168 1047 00114C50 ?toStdWString@QString@@QBE?AV?$basic_string@GU?$char_traits@G@std@@V?$allocator@G@2@@std@@XZ
       4169 1048 00022F80 ?toString@QDate@@QBE?AVQString@@ABV2@@Z
       4170 1049 00020690 ?toString@QDate@@QBE?AVQString@@W4DateFormat@Qt@@@Z
       4171 104A 00023070 ?toString@QDateTime@@QBE?AVQString@@ABV2@@Z
       4172 104B 00020FB0 ?toString@QDateTime@@QBE?AVQString@@W4DateFormat@Qt@@@Z
       4173 104C 00042890 ?toString@QLocale@@QBE?AVQString@@ABVQDate@@ABV2@@Z
       4174 104D 000428E0 ?toString@QLocale@@QBE?AVQString@@ABVQDate@@W4FormatType@1@@Z
       4175 104E 00042AD0 ?toString@QLocale@@QBE?AVQString@@ABVQDateTime@@ABV2@@Z
       4176 104F 00042B40 ?toString@QLocale@@QBE?AVQString@@ABVQDateTime@@W4FormatType@1@@Z
       4177 1050 00042A80 ?toString@QLocale@@QBE?AVQString@@ABVQTime@@ABV2@@Z
       4178 1051 00042CE0 ?toString@QLocale@@QBE?AVQString@@ABVQTime@@W4FormatType@1@@Z
       4179 1052 00017130 ?toString@QLocale@@QBE?AVQString@@F@Z
       4180 1053 00017160 ?toString@QLocale@@QBE?AVQString@@G@Z
       4181 1054 00017190 ?toString@QLocale@@QBE?AVQString@@H@Z
       4182 1055 000171C0 ?toString@QLocale@@QBE?AVQString@@I@Z
       4183 1056 000171F0 ?toString@QLocale@@QBE?AVQString@@MDH@Z
       4184 1057 00042E80 ?toString@QLocale@@QBE?AVQString@@NDH@Z
       4185 1058 00040AE0 ?toString@QLocale@@QBE?AVQString@@_J@Z
       4186 1059 00040B40 ?toString@QLocale@@QBE?AVQString@@_K@Z
       4187 105A 00056E20 ?toString@QStringRef@@QBE?AVQString@@XZ
       4188 105B 00023040 ?toString@QTime@@QBE?AVQString@@ABV2@@Z
       4189 105C 00020BA0 ?toString@QTime@@QBE?AVQString@@W4DateFormat@Qt@@@Z
       4190 105D 000A3B30 ?toString@QUrl@@QBE?AVQString@@V?$QFlags@W4FormattingOption@QUrl@@@@@Z
       4191 105E 000C9330 ?toString@QUuid@@QBE?AVQString@@XZ
       4192 105F 000ED7B0 ?toString@QVariant@@QBE?AVQString@@XZ
       4193 1060 000F0D00 ?toStringList@QVariant@@QBE?AVQStringList@@XZ
       4194 1061 00042F20 ?toTime@QLocale@@QBE?AVQTime@@ABVQString@@0@Z
       4195 1062 00043340 ?toTime@QLocale@@QBE?AVQTime@@ABVQString@@W4FormatType@1@@Z
       4196 1063 000ED830 ?toTime@QVariant@@QBE?AVQTime@@XZ
       4197 1064 00025640 ?toTimeSpec@QDateTime@@QBE?AV1@W4TimeSpec@Qt@@@Z
       4198 1065 000253B0 ?toTime_t@QDateTime@@QBEIXZ
       4199 1066 0004F250 ?toTitleCase@QChar@@QBE?AV1@XZ
       4200 1067 0004F2E0 ?toTitleCase@QChar@@SAGG@Z
       4201 1068 0004F2B0 ?toTitleCase@QChar@@SAII@Z
       4202 1069 00111A30 ?toTitleCase@QCharRef@@QBE?AVQChar@@XZ
       4203 106A 00016F70 ?toUInt@QByteArray@@QBEIPA_NH@Z
       4204 106B 000427A0 ?toUInt@QLocale@@QBEIABVQString@@PA_NH@Z
       4205 106C 000503A0 ?toUInt@QString@@QBEIPA_NH@Z
       4206 106D 000EDB40 ?toUInt@QVariant@@QBEIPA_N@Z
       4207 106E 00016F70 ?toULong@QByteArray@@QBEKPA_NH@Z
       4208 106F 000503A0 ?toULong@QString@@QBEKPA_NH@Z
       4209 1070 00016F00 ?toULongLong@QByteArray@@QBE_KPA_NH@Z
       4210 1071 00040A30 ?toULongLong@QLocale@@QBE_JABVQString@@PA_NH@Z
       4211 1072 000502D0 ?toULongLong@QString@@QBE_KPA_NH@Z
       4212 1073 000EDBB0 ?toULongLong@QVariant@@QBE_KPA_N@Z
       4213 1074 00017000 ?toUShort@QByteArray@@QBEGPA_NH@Z
       4214 1075 000426D0 ?toUShort@QLocale@@QBEGABVQString@@PA_NH@Z
       4215 1076 00050400 ?toUShort@QString@@QBEGPA_NH@Z
       4216 1077 00002150 ?toUTC@QDateTime@@QBE?AV1@XZ
       4217 1078 00054380 ?toUcs4@QString@@QBE?AV?$QVector@I@@XZ
       4218 1079 000FA5C0 ?toUnicode@QTextCodec@@QBE?AVQString@@ABVQByteArray@@@Z
       4219 107A 000FA720 ?toUnicode@QTextCodec@@QBE?AVQString@@ABVQByteArray@@H@Z
       4220 107B 000FA770 ?toUnicode@QTextCodec@@QBE?AVQString@@PBD@Z
       4221 107C 00052DE0 ?toUnicode@QTextCodec@@QBE?AVQString@@PBDHPAUConverterState@1@@Z
       4222 107D 000FA890 ?toUnicode@QTextDecoder@@QAE?AVQString@@ABVQByteArray@@@Z
       4223 107E 000FA860 ?toUnicode@QTextDecoder@@QAE?AVQString@@PBDH@Z
       4224 107F 000FAEB0 ?toUnicode@QTextDecoder@@QAEXPAVQString@@PBDH@Z
       4225 1080 00018F40 ?toUpper@QByteArray@@QBE?AV1@XZ
       4226 1081 0004F170 ?toUpper@QChar@@QBE?AV1@XZ
       4227 1082 0004F200 ?toUpper@QChar@@SAGG@Z
       4228 1083 0004F1D0 ?toUpper@QChar@@SAII@Z
       4229 1084 00111CF0 ?toUpper@QCharRef@@QBE?AVQChar@@XZ
       4230 1085 00055590 ?toUpper@QString@@QBE?AV1@XZ
       4231 1086 000ED9E0 ?toUrl@QVariant@@QBE?AVQUrl@@XZ
       4232 1087 000517C0 ?toUtf8@QString@@QBE?AVQByteArray@@XZ
       4233 1088 00053230 ?toWCharArray@QString@@QBEHPAG@Z
       4234 1089 00016690 ?toggleBit@QBitArray@@QAE_NH@Z
       4235 108A 0005B720 ?toggleDirection@QTimeLine@@QAEXXZ
       4236 108B 000059B0 ?togglePaused@QFutureInterfaceBase@@QAEXXZ
       4237 108C 00009070 ?togglePaused@QFutureWatcherBase@@QAEXXZ
       4238 108D 000FF640 ?tokenString@QXmlStreamReader@@QBE?AVQString@@XZ
       4239 108E 000FE2E0 ?tokenType@QXmlStreamReader@@QBE?AW4TokenType@1@XZ
       4240 108F 00001CA0 ?top@QRect@@QBEHXZ
       4241 1090 00044390 ?top@QRectF@@QBENXZ
       4242 1091 00037690 ?topLeft@QRect@@QBE?AVQPoint@@XZ
       4243 1092 000441C0 ?topLeft@QRectF@@QBE?AVQPointF@@XZ
       4244 1093 00043D30 ?topRight@QRect@@QBE?AVQPoint@@XZ
       4245 1094 00044200 ?topRight@QRectF@@QBE?AVQPointF@@XZ
       4246 1095 00012D00 ?tr@QAbstractEventDispatcher@@SA?AVQString@@PBD0@Z
       4247 1096 00012D60 ?tr@QAbstractEventDispatcher@@SA?AVQString@@PBD0H@Z
       4248 1097 000CD8F0 ?tr@QAbstractItemModel@@SA?AVQString@@PBD0@Z
       4249 1098 000CD950 ?tr@QAbstractItemModel@@SA?AVQString@@PBD0H@Z
       4250 1099 000CDAD0 ?tr@QAbstractListModel@@SA?AVQString@@PBD0@Z
       4251 109A 000CDB30 ?tr@QAbstractListModel@@SA?AVQString@@PBD0H@Z
       4252 109B 000CDA10 ?tr@QAbstractTableModel@@SA?AVQString@@PBD0@Z
       4253 109C 000CDA70 ?tr@QAbstractTableModel@@SA?AVQString@@PBD0H@Z
       4254 109D 0007A240 ?tr@QBuffer@@SA?AVQString@@PBD0@Z
       4255 109E 0007A2A0 ?tr@QBuffer@@SA?AVQString@@PBD0H@Z
       4256 109F 00113070 ?tr@QCoreApplication@@SA?AVQString@@PBD0@Z
       4257 10A0 001130D0 ?tr@QCoreApplication@@SA?AVQString@@PBD0H@Z
       4258 10A1 000143E0 ?tr@QEventDispatcherWin32@@SA?AVQString@@PBD0@Z
       4259 10A2 00014440 ?tr@QEventDispatcherWin32@@SA?AVQString@@PBD0H@Z
       4260 10A3 00112F80 ?tr@QEventLoop@@SA?AVQString@@PBD0@Z
       4261 10A4 00112FE0 ?tr@QEventLoop@@SA?AVQString@@PBD0H@Z
       4262 10A5 000C68B0 ?tr@QFactoryLoader@@SA?AVQString@@PBD0@Z
       4263 10A6 000C6910 ?tr@QFactoryLoader@@SA?AVQString@@PBD0H@Z
       4264 10A7 0000F070 ?tr@QFile@@SA?AVQString@@PBD0@Z
       4265 10A8 0000F0D0 ?tr@QFile@@SA?AVQString@@PBD0H@Z
       4266 10A9 000B1090 ?tr@QFileSystemWatcher@@SA?AVQString@@PBD0@Z
       4267 10AA 000B10F0 ?tr@QFileSystemWatcher@@SA?AVQString@@PBD0H@Z
       4268 10AB 00009240 ?tr@QFutureWatcherBase@@SA?AVQString@@PBD0@Z
       4269 10AC 000092A0 ?tr@QFutureWatcherBase@@SA?AVQString@@PBD0H@Z
       4270 10AD 00089300 ?tr@QIODevice@@SA?AVQString@@PBD0@Z
       4271 10AE 001131C0 ?tr@QIODevice@@SA?AVQString@@PBD0H@Z
       4272 10AF 000A5A20 ?tr@QLibrary@@SA?AVQString@@PBD0@Z
       4273 10B0 000A5A80 ?tr@QLibrary@@SA?AVQString@@PBD0H@Z
       4274 10B1 000DA7B0 ?tr@QMetaObject@@QBE?AVQString@@PBD0@Z
       4275 10B2 000DA7E0 ?tr@QMetaObject@@QBE?AVQString@@PBD0H@Z
       4276 10B3 000CDCE0 ?tr@QMimeData@@SA?AVQString@@PBD0@Z
       4277 10B4 000CDD40 ?tr@QMimeData@@SA?AVQString@@PBD0H@Z
       4278 10B5 00112A30 ?tr@QObject@@SA?AVQString@@PBD0@Z
       4279 10B6 00112A90 ?tr@QObject@@SA?AVQString@@PBD0H@Z
       4280 10B7 000E8000 ?tr@QObjectCleanupHandler@@SA?AVQString@@PBD0@Z
       4281 10B8 000E8060 ?tr@QObjectCleanupHandler@@SA?AVQString@@PBD0H@Z
       4282 10B9 000C5EF0 ?tr@QPluginLoader@@SA?AVQString@@PBD0@Z
       4283 10BA 000C5F50 ?tr@QPluginLoader@@SA?AVQString@@PBD0H@Z
       4284 10BB 0008B460 ?tr@QProcess@@SA?AVQString@@PBD0@Z
       4285 10BC 0008B4C0 ?tr@QProcess@@SA?AVQString@@PBD0H@Z
       4286 10BD 0000F710 ?tr@QSettings@@SA?AVQString@@PBD0@Z
       4287 10BE 0000F770 ?tr@QSettings@@SA?AVQString@@PBD0H@Z
       4288 10BF 000F1A90 ?tr@QSharedMemory@@SA?AVQString@@PBD0@Z
       4289 10C0 000F1AF0 ?tr@QSharedMemory@@SA?AVQString@@PBD0H@Z
       4290 10C1 000E8530 ?tr@QSignalMapper@@SA?AVQString@@PBD0@Z
       4291 10C2 000E8590 ?tr@QSignalMapper@@SA?AVQString@@PBD0H@Z
       4292 10C3 0008B540 ?tr@QSocketNotifier@@SA?AVQString@@PBD0@Z
       4293 10C4 0008B5A0 ?tr@QSocketNotifier@@SA?AVQString@@PBD0H@Z
       4294 10C5 00084430 ?tr@QTemporaryFile@@SA?AVQString@@PBD0@Z
       4295 10C6 00084490 ?tr@QTemporaryFile@@SA?AVQString@@PBD0H@Z
       4296 10C7 000FA2E0 ?tr@QTextCodecPlugin@@SA?AVQString@@PBD0@Z
       4297 10C8 000FA340 ?tr@QTextCodecPlugin@@SA?AVQString@@PBD0H@Z
       4298 10C9 000035E0 ?tr@QThread@@SA?AVQString@@PBD0@Z
       4299 10CA 00003640 ?tr@QThread@@SA?AVQString@@PBD0H@Z
       4300 10CB 000036C0 ?tr@QThreadPool@@SA?AVQString@@PBD0@Z
       4301 10CC 00003720 ?tr@QThreadPool@@SA?AVQString@@PBD0H@Z
       4302 10CD 0005B760 ?tr@QTimeLine@@SA?AVQString@@PBD0@Z
       4303 10CE 0005B7C0 ?tr@QTimeLine@@SA?AVQString@@PBD0H@Z
       4304 10CF 0008B660 ?tr@QTimer@@SA?AVQString@@PBD0@Z
       4305 10D0 0008B6C0 ?tr@QTimer@@SA?AVQString@@PBD0H@Z
       4306 10D1 000142D0 ?tr@QTranslator@@SA?AVQString@@PBD0@Z
       4307 10D2 00014330 ?tr@QTranslator@@SA?AVQString@@PBD0H@Z
       4308 10D3 0008B7B0 ?tr@QWinEventNotifier@@SA?AVQString@@PBD0@Z
       4309 10D4 0008B810 ?tr@QWinEventNotifier@@SA?AVQString@@PBD0H@Z
       4310 10D5 000B89E0 ?tr@QWindowsPipeWriter@@SA?AVQString@@PBD0@Z
       4311 10D6 000B8A40 ?tr@QWindowsPipeWriter@@SA?AVQString@@PBD0H@Z
       4312 10D7 00012D30 ?trUtf8@QAbstractEventDispatcher@@SA?AVQString@@PBD0@Z
       4313 10D8 00012D90 ?trUtf8@QAbstractEventDispatcher@@SA?AVQString@@PBD0H@Z
       4314 10D9 000CD920 ?trUtf8@QAbstractItemModel@@SA?AVQString@@PBD0@Z
       4315 10DA 000CD980 ?trUtf8@QAbstractItemModel@@SA?AVQString@@PBD0H@Z
       4316 10DB 000CDB00 ?trUtf8@QAbstractListModel@@SA?AVQString@@PBD0@Z
       4317 10DC 000CDB60 ?trUtf8@QAbstractListModel@@SA?AVQString@@PBD0H@Z
       4318 10DD 000CDA40 ?trUtf8@QAbstractTableModel@@SA?AVQString@@PBD0@Z
       4319 10DE 000CDAA0 ?trUtf8@QAbstractTableModel@@SA?AVQString@@PBD0H@Z
       4320 10DF 0007A270 ?trUtf8@QBuffer@@SA?AVQString@@PBD0@Z
       4321 10E0 0007A2D0 ?trUtf8@QBuffer@@SA?AVQString@@PBD0H@Z
       4322 10E1 001130A0 ?trUtf8@QCoreApplication@@SA?AVQString@@PBD0@Z
       4323 10E2 00113100 ?trUtf8@QCoreApplication@@SA?AVQString@@PBD0H@Z
       4324 10E3 00014410 ?trUtf8@QEventDispatcherWin32@@SA?AVQString@@PBD0@Z
       4325 10E4 00014470 ?trUtf8@QEventDispatcherWin32@@SA?AVQString@@PBD0H@Z
       4326 10E5 00112FB0 ?trUtf8@QEventLoop@@SA?AVQString@@PBD0@Z
       4327 10E6 00113010 ?trUtf8@QEventLoop@@SA?AVQString@@PBD0H@Z
       4328 10E7 000C68E0 ?trUtf8@QFactoryLoader@@SA?AVQString@@PBD0@Z
       4329 10E8 000C6940 ?trUtf8@QFactoryLoader@@SA?AVQString@@PBD0H@Z
       4330 10E9 0000F0A0 ?trUtf8@QFile@@SA?AVQString@@PBD0@Z
       4331 10EA 0000F100 ?trUtf8@QFile@@SA?AVQString@@PBD0H@Z
       4332 10EB 000B10C0 ?trUtf8@QFileSystemWatcher@@SA?AVQString@@PBD0@Z
       4333 10EC 000B1120 ?trUtf8@QFileSystemWatcher@@SA?AVQString@@PBD0H@Z
       4334 10ED 00009270 ?trUtf8@QFutureWatcherBase@@SA?AVQString@@PBD0@Z
       4335 10EE 000092D0 ?trUtf8@QFutureWatcherBase@@SA?AVQString@@PBD0H@Z
       4336 10EF 00113190 ?trUtf8@QIODevice@@SA?AVQString@@PBD0@Z
       4337 10F0 001131F0 ?trUtf8@QIODevice@@SA?AVQString@@PBD0H@Z
       4338 10F1 000A5A50 ?trUtf8@QLibrary@@SA?AVQString@@PBD0@Z
       4339 10F2 000A5AB0 ?trUtf8@QLibrary@@SA?AVQString@@PBD0H@Z
       4340 10F3 000DA820 ?trUtf8@QMetaObject@@QBE?AVQString@@PBD0@Z
       4341 10F4 000DA850 ?trUtf8@QMetaObject@@QBE?AVQString@@PBD0H@Z
       4342 10F5 000CDD10 ?trUtf8@QMimeData@@SA?AVQString@@PBD0@Z
       4343 10F6 000CDD70 ?trUtf8@QMimeData@@SA?AVQString@@PBD0H@Z
       4344 10F7 00112A60 ?trUtf8@QObject@@SA?AVQString@@PBD0@Z
       4345 10F8 00112AC0 ?trUtf8@QObject@@SA?AVQString@@PBD0H@Z
       4346 10F9 000E8030 ?trUtf8@QObjectCleanupHandler@@SA?AVQString@@PBD0@Z
       4347 10FA 000E8090 ?trUtf8@QObjectCleanupHandler@@SA?AVQString@@PBD0H@Z
       4348 10FB 000C5F20 ?trUtf8@QPluginLoader@@SA?AVQString@@PBD0@Z
       4349 10FC 000C5F80 ?trUtf8@QPluginLoader@@SA?AVQString@@PBD0H@Z
       4350 10FD 0008B490 ?trUtf8@QProcess@@SA?AVQString@@PBD0@Z
       4351 10FE 0008B4F0 ?trUtf8@QProcess@@SA?AVQString@@PBD0H@Z
       4352 10FF 0000F740 ?trUtf8@QSettings@@SA?AVQString@@PBD0@Z
       4353 1100 0000F7A0 ?trUtf8@QSettings@@SA?AVQString@@PBD0H@Z
       4354 1101 000F1AC0 ?trUtf8@QSharedMemory@@SA?AVQString@@PBD0@Z
       4355 1102 000F1B20 ?trUtf8@QSharedMemory@@SA?AVQString@@PBD0H@Z
       4356 1103 000E8560 ?trUtf8@QSignalMapper@@SA?AVQString@@PBD0@Z
       4357 1104 000E85C0 ?trUtf8@QSignalMapper@@SA?AVQString@@PBD0H@Z
       4358 1105 0008B570 ?trUtf8@QSocketNotifier@@SA?AVQString@@PBD0@Z
       4359 1106 0008B5D0 ?trUtf8@QSocketNotifier@@SA?AVQString@@PBD0H@Z
       4360 1107 00084460 ?trUtf8@QTemporaryFile@@SA?AVQString@@PBD0@Z
       4361 1108 000844C0 ?trUtf8@QTemporaryFile@@SA?AVQString@@PBD0H@Z
       4362 1109 000FA310 ?trUtf8@QTextCodecPlugin@@SA?AVQString@@PBD0@Z
       4363 110A 000FA370 ?trUtf8@QTextCodecPlugin@@SA?AVQString@@PBD0H@Z
       4364 110B 00003610 ?trUtf8@QThread@@SA?AVQString@@PBD0@Z
       4365 110C 00003670 ?trUtf8@QThread@@SA?AVQString@@PBD0H@Z
       4366 110D 000036F0 ?trUtf8@QThreadPool@@SA?AVQString@@PBD0@Z
       4367 110E 00003750 ?trUtf8@QThreadPool@@SA?AVQString@@PBD0H@Z
       4368 110F 0005B790 ?trUtf8@QTimeLine@@SA?AVQString@@PBD0@Z
       4369 1110 0005B7F0 ?trUtf8@QTimeLine@@SA?AVQString@@PBD0H@Z
       4370 1111 0008B690 ?trUtf8@QTimer@@SA?AVQString@@PBD0@Z
       4371 1112 0008B6F0 ?trUtf8@QTimer@@SA?AVQString@@PBD0H@Z
       4372 1113 00014300 ?trUtf8@QTranslator@@SA?AVQString@@PBD0@Z
       4373 1114 00014360 ?trUtf8@QTranslator@@SA?AVQString@@PBD0H@Z
       4374 1115 0008B7E0 ?trUtf8@QWinEventNotifier@@SA?AVQString@@PBD0@Z
       4375 1116 0008B840 ?trUtf8@QWinEventNotifier@@SA?AVQString@@PBD0H@Z
       4376 1117 000B8A10 ?trUtf8@QWindowsPipeWriter@@SA?AVQString@@PBD0@Z
       4377 1118 000B8A70 ?trUtf8@QWindowsPipeWriter@@SA?AVQString@@PBD0H@Z
       4378 1119 000D5E40 ?translate@QCoreApplication@@SA?AVQString@@PBD00W4Encoding@1@@Z
       4379 111A 000D57A0 ?translate@QCoreApplication@@SA?AVQString@@PBD00W4Encoding@1@H@Z
       4380 111B 000376D0 ?translate@QLine@@QAEXABVQPoint@@@Z
       4381 111C 00043DE0 ?translate@QLine@@QAEXHH@Z
       4382 111D 00037900 ?translate@QLineF@@QAEXABVQPointF@@@Z
       4383 111E 00037930 ?translate@QLineF@@QAEXNN@Z
       4384 111F 000376D0 ?translate@QRect@@QAEXABVQPoint@@@Z
       4385 1120 00043DE0 ?translate@QRect@@QAEXHH@Z
       4386 1121 000445A0 ?translate@QRectF@@QAEXABVQPointF@@@Z
       4387 1122 00044580 ?translate@QRectF@@QAEXNN@Z
       4388 1123 000EA930 ?translate@QTranslator@@QBE?AVQString@@PBD00H@Z
       4389 1124 000EA900 ?translate@QTranslator@@UBE?AVQString@@PBD00@Z
       4390 1125 000376F0 ?translated@QLine@@QBE?AV1@ABVQPoint@@@Z
       4391 1126 00043E00 ?translated@QLine@@QBE?AV1@HH@Z
       4392 1127 00037960 ?translated@QLineF@@QBE?AV1@ABVQPointF@@@Z
       4393 1128 00037990 ?translated@QLineF@@QBE?AV1@NN@Z
       4394 1129 000376F0 ?translated@QRect@@QBE?AV1@ABVQPoint@@@Z
       4395 112A 00043E00 ?translated@QRect@@QBE?AV1@HH@Z
       4396 112B 00044620 ?translated@QRectF@@QBE?AV1@ABVQPointF@@@Z
       4397 112C 000445F0 ?translated@QRectF@@QBE?AV1@NN@Z
       4398 112D 0004E330 ?transpose@QSize@@QAEXXZ
       4399 112E 0004E420 ?transpose@QSizeF@@QAEXXZ
       4400 112F 00017E60 ?trimmed@QByteArray@@QBE?AV1@XZ
       4401 1130 00054AA0 ?trimmed@QString@@QBE?AV1@XZ
       4402 1131 00016490 ?truncate@QBitArray@@QAEXH@Z
       4403 1132 00019EF0 ?truncate@QByteArray@@QAEXH@Z
       4404 1133 0007B490 ?truncate@QRingBuffer@@QAEXH@Z
       4405 1134 00054C00 ?truncate@QString@@QAEXH@Z
       4406 1135 00012A10 ?tryAcquire@QSemaphore@@QAE_NH@Z
       4407 1136 00012AC0 ?tryAcquire@QSemaphore@@QAE_NHH@Z
       4408 1137 0000A400 ?tryLock@QCoreApplication@@QAE_NXZ
       4409 1138 000115C0 ?tryLock@QMutex@@QAE_NH@Z
       4410 1139 00011550 ?tryLock@QMutex@@QAE_NXZ
       4411 113A 000120D0 ?tryLockForRead@QReadWriteLock@@QAE_NH@Z
       4412 113B 00011F40 ?tryLockForRead@QReadWriteLock@@QAE_NXZ
       4413 113C 00011860 ?tryLockForWrite@QReadWriteLock@@QAE_NH@Z
       4414 113D 00011780 ?tryLockForWrite@QReadWriteLock@@QAE_NXZ
       4415 113E 0000CD40 ?tryStart@QThreadPool@@QAE_NPAVQRunnable@@@Z
       4416 113F 00009230 ?type@QEvent@@QBE?AW4Type@1@XZ
       4417 1140 000DAFB0 ?type@QMetaProperty@@QBE?AW4Type@QVariant@@XZ
       4418 1141 000DD580 ?type@QMetaType@@SAHPBD@Z
       4419 1142 000CCDB0 ?type@QSocketNotifier@@QBE?AW4Type@1@XZ
       4420 1143 00037680 ?type@QTextBoundaryFinder@@QBE?AW4BoundaryType@1@XZ
       4421 1144 000EB360 ?type@QVariant@@QBE?AW4Type@1@XZ
       4422 1145 000D98F0 ?typeName@QMetaMethod@@QBEPBDXZ
       4423 1146 000D9EA0 ?typeName@QMetaProperty@@QBEPBDXZ
       4424 1147 000DD330 ?typeName@QMetaType@@SAPBDH@Z
       4425 1148 000ED2F0 ?typeName@QVariant@@QBEPBDXZ
       4426 1149 000EB3D0 ?typeToName@QVariant@@SAPBDW4Type@1@@Z
       4427 114A 001114E0 ?ucs2@QString@@QBEPBGXZ
       4428 114B 00089C90 ?ungetChar@QIODevice@@QAEXD@Z
       4429 114C 0007AEB0 ?ungetChar@QRingBuffer@@QAEXD@Z
       4430 114D 00113300 ?ungetch@QIODevice@@QAEHH@Z
       4431 114E 00043B70 ?unicode@QChar@@QAEAAGXZ
       4432 114F 00016AF0 ?unicode@QChar@@QBE?BGXZ
       4433 1150 0003E780 ?unicode@QCharRef@@QAEAAGXZ
       4434 1151 00111C90 ?unicode@QCharRef@@QBE?BGXZ
       4435 1152 00016B80 ?unicode@QString@@QBEPBVQChar@@XZ
       4436 1153 00112A10 ?unicode@QStringRef@@QBEPBVQChar@@XZ
       4437 1154 0004EFF0 ?unicodeVersion@QChar@@QBE?AW4UnicodeVersion@1@XZ
       4438 1155 0004F050 ?unicodeVersion@QChar@@SA?AW4UnicodeVersion@1@G@Z
       4439 1156 0004F030 ?unicodeVersion@QChar@@SA?AW4UnicodeVersion@1@I@Z
       4440 1157 00111C30 ?unicodeVersion@QCharRef@@QBE?AW4UnicodeVersion@QChar@@XZ
       4441 1158 00037CA0 ?unitVector@QLineF@@QBE?AV1@XZ
       4442 1159 00045940 ?unite@QRect@@QBE?AV1@ABV1@@Z
       4443 115A 000459E0 ?unite@QRectF@@QBE?AV1@ABV1@@Z
       4444 115B 00045940 ?united@QRect@@QBE?AV1@ABV1@@Z
       4445 115C 000459E0 ?united@QRectF@@QBE?AV1@ABV1@@Z
       4446 115D 0010FFB0 ?unixSignal@QCoreApplication@@IAEXH@Z
       4447 115E 000C9750 ?unload@QLibrary@@QAE_NXZ
       4448 115F 000C60D0 ?unload@QPluginLoader@@QAE_NXZ
       4449 1160 00111D90 ?unlock@QCoreApplication@@QAEX_N@Z
       4450 1161 00011670 ?unlock@QMutex@@QAEXXZ
       4451 1162 00002F10 ?unlock@QMutexLocker@@QAEXXZ
       4452 1163 00001D60 ?unlock@QReadLocker@@QAEXXZ
       4453 1164 00012270 ?unlock@QReadWriteLock@@QAEXXZ
       4454 1165 000F2180 ?unlock@QSharedMemory@@QAE_NXZ
       4455 1166 00001D60 ?unlock@QWriteLocker@@QAEXXZ
       4456 1167 00078B70 ?unmap@QAbstractFileEngine@@QAE_NPAE@Z
       4457 1168 00085170 ?unmap@QFile@@QAE_NPAE@Z
       4458 1169 0000E5C0 ?unregisterCallback@QInternal@@SA_NW4Callback@1@P6A_NPAPAX@Z@Z
       4459 116A 000F4CA0 ?unregisterEventNotifier@QEventDispatcherWin32@@QAEXPAVQWinEventNotifier@@@Z
       4460 116B 00093FC0 ?unregisterResource@QResource@@SA_NABVQString@@0@Z
       4461 116C 000944E0 ?unregisterResource@QResource@@SA_NPBEABVQString@@@Z
       4462 116D 000F4260 ?unregisterSocketNotifier@QEventDispatcherWin32@@UAEXPAVQSocketNotifier@@@Z
       4463 116E 000F48B0 ?unregisterTimer@QEventDispatcherWin32@@UAE_NH@Z
       4464 116F 000F4960 ?unregisterTimers@QEventDispatcherWin32@@UAE_NPAVQObject@@@Z
       4465 1170 000DEC80 ?unregisterType@QMetaType@@SAXPBD@Z
       4466 1171 0003F0E0 ?unsLongLongToString@QLocalePrivate@@QBE?AVQString@@_KHHHI@Z
       4467 1172 0007B890 ?unsetDevice@QDataStream@@QAEXXZ
       4468 1173 000013A0 ?unsetDevice@QTextStream@@QAEXXZ
       4469 1174 00084A30 ?unsetError@QFile@@QAEXXZ
       4470 1175 00001330 ?unsetf@QTextStream@@QAEHH@Z
       4471 1176 000C77A0 ?update@QFactoryLoader@@QAEXXZ
       4472 1177 00009BF0 ?updateInsertIndex@ResultStoreBase@QtConcurrent@@IAEHHH@Z
       4473 1178 0005B530 ?updateInterval@QTimeLine@@QBEHXZ
       4474 1179 00050700 ?updateProperties@QString@@ABEXXZ
       4475 117A 000404F0 ?updateSystemPrivate@QLocalePrivate@@SAXXZ
       4476 117B 00113940 ?upper@QByteArray@@QBE?AV1@XZ
       4477 117C 00110AC0 ?upper@QChar@@QBE?AV1@XZ
       4478 117D 00111CF0 ?upper@QCharRef@@QBE?AVQChar@@XZ
       4479 117E 001142E0 ?upper@QString@@QBE?AV1@XZ
       4480 117F 0008E3B0 ?uppercasebase@@YAAAVQTextStream@@AAV1@@Z
       4481 1180 0008E3C0 ?uppercasedigits@@YAAAVQTextStream@@AAV1@@Z
       4482 1181 000E05A0 ?urls@QMimeData@@QBE?AV?$QList@VQUrl@@@@XZ
       4483 1182 0009E4E0 ?user@QUrl@@QBE?AVQString@@XZ
       4484 1183 000E1A00 ?userData@QObject@@QBEPAVQObjectUserData@@I@Z
       4485 1184 0009DA50 ?userInfo@QUrl@@QBE?AVQString@@XZ
       4486 1185 0009DA90 ?userName@QUrl@@QBE?AVQString@@XZ
       4487 1186 000DAAE0 ?userProperty@QMetaObject@@QBE?AVQMetaProperty@@XZ
       4488 1187 000DB090 ?userType@QMetaProperty@@QBEHXZ
       4489 1188 000EB380 ?userType@QVariant@@QBEHXZ
       4490 1189 000142B0 ?usleep@QThread@@KAXK@Z
       4491 118A 0001E500 ?utcOffset@QDateTime@@QBEHXZ
       4492 118B 00052A00 ?utf16@QString@@QBEPBGXZ
       4493 118C 001112B0 ?utf8@QString@@QBE?AVQByteArray@@XZ
       4494 118D 0003E3D0 ?validateChars@QLocalePrivate@@QBE_NABVQString@@W4NumberMode@1@PAVQByteArray@@H@Z
       4495 118E 00002A30 ?value@?$QVector@VQPoint@@@@QBE?AVQPoint@@H@Z
       4496 118F 00002A00 ?value@?$QVector@VQPoint@@@@QBE?AVQPoint@@HABV2@@Z
       4497 1190 00002840 ?value@?$QVector@VQPointF@@@@QBE?AVQPointF@@H@Z
       4498 1191 00002800 ?value@?$QVector@VQPointF@@@@QBE?AVQPointF@@HABV2@@Z
       4499 1192 00101D60 ?value@?$QVector@VQXmlStreamAttribute@@@@QBE?AVQXmlStreamAttribute@@H@Z
       4500 1193 00101D10 ?value@?$QVector@VQXmlStreamAttribute@@@@QBE?AVQXmlStreamAttribute@@HABV2@@Z
       4501 1194 000DA1D0 ?value@QMetaClassInfo@@QBEPBDXZ
       4502 1195 000D99F0 ?value@QMetaEnum@@QBEHH@Z
       4503 1196 000A7F00 ?value@QSettings@@QBE?AVQVariant@@ABVQString@@ABV2@@Z
       4504 1197 000FEBD0 ?value@QXmlStreamAttribute@@QBE?AVQStringRef@@XZ
       4505 1198 00100AE0 ?value@QXmlStreamAttributes@@QBE?AVQStringRef@@ABVQLatin1String@@0@Z
       4506 1199 00100C30 ?value@QXmlStreamAttributes@@QBE?AVQStringRef@@ABVQLatin1String@@@Z
       4507 119A 00100940 ?value@QXmlStreamAttributes@@QBE?AVQStringRef@@ABVQString@@0@Z
       4508 119B 00100BB0 ?value@QXmlStreamAttributes@@QBE?AVQStringRef@@ABVQString@@@Z
       4509 119C 00100A10 ?value@QXmlStreamAttributes@@QBE?AVQStringRef@@ABVQString@@ABVQLatin1String@@@Z
       4510 119D 000FEEF0 ?value@QXmlStreamEntityDeclaration@@QBE?AVQStringRef@@XZ
       4511 119E 0010E9B0 ?valueChanged@QTimeLine@@IAEXN@Z
       4512 119F 0005BA00 ?valueForTime@QTimeLine@@UBENH@Z
       4513 11A0 000D9BC0 ?valueToKey@QMetaEnum@@QBEPBDH@Z
       4514 11A1 000D9C20 ?valueToKeys@QMetaEnum@@QBE?AVQByteArray@@H@Z
       4515 11A2 000C8B70 ?variant@QUuid@@QBE?AW4Variant@1@XZ
       4516 11A3 00001CA0 ?vectorIndex@ResultIteratorBase@QtConcurrent@@QBEHXZ
       4517 11A4 00017100 ?version@QDataStream@@QBEHXZ
       4518 11A5 000C8BF0 ?version@QUuid@@QBE?AW4Version@1@XZ
       4519 11A6 00058620 ?vsprintf@QString@@QAEAAV1@PBDPAD@Z
       4520 11A7 00014620 ?wait@QThread@@QAE_NK@Z
       4521 11A8 000157C0 ?wait@QWaitCondition@@QAE_NPAVQMutex@@K@Z
       4522 11A9 00015840 ?wait@QWaitCondition@@QAE_NPAVQReadWriteLock@@K@Z
       4523 11AA 00092C10 ?waitForBytesWritten@QIODevice@@UAE_NH@Z
       4524 11AB 0008BD90 ?waitForBytesWritten@QProcess@@UAE_NH@Z
       4525 11AC 0000CF10 ?waitForDone@QThreadPool@@QAEXXZ
       4526 11AD 00003FE0 ?waitForFinished@QFutureInterfaceBase@@QAEXXZ
       4527 11AE 00009140 ?waitForFinished@QFutureWatcherBase@@QAEXXZ
       4528 11AF 0008BE10 ?waitForFinished@QProcess@@QAE_NH@Z
       4529 11B0 00003BB0 ?waitForNextResult@QFutureInterfaceBase@@QAE_NXZ
       4530 11B1 00092C10 ?waitForReadyRead@QIODevice@@UAE_NH@Z
       4531 11B2 0008B230 ?waitForReadyRead@QProcess@@UAE_NH@Z
       4532 11B3 00003EB0 ?waitForResult@QFutureInterfaceBase@@QAEXH@Z
       4533 11B4 00003C40 ?waitForResume@QFutureInterfaceBase@@QAEXXZ
       4534 11B5 0008BD30 ?waitForStarted@QProcess@@QAE_NH@Z
       4535 11B6 000C5990 ?waitForWrite@QWindowsPipeWriter@@QAE_NH@Z
       4536 11B7 00015360 ?wakeAll@QWaitCondition@@QAEXXZ
       4537 11B8 000152E0 ?wakeOne@QWaitCondition@@QAEXXZ
       4538 11B9 000F3240 ?wakeUp@QEventDispatcherWin32@@UAEXXZ
       4539 11BA 000D45C0 ?wakeUp@QEventLoop@@QAEXXZ
       4540 11BB 00020580 ?weekNumber@QDate@@QBEHPAH@Z
       4541 11BC 00043DA0 ?width@QRect@@QBEHXZ
       4542 11BD 00037840 ?width@QRectF@@QBENXZ
       4543 11BE 00037680 ?width@QSize@@QBEHXZ
       4544 11BF 00001740 ?width@QSizeF@@QBENXZ
       4545 11C0 00001360 ?width@QTextStream@@QAEHH@Z
       4546 11C1 00113600 ?wildcard@QRegExp@@QBE_NXZ
       4547 11C2 00001260 ?willGrow@QHashData@@QAE_NXZ
       4548 11C3 00092BD0 ?winEventFilter@QCoreApplication@@UAE_NPAUtagMSG@@PAJ@Z
       4549 11C4 000F2F80 ?winGetMessage@@YA_NPAUtagMSG@@PAUHWND__@@II@Z
       4550 11C5 000F2E30 ?winPeekMessage@@YA_NPAUtagMSG@@PAUHWND__@@III@Z
       4551 11C6 000F2EE0 ?winPostMessage@@YA_NPAUHWND__@@IIJ@Z
       4552 11C7 0000D860 ?windowsVersion@QSysInfo@@SA?AW4WinVersion@1@XZ
       4553 11C8 0008B8B0 ?workingDirectory@QProcess@@QBE?AVQString@@XZ
       4554 11C9 00078BB0 ?write@QAbstractFileEngine@@UAE_JPBD_J@Z
       4555 11CA 000AF1E0 ?write@QFSFileEngine@@UAE_JPBD_J@Z
       4556 11CB 0007A220 ?write@QIODevice@@QAE_JABVQByteArray@@@Z
       4557 11CC 00089A30 ?write@QIODevice@@QAE_JPBD_J@Z
       4558 11CD 000DC000 ?write@QMetaProperty@@QBE_NPAVQObject@@ABVQVariant@@@Z
       4559 11CE 000C5AA0 ?write@QWindowsPipeWriter@@QAE_JPBD_J@Z
       4560 11CF 00104C90 ?writeAttribute@QXmlStreamWriter@@QAEXABVQString@@00@Z
       4561 11D0 001013F0 ?writeAttribute@QXmlStreamWriter@@QAEXABVQString@@0@Z
       4562 11D1 00104D10 ?writeAttribute@QXmlStreamWriter@@QAEXABVQXmlStreamAttribute@@@Z
       4563 11D2 00104EF0 ?writeAttributes@QXmlStreamWriter@@QAEXABVQXmlStreamAttributes@@@Z
       4564 11D3 0007A220 ?writeBlock@QIODevice@@QAE_JABVQByteArray@@@Z
       4565 11D4 001132A0 ?writeBlock@QIODevice@@QAE_JPBD_K@Z
       4566 11D5 0007C420 ?writeBytes@QDataStream@@QAEAAV1@PBDI@Z
       4567 11D6 00101440 ?writeCDATA@QXmlStreamWriter@@QAEXABVQString@@@Z
       4568 11D7 00101570 ?writeCharacters@QXmlStreamWriter@@QAEXABVQString@@@Z
       4569 11D8 00101590 ?writeComment@QXmlStreamWriter@@QAEXABVQString@@@Z
       4570 11D9 00108D30 ?writeCurrentToken@QXmlStreamWriter@@QAEXABVQXmlStreamReader@@@Z
       4571 11DA 001015E0 ?writeDTD@QXmlStreamWriter@@QAEXABVQString@@@Z
       4572 11DB 0007A640 ?writeData@QBuffer@@MAE_JPBD_J@Z
       4573 11DC 00085C90 ?writeData@QFile@@MAE_JPBD_J@Z
       4574 11DD 0008CF00 ?writeData@QProcess@@MAE_JPBD_J@Z
       4575 11DE 00104FD0 ?writeDefaultNamespace@QXmlStreamWriter@@QAEXABVQString@@@Z
       4576 11DF 00105E70 ?writeEmptyElement@QXmlStreamWriter@@QAEXABVQString@@0@Z
       4577 11E0 00105DE0 ?writeEmptyElement@QXmlStreamWriter@@QAEXABVQString@@@Z
       4578 11E1 001034C0 ?writeEndDocument@QXmlStreamWriter@@QAEXXZ
       4579 11E2 00101620 ?writeEndElement@QXmlStreamWriter@@QAEXXZ
       4580 11E3 001016E0 ?writeEntityReference@QXmlStreamWriter@@QAEXABVQString@@@Z
       4581 11E4 0000E9E0 ?writeEntry@QSettings@@QAE_NABVQString@@0@Z
       4582 11E5 0000EA60 ?writeEntry@QSettings@@QAE_NABVQString@@ABVQStringList@@@Z
       4583 11E6 0000F880 ?writeEntry@QSettings@@QAE_NABVQString@@ABVQStringList@@VQChar@@@Z
       4584 11E7 0000E960 ?writeEntry@QSettings@@QAE_NABVQString@@H@Z
       4585 11E8 0000E8E0 ?writeEntry@QSettings@@QAE_NABVQString@@N@Z
       4586 11E9 0000F7D0 ?writeEntry@QSettings@@QAE_NABVQString@@PBD@Z
       4587 11EA 0000E860 ?writeEntry@QSettings@@QAE_NABVQString@@_N@Z
       4588 11EB 00104F30 ?writeNamespace@QXmlStreamWriter@@QAEXABVQString@@0@Z
       4589 11EC 00101720 ?writeProcessingInstruction@QXmlStreamWriter@@QAEXABVQString@@0@Z
       4590 11ED 00113360 ?writeRawBytes@QDataStream@@QAEAAV1@PBDI@Z
       4591 11EE 0007BE30 ?writeRawData@QDataStream@@QAEHPBDH@Z
       4592 11EF 00101780 ?writeStartDocument@QXmlStreamWriter@@QAEXABVQString@@@Z
       4593 11F0 001034F0 ?writeStartDocument@QXmlStreamWriter@@QAEXXZ
       4594 11F1 00105F20 ?writeStartElement@QXmlStreamWriter@@QAEXABVQString@@0@Z
       4595 11F2 00105E90 ?writeStartElement@QXmlStreamWriter@@QAEXABVQString@@@Z
       4596 11F3 00106D80 ?writeTextElement@QXmlStreamWriter@@QAEXABVQString@@00@Z
       4597 11F4 00106D40 ?writeTextElement@QXmlStreamWriter@@QAEXABVQString@@0@Z
       4598 11F5 00091470 ?ws@@YAAAVQTextStream@@AAV1@@Z
       4599 11F6 00037680 ?x1@QLine@@QBEHXZ
       4600 11F7 00001740 ?x1@QLineF@@QBENXZ
       4601 11F8 0008AF30 ?x2@QLine@@QBEHXZ
       4602 11F9 00037840 ?x2@QLineF@@QBENXZ
       4603 11FA 00037680 ?x@QPoint@@QBEHXZ
       4604 11FB 00001740 ?x@QPointF@@QBENXZ
       4605 11FC 00037680 ?x@QRect@@QBEHXZ
       4606 11FD 00001740 ?x@QRectF@@QBENXZ
       4607 11FE 00001CA0 ?y1@QLine@@QBEHXZ
       4608 11FF 00044390 ?y1@QLineF@@QBENXZ
       4609 1200 000CCDB0 ?y2@QLine@@QBEHXZ
       4610 1201 00037850 ?y2@QLineF@@QBENXZ
       4611 1202 00001CA0 ?y@QPoint@@QBEHXZ
       4612 1203 00044390 ?y@QPointF@@QBENXZ
       4613 1204 00001CA0 ?y@QRect@@QBEHXZ
       4614 1205 00044390 ?y@QRectF@@QBENXZ
       4615 1206 0001DEB0 ?year@QDate@@QBEHXZ
       4616 1207 00017320 ?zero@QLocalePrivate@@QBE?AVQChar@@XZ
       4617 1208 0003DF20 ?zeroDigit@QLocale@@QBE?AVQChar@@XZ
       4618 1209 0005BF50 adler32
       4619 120A 0005C280 compress
       4620 120B 0005C1D0 compress2
       4621 120C 0005C550 crc32
       4622 120D 0005C6F0 deflate
       4623 120E 0005CFB0 deflateCopy
       4624 120F 0005CED0 deflateEnd
       4625 1210 0005E0C0 deflateInit2_
       4626 1211 0005E2E0 deflateInit_
       4627 1212 0005DFF0 deflateParams
       4628 1213 0005DF60 deflateReset
       4629 1214 0005C570 deflateSetDictionary
       4630 1215 0005C2A0 get_crc_table
       4631 1216 0005E9D0 gzclose
       4632 1217 0005EE20 gzdopen
       4633 1218 0005E930 gzeof
       4634 1219 0005EA20 gzerror
       4635 121A 0005E880 gzflush
       4636 121B 0005F0E0 gzgetc
       4637 121C 0005F110 gzgets
       4638 121D 0005EE00 gzopen
       4639 121E 0005E6C0 gzprintf
       4640 121F 0005E760 gzputc
       4641 1220 0005E790 gzputs
       4642 1221 0005EE80 gzread
       4643 1222 0005E8C0 gzrewind
       4644 1223 0005F170 gzseek
       4645 1224 0005E310 gzsetparams
       4646 1225 0005F300 gztell
       4647 1226 0005E600 gzwrite
       4648 1227 0005FA20 inflate
       4649 1228 00061020 inflateEnd
       4650 1229 0005F840 inflateInit2_
       4651 122A 0005F910 inflateInit_
       4652 122B 0005F7E0 inflateReset
       4653 122C 00061070 inflateSetDictionary
       4654 122D 000611B0 inflateSync
       4655 122E 00061290 inflateSyncPoint
       4656 122F 00037060 qDumpObjectData
       4657 1230 000E4EC0 qt_addObject
       4658 1231 000E4F70 qt_allTopLevelWidgets
       4659 1232 000E4F20 qt_removeObject
       4660 1233 000D8AA0 qt_startup_hook
       4661 1234 00063250 uncompress
       4662 1235 00063310 zError
       4663 1236 00063300 zlibVersion

  Summary

        4000 .data
       AB000 .rdata
        F000 .reloc
        1000 .rsrc
      130000 .text
